
Test.elf:     file format elf32-littlearm

Sections:
Idx Name          Size      VMA       LMA       File off  Algn
  0 .isr_vector   000000c0  08000000  08000000  00010000  2**0
                  CONTENTS, ALLOC, LOAD, READONLY, DATA
  1 .text         00001098  080000c0  080000c0  000100c0  2**2
                  CONTENTS, ALLOC, LOAD, READONLY, CODE
  2 .rodata       0000001c  08001158  08001158  00011158  2**2
                  CONTENTS, ALLOC, LOAD, READONLY, DATA
  3 .ARM.extab    00000000  08001174  08001174  00020004  2**0
                  CONTENTS
  4 .ARM          00000000  08001174  08001174  00020004  2**0
                  CONTENTS
  5 .preinit_array 00000000  08001174  08001174  00020004  2**0
                  CONTENTS, ALLOC, LOAD, DATA
  6 .init_array   00000004  08001174  08001174  00011174  2**2
                  CONTENTS, ALLOC, LOAD, DATA
  7 .fini_array   00000004  08001178  08001178  00011178  2**2
                  CONTENTS, ALLOC, LOAD, DATA
  8 .data         00000004  20000000  0800117c  00020000  2**2
                  CONTENTS, ALLOC, LOAD, DATA
  9 .bss          00000020  20000004  08001180  00020004  2**2
                  ALLOC
 10 ._user_heap_stack 00000604  20000024  08001180  00020024  2**0
                  ALLOC
 11 .ARM.attributes 00000028  00000000  00000000  00020004  2**0
                  CONTENTS, READONLY
 12 .debug_info   000022d5  00000000  00000000  0002002c  2**0
                  CONTENTS, READONLY, DEBUGGING
 13 .debug_abbrev 00000a40  00000000  00000000  00022301  2**0
                  CONTENTS, READONLY, DEBUGGING
 14 .debug_aranges 00000308  00000000  00000000  00022d48  2**3
                  CONTENTS, READONLY, DEBUGGING
 15 .debug_ranges 00000290  00000000  00000000  00023050  2**3
                  CONTENTS, READONLY, DEBUGGING
 16 .debug_macro  0000ec25  00000000  00000000  000232e0  2**0
                  CONTENTS, READONLY, DEBUGGING
 17 .debug_line   0000343f  00000000  00000000  00031f05  2**0
                  CONTENTS, READONLY, DEBUGGING
 18 .debug_str    0005a12e  00000000  00000000  00035344  2**0
                  CONTENTS, READONLY, DEBUGGING
 19 .comment      0000007b  00000000  00000000  0008f472  2**0
                  CONTENTS, READONLY
 20 .debug_frame  00000930  00000000  00000000  0008f4f0  2**2
                  CONTENTS, READONLY, DEBUGGING

Disassembly of section .text:

080000c0 <__do_global_dtors_aux>:
 80000c0:	b510      	push	{r4, lr}
 80000c2:	4c06      	ldr	r4, [pc, #24]	; (80000dc <__do_global_dtors_aux+0x1c>)
 80000c4:	7823      	ldrb	r3, [r4, #0]
 80000c6:	2b00      	cmp	r3, #0
 80000c8:	d107      	bne.n	80000da <__do_global_dtors_aux+0x1a>
 80000ca:	4b05      	ldr	r3, [pc, #20]	; (80000e0 <__do_global_dtors_aux+0x20>)
 80000cc:	2b00      	cmp	r3, #0
 80000ce:	d002      	beq.n	80000d6 <__do_global_dtors_aux+0x16>
 80000d0:	4804      	ldr	r0, [pc, #16]	; (80000e4 <__do_global_dtors_aux+0x24>)
 80000d2:	e000      	b.n	80000d6 <__do_global_dtors_aux+0x16>
 80000d4:	bf00      	nop
 80000d6:	2301      	movs	r3, #1
 80000d8:	7023      	strb	r3, [r4, #0]
 80000da:	bd10      	pop	{r4, pc}
 80000dc:	20000004 	.word	0x20000004
 80000e0:	00000000 	.word	0x00000000
 80000e4:	08001140 	.word	0x08001140

080000e8 <frame_dummy>:
 80000e8:	4b04      	ldr	r3, [pc, #16]	; (80000fc <frame_dummy+0x14>)
 80000ea:	b510      	push	{r4, lr}
 80000ec:	2b00      	cmp	r3, #0
 80000ee:	d003      	beq.n	80000f8 <frame_dummy+0x10>
 80000f0:	4903      	ldr	r1, [pc, #12]	; (8000100 <frame_dummy+0x18>)
 80000f2:	4804      	ldr	r0, [pc, #16]	; (8000104 <frame_dummy+0x1c>)
 80000f4:	e000      	b.n	80000f8 <frame_dummy+0x10>
 80000f6:	bf00      	nop
 80000f8:	bd10      	pop	{r4, pc}
 80000fa:	46c0      	nop			; (mov r8, r8)
 80000fc:	00000000 	.word	0x00000000
 8000100:	20000008 	.word	0x20000008
 8000104:	08001140 	.word	0x08001140

08000108 <__udivsi3>:
 8000108:	2200      	movs	r2, #0
 800010a:	0843      	lsrs	r3, r0, #1
 800010c:	428b      	cmp	r3, r1
 800010e:	d374      	bcc.n	80001fa <__udivsi3+0xf2>
 8000110:	0903      	lsrs	r3, r0, #4
 8000112:	428b      	cmp	r3, r1
 8000114:	d35f      	bcc.n	80001d6 <__udivsi3+0xce>
 8000116:	0a03      	lsrs	r3, r0, #8
 8000118:	428b      	cmp	r3, r1
 800011a:	d344      	bcc.n	80001a6 <__udivsi3+0x9e>
 800011c:	0b03      	lsrs	r3, r0, #12
 800011e:	428b      	cmp	r3, r1
 8000120:	d328      	bcc.n	8000174 <__udivsi3+0x6c>
 8000122:	0c03      	lsrs	r3, r0, #16
 8000124:	428b      	cmp	r3, r1
 8000126:	d30d      	bcc.n	8000144 <__udivsi3+0x3c>
 8000128:	22ff      	movs	r2, #255	; 0xff
 800012a:	0209      	lsls	r1, r1, #8
 800012c:	ba12      	rev	r2, r2
 800012e:	0c03      	lsrs	r3, r0, #16
 8000130:	428b      	cmp	r3, r1
 8000132:	d302      	bcc.n	800013a <__udivsi3+0x32>
 8000134:	1212      	asrs	r2, r2, #8
 8000136:	0209      	lsls	r1, r1, #8
 8000138:	d065      	beq.n	8000206 <__udivsi3+0xfe>
 800013a:	0b03      	lsrs	r3, r0, #12
 800013c:	428b      	cmp	r3, r1
 800013e:	d319      	bcc.n	8000174 <__udivsi3+0x6c>
 8000140:	e000      	b.n	8000144 <__udivsi3+0x3c>
 8000142:	0a09      	lsrs	r1, r1, #8
 8000144:	0bc3      	lsrs	r3, r0, #15
 8000146:	428b      	cmp	r3, r1
 8000148:	d301      	bcc.n	800014e <__udivsi3+0x46>
 800014a:	03cb      	lsls	r3, r1, #15
 800014c:	1ac0      	subs	r0, r0, r3
 800014e:	4152      	adcs	r2, r2
 8000150:	0b83      	lsrs	r3, r0, #14
 8000152:	428b      	cmp	r3, r1
 8000154:	d301      	bcc.n	800015a <__udivsi3+0x52>
 8000156:	038b      	lsls	r3, r1, #14
 8000158:	1ac0      	subs	r0, r0, r3
 800015a:	4152      	adcs	r2, r2
 800015c:	0b43      	lsrs	r3, r0, #13
 800015e:	428b      	cmp	r3, r1
 8000160:	d301      	bcc.n	8000166 <__udivsi3+0x5e>
 8000162:	034b      	lsls	r3, r1, #13
 8000164:	1ac0      	subs	r0, r0, r3
 8000166:	4152      	adcs	r2, r2
 8000168:	0b03      	lsrs	r3, r0, #12
 800016a:	428b      	cmp	r3, r1
 800016c:	d301      	bcc.n	8000172 <__udivsi3+0x6a>
 800016e:	030b      	lsls	r3, r1, #12
 8000170:	1ac0      	subs	r0, r0, r3
 8000172:	4152      	adcs	r2, r2
 8000174:	0ac3      	lsrs	r3, r0, #11
 8000176:	428b      	cmp	r3, r1
 8000178:	d301      	bcc.n	800017e <__udivsi3+0x76>
 800017a:	02cb      	lsls	r3, r1, #11
 800017c:	1ac0      	subs	r0, r0, r3
 800017e:	4152      	adcs	r2, r2
 8000180:	0a83      	lsrs	r3, r0, #10
 8000182:	428b      	cmp	r3, r1
 8000184:	d301      	bcc.n	800018a <__udivsi3+0x82>
 8000186:	028b      	lsls	r3, r1, #10
 8000188:	1ac0      	subs	r0, r0, r3
 800018a:	4152      	adcs	r2, r2
 800018c:	0a43      	lsrs	r3, r0, #9
 800018e:	428b      	cmp	r3, r1
 8000190:	d301      	bcc.n	8000196 <__udivsi3+0x8e>
 8000192:	024b      	lsls	r3, r1, #9
 8000194:	1ac0      	subs	r0, r0, r3
 8000196:	4152      	adcs	r2, r2
 8000198:	0a03      	lsrs	r3, r0, #8
 800019a:	428b      	cmp	r3, r1
 800019c:	d301      	bcc.n	80001a2 <__udivsi3+0x9a>
 800019e:	020b      	lsls	r3, r1, #8
 80001a0:	1ac0      	subs	r0, r0, r3
 80001a2:	4152      	adcs	r2, r2
 80001a4:	d2cd      	bcs.n	8000142 <__udivsi3+0x3a>
 80001a6:	09c3      	lsrs	r3, r0, #7
 80001a8:	428b      	cmp	r3, r1
 80001aa:	d301      	bcc.n	80001b0 <__udivsi3+0xa8>
 80001ac:	01cb      	lsls	r3, r1, #7
 80001ae:	1ac0      	subs	r0, r0, r3
 80001b0:	4152      	adcs	r2, r2
 80001b2:	0983      	lsrs	r3, r0, #6
 80001b4:	428b      	cmp	r3, r1
 80001b6:	d301      	bcc.n	80001bc <__udivsi3+0xb4>
 80001b8:	018b      	lsls	r3, r1, #6
 80001ba:	1ac0      	subs	r0, r0, r3
 80001bc:	4152      	adcs	r2, r2
 80001be:	0943      	lsrs	r3, r0, #5
 80001c0:	428b      	cmp	r3, r1
 80001c2:	d301      	bcc.n	80001c8 <__udivsi3+0xc0>
 80001c4:	014b      	lsls	r3, r1, #5
 80001c6:	1ac0      	subs	r0, r0, r3
 80001c8:	4152      	adcs	r2, r2
 80001ca:	0903      	lsrs	r3, r0, #4
 80001cc:	428b      	cmp	r3, r1
 80001ce:	d301      	bcc.n	80001d4 <__udivsi3+0xcc>
 80001d0:	010b      	lsls	r3, r1, #4
 80001d2:	1ac0      	subs	r0, r0, r3
 80001d4:	4152      	adcs	r2, r2
 80001d6:	08c3      	lsrs	r3, r0, #3
 80001d8:	428b      	cmp	r3, r1
 80001da:	d301      	bcc.n	80001e0 <__udivsi3+0xd8>
 80001dc:	00cb      	lsls	r3, r1, #3
 80001de:	1ac0      	subs	r0, r0, r3
 80001e0:	4152      	adcs	r2, r2
 80001e2:	0883      	lsrs	r3, r0, #2
 80001e4:	428b      	cmp	r3, r1
 80001e6:	d301      	bcc.n	80001ec <__udivsi3+0xe4>
 80001e8:	008b      	lsls	r3, r1, #2
 80001ea:	1ac0      	subs	r0, r0, r3
 80001ec:	4152      	adcs	r2, r2
 80001ee:	0843      	lsrs	r3, r0, #1
 80001f0:	428b      	cmp	r3, r1
 80001f2:	d301      	bcc.n	80001f8 <__udivsi3+0xf0>
 80001f4:	004b      	lsls	r3, r1, #1
 80001f6:	1ac0      	subs	r0, r0, r3
 80001f8:	4152      	adcs	r2, r2
 80001fa:	1a41      	subs	r1, r0, r1
 80001fc:	d200      	bcs.n	8000200 <__udivsi3+0xf8>
 80001fe:	4601      	mov	r1, r0
 8000200:	4152      	adcs	r2, r2
 8000202:	4610      	mov	r0, r2
 8000204:	4770      	bx	lr
 8000206:	e7ff      	b.n	8000208 <__udivsi3+0x100>
 8000208:	b501      	push	{r0, lr}
 800020a:	2000      	movs	r0, #0
 800020c:	f000 f806 	bl	800021c <__aeabi_idiv0>
 8000210:	bd02      	pop	{r1, pc}
 8000212:	46c0      	nop			; (mov r8, r8)

08000214 <__aeabi_uidivmod>:
 8000214:	2900      	cmp	r1, #0
 8000216:	d0f7      	beq.n	8000208 <__udivsi3+0x100>
 8000218:	e776      	b.n	8000108 <__udivsi3>
 800021a:	4770      	bx	lr

0800021c <__aeabi_idiv0>:
 800021c:	4770      	bx	lr
 800021e:	46c0      	nop			; (mov r8, r8)

08000220 <main>:
/**
  * @brief  The application entry point.
  * @retval int
  */
int main(void)
{
 8000220:	b580      	push	{r7, lr}
 8000222:	af00      	add	r7, sp, #0
  /* USER CODE END 1 */

  /* MCU Configuration--------------------------------------------------------*/

  /* Reset of all peripherals, Initializes the Flash interface and the Systick. */
  HAL_Init();
 8000224:	f000 f924 	bl	8000470 <HAL_Init>
  /* USER CODE BEGIN Init */

  /* USER CODE END Init */

  /* Configure the system clock */
  SystemClock_Config();
 8000228:	f000 f804 	bl	8000234 <SystemClock_Config>
  /* USER CODE BEGIN SysInit */

  /* USER CODE END SysInit */

  /* Initialize all configured peripherals */
  MX_GPIO_Init();
 800022c:	f000 f856 	bl	80002dc <MX_GPIO_Init>

  /* USER CODE END 2 */

  /* Infinite loop */
  /* USER CODE BEGIN WHILE */
  while (1)
 8000230:	e7fe      	b.n	8000230 <main+0x10>
	...

08000234 <SystemClock_Config>:
/**
  * @brief System Clock Configuration
  * @retval None
  */
void SystemClock_Config(void)
{
 8000234:	b590      	push	{r4, r7, lr}
 8000236:	b093      	sub	sp, #76	; 0x4c
 8000238:	af00      	add	r7, sp, #0
  RCC_OscInitTypeDef RCC_OscInitStruct = {0};
 800023a:	2414      	movs	r4, #20
 800023c:	193b      	adds	r3, r7, r4
 800023e:	0018      	movs	r0, r3
 8000240:	2334      	movs	r3, #52	; 0x34
 8000242:	001a      	movs	r2, r3
 8000244:	2100      	movs	r1, #0
 8000246:	f000 ff73 	bl	8001130 <memset>
  RCC_ClkInitTypeDef RCC_ClkInitStruct = {0};
 800024a:	003b      	movs	r3, r7
 800024c:	0018      	movs	r0, r3
 800024e:	2314      	movs	r3, #20
 8000250:	001a      	movs	r2, r3
 8000252:	2100      	movs	r1, #0
 8000254:	f000 ff6c 	bl	8001130 <memset>

  /** Configure the main internal regulator output voltage 
  */
  __HAL_PWR_VOLTAGESCALING_CONFIG(PWR_REGULATOR_VOLTAGE_SCALE1);
 8000258:	4b1e      	ldr	r3, [pc, #120]	; (80002d4 <SystemClock_Config+0xa0>)
 800025a:	681b      	ldr	r3, [r3, #0]
 800025c:	4a1e      	ldr	r2, [pc, #120]	; (80002d8 <SystemClock_Config+0xa4>)
 800025e:	401a      	ands	r2, r3
 8000260:	4b1c      	ldr	r3, [pc, #112]	; (80002d4 <SystemClock_Config+0xa0>)
 8000262:	2180      	movs	r1, #128	; 0x80
 8000264:	0109      	lsls	r1, r1, #4
 8000266:	430a      	orrs	r2, r1
 8000268:	601a      	str	r2, [r3, #0]
  /** Initializes the CPU, AHB and APB busses clocks 
  */
  RCC_OscInitStruct.OscillatorType = RCC_OSCILLATORTYPE_MSI;
 800026a:	0021      	movs	r1, r4
 800026c:	187b      	adds	r3, r7, r1
 800026e:	2210      	movs	r2, #16
 8000270:	601a      	str	r2, [r3, #0]
  RCC_OscInitStruct.MSIState = RCC_MSI_ON;
 8000272:	187b      	adds	r3, r7, r1
 8000274:	2201      	movs	r2, #1
 8000276:	619a      	str	r2, [r3, #24]
  RCC_OscInitStruct.MSICalibrationValue = 0;
 8000278:	187b      	adds	r3, r7, r1
 800027a:	2200      	movs	r2, #0
 800027c:	61da      	str	r2, [r3, #28]
  RCC_OscInitStruct.MSIClockRange = RCC_MSIRANGE_5;
 800027e:	187b      	adds	r3, r7, r1
 8000280:	22a0      	movs	r2, #160	; 0xa0
 8000282:	0212      	lsls	r2, r2, #8
 8000284:	621a      	str	r2, [r3, #32]
  RCC_OscInitStruct.PLL.PLLState = RCC_PLL_NONE;
 8000286:	187b      	adds	r3, r7, r1
 8000288:	2200      	movs	r2, #0
 800028a:	625a      	str	r2, [r3, #36]	; 0x24
  if (HAL_RCC_OscConfig(&RCC_OscInitStruct) != HAL_OK)
 800028c:	187b      	adds	r3, r7, r1
 800028e:	0018      	movs	r0, r3
 8000290:	f000 fa02 	bl	8000698 <HAL_RCC_OscConfig>
 8000294:	1e03      	subs	r3, r0, #0
 8000296:	d001      	beq.n	800029c <SystemClock_Config+0x68>
  {
    Error_Handler();
 8000298:	f000 f836 	bl	8000308 <Error_Handler>
  }
  /** Initializes the CPU, AHB and APB busses clocks 
  */
  RCC_ClkInitStruct.ClockType = RCC_CLOCKTYPE_HCLK|RCC_CLOCKTYPE_SYSCLK
 800029c:	003b      	movs	r3, r7
 800029e:	220f      	movs	r2, #15
 80002a0:	601a      	str	r2, [r3, #0]
                              |RCC_CLOCKTYPE_PCLK1|RCC_CLOCKTYPE_PCLK2;
  RCC_ClkInitStruct.SYSCLKSource = RCC_SYSCLKSOURCE_MSI;
 80002a2:	003b      	movs	r3, r7
 80002a4:	2200      	movs	r2, #0
 80002a6:	605a      	str	r2, [r3, #4]
  RCC_ClkInitStruct.AHBCLKDivider = RCC_SYSCLK_DIV1;
 80002a8:	003b      	movs	r3, r7
 80002aa:	2200      	movs	r2, #0
 80002ac:	609a      	str	r2, [r3, #8]
  RCC_ClkInitStruct.APB1CLKDivider = RCC_HCLK_DIV1;
 80002ae:	003b      	movs	r3, r7
 80002b0:	2200      	movs	r2, #0
 80002b2:	60da      	str	r2, [r3, #12]
  RCC_ClkInitStruct.APB2CLKDivider = RCC_HCLK_DIV1;
 80002b4:	003b      	movs	r3, r7
 80002b6:	2200      	movs	r2, #0
 80002b8:	611a      	str	r2, [r3, #16]

  if (HAL_RCC_ClockConfig(&RCC_ClkInitStruct, FLASH_LATENCY_0) != HAL_OK)
 80002ba:	003b      	movs	r3, r7
 80002bc:	2100      	movs	r1, #0
 80002be:	0018      	movs	r0, r3
 80002c0:	f000 fd64 	bl	8000d8c <HAL_RCC_ClockConfig>
 80002c4:	1e03      	subs	r3, r0, #0
 80002c6:	d001      	beq.n	80002cc <SystemClock_Config+0x98>
  {
    Error_Handler();
 80002c8:	f000 f81e 	bl	8000308 <Error_Handler>
  }
}
 80002cc:	46c0      	nop			; (mov r8, r8)
 80002ce:	46bd      	mov	sp, r7
 80002d0:	b013      	add	sp, #76	; 0x4c
 80002d2:	bd90      	pop	{r4, r7, pc}
 80002d4:	40007000 	.word	0x40007000
 80002d8:	ffffe7ff 	.word	0xffffe7ff

080002dc <MX_GPIO_Init>:
  * @brief GPIO Initialization Function
  * @param None
  * @retval None
  */
static void MX_GPIO_Init(void)
{
 80002dc:	b580      	push	{r7, lr}
 80002de:	b082      	sub	sp, #8
 80002e0:	af00      	add	r7, sp, #0

  /* GPIO Ports Clock Enable */
  __HAL_RCC_GPIOA_CLK_ENABLE();
 80002e2:	4b08      	ldr	r3, [pc, #32]	; (8000304 <MX_GPIO_Init+0x28>)
 80002e4:	6ada      	ldr	r2, [r3, #44]	; 0x2c
 80002e6:	4b07      	ldr	r3, [pc, #28]	; (8000304 <MX_GPIO_Init+0x28>)
 80002e8:	2101      	movs	r1, #1
 80002ea:	430a      	orrs	r2, r1
 80002ec:	62da      	str	r2, [r3, #44]	; 0x2c
 80002ee:	4b05      	ldr	r3, [pc, #20]	; (8000304 <MX_GPIO_Init+0x28>)
 80002f0:	6adb      	ldr	r3, [r3, #44]	; 0x2c
 80002f2:	2201      	movs	r2, #1
 80002f4:	4013      	ands	r3, r2
 80002f6:	607b      	str	r3, [r7, #4]
 80002f8:	687b      	ldr	r3, [r7, #4]

}
 80002fa:	46c0      	nop			; (mov r8, r8)
 80002fc:	46bd      	mov	sp, r7
 80002fe:	b002      	add	sp, #8
 8000300:	bd80      	pop	{r7, pc}
 8000302:	46c0      	nop			; (mov r8, r8)
 8000304:	40021000 	.word	0x40021000

08000308 <Error_Handler>:
/**
  * @brief  This function is executed in case of error occurrence.
  * @retval None
  */
void Error_Handler(void)
{
 8000308:	b580      	push	{r7, lr}
 800030a:	af00      	add	r7, sp, #0
  /* USER CODE BEGIN Error_Handler_Debug */
  /* User can add his own implementation to report the HAL error return state */

  /* USER CODE END Error_Handler_Debug */
}
 800030c:	46c0      	nop			; (mov r8, r8)
 800030e:	46bd      	mov	sp, r7
 8000310:	bd80      	pop	{r7, pc}
	...

08000314 <HAL_MspInit>:
/* USER CODE END 0 */
/**
  * Initializes the Global MSP.
  */
void HAL_MspInit(void)
{
 8000314:	b580      	push	{r7, lr}
 8000316:	af00      	add	r7, sp, #0
  /* USER CODE BEGIN MspInit 0 */

  /* USER CODE END MspInit 0 */

  __HAL_RCC_SYSCFG_CLK_ENABLE();
 8000318:	4b07      	ldr	r3, [pc, #28]	; (8000338 <HAL_MspInit+0x24>)
 800031a:	6b5a      	ldr	r2, [r3, #52]	; 0x34
 800031c:	4b06      	ldr	r3, [pc, #24]	; (8000338 <HAL_MspInit+0x24>)
 800031e:	2101      	movs	r1, #1
 8000320:	430a      	orrs	r2, r1
 8000322:	635a      	str	r2, [r3, #52]	; 0x34
  __HAL_RCC_PWR_CLK_ENABLE();
 8000324:	4b04      	ldr	r3, [pc, #16]	; (8000338 <HAL_MspInit+0x24>)
 8000326:	6b9a      	ldr	r2, [r3, #56]	; 0x38
 8000328:	4b03      	ldr	r3, [pc, #12]	; (8000338 <HAL_MspInit+0x24>)
 800032a:	2180      	movs	r1, #128	; 0x80
 800032c:	0549      	lsls	r1, r1, #21
 800032e:	430a      	orrs	r2, r1
 8000330:	639a      	str	r2, [r3, #56]	; 0x38
  /* System interrupt init*/

  /* USER CODE BEGIN MspInit 1 */

  /* USER CODE END MspInit 1 */
}
 8000332:	46c0      	nop			; (mov r8, r8)
 8000334:	46bd      	mov	sp, r7
 8000336:	bd80      	pop	{r7, pc}
 8000338:	40021000 	.word	0x40021000

0800033c <NMI_Handler>:
/******************************************************************************/
/**
  * @brief This function handles Non maskable interrupt.
  */
void NMI_Handler(void)
{
 800033c:	b580      	push	{r7, lr}
 800033e:	af00      	add	r7, sp, #0

  /* USER CODE END NonMaskableInt_IRQn 0 */
  /* USER CODE BEGIN NonMaskableInt_IRQn 1 */

  /* USER CODE END NonMaskableInt_IRQn 1 */
}
 8000340:	46c0      	nop			; (mov r8, r8)
 8000342:	46bd      	mov	sp, r7
 8000344:	bd80      	pop	{r7, pc}

08000346 <HardFault_Handler>:

/**
  * @brief This function handles Hard fault interrupt.
  */
void HardFault_Handler(void)
{
 8000346:	b580      	push	{r7, lr}
 8000348:	af00      	add	r7, sp, #0
  /* USER CODE BEGIN HardFault_IRQn 0 */

  /* USER CODE END HardFault_IRQn 0 */
  while (1)
 800034a:	e7fe      	b.n	800034a <HardFault_Handler+0x4>

0800034c <SVC_Handler>:

/**
  * @brief This function handles System service call via SWI instruction.
  */
void SVC_Handler(void)
{
 800034c:	b580      	push	{r7, lr}
 800034e:	af00      	add	r7, sp, #0

  /* USER CODE END SVC_IRQn 0 */
  /* USER CODE BEGIN SVC_IRQn 1 */

  /* USER CODE END SVC_IRQn 1 */
}
 8000350:	46c0      	nop			; (mov r8, r8)
 8000352:	46bd      	mov	sp, r7
 8000354:	bd80      	pop	{r7, pc}

08000356 <PendSV_Handler>:

/**
  * @brief This function handles Pendable request for system service.
  */
void PendSV_Handler(void)
{
 8000356:	b580      	push	{r7, lr}
 8000358:	af00      	add	r7, sp, #0

  /* USER CODE END PendSV_IRQn 0 */
  /* USER CODE BEGIN PendSV_IRQn 1 */

  /* USER CODE END PendSV_IRQn 1 */
}
 800035a:	46c0      	nop			; (mov r8, r8)
 800035c:	46bd      	mov	sp, r7
 800035e:	bd80      	pop	{r7, pc}

08000360 <SysTick_Handler>:

/**
  * @brief This function handles System tick timer.
  */
void SysTick_Handler(void)
{
 8000360:	b580      	push	{r7, lr}
 8000362:	af00      	add	r7, sp, #0
  /* USER CODE BEGIN SysTick_IRQn 0 */

  /* USER CODE END SysTick_IRQn 0 */
  HAL_IncTick();
 8000364:	f000 f8ce 	bl	8000504 <HAL_IncTick>
  /* USER CODE BEGIN SysTick_IRQn 1 */

  /* USER CODE END SysTick_IRQn 1 */
}
 8000368:	46c0      	nop			; (mov r8, r8)
 800036a:	46bd      	mov	sp, r7
 800036c:	bd80      	pop	{r7, pc}
	...

08000370 <SystemInit>:
  * @brief  Setup the microcontroller system.
  * @param  None
  * @retval None
  */
void SystemInit (void)
{
 8000370:	b580      	push	{r7, lr}
 8000372:	af00      	add	r7, sp, #0
/*!< Set MSION bit */
  RCC->CR |= (uint32_t)0x00000100U;
 8000374:	4b17      	ldr	r3, [pc, #92]	; (80003d4 <SystemInit+0x64>)
 8000376:	681a      	ldr	r2, [r3, #0]
 8000378:	4b16      	ldr	r3, [pc, #88]	; (80003d4 <SystemInit+0x64>)
 800037a:	2180      	movs	r1, #128	; 0x80
 800037c:	0049      	lsls	r1, r1, #1
 800037e:	430a      	orrs	r2, r1
 8000380:	601a      	str	r2, [r3, #0]

  /*!< Reset SW[1:0], HPRE[3:0], PPRE1[2:0], PPRE2[2:0], MCOSEL[2:0] and MCOPRE[2:0] bits */
  RCC->CFGR &= (uint32_t) 0x88FF400CU;
 8000382:	4b14      	ldr	r3, [pc, #80]	; (80003d4 <SystemInit+0x64>)
 8000384:	68da      	ldr	r2, [r3, #12]
 8000386:	4b13      	ldr	r3, [pc, #76]	; (80003d4 <SystemInit+0x64>)
 8000388:	4913      	ldr	r1, [pc, #76]	; (80003d8 <SystemInit+0x68>)
 800038a:	400a      	ands	r2, r1
 800038c:	60da      	str	r2, [r3, #12]

  /*!< Reset HSION, HSIDIVEN, HSEON, CSSON and PLLON bits */
  RCC->CR &= (uint32_t)0xFEF6FFF6U;
 800038e:	4b11      	ldr	r3, [pc, #68]	; (80003d4 <SystemInit+0x64>)
 8000390:	681a      	ldr	r2, [r3, #0]
 8000392:	4b10      	ldr	r3, [pc, #64]	; (80003d4 <SystemInit+0x64>)
 8000394:	4911      	ldr	r1, [pc, #68]	; (80003dc <SystemInit+0x6c>)
 8000396:	400a      	ands	r2, r1
 8000398:	601a      	str	r2, [r3, #0]

  /*!< Reset HSI48ON  bit */
  RCC->CRRCR &= (uint32_t)0xFFFFFFFEU;
 800039a:	4b0e      	ldr	r3, [pc, #56]	; (80003d4 <SystemInit+0x64>)
 800039c:	689a      	ldr	r2, [r3, #8]
 800039e:	4b0d      	ldr	r3, [pc, #52]	; (80003d4 <SystemInit+0x64>)
 80003a0:	2101      	movs	r1, #1
 80003a2:	438a      	bics	r2, r1
 80003a4:	609a      	str	r2, [r3, #8]

  /*!< Reset HSEBYP bit */
  RCC->CR &= (uint32_t)0xFFFBFFFFU;
 80003a6:	4b0b      	ldr	r3, [pc, #44]	; (80003d4 <SystemInit+0x64>)
 80003a8:	681a      	ldr	r2, [r3, #0]
 80003aa:	4b0a      	ldr	r3, [pc, #40]	; (80003d4 <SystemInit+0x64>)
 80003ac:	490c      	ldr	r1, [pc, #48]	; (80003e0 <SystemInit+0x70>)
 80003ae:	400a      	ands	r2, r1
 80003b0:	601a      	str	r2, [r3, #0]

  /*!< Reset PLLSRC, PLLMUL[3:0] and PLLDIV[1:0] bits */
  RCC->CFGR &= (uint32_t)0xFF02FFFFU;
 80003b2:	4b08      	ldr	r3, [pc, #32]	; (80003d4 <SystemInit+0x64>)
 80003b4:	68da      	ldr	r2, [r3, #12]
 80003b6:	4b07      	ldr	r3, [pc, #28]	; (80003d4 <SystemInit+0x64>)
 80003b8:	490a      	ldr	r1, [pc, #40]	; (80003e4 <SystemInit+0x74>)
 80003ba:	400a      	ands	r2, r1
 80003bc:	60da      	str	r2, [r3, #12]

  /*!< Disable all interrupts */
  RCC->CIER = 0x00000000U;
 80003be:	4b05      	ldr	r3, [pc, #20]	; (80003d4 <SystemInit+0x64>)
 80003c0:	2200      	movs	r2, #0
 80003c2:	611a      	str	r2, [r3, #16]

  /* Configure the Vector Table location add offset address ------------------*/
#ifdef VECT_TAB_SRAM
  SCB->VTOR = SRAM_BASE | VECT_TAB_OFFSET; /* Vector Table Relocation in Internal SRAM */
#else
  SCB->VTOR = FLASH_BASE | VECT_TAB_OFFSET; /* Vector Table Relocation in Internal FLASH */
 80003c4:	4b08      	ldr	r3, [pc, #32]	; (80003e8 <SystemInit+0x78>)
 80003c6:	2280      	movs	r2, #128	; 0x80
 80003c8:	0512      	lsls	r2, r2, #20
 80003ca:	609a      	str	r2, [r3, #8]
#endif
}
 80003cc:	46c0      	nop			; (mov r8, r8)
 80003ce:	46bd      	mov	sp, r7
 80003d0:	bd80      	pop	{r7, pc}
 80003d2:	46c0      	nop			; (mov r8, r8)
 80003d4:	40021000 	.word	0x40021000
 80003d8:	88ff400c 	.word	0x88ff400c
 80003dc:	fef6fff6 	.word	0xfef6fff6
 80003e0:	fffbffff 	.word	0xfffbffff
 80003e4:	ff02ffff 	.word	0xff02ffff
 80003e8:	e000ed00 	.word	0xe000ed00

080003ec <Reset_Handler>:

    .section  .text.Reset_Handler
  .weak  Reset_Handler
  .type  Reset_Handler, %function
Reset_Handler:  
   ldr   r0, =_estack
 80003ec:	4813      	ldr	r0, [pc, #76]	; (800043c <LoopForever+0x2>)
   mov   sp, r0          /* set stack pointer */
 80003ee:	4685      	mov	sp, r0

/*Check if boot space corresponds to system memory*/

    LDR R0,=0x00000004
 80003f0:	4813      	ldr	r0, [pc, #76]	; (8000440 <LoopForever+0x6>)
    LDR R1, [R0]
 80003f2:	6801      	ldr	r1, [r0, #0]
    LSRS R1, R1, #24
 80003f4:	0e09      	lsrs	r1, r1, #24
    LDR R2,=0x1F
 80003f6:	4a13      	ldr	r2, [pc, #76]	; (8000444 <LoopForever+0xa>)
    CMP R1, R2
 80003f8:	4291      	cmp	r1, r2
    BNE ApplicationStart
 80003fa:	d105      	bne.n	8000408 <ApplicationStart>

 /*SYSCFG clock enable*/
    LDR R0,=0x40021034
 80003fc:	4812      	ldr	r0, [pc, #72]	; (8000448 <LoopForever+0xe>)
    LDR R1,=0x00000001
 80003fe:	4913      	ldr	r1, [pc, #76]	; (800044c <LoopForever+0x12>)
    STR R1, [R0]
 8000400:	6001      	str	r1, [r0, #0]

/*Set CFGR1 register with flash memory remap at address 0*/
    LDR R0,=0x40010000
 8000402:	4813      	ldr	r0, [pc, #76]	; (8000450 <LoopForever+0x16>)
    LDR R1,=0x00000000
 8000404:	4913      	ldr	r1, [pc, #76]	; (8000454 <LoopForever+0x1a>)
    STR R1, [R0]
 8000406:	6001      	str	r1, [r0, #0]

08000408 <ApplicationStart>:

ApplicationStart:
/* Copy the data segment initializers from flash to SRAM */
  movs  r1, #0
 8000408:	2100      	movs	r1, #0
  b  LoopCopyDataInit
 800040a:	e003      	b.n	8000414 <LoopCopyDataInit>

0800040c <CopyDataInit>:

CopyDataInit:
  ldr  r3, =_sidata
 800040c:	4b12      	ldr	r3, [pc, #72]	; (8000458 <LoopForever+0x1e>)
  ldr  r3, [r3, r1]
 800040e:	585b      	ldr	r3, [r3, r1]
  str  r3, [r0, r1]
 8000410:	5043      	str	r3, [r0, r1]
  adds  r1, r1, #4
 8000412:	3104      	adds	r1, #4

08000414 <LoopCopyDataInit>:

LoopCopyDataInit:
  ldr  r0, =_sdata
 8000414:	4811      	ldr	r0, [pc, #68]	; (800045c <LoopForever+0x22>)
  ldr  r3, =_edata
 8000416:	4b12      	ldr	r3, [pc, #72]	; (8000460 <LoopForever+0x26>)
  adds  r2, r0, r1
 8000418:	1842      	adds	r2, r0, r1
  cmp  r2, r3
 800041a:	429a      	cmp	r2, r3
  bcc  CopyDataInit
 800041c:	d3f6      	bcc.n	800040c <CopyDataInit>
  ldr  r2, =_sbss
 800041e:	4a11      	ldr	r2, [pc, #68]	; (8000464 <LoopForever+0x2a>)
  b  LoopFillZerobss
 8000420:	e002      	b.n	8000428 <LoopFillZerobss>

08000422 <FillZerobss>:
/* Zero fill the bss segment. */
FillZerobss:
  movs  r3, #0
 8000422:	2300      	movs	r3, #0
  str  r3, [r2]
 8000424:	6013      	str	r3, [r2, #0]
  adds r2, r2, #4
 8000426:	3204      	adds	r2, #4

08000428 <LoopFillZerobss>:


LoopFillZerobss:
  ldr  r3, = _ebss
 8000428:	4b0f      	ldr	r3, [pc, #60]	; (8000468 <LoopForever+0x2e>)
  cmp  r2, r3
 800042a:	429a      	cmp	r2, r3
  bcc  FillZerobss
 800042c:	d3f9      	bcc.n	8000422 <FillZerobss>

/* Call the clock system intitialization function.*/
  bl  SystemInit
 800042e:	f7ff ff9f 	bl	8000370 <SystemInit>
/* Call static constructors */
    bl __libc_init_array
 8000432:	f000 fe59 	bl	80010e8 <__libc_init_array>
/* Call the application's entry point.*/
  bl  main
 8000436:	f7ff fef3 	bl	8000220 <main>

0800043a <LoopForever>:

LoopForever:
    b LoopForever
 800043a:	e7fe      	b.n	800043a <LoopForever>
   ldr   r0, =_estack
 800043c:	20000800 	.word	0x20000800
    LDR R0,=0x00000004
 8000440:	00000004 	.word	0x00000004
    LDR R2,=0x1F
 8000444:	0000001f 	.word	0x0000001f
    LDR R0,=0x40021034
 8000448:	40021034 	.word	0x40021034
    LDR R1,=0x00000001
 800044c:	00000001 	.word	0x00000001
    LDR R0,=0x40010000
 8000450:	40010000 	.word	0x40010000
    LDR R1,=0x00000000
 8000454:	00000000 	.word	0x00000000
  ldr  r3, =_sidata
 8000458:	0800117c 	.word	0x0800117c
  ldr  r0, =_sdata
 800045c:	20000000 	.word	0x20000000
  ldr  r3, =_edata
 8000460:	20000004 	.word	0x20000004
  ldr  r2, =_sbss
 8000464:	20000004 	.word	0x20000004
  ldr  r3, = _ebss
 8000468:	20000024 	.word	0x20000024

0800046c <ADC1_COMP_IRQHandler>:
 * @retval : None
*/
    .section  .text.Default_Handler,"ax",%progbits
Default_Handler:
Infinite_Loop:
  b  Infinite_Loop
 800046c:	e7fe      	b.n	800046c <ADC1_COMP_IRQHandler>
	...

08000470 <HAL_Init>:
  *        In the default implementation,Systick is used as source of time base.
  *        the tick variable is incremented each 1ms in its ISR.
  * @retval HAL status
  */
HAL_StatusTypeDef HAL_Init(void)
{
 8000470:	b580      	push	{r7, lr}
 8000472:	b082      	sub	sp, #8
 8000474:	af00      	add	r7, sp, #0
  HAL_StatusTypeDef  status = HAL_OK;
 8000476:	1dfb      	adds	r3, r7, #7
 8000478:	2200      	movs	r2, #0
 800047a:	701a      	strb	r2, [r3, #0]
#if (BUFFER_CACHE_DISABLE != 0)
  __HAL_FLASH_BUFFER_CACHE_DISABLE();
#endif /* BUFFER_CACHE_DISABLE */

#if (PREREAD_ENABLE != 0)
  __HAL_FLASH_PREREAD_BUFFER_ENABLE();
 800047c:	4b0b      	ldr	r3, [pc, #44]	; (80004ac <HAL_Init+0x3c>)
 800047e:	681a      	ldr	r2, [r3, #0]
 8000480:	4b0a      	ldr	r3, [pc, #40]	; (80004ac <HAL_Init+0x3c>)
 8000482:	2140      	movs	r1, #64	; 0x40
 8000484:	430a      	orrs	r2, r1
 8000486:	601a      	str	r2, [r3, #0]
#if (PREFETCH_ENABLE != 0)
  __HAL_FLASH_PREFETCH_BUFFER_ENABLE();
#endif /* PREFETCH_ENABLE */

  /* Use SysTick as time base source and configure 1ms tick (default clock after Reset is MSI) */
  if (HAL_InitTick(TICK_INT_PRIORITY) != HAL_OK)
 8000488:	2000      	movs	r0, #0
 800048a:	f000 f811 	bl	80004b0 <HAL_InitTick>
 800048e:	1e03      	subs	r3, r0, #0
 8000490:	d003      	beq.n	800049a <HAL_Init+0x2a>
  {
    status = HAL_ERROR;
 8000492:	1dfb      	adds	r3, r7, #7
 8000494:	2201      	movs	r2, #1
 8000496:	701a      	strb	r2, [r3, #0]
 8000498:	e001      	b.n	800049e <HAL_Init+0x2e>
  }
  else
  {
    /* Init the low level hardware */
    HAL_MspInit();
 800049a:	f7ff ff3b 	bl	8000314 <HAL_MspInit>
  }

  /* Return function status */
  return status;
 800049e:	1dfb      	adds	r3, r7, #7
 80004a0:	781b      	ldrb	r3, [r3, #0]
}
 80004a2:	0018      	movs	r0, r3
 80004a4:	46bd      	mov	sp, r7
 80004a6:	b002      	add	sp, #8
 80004a8:	bd80      	pop	{r7, pc}
 80004aa:	46c0      	nop			; (mov r8, r8)
 80004ac:	40022000 	.word	0x40022000

080004b0 <HAL_InitTick>:
  *       implementation  in user file.
  * @param TickPriority Tick interrupt priority.
  * @retval HAL status
  */
__weak HAL_StatusTypeDef HAL_InitTick(uint32_t TickPriority)
{
 80004b0:	b580      	push	{r7, lr}
 80004b2:	b084      	sub	sp, #16
 80004b4:	af00      	add	r7, sp, #0
 80004b6:	6078      	str	r0, [r7, #4]
  HAL_StatusTypeDef  status = HAL_OK;
 80004b8:	230f      	movs	r3, #15
 80004ba:	18fb      	adds	r3, r7, r3
 80004bc:	2200      	movs	r2, #0
 80004be:	701a      	strb	r2, [r3, #0]

  /*Configure the SysTick to have interrupt in 1ms time basis*/
  if (HAL_SYSTICK_Config(SystemCoreClock/1000UL) != 0U)
 80004c0:	4b0f      	ldr	r3, [pc, #60]	; (8000500 <HAL_InitTick+0x50>)
 80004c2:	681a      	ldr	r2, [r3, #0]
 80004c4:	23fa      	movs	r3, #250	; 0xfa
 80004c6:	0099      	lsls	r1, r3, #2
 80004c8:	0010      	movs	r0, r2
 80004ca:	f7ff fe1d 	bl	8000108 <__udivsi3>
 80004ce:	0003      	movs	r3, r0
 80004d0:	0018      	movs	r0, r3
 80004d2:	f000 f8d4 	bl	800067e <HAL_SYSTICK_Config>
 80004d6:	1e03      	subs	r3, r0, #0
 80004d8:	d004      	beq.n	80004e4 <HAL_InitTick+0x34>
  {
    status = HAL_ERROR;
 80004da:	230f      	movs	r3, #15
 80004dc:	18fb      	adds	r3, r7, r3
 80004de:	2201      	movs	r2, #1
 80004e0:	701a      	strb	r2, [r3, #0]
 80004e2:	e006      	b.n	80004f2 <HAL_InitTick+0x42>
  }
  else
  {
    /*Configure the SysTick IRQ priority */
    HAL_NVIC_SetPriority(SysTick_IRQn, TickPriority, 0);
 80004e4:	6879      	ldr	r1, [r7, #4]
 80004e6:	2301      	movs	r3, #1
 80004e8:	425b      	negs	r3, r3
 80004ea:	2200      	movs	r2, #0
 80004ec:	0018      	movs	r0, r3
 80004ee:	f000 f8b1 	bl	8000654 <HAL_NVIC_SetPriority>
  }

  /* Return function status */
  return status;
 80004f2:	230f      	movs	r3, #15
 80004f4:	18fb      	adds	r3, r7, r3
 80004f6:	781b      	ldrb	r3, [r3, #0]
}
 80004f8:	0018      	movs	r0, r3
 80004fa:	46bd      	mov	sp, r7
 80004fc:	b004      	add	sp, #16
 80004fe:	bd80      	pop	{r7, pc}
 8000500:	20000000 	.word	0x20000000

08000504 <HAL_IncTick>:
 * @note This function is declared as __weak to be overwritten in case of other
  *      implementations in user file.
  * @retval None
  */
__weak void HAL_IncTick(void)
{
 8000504:	b580      	push	{r7, lr}
 8000506:	af00      	add	r7, sp, #0
  uwTick++;
 8000508:	4b03      	ldr	r3, [pc, #12]	; (8000518 <HAL_IncTick+0x14>)
 800050a:	681b      	ldr	r3, [r3, #0]
 800050c:	1c5a      	adds	r2, r3, #1
 800050e:	4b02      	ldr	r3, [pc, #8]	; (8000518 <HAL_IncTick+0x14>)
 8000510:	601a      	str	r2, [r3, #0]
}
 8000512:	46c0      	nop			; (mov r8, r8)
 8000514:	46bd      	mov	sp, r7
 8000516:	bd80      	pop	{r7, pc}
 8000518:	20000020 	.word	0x20000020

0800051c <HAL_GetTick>:
  * @note This function is declared as __weak to be overwritten in case of other
  *       implementations in user file.
  * @retval tick value
  */
__weak uint32_t HAL_GetTick(void)
{
 800051c:	b580      	push	{r7, lr}
 800051e:	af00      	add	r7, sp, #0
  return uwTick;
 8000520:	4b02      	ldr	r3, [pc, #8]	; (800052c <HAL_GetTick+0x10>)
 8000522:	681b      	ldr	r3, [r3, #0]
}
 8000524:	0018      	movs	r0, r3
 8000526:	46bd      	mov	sp, r7
 8000528:	bd80      	pop	{r7, pc}
 800052a:	46c0      	nop			; (mov r8, r8)
 800052c:	20000020 	.word	0x20000020

08000530 <NVIC_SetPriority>:
  \note    The priority cannot be set for every core interrupt.
  \param [in]      IRQn  Interrupt number.
  \param [in]  priority  Priority to set.
 */
__STATIC_INLINE void NVIC_SetPriority(IRQn_Type IRQn, uint32_t priority)
{
 8000530:	b590      	push	{r4, r7, lr}
 8000532:	b083      	sub	sp, #12
 8000534:	af00      	add	r7, sp, #0
 8000536:	0002      	movs	r2, r0
 8000538:	6039      	str	r1, [r7, #0]
 800053a:	1dfb      	adds	r3, r7, #7
 800053c:	701a      	strb	r2, [r3, #0]
  if ((int32_t)(IRQn) < 0)
 800053e:	1dfb      	adds	r3, r7, #7
 8000540:	781b      	ldrb	r3, [r3, #0]
 8000542:	2b7f      	cmp	r3, #127	; 0x7f
 8000544:	d932      	bls.n	80005ac <NVIC_SetPriority+0x7c>
  {
    SCB->SHP[_SHP_IDX(IRQn)] = ((uint32_t)(SCB->SHP[_SHP_IDX(IRQn)] & ~(0xFFUL << _BIT_SHIFT(IRQn))) |
 8000546:	4a2f      	ldr	r2, [pc, #188]	; (8000604 <NVIC_SetPriority+0xd4>)
 8000548:	1dfb      	adds	r3, r7, #7
 800054a:	781b      	ldrb	r3, [r3, #0]
 800054c:	0019      	movs	r1, r3
 800054e:	230f      	movs	r3, #15
 8000550:	400b      	ands	r3, r1
 8000552:	3b08      	subs	r3, #8
 8000554:	089b      	lsrs	r3, r3, #2
 8000556:	3306      	adds	r3, #6
 8000558:	009b      	lsls	r3, r3, #2
 800055a:	18d3      	adds	r3, r2, r3
 800055c:	3304      	adds	r3, #4
 800055e:	681b      	ldr	r3, [r3, #0]
 8000560:	1dfa      	adds	r2, r7, #7
 8000562:	7812      	ldrb	r2, [r2, #0]
 8000564:	0011      	movs	r1, r2
 8000566:	2203      	movs	r2, #3
 8000568:	400a      	ands	r2, r1
 800056a:	00d2      	lsls	r2, r2, #3
 800056c:	21ff      	movs	r1, #255	; 0xff
 800056e:	4091      	lsls	r1, r2
 8000570:	000a      	movs	r2, r1
 8000572:	43d2      	mvns	r2, r2
 8000574:	401a      	ands	r2, r3
 8000576:	0011      	movs	r1, r2
       (((priority << (8U - __NVIC_PRIO_BITS)) & (uint32_t)0xFFUL) << _BIT_SHIFT(IRQn)));
 8000578:	683b      	ldr	r3, [r7, #0]
 800057a:	019b      	lsls	r3, r3, #6
 800057c:	22ff      	movs	r2, #255	; 0xff
 800057e:	401a      	ands	r2, r3
 8000580:	1dfb      	adds	r3, r7, #7
 8000582:	781b      	ldrb	r3, [r3, #0]
 8000584:	0018      	movs	r0, r3
 8000586:	2303      	movs	r3, #3
 8000588:	4003      	ands	r3, r0
 800058a:	00db      	lsls	r3, r3, #3
 800058c:	409a      	lsls	r2, r3
    SCB->SHP[_SHP_IDX(IRQn)] = ((uint32_t)(SCB->SHP[_SHP_IDX(IRQn)] & ~(0xFFUL << _BIT_SHIFT(IRQn))) |
 800058e:	481d      	ldr	r0, [pc, #116]	; (8000604 <NVIC_SetPriority+0xd4>)
 8000590:	1dfb      	adds	r3, r7, #7
 8000592:	781b      	ldrb	r3, [r3, #0]
 8000594:	001c      	movs	r4, r3
 8000596:	230f      	movs	r3, #15
 8000598:	4023      	ands	r3, r4
 800059a:	3b08      	subs	r3, #8
 800059c:	089b      	lsrs	r3, r3, #2
 800059e:	430a      	orrs	r2, r1
 80005a0:	3306      	adds	r3, #6
 80005a2:	009b      	lsls	r3, r3, #2
 80005a4:	18c3      	adds	r3, r0, r3
 80005a6:	3304      	adds	r3, #4
 80005a8:	601a      	str	r2, [r3, #0]
  else
  {
    NVIC->IP[_IP_IDX(IRQn)]  = ((uint32_t)(NVIC->IP[_IP_IDX(IRQn)]  & ~(0xFFUL << _BIT_SHIFT(IRQn))) |
       (((priority << (8U - __NVIC_PRIO_BITS)) & (uint32_t)0xFFUL) << _BIT_SHIFT(IRQn)));
  }
}
 80005aa:	e027      	b.n	80005fc <NVIC_SetPriority+0xcc>
    NVIC->IP[_IP_IDX(IRQn)]  = ((uint32_t)(NVIC->IP[_IP_IDX(IRQn)]  & ~(0xFFUL << _BIT_SHIFT(IRQn))) |
 80005ac:	4a16      	ldr	r2, [pc, #88]	; (8000608 <NVIC_SetPriority+0xd8>)
 80005ae:	1dfb      	adds	r3, r7, #7
 80005b0:	781b      	ldrb	r3, [r3, #0]
 80005b2:	b25b      	sxtb	r3, r3
 80005b4:	089b      	lsrs	r3, r3, #2
 80005b6:	33c0      	adds	r3, #192	; 0xc0
 80005b8:	009b      	lsls	r3, r3, #2
 80005ba:	589b      	ldr	r3, [r3, r2]
 80005bc:	1dfa      	adds	r2, r7, #7
 80005be:	7812      	ldrb	r2, [r2, #0]
 80005c0:	0011      	movs	r1, r2
 80005c2:	2203      	movs	r2, #3
 80005c4:	400a      	ands	r2, r1
 80005c6:	00d2      	lsls	r2, r2, #3
 80005c8:	21ff      	movs	r1, #255	; 0xff
 80005ca:	4091      	lsls	r1, r2
 80005cc:	000a      	movs	r2, r1
 80005ce:	43d2      	mvns	r2, r2
 80005d0:	401a      	ands	r2, r3
 80005d2:	0011      	movs	r1, r2
       (((priority << (8U - __NVIC_PRIO_BITS)) & (uint32_t)0xFFUL) << _BIT_SHIFT(IRQn)));
 80005d4:	683b      	ldr	r3, [r7, #0]
 80005d6:	019b      	lsls	r3, r3, #6
 80005d8:	22ff      	movs	r2, #255	; 0xff
 80005da:	401a      	ands	r2, r3
 80005dc:	1dfb      	adds	r3, r7, #7
 80005de:	781b      	ldrb	r3, [r3, #0]
 80005e0:	0018      	movs	r0, r3
 80005e2:	2303      	movs	r3, #3
 80005e4:	4003      	ands	r3, r0
 80005e6:	00db      	lsls	r3, r3, #3
 80005e8:	409a      	lsls	r2, r3
    NVIC->IP[_IP_IDX(IRQn)]  = ((uint32_t)(NVIC->IP[_IP_IDX(IRQn)]  & ~(0xFFUL << _BIT_SHIFT(IRQn))) |
 80005ea:	4807      	ldr	r0, [pc, #28]	; (8000608 <NVIC_SetPriority+0xd8>)
 80005ec:	1dfb      	adds	r3, r7, #7
 80005ee:	781b      	ldrb	r3, [r3, #0]
 80005f0:	b25b      	sxtb	r3, r3
 80005f2:	089b      	lsrs	r3, r3, #2
 80005f4:	430a      	orrs	r2, r1
 80005f6:	33c0      	adds	r3, #192	; 0xc0
 80005f8:	009b      	lsls	r3, r3, #2
 80005fa:	501a      	str	r2, [r3, r0]
}
 80005fc:	46c0      	nop			; (mov r8, r8)
 80005fe:	46bd      	mov	sp, r7
 8000600:	b003      	add	sp, #12
 8000602:	bd90      	pop	{r4, r7, pc}
 8000604:	e000ed00 	.word	0xe000ed00
 8000608:	e000e100 	.word	0xe000e100

0800060c <SysTick_Config>:
  \note    When the variable <b>__Vendor_SysTickConfig</b> is set to 1, then the
           function <b>SysTick_Config</b> is not included. In this case, the file <b><i>device</i>.h</b>
           must contain a vendor-specific implementation of this function.
 */
__STATIC_INLINE uint32_t SysTick_Config(uint32_t ticks)
{
 800060c:	b580      	push	{r7, lr}
 800060e:	b082      	sub	sp, #8
 8000610:	af00      	add	r7, sp, #0
 8000612:	6078      	str	r0, [r7, #4]
  if ((ticks - 1UL) > SysTick_LOAD_RELOAD_Msk)
 8000614:	687b      	ldr	r3, [r7, #4]
 8000616:	3b01      	subs	r3, #1
 8000618:	4a0c      	ldr	r2, [pc, #48]	; (800064c <SysTick_Config+0x40>)
 800061a:	4293      	cmp	r3, r2
 800061c:	d901      	bls.n	8000622 <SysTick_Config+0x16>
  {
    return (1UL);                                                   /* Reload value impossible */
 800061e:	2301      	movs	r3, #1
 8000620:	e010      	b.n	8000644 <SysTick_Config+0x38>
  }

  SysTick->LOAD  = (uint32_t)(ticks - 1UL);                         /* set reload register */
 8000622:	4b0b      	ldr	r3, [pc, #44]	; (8000650 <SysTick_Config+0x44>)
 8000624:	687a      	ldr	r2, [r7, #4]
 8000626:	3a01      	subs	r2, #1
 8000628:	605a      	str	r2, [r3, #4]
  NVIC_SetPriority (SysTick_IRQn, (1UL << __NVIC_PRIO_BITS) - 1UL); /* set Priority for Systick Interrupt */
 800062a:	2301      	movs	r3, #1
 800062c:	425b      	negs	r3, r3
 800062e:	2103      	movs	r1, #3
 8000630:	0018      	movs	r0, r3
 8000632:	f7ff ff7d 	bl	8000530 <NVIC_SetPriority>
  SysTick->VAL   = 0UL;                                             /* Load the SysTick Counter Value */
 8000636:	4b06      	ldr	r3, [pc, #24]	; (8000650 <SysTick_Config+0x44>)
 8000638:	2200      	movs	r2, #0
 800063a:	609a      	str	r2, [r3, #8]
  SysTick->CTRL  = SysTick_CTRL_CLKSOURCE_Msk |
 800063c:	4b04      	ldr	r3, [pc, #16]	; (8000650 <SysTick_Config+0x44>)
 800063e:	2207      	movs	r2, #7
 8000640:	601a      	str	r2, [r3, #0]
                   SysTick_CTRL_TICKINT_Msk   |
                   SysTick_CTRL_ENABLE_Msk;                         /* Enable SysTick IRQ and SysTick Timer */
  return (0UL);                                                     /* Function successful */
 8000642:	2300      	movs	r3, #0
}
 8000644:	0018      	movs	r0, r3
 8000646:	46bd      	mov	sp, r7
 8000648:	b002      	add	sp, #8
 800064a:	bd80      	pop	{r7, pc}
 800064c:	00ffffff 	.word	0x00ffffff
 8000650:	e000e010 	.word	0xe000e010

08000654 <HAL_NVIC_SetPriority>:
  *         with stm32l0xx devices, this parameter is a dummy value and it is ignored, because 
  *         no subpriority supported in Cortex M0+ based products.   
  * @retval None
  */
void HAL_NVIC_SetPriority(IRQn_Type IRQn, uint32_t PreemptPriority, uint32_t SubPriority)
{ 
 8000654:	b580      	push	{r7, lr}
 8000656:	b084      	sub	sp, #16
 8000658:	af00      	add	r7, sp, #0
 800065a:	60b9      	str	r1, [r7, #8]
 800065c:	607a      	str	r2, [r7, #4]
 800065e:	210f      	movs	r1, #15
 8000660:	187b      	adds	r3, r7, r1
 8000662:	1c02      	adds	r2, r0, #0
 8000664:	701a      	strb	r2, [r3, #0]
    /* Check the parameters */
  assert_param(IS_NVIC_PREEMPTION_PRIORITY(PreemptPriority));
  NVIC_SetPriority(IRQn,PreemptPriority);
 8000666:	68ba      	ldr	r2, [r7, #8]
 8000668:	187b      	adds	r3, r7, r1
 800066a:	781b      	ldrb	r3, [r3, #0]
 800066c:	b25b      	sxtb	r3, r3
 800066e:	0011      	movs	r1, r2
 8000670:	0018      	movs	r0, r3
 8000672:	f7ff ff5d 	bl	8000530 <NVIC_SetPriority>
}
 8000676:	46c0      	nop			; (mov r8, r8)
 8000678:	46bd      	mov	sp, r7
 800067a:	b004      	add	sp, #16
 800067c:	bd80      	pop	{r7, pc}

0800067e <HAL_SYSTICK_Config>:
  * @param  TicksNumb Specifies the ticks Number of ticks between two interrupts.
  * @retval status:  - 0  Function succeeded.
  *                  - 1  Function failed.
  */
uint32_t HAL_SYSTICK_Config(uint32_t TicksNumb)
{
 800067e:	b580      	push	{r7, lr}
 8000680:	b082      	sub	sp, #8
 8000682:	af00      	add	r7, sp, #0
 8000684:	6078      	str	r0, [r7, #4]
   return SysTick_Config(TicksNumb);
 8000686:	687b      	ldr	r3, [r7, #4]
 8000688:	0018      	movs	r0, r3
 800068a:	f7ff ffbf 	bl	800060c <SysTick_Config>
 800068e:	0003      	movs	r3, r0
}
 8000690:	0018      	movs	r0, r3
 8000692:	46bd      	mov	sp, r7
 8000694:	b002      	add	sp, #8
 8000696:	bd80      	pop	{r7, pc}

08000698 <HAL_RCC_OscConfig>:
  *         supported by this macro. User should request a transition to HSE Off
  *         first and then HSE On or HSE Bypass.
  * @retval HAL status
  */
HAL_StatusTypeDef HAL_RCC_OscConfig(RCC_OscInitTypeDef  *RCC_OscInitStruct)
{
 8000698:	b5b0      	push	{r4, r5, r7, lr}
 800069a:	b08a      	sub	sp, #40	; 0x28
 800069c:	af00      	add	r7, sp, #0
 800069e:	6078      	str	r0, [r7, #4]
  uint32_t hsi_state;
  HAL_StatusTypeDef status;
  uint32_t sysclk_source, pll_config;

  /* Check the parameters */
  if(RCC_OscInitStruct == NULL)
 80006a0:	687b      	ldr	r3, [r7, #4]
 80006a2:	2b00      	cmp	r3, #0
 80006a4:	d102      	bne.n	80006ac <HAL_RCC_OscConfig+0x14>
  {
    return HAL_ERROR;
 80006a6:	2301      	movs	r3, #1
 80006a8:	f000 fb6a 	bl	8000d80 <HAL_RCC_OscConfig+0x6e8>
  }

  assert_param(IS_RCC_OSCILLATORTYPE(RCC_OscInitStruct->OscillatorType));

  sysclk_source = __HAL_RCC_GET_SYSCLK_SOURCE();
 80006ac:	4bc7      	ldr	r3, [pc, #796]	; (80009cc <HAL_RCC_OscConfig+0x334>)
 80006ae:	68db      	ldr	r3, [r3, #12]
 80006b0:	220c      	movs	r2, #12
 80006b2:	4013      	ands	r3, r2
 80006b4:	61fb      	str	r3, [r7, #28]
  pll_config = __HAL_RCC_GET_PLL_OSCSOURCE();
 80006b6:	4bc5      	ldr	r3, [pc, #788]	; (80009cc <HAL_RCC_OscConfig+0x334>)
 80006b8:	68da      	ldr	r2, [r3, #12]
 80006ba:	2380      	movs	r3, #128	; 0x80
 80006bc:	025b      	lsls	r3, r3, #9
 80006be:	4013      	ands	r3, r2
 80006c0:	61bb      	str	r3, [r7, #24]

  /*------------------------------- HSE Configuration ------------------------*/
  if(((RCC_OscInitStruct->OscillatorType) & RCC_OSCILLATORTYPE_HSE) == RCC_OSCILLATORTYPE_HSE)
 80006c2:	687b      	ldr	r3, [r7, #4]
 80006c4:	681b      	ldr	r3, [r3, #0]
 80006c6:	2201      	movs	r2, #1
 80006c8:	4013      	ands	r3, r2
 80006ca:	d100      	bne.n	80006ce <HAL_RCC_OscConfig+0x36>
 80006cc:	e07d      	b.n	80007ca <HAL_RCC_OscConfig+0x132>
  {
    /* Check the parameters */
    assert_param(IS_RCC_HSE(RCC_OscInitStruct->HSEState));

    /* When the HSE is used as system clock or clock source for PLL in these cases it is not allowed to be disabled */
    if((sysclk_source == RCC_SYSCLKSOURCE_STATUS_HSE)
 80006ce:	69fb      	ldr	r3, [r7, #28]
 80006d0:	2b08      	cmp	r3, #8
 80006d2:	d007      	beq.n	80006e4 <HAL_RCC_OscConfig+0x4c>
       || ((sysclk_source == RCC_SYSCLKSOURCE_STATUS_PLLCLK) && (pll_config == RCC_PLLSOURCE_HSE)))
 80006d4:	69fb      	ldr	r3, [r7, #28]
 80006d6:	2b0c      	cmp	r3, #12
 80006d8:	d112      	bne.n	8000700 <HAL_RCC_OscConfig+0x68>
 80006da:	69ba      	ldr	r2, [r7, #24]
 80006dc:	2380      	movs	r3, #128	; 0x80
 80006de:	025b      	lsls	r3, r3, #9
 80006e0:	429a      	cmp	r2, r3
 80006e2:	d10d      	bne.n	8000700 <HAL_RCC_OscConfig+0x68>
    {
      if((__HAL_RCC_GET_FLAG(RCC_FLAG_HSERDY) != 0U) && (RCC_OscInitStruct->HSEState == RCC_HSE_OFF))
 80006e4:	4bb9      	ldr	r3, [pc, #740]	; (80009cc <HAL_RCC_OscConfig+0x334>)
 80006e6:	681a      	ldr	r2, [r3, #0]
 80006e8:	2380      	movs	r3, #128	; 0x80
 80006ea:	029b      	lsls	r3, r3, #10
 80006ec:	4013      	ands	r3, r2
 80006ee:	d100      	bne.n	80006f2 <HAL_RCC_OscConfig+0x5a>
 80006f0:	e06a      	b.n	80007c8 <HAL_RCC_OscConfig+0x130>
 80006f2:	687b      	ldr	r3, [r7, #4]
 80006f4:	685b      	ldr	r3, [r3, #4]
 80006f6:	2b00      	cmp	r3, #0
 80006f8:	d166      	bne.n	80007c8 <HAL_RCC_OscConfig+0x130>
      {
        return HAL_ERROR;
 80006fa:	2301      	movs	r3, #1
 80006fc:	f000 fb40 	bl	8000d80 <HAL_RCC_OscConfig+0x6e8>
      }
    }
    else
    {
      /* Set the new HSE configuration ---------------------------------------*/
      __HAL_RCC_HSE_CONFIG(RCC_OscInitStruct->HSEState);
 8000700:	687b      	ldr	r3, [r7, #4]
 8000702:	685a      	ldr	r2, [r3, #4]
 8000704:	2380      	movs	r3, #128	; 0x80
 8000706:	025b      	lsls	r3, r3, #9
 8000708:	429a      	cmp	r2, r3
 800070a:	d107      	bne.n	800071c <HAL_RCC_OscConfig+0x84>
 800070c:	4baf      	ldr	r3, [pc, #700]	; (80009cc <HAL_RCC_OscConfig+0x334>)
 800070e:	681a      	ldr	r2, [r3, #0]
 8000710:	4bae      	ldr	r3, [pc, #696]	; (80009cc <HAL_RCC_OscConfig+0x334>)
 8000712:	2180      	movs	r1, #128	; 0x80
 8000714:	0249      	lsls	r1, r1, #9
 8000716:	430a      	orrs	r2, r1
 8000718:	601a      	str	r2, [r3, #0]
 800071a:	e027      	b.n	800076c <HAL_RCC_OscConfig+0xd4>
 800071c:	687b      	ldr	r3, [r7, #4]
 800071e:	685a      	ldr	r2, [r3, #4]
 8000720:	23a0      	movs	r3, #160	; 0xa0
 8000722:	02db      	lsls	r3, r3, #11
 8000724:	429a      	cmp	r2, r3
 8000726:	d10e      	bne.n	8000746 <HAL_RCC_OscConfig+0xae>
 8000728:	4ba8      	ldr	r3, [pc, #672]	; (80009cc <HAL_RCC_OscConfig+0x334>)
 800072a:	681a      	ldr	r2, [r3, #0]
 800072c:	4ba7      	ldr	r3, [pc, #668]	; (80009cc <HAL_RCC_OscConfig+0x334>)
 800072e:	2180      	movs	r1, #128	; 0x80
 8000730:	02c9      	lsls	r1, r1, #11
 8000732:	430a      	orrs	r2, r1
 8000734:	601a      	str	r2, [r3, #0]
 8000736:	4ba5      	ldr	r3, [pc, #660]	; (80009cc <HAL_RCC_OscConfig+0x334>)
 8000738:	681a      	ldr	r2, [r3, #0]
 800073a:	4ba4      	ldr	r3, [pc, #656]	; (80009cc <HAL_RCC_OscConfig+0x334>)
 800073c:	2180      	movs	r1, #128	; 0x80
 800073e:	0249      	lsls	r1, r1, #9
 8000740:	430a      	orrs	r2, r1
 8000742:	601a      	str	r2, [r3, #0]
 8000744:	e012      	b.n	800076c <HAL_RCC_OscConfig+0xd4>
 8000746:	4ba1      	ldr	r3, [pc, #644]	; (80009cc <HAL_RCC_OscConfig+0x334>)
 8000748:	681a      	ldr	r2, [r3, #0]
 800074a:	4ba0      	ldr	r3, [pc, #640]	; (80009cc <HAL_RCC_OscConfig+0x334>)
 800074c:	49a0      	ldr	r1, [pc, #640]	; (80009d0 <HAL_RCC_OscConfig+0x338>)
 800074e:	400a      	ands	r2, r1
 8000750:	601a      	str	r2, [r3, #0]
 8000752:	4b9e      	ldr	r3, [pc, #632]	; (80009cc <HAL_RCC_OscConfig+0x334>)
 8000754:	681a      	ldr	r2, [r3, #0]
 8000756:	2380      	movs	r3, #128	; 0x80
 8000758:	025b      	lsls	r3, r3, #9
 800075a:	4013      	ands	r3, r2
 800075c:	60fb      	str	r3, [r7, #12]
 800075e:	68fb      	ldr	r3, [r7, #12]
 8000760:	4b9a      	ldr	r3, [pc, #616]	; (80009cc <HAL_RCC_OscConfig+0x334>)
 8000762:	681a      	ldr	r2, [r3, #0]
 8000764:	4b99      	ldr	r3, [pc, #612]	; (80009cc <HAL_RCC_OscConfig+0x334>)
 8000766:	499b      	ldr	r1, [pc, #620]	; (80009d4 <HAL_RCC_OscConfig+0x33c>)
 8000768:	400a      	ands	r2, r1
 800076a:	601a      	str	r2, [r3, #0]

      /* Check the HSE State */
      if(RCC_OscInitStruct->HSEState != RCC_HSE_OFF)
 800076c:	687b      	ldr	r3, [r7, #4]
 800076e:	685b      	ldr	r3, [r3, #4]
 8000770:	2b00      	cmp	r3, #0
 8000772:	d014      	beq.n	800079e <HAL_RCC_OscConfig+0x106>
      {
        /* Get Start Tick */
        tickstart = HAL_GetTick();
 8000774:	f7ff fed2 	bl	800051c <HAL_GetTick>
 8000778:	0003      	movs	r3, r0
 800077a:	617b      	str	r3, [r7, #20]

        /* Wait till HSE is ready */
        while(__HAL_RCC_GET_FLAG(RCC_FLAG_HSERDY) == 0U)
 800077c:	e008      	b.n	8000790 <HAL_RCC_OscConfig+0xf8>
        {
          if((HAL_GetTick() - tickstart ) > HSE_TIMEOUT_VALUE)
 800077e:	f7ff fecd 	bl	800051c <HAL_GetTick>
 8000782:	0002      	movs	r2, r0
 8000784:	697b      	ldr	r3, [r7, #20]
 8000786:	1ad3      	subs	r3, r2, r3
 8000788:	2b64      	cmp	r3, #100	; 0x64
 800078a:	d901      	bls.n	8000790 <HAL_RCC_OscConfig+0xf8>
          {
            return HAL_TIMEOUT;
 800078c:	2303      	movs	r3, #3
 800078e:	e2f7      	b.n	8000d80 <HAL_RCC_OscConfig+0x6e8>
        while(__HAL_RCC_GET_FLAG(RCC_FLAG_HSERDY) == 0U)
 8000790:	4b8e      	ldr	r3, [pc, #568]	; (80009cc <HAL_RCC_OscConfig+0x334>)
 8000792:	681a      	ldr	r2, [r3, #0]
 8000794:	2380      	movs	r3, #128	; 0x80
 8000796:	029b      	lsls	r3, r3, #10
 8000798:	4013      	ands	r3, r2
 800079a:	d0f0      	beq.n	800077e <HAL_RCC_OscConfig+0xe6>
 800079c:	e015      	b.n	80007ca <HAL_RCC_OscConfig+0x132>
        }
      }
      else
      {
        /* Get Start Tick */
        tickstart = HAL_GetTick();
 800079e:	f7ff febd 	bl	800051c <HAL_GetTick>
 80007a2:	0003      	movs	r3, r0
 80007a4:	617b      	str	r3, [r7, #20]

        /* Wait till HSE is disabled */
        while(__HAL_RCC_GET_FLAG(RCC_FLAG_HSERDY) != 0U)
 80007a6:	e008      	b.n	80007ba <HAL_RCC_OscConfig+0x122>
        {
           if((HAL_GetTick() - tickstart ) > HSE_TIMEOUT_VALUE)
 80007a8:	f7ff feb8 	bl	800051c <HAL_GetTick>
 80007ac:	0002      	movs	r2, r0
 80007ae:	697b      	ldr	r3, [r7, #20]
 80007b0:	1ad3      	subs	r3, r2, r3
 80007b2:	2b64      	cmp	r3, #100	; 0x64
 80007b4:	d901      	bls.n	80007ba <HAL_RCC_OscConfig+0x122>
          {
            return HAL_TIMEOUT;
 80007b6:	2303      	movs	r3, #3
 80007b8:	e2e2      	b.n	8000d80 <HAL_RCC_OscConfig+0x6e8>
        while(__HAL_RCC_GET_FLAG(RCC_FLAG_HSERDY) != 0U)
 80007ba:	4b84      	ldr	r3, [pc, #528]	; (80009cc <HAL_RCC_OscConfig+0x334>)
 80007bc:	681a      	ldr	r2, [r3, #0]
 80007be:	2380      	movs	r3, #128	; 0x80
 80007c0:	029b      	lsls	r3, r3, #10
 80007c2:	4013      	ands	r3, r2
 80007c4:	d1f0      	bne.n	80007a8 <HAL_RCC_OscConfig+0x110>
 80007c6:	e000      	b.n	80007ca <HAL_RCC_OscConfig+0x132>
      if((__HAL_RCC_GET_FLAG(RCC_FLAG_HSERDY) != 0U) && (RCC_OscInitStruct->HSEState == RCC_HSE_OFF))
 80007c8:	46c0      	nop			; (mov r8, r8)
        }
      }
    }
  }
  /*----------------------------- HSI Configuration --------------------------*/
  if(((RCC_OscInitStruct->OscillatorType) & RCC_OSCILLATORTYPE_HSI) == RCC_OSCILLATORTYPE_HSI)
 80007ca:	687b      	ldr	r3, [r7, #4]
 80007cc:	681b      	ldr	r3, [r3, #0]
 80007ce:	2202      	movs	r2, #2
 80007d0:	4013      	ands	r3, r2
 80007d2:	d100      	bne.n	80007d6 <HAL_RCC_OscConfig+0x13e>
 80007d4:	e098      	b.n	8000908 <HAL_RCC_OscConfig+0x270>
  {
    /* Check the parameters */
    assert_param(IS_RCC_HSI(RCC_OscInitStruct->HSIState));
    assert_param(IS_RCC_CALIBRATION_VALUE(RCC_OscInitStruct->HSICalibrationValue));

    hsi_state = RCC_OscInitStruct->HSIState;
 80007d6:	687b      	ldr	r3, [r7, #4]
 80007d8:	68db      	ldr	r3, [r3, #12]
 80007da:	627b      	str	r3, [r7, #36]	; 0x24

#if defined(RCC_CR_HSIOUTEN)
    if((hsi_state & RCC_HSI_OUTEN) != 0U)
 80007dc:	6a7b      	ldr	r3, [r7, #36]	; 0x24
 80007de:	2220      	movs	r2, #32
 80007e0:	4013      	ands	r3, r2
 80007e2:	d009      	beq.n	80007f8 <HAL_RCC_OscConfig+0x160>
    {
      /* HSI Output enable for timer requested */
      SET_BIT(RCC->CR, RCC_CR_HSIOUTEN);
 80007e4:	4b79      	ldr	r3, [pc, #484]	; (80009cc <HAL_RCC_OscConfig+0x334>)
 80007e6:	681a      	ldr	r2, [r3, #0]
 80007e8:	4b78      	ldr	r3, [pc, #480]	; (80009cc <HAL_RCC_OscConfig+0x334>)
 80007ea:	2120      	movs	r1, #32
 80007ec:	430a      	orrs	r2, r1
 80007ee:	601a      	str	r2, [r3, #0]

      hsi_state &= ~RCC_CR_HSIOUTEN;
 80007f0:	6a7b      	ldr	r3, [r7, #36]	; 0x24
 80007f2:	2220      	movs	r2, #32
 80007f4:	4393      	bics	r3, r2
 80007f6:	627b      	str	r3, [r7, #36]	; 0x24
    }
#endif

    /* Check if HSI is used as system clock or as PLL source when PLL is selected as system clock */
    if((sysclk_source == RCC_SYSCLKSOURCE_STATUS_HSI)
 80007f8:	69fb      	ldr	r3, [r7, #28]
 80007fa:	2b04      	cmp	r3, #4
 80007fc:	d005      	beq.n	800080a <HAL_RCC_OscConfig+0x172>
       || ((sysclk_source == RCC_SYSCLKSOURCE_STATUS_PLLCLK) && (pll_config == RCC_PLLSOURCE_HSI)))
 80007fe:	69fb      	ldr	r3, [r7, #28]
 8000800:	2b0c      	cmp	r3, #12
 8000802:	d13d      	bne.n	8000880 <HAL_RCC_OscConfig+0x1e8>
 8000804:	69bb      	ldr	r3, [r7, #24]
 8000806:	2b00      	cmp	r3, #0
 8000808:	d13a      	bne.n	8000880 <HAL_RCC_OscConfig+0x1e8>
    {
      /* When HSI is used as system clock it will not disabled */
      if((__HAL_RCC_GET_FLAG(RCC_FLAG_HSIRDY) != 0U) && (hsi_state == RCC_HSI_OFF))
 800080a:	4b70      	ldr	r3, [pc, #448]	; (80009cc <HAL_RCC_OscConfig+0x334>)
 800080c:	681b      	ldr	r3, [r3, #0]
 800080e:	2204      	movs	r2, #4
 8000810:	4013      	ands	r3, r2
 8000812:	d004      	beq.n	800081e <HAL_RCC_OscConfig+0x186>
 8000814:	6a7b      	ldr	r3, [r7, #36]	; 0x24
 8000816:	2b00      	cmp	r3, #0
 8000818:	d101      	bne.n	800081e <HAL_RCC_OscConfig+0x186>
      {
        return HAL_ERROR;
 800081a:	2301      	movs	r3, #1
 800081c:	e2b0      	b.n	8000d80 <HAL_RCC_OscConfig+0x6e8>
      }
      /* Otherwise, just the calibration and HSI or HSIdiv4 are allowed */
      else
      {
        /* Adjusts the Internal High Speed oscillator (HSI) calibration value.*/
        __HAL_RCC_HSI_CALIBRATIONVALUE_ADJUST(RCC_OscInitStruct->HSICalibrationValue);
 800081e:	4b6b      	ldr	r3, [pc, #428]	; (80009cc <HAL_RCC_OscConfig+0x334>)
 8000820:	685b      	ldr	r3, [r3, #4]
 8000822:	4a6d      	ldr	r2, [pc, #436]	; (80009d8 <HAL_RCC_OscConfig+0x340>)
 8000824:	4013      	ands	r3, r2
 8000826:	0019      	movs	r1, r3
 8000828:	687b      	ldr	r3, [r7, #4]
 800082a:	691b      	ldr	r3, [r3, #16]
 800082c:	021a      	lsls	r2, r3, #8
 800082e:	4b67      	ldr	r3, [pc, #412]	; (80009cc <HAL_RCC_OscConfig+0x334>)
 8000830:	430a      	orrs	r2, r1
 8000832:	605a      	str	r2, [r3, #4]

        /* Enable the Internal High Speed oscillator (HSI or HSIdiv4) */
        __HAL_RCC_HSI_CONFIG(hsi_state);
 8000834:	4b65      	ldr	r3, [pc, #404]	; (80009cc <HAL_RCC_OscConfig+0x334>)
 8000836:	681b      	ldr	r3, [r3, #0]
 8000838:	2209      	movs	r2, #9
 800083a:	4393      	bics	r3, r2
 800083c:	0019      	movs	r1, r3
 800083e:	4b63      	ldr	r3, [pc, #396]	; (80009cc <HAL_RCC_OscConfig+0x334>)
 8000840:	6a7a      	ldr	r2, [r7, #36]	; 0x24
 8000842:	430a      	orrs	r2, r1
 8000844:	601a      	str	r2, [r3, #0]
      }

      /* Update the SystemCoreClock global variable */
      SystemCoreClock = HAL_RCC_GetSysClockFreq() >> AHBPrescTable[(RCC->CFGR & RCC_CFGR_HPRE)>> RCC_CFGR_HPRE_Pos];
 8000846:	f000 fbcb 	bl	8000fe0 <HAL_RCC_GetSysClockFreq>
 800084a:	0001      	movs	r1, r0
 800084c:	4b5f      	ldr	r3, [pc, #380]	; (80009cc <HAL_RCC_OscConfig+0x334>)
 800084e:	68db      	ldr	r3, [r3, #12]
 8000850:	091b      	lsrs	r3, r3, #4
 8000852:	220f      	movs	r2, #15
 8000854:	4013      	ands	r3, r2
 8000856:	4a61      	ldr	r2, [pc, #388]	; (80009dc <HAL_RCC_OscConfig+0x344>)
 8000858:	5cd3      	ldrb	r3, [r2, r3]
 800085a:	000a      	movs	r2, r1
 800085c:	40da      	lsrs	r2, r3
 800085e:	4b60      	ldr	r3, [pc, #384]	; (80009e0 <HAL_RCC_OscConfig+0x348>)
 8000860:	601a      	str	r2, [r3, #0]

      /* Configure the source of time base considering new system clocks settings*/
      status = HAL_InitTick (TICK_INT_PRIORITY);
 8000862:	2513      	movs	r5, #19
 8000864:	197c      	adds	r4, r7, r5
 8000866:	2000      	movs	r0, #0
 8000868:	f7ff fe22 	bl	80004b0 <HAL_InitTick>
 800086c:	0003      	movs	r3, r0
 800086e:	7023      	strb	r3, [r4, #0]
      if(status != HAL_OK)
 8000870:	197b      	adds	r3, r7, r5
 8000872:	781b      	ldrb	r3, [r3, #0]
 8000874:	2b00      	cmp	r3, #0
 8000876:	d047      	beq.n	8000908 <HAL_RCC_OscConfig+0x270>
      {
        return status;
 8000878:	2313      	movs	r3, #19
 800087a:	18fb      	adds	r3, r7, r3
 800087c:	781b      	ldrb	r3, [r3, #0]
 800087e:	e27f      	b.n	8000d80 <HAL_RCC_OscConfig+0x6e8>
      }
    }
    else
    {
      /* Check the HSI State */
      if(hsi_state != RCC_HSI_OFF)
 8000880:	6a7b      	ldr	r3, [r7, #36]	; 0x24
 8000882:	2b00      	cmp	r3, #0
 8000884:	d027      	beq.n	80008d6 <HAL_RCC_OscConfig+0x23e>
      {
        /* Enable the Internal High Speed oscillator (HSI or HSIdiv4) */
        __HAL_RCC_HSI_CONFIG(hsi_state);
 8000886:	4b51      	ldr	r3, [pc, #324]	; (80009cc <HAL_RCC_OscConfig+0x334>)
 8000888:	681b      	ldr	r3, [r3, #0]
 800088a:	2209      	movs	r2, #9
 800088c:	4393      	bics	r3, r2
 800088e:	0019      	movs	r1, r3
 8000890:	4b4e      	ldr	r3, [pc, #312]	; (80009cc <HAL_RCC_OscConfig+0x334>)
 8000892:	6a7a      	ldr	r2, [r7, #36]	; 0x24
 8000894:	430a      	orrs	r2, r1
 8000896:	601a      	str	r2, [r3, #0]

        /* Get Start Tick */
        tickstart = HAL_GetTick();
 8000898:	f7ff fe40 	bl	800051c <HAL_GetTick>
 800089c:	0003      	movs	r3, r0
 800089e:	617b      	str	r3, [r7, #20]

        /* Wait till HSI is ready */
        while(__HAL_RCC_GET_FLAG(RCC_FLAG_HSIRDY) == 0U)
 80008a0:	e008      	b.n	80008b4 <HAL_RCC_OscConfig+0x21c>
        {
          if((HAL_GetTick() - tickstart ) > HSI_TIMEOUT_VALUE)
 80008a2:	f7ff fe3b 	bl	800051c <HAL_GetTick>
 80008a6:	0002      	movs	r2, r0
 80008a8:	697b      	ldr	r3, [r7, #20]
 80008aa:	1ad3      	subs	r3, r2, r3
 80008ac:	2b02      	cmp	r3, #2
 80008ae:	d901      	bls.n	80008b4 <HAL_RCC_OscConfig+0x21c>
          {
            return HAL_TIMEOUT;
 80008b0:	2303      	movs	r3, #3
 80008b2:	e265      	b.n	8000d80 <HAL_RCC_OscConfig+0x6e8>
        while(__HAL_RCC_GET_FLAG(RCC_FLAG_HSIRDY) == 0U)
 80008b4:	4b45      	ldr	r3, [pc, #276]	; (80009cc <HAL_RCC_OscConfig+0x334>)
 80008b6:	681b      	ldr	r3, [r3, #0]
 80008b8:	2204      	movs	r2, #4
 80008ba:	4013      	ands	r3, r2
 80008bc:	d0f1      	beq.n	80008a2 <HAL_RCC_OscConfig+0x20a>
          }
        }

        /* Adjusts the Internal High Speed oscillator (HSI) calibration value.*/
        __HAL_RCC_HSI_CALIBRATIONVALUE_ADJUST(RCC_OscInitStruct->HSICalibrationValue);
 80008be:	4b43      	ldr	r3, [pc, #268]	; (80009cc <HAL_RCC_OscConfig+0x334>)
 80008c0:	685b      	ldr	r3, [r3, #4]
 80008c2:	4a45      	ldr	r2, [pc, #276]	; (80009d8 <HAL_RCC_OscConfig+0x340>)
 80008c4:	4013      	ands	r3, r2
 80008c6:	0019      	movs	r1, r3
 80008c8:	687b      	ldr	r3, [r7, #4]
 80008ca:	691b      	ldr	r3, [r3, #16]
 80008cc:	021a      	lsls	r2, r3, #8
 80008ce:	4b3f      	ldr	r3, [pc, #252]	; (80009cc <HAL_RCC_OscConfig+0x334>)
 80008d0:	430a      	orrs	r2, r1
 80008d2:	605a      	str	r2, [r3, #4]
 80008d4:	e018      	b.n	8000908 <HAL_RCC_OscConfig+0x270>
      }
      else
      {
        /* Disable the Internal High Speed oscillator (HSI). */
        __HAL_RCC_HSI_DISABLE();
 80008d6:	4b3d      	ldr	r3, [pc, #244]	; (80009cc <HAL_RCC_OscConfig+0x334>)
 80008d8:	681a      	ldr	r2, [r3, #0]
 80008da:	4b3c      	ldr	r3, [pc, #240]	; (80009cc <HAL_RCC_OscConfig+0x334>)
 80008dc:	2101      	movs	r1, #1
 80008de:	438a      	bics	r2, r1
 80008e0:	601a      	str	r2, [r3, #0]

        /* Get Start Tick */
        tickstart = HAL_GetTick();
 80008e2:	f7ff fe1b 	bl	800051c <HAL_GetTick>
 80008e6:	0003      	movs	r3, r0
 80008e8:	617b      	str	r3, [r7, #20]

        /* Wait till HSI is disabled */
        while(__HAL_RCC_GET_FLAG(RCC_FLAG_HSIRDY) != 0U)
 80008ea:	e008      	b.n	80008fe <HAL_RCC_OscConfig+0x266>
        {
          if((HAL_GetTick() - tickstart ) > HSI_TIMEOUT_VALUE)
 80008ec:	f7ff fe16 	bl	800051c <HAL_GetTick>
 80008f0:	0002      	movs	r2, r0
 80008f2:	697b      	ldr	r3, [r7, #20]
 80008f4:	1ad3      	subs	r3, r2, r3
 80008f6:	2b02      	cmp	r3, #2
 80008f8:	d901      	bls.n	80008fe <HAL_RCC_OscConfig+0x266>
          {
            return HAL_TIMEOUT;
 80008fa:	2303      	movs	r3, #3
 80008fc:	e240      	b.n	8000d80 <HAL_RCC_OscConfig+0x6e8>
        while(__HAL_RCC_GET_FLAG(RCC_FLAG_HSIRDY) != 0U)
 80008fe:	4b33      	ldr	r3, [pc, #204]	; (80009cc <HAL_RCC_OscConfig+0x334>)
 8000900:	681b      	ldr	r3, [r3, #0]
 8000902:	2204      	movs	r2, #4
 8000904:	4013      	ands	r3, r2
 8000906:	d1f1      	bne.n	80008ec <HAL_RCC_OscConfig+0x254>
        }
      }
    }
  }
  /*----------------------------- MSI Configuration --------------------------*/
  if(((RCC_OscInitStruct->OscillatorType) & RCC_OSCILLATORTYPE_MSI) == RCC_OSCILLATORTYPE_MSI)
 8000908:	687b      	ldr	r3, [r7, #4]
 800090a:	681b      	ldr	r3, [r3, #0]
 800090c:	2210      	movs	r2, #16
 800090e:	4013      	ands	r3, r2
 8000910:	d100      	bne.n	8000914 <HAL_RCC_OscConfig+0x27c>
 8000912:	e09e      	b.n	8000a52 <HAL_RCC_OscConfig+0x3ba>
  {
    /* When the MSI is used as system clock it will not be disabled */
    if((sysclk_source == RCC_CFGR_SWS_MSI) )
 8000914:	69fb      	ldr	r3, [r7, #28]
 8000916:	2b00      	cmp	r3, #0
 8000918:	d13f      	bne.n	800099a <HAL_RCC_OscConfig+0x302>
    {
      if((__HAL_RCC_GET_FLAG(RCC_FLAG_MSIRDY) != 0U) && (RCC_OscInitStruct->MSIState == RCC_MSI_OFF))
 800091a:	4b2c      	ldr	r3, [pc, #176]	; (80009cc <HAL_RCC_OscConfig+0x334>)
 800091c:	681a      	ldr	r2, [r3, #0]
 800091e:	2380      	movs	r3, #128	; 0x80
 8000920:	009b      	lsls	r3, r3, #2
 8000922:	4013      	ands	r3, r2
 8000924:	d005      	beq.n	8000932 <HAL_RCC_OscConfig+0x29a>
 8000926:	687b      	ldr	r3, [r7, #4]
 8000928:	699b      	ldr	r3, [r3, #24]
 800092a:	2b00      	cmp	r3, #0
 800092c:	d101      	bne.n	8000932 <HAL_RCC_OscConfig+0x29a>
      {
        return HAL_ERROR;
 800092e:	2301      	movs	r3, #1
 8000930:	e226      	b.n	8000d80 <HAL_RCC_OscConfig+0x6e8>
        /* Check MSICalibrationValue and MSIClockRange input parameters */
        assert_param(IS_RCC_MSICALIBRATION_VALUE(RCC_OscInitStruct->MSICalibrationValue));
        assert_param(IS_RCC_MSI_CLOCK_RANGE(RCC_OscInitStruct->MSIClockRange));

        /* Selects the Multiple Speed oscillator (MSI) clock range .*/
        __HAL_RCC_MSI_RANGE_CONFIG(RCC_OscInitStruct->MSIClockRange);
 8000932:	4b26      	ldr	r3, [pc, #152]	; (80009cc <HAL_RCC_OscConfig+0x334>)
 8000934:	685b      	ldr	r3, [r3, #4]
 8000936:	4a2b      	ldr	r2, [pc, #172]	; (80009e4 <HAL_RCC_OscConfig+0x34c>)
 8000938:	4013      	ands	r3, r2
 800093a:	0019      	movs	r1, r3
 800093c:	687b      	ldr	r3, [r7, #4]
 800093e:	6a1a      	ldr	r2, [r3, #32]
 8000940:	4b22      	ldr	r3, [pc, #136]	; (80009cc <HAL_RCC_OscConfig+0x334>)
 8000942:	430a      	orrs	r2, r1
 8000944:	605a      	str	r2, [r3, #4]
        /* Adjusts the Multiple Speed oscillator (MSI) calibration value.*/
        __HAL_RCC_MSI_CALIBRATIONVALUE_ADJUST(RCC_OscInitStruct->MSICalibrationValue);
 8000946:	4b21      	ldr	r3, [pc, #132]	; (80009cc <HAL_RCC_OscConfig+0x334>)
 8000948:	685b      	ldr	r3, [r3, #4]
 800094a:	021b      	lsls	r3, r3, #8
 800094c:	0a19      	lsrs	r1, r3, #8
 800094e:	687b      	ldr	r3, [r7, #4]
 8000950:	69db      	ldr	r3, [r3, #28]
 8000952:	061a      	lsls	r2, r3, #24
 8000954:	4b1d      	ldr	r3, [pc, #116]	; (80009cc <HAL_RCC_OscConfig+0x334>)
 8000956:	430a      	orrs	r2, r1
 8000958:	605a      	str	r2, [r3, #4]


        /* Update the SystemCoreClock global variable */
        SystemCoreClock =  (32768U * (1UL << ((RCC_OscInitStruct->MSIClockRange >> RCC_ICSCR_MSIRANGE_Pos) + 1U)))
 800095a:	687b      	ldr	r3, [r7, #4]
 800095c:	6a1b      	ldr	r3, [r3, #32]
 800095e:	0b5b      	lsrs	r3, r3, #13
 8000960:	3301      	adds	r3, #1
 8000962:	2280      	movs	r2, #128	; 0x80
 8000964:	0212      	lsls	r2, r2, #8
 8000966:	409a      	lsls	r2, r3
                           >> AHBPrescTable[((RCC->CFGR & RCC_CFGR_HPRE) >> RCC_CFGR_HPRE_Pos)];
 8000968:	4b18      	ldr	r3, [pc, #96]	; (80009cc <HAL_RCC_OscConfig+0x334>)
 800096a:	68db      	ldr	r3, [r3, #12]
 800096c:	091b      	lsrs	r3, r3, #4
 800096e:	210f      	movs	r1, #15
 8000970:	400b      	ands	r3, r1
 8000972:	491a      	ldr	r1, [pc, #104]	; (80009dc <HAL_RCC_OscConfig+0x344>)
 8000974:	5ccb      	ldrb	r3, [r1, r3]
 8000976:	40da      	lsrs	r2, r3
        SystemCoreClock =  (32768U * (1UL << ((RCC_OscInitStruct->MSIClockRange >> RCC_ICSCR_MSIRANGE_Pos) + 1U)))
 8000978:	4b19      	ldr	r3, [pc, #100]	; (80009e0 <HAL_RCC_OscConfig+0x348>)
 800097a:	601a      	str	r2, [r3, #0]

        /* Configure the source of time base considering new system clocks settings*/
        status = HAL_InitTick (TICK_INT_PRIORITY);
 800097c:	2513      	movs	r5, #19
 800097e:	197c      	adds	r4, r7, r5
 8000980:	2000      	movs	r0, #0
 8000982:	f7ff fd95 	bl	80004b0 <HAL_InitTick>
 8000986:	0003      	movs	r3, r0
 8000988:	7023      	strb	r3, [r4, #0]
        if(status != HAL_OK)
 800098a:	197b      	adds	r3, r7, r5
 800098c:	781b      	ldrb	r3, [r3, #0]
 800098e:	2b00      	cmp	r3, #0
 8000990:	d05f      	beq.n	8000a52 <HAL_RCC_OscConfig+0x3ba>
        {
          return status;
 8000992:	2313      	movs	r3, #19
 8000994:	18fb      	adds	r3, r7, r3
 8000996:	781b      	ldrb	r3, [r3, #0]
 8000998:	e1f2      	b.n	8000d80 <HAL_RCC_OscConfig+0x6e8>
    {
      /* Check MSI State */
      assert_param(IS_RCC_MSI(RCC_OscInitStruct->MSIState));

      /* Check the MSI State */
      if(RCC_OscInitStruct->MSIState != RCC_MSI_OFF)
 800099a:	687b      	ldr	r3, [r7, #4]
 800099c:	699b      	ldr	r3, [r3, #24]
 800099e:	2b00      	cmp	r3, #0
 80009a0:	d03d      	beq.n	8000a1e <HAL_RCC_OscConfig+0x386>
      {
        /* Enable the Multi Speed oscillator (MSI). */
        __HAL_RCC_MSI_ENABLE();
 80009a2:	4b0a      	ldr	r3, [pc, #40]	; (80009cc <HAL_RCC_OscConfig+0x334>)
 80009a4:	681a      	ldr	r2, [r3, #0]
 80009a6:	4b09      	ldr	r3, [pc, #36]	; (80009cc <HAL_RCC_OscConfig+0x334>)
 80009a8:	2180      	movs	r1, #128	; 0x80
 80009aa:	0049      	lsls	r1, r1, #1
 80009ac:	430a      	orrs	r2, r1
 80009ae:	601a      	str	r2, [r3, #0]

        /* Get Start Tick */
        tickstart = HAL_GetTick();
 80009b0:	f7ff fdb4 	bl	800051c <HAL_GetTick>
 80009b4:	0003      	movs	r3, r0
 80009b6:	617b      	str	r3, [r7, #20]

        /* Wait till MSI is ready */
        while(__HAL_RCC_GET_FLAG(RCC_FLAG_MSIRDY) == 0U)
 80009b8:	e016      	b.n	80009e8 <HAL_RCC_OscConfig+0x350>
        {
          if((HAL_GetTick() - tickstart) > MSI_TIMEOUT_VALUE)
 80009ba:	f7ff fdaf 	bl	800051c <HAL_GetTick>
 80009be:	0002      	movs	r2, r0
 80009c0:	697b      	ldr	r3, [r7, #20]
 80009c2:	1ad3      	subs	r3, r2, r3
 80009c4:	2b02      	cmp	r3, #2
 80009c6:	d90f      	bls.n	80009e8 <HAL_RCC_OscConfig+0x350>
          {
            return HAL_TIMEOUT;
 80009c8:	2303      	movs	r3, #3
 80009ca:	e1d9      	b.n	8000d80 <HAL_RCC_OscConfig+0x6e8>
 80009cc:	40021000 	.word	0x40021000
 80009d0:	fffeffff 	.word	0xfffeffff
 80009d4:	fffbffff 	.word	0xfffbffff
 80009d8:	ffffe0ff 	.word	0xffffe0ff
 80009dc:	08001158 	.word	0x08001158
 80009e0:	20000000 	.word	0x20000000
 80009e4:	ffff1fff 	.word	0xffff1fff
        while(__HAL_RCC_GET_FLAG(RCC_FLAG_MSIRDY) == 0U)
 80009e8:	4bca      	ldr	r3, [pc, #808]	; (8000d14 <HAL_RCC_OscConfig+0x67c>)
 80009ea:	681a      	ldr	r2, [r3, #0]
 80009ec:	2380      	movs	r3, #128	; 0x80
 80009ee:	009b      	lsls	r3, r3, #2
 80009f0:	4013      	ands	r3, r2
 80009f2:	d0e2      	beq.n	80009ba <HAL_RCC_OscConfig+0x322>
        /* Check MSICalibrationValue and MSIClockRange input parameters */
        assert_param(IS_RCC_MSICALIBRATION_VALUE(RCC_OscInitStruct->MSICalibrationValue));
        assert_param(IS_RCC_MSI_CLOCK_RANGE(RCC_OscInitStruct->MSIClockRange));

        /* Selects the Multiple Speed oscillator (MSI) clock range .*/
        __HAL_RCC_MSI_RANGE_CONFIG(RCC_OscInitStruct->MSIClockRange);
 80009f4:	4bc7      	ldr	r3, [pc, #796]	; (8000d14 <HAL_RCC_OscConfig+0x67c>)
 80009f6:	685b      	ldr	r3, [r3, #4]
 80009f8:	4ac7      	ldr	r2, [pc, #796]	; (8000d18 <HAL_RCC_OscConfig+0x680>)
 80009fa:	4013      	ands	r3, r2
 80009fc:	0019      	movs	r1, r3
 80009fe:	687b      	ldr	r3, [r7, #4]
 8000a00:	6a1a      	ldr	r2, [r3, #32]
 8000a02:	4bc4      	ldr	r3, [pc, #784]	; (8000d14 <HAL_RCC_OscConfig+0x67c>)
 8000a04:	430a      	orrs	r2, r1
 8000a06:	605a      	str	r2, [r3, #4]
         /* Adjusts the Multiple Speed oscillator (MSI) calibration value.*/
        __HAL_RCC_MSI_CALIBRATIONVALUE_ADJUST(RCC_OscInitStruct->MSICalibrationValue);
 8000a08:	4bc2      	ldr	r3, [pc, #776]	; (8000d14 <HAL_RCC_OscConfig+0x67c>)
 8000a0a:	685b      	ldr	r3, [r3, #4]
 8000a0c:	021b      	lsls	r3, r3, #8
 8000a0e:	0a19      	lsrs	r1, r3, #8
 8000a10:	687b      	ldr	r3, [r7, #4]
 8000a12:	69db      	ldr	r3, [r3, #28]
 8000a14:	061a      	lsls	r2, r3, #24
 8000a16:	4bbf      	ldr	r3, [pc, #764]	; (8000d14 <HAL_RCC_OscConfig+0x67c>)
 8000a18:	430a      	orrs	r2, r1
 8000a1a:	605a      	str	r2, [r3, #4]
 8000a1c:	e019      	b.n	8000a52 <HAL_RCC_OscConfig+0x3ba>
      }
      else
      {
        /* Disable the Multi Speed oscillator (MSI). */
        __HAL_RCC_MSI_DISABLE();
 8000a1e:	4bbd      	ldr	r3, [pc, #756]	; (8000d14 <HAL_RCC_OscConfig+0x67c>)
 8000a20:	681a      	ldr	r2, [r3, #0]
 8000a22:	4bbc      	ldr	r3, [pc, #752]	; (8000d14 <HAL_RCC_OscConfig+0x67c>)
 8000a24:	49bd      	ldr	r1, [pc, #756]	; (8000d1c <HAL_RCC_OscConfig+0x684>)
 8000a26:	400a      	ands	r2, r1
 8000a28:	601a      	str	r2, [r3, #0]

        /* Get Start Tick */
        tickstart = HAL_GetTick();
 8000a2a:	f7ff fd77 	bl	800051c <HAL_GetTick>
 8000a2e:	0003      	movs	r3, r0
 8000a30:	617b      	str	r3, [r7, #20]

        /* Wait till MSI is ready */
        while(__HAL_RCC_GET_FLAG(RCC_FLAG_MSIRDY) != 0U)
 8000a32:	e008      	b.n	8000a46 <HAL_RCC_OscConfig+0x3ae>
        {
          if((HAL_GetTick() - tickstart) > MSI_TIMEOUT_VALUE)
 8000a34:	f7ff fd72 	bl	800051c <HAL_GetTick>
 8000a38:	0002      	movs	r2, r0
 8000a3a:	697b      	ldr	r3, [r7, #20]
 8000a3c:	1ad3      	subs	r3, r2, r3
 8000a3e:	2b02      	cmp	r3, #2
 8000a40:	d901      	bls.n	8000a46 <HAL_RCC_OscConfig+0x3ae>
          {
            return HAL_TIMEOUT;
 8000a42:	2303      	movs	r3, #3
 8000a44:	e19c      	b.n	8000d80 <HAL_RCC_OscConfig+0x6e8>
        while(__HAL_RCC_GET_FLAG(RCC_FLAG_MSIRDY) != 0U)
 8000a46:	4bb3      	ldr	r3, [pc, #716]	; (8000d14 <HAL_RCC_OscConfig+0x67c>)
 8000a48:	681a      	ldr	r2, [r3, #0]
 8000a4a:	2380      	movs	r3, #128	; 0x80
 8000a4c:	009b      	lsls	r3, r3, #2
 8000a4e:	4013      	ands	r3, r2
 8000a50:	d1f0      	bne.n	8000a34 <HAL_RCC_OscConfig+0x39c>
        }
      }
    }
  }
  /*------------------------------ LSI Configuration -------------------------*/
  if(((RCC_OscInitStruct->OscillatorType) & RCC_OSCILLATORTYPE_LSI) == RCC_OSCILLATORTYPE_LSI)
 8000a52:	687b      	ldr	r3, [r7, #4]
 8000a54:	681b      	ldr	r3, [r3, #0]
 8000a56:	2208      	movs	r2, #8
 8000a58:	4013      	ands	r3, r2
 8000a5a:	d036      	beq.n	8000aca <HAL_RCC_OscConfig+0x432>
  {
    /* Check the parameters */
    assert_param(IS_RCC_LSI(RCC_OscInitStruct->LSIState));

    /* Check the LSI State */
    if(RCC_OscInitStruct->LSIState != RCC_LSI_OFF)
 8000a5c:	687b      	ldr	r3, [r7, #4]
 8000a5e:	695b      	ldr	r3, [r3, #20]
 8000a60:	2b00      	cmp	r3, #0
 8000a62:	d019      	beq.n	8000a98 <HAL_RCC_OscConfig+0x400>
    {
      /* Enable the Internal Low Speed oscillator (LSI). */
      __HAL_RCC_LSI_ENABLE();
 8000a64:	4bab      	ldr	r3, [pc, #684]	; (8000d14 <HAL_RCC_OscConfig+0x67c>)
 8000a66:	6d1a      	ldr	r2, [r3, #80]	; 0x50
 8000a68:	4baa      	ldr	r3, [pc, #680]	; (8000d14 <HAL_RCC_OscConfig+0x67c>)
 8000a6a:	2101      	movs	r1, #1
 8000a6c:	430a      	orrs	r2, r1
 8000a6e:	651a      	str	r2, [r3, #80]	; 0x50

      /* Get Start Tick */
      tickstart = HAL_GetTick();
 8000a70:	f7ff fd54 	bl	800051c <HAL_GetTick>
 8000a74:	0003      	movs	r3, r0
 8000a76:	617b      	str	r3, [r7, #20]

      /* Wait till LSI is ready */
      while(__HAL_RCC_GET_FLAG(RCC_FLAG_LSIRDY) == 0U)
 8000a78:	e008      	b.n	8000a8c <HAL_RCC_OscConfig+0x3f4>
      {
        if((HAL_GetTick() - tickstart ) > LSI_TIMEOUT_VALUE)
 8000a7a:	f7ff fd4f 	bl	800051c <HAL_GetTick>
 8000a7e:	0002      	movs	r2, r0
 8000a80:	697b      	ldr	r3, [r7, #20]
 8000a82:	1ad3      	subs	r3, r2, r3
 8000a84:	2b02      	cmp	r3, #2
 8000a86:	d901      	bls.n	8000a8c <HAL_RCC_OscConfig+0x3f4>
        {
          return HAL_TIMEOUT;
 8000a88:	2303      	movs	r3, #3
 8000a8a:	e179      	b.n	8000d80 <HAL_RCC_OscConfig+0x6e8>
      while(__HAL_RCC_GET_FLAG(RCC_FLAG_LSIRDY) == 0U)
 8000a8c:	4ba1      	ldr	r3, [pc, #644]	; (8000d14 <HAL_RCC_OscConfig+0x67c>)
 8000a8e:	6d1b      	ldr	r3, [r3, #80]	; 0x50
 8000a90:	2202      	movs	r2, #2
 8000a92:	4013      	ands	r3, r2
 8000a94:	d0f1      	beq.n	8000a7a <HAL_RCC_OscConfig+0x3e2>
 8000a96:	e018      	b.n	8000aca <HAL_RCC_OscConfig+0x432>
      }
    }
    else
    {
      /* Disable the Internal Low Speed oscillator (LSI). */
      __HAL_RCC_LSI_DISABLE();
 8000a98:	4b9e      	ldr	r3, [pc, #632]	; (8000d14 <HAL_RCC_OscConfig+0x67c>)
 8000a9a:	6d1a      	ldr	r2, [r3, #80]	; 0x50
 8000a9c:	4b9d      	ldr	r3, [pc, #628]	; (8000d14 <HAL_RCC_OscConfig+0x67c>)
 8000a9e:	2101      	movs	r1, #1
 8000aa0:	438a      	bics	r2, r1
 8000aa2:	651a      	str	r2, [r3, #80]	; 0x50

      /* Get Start Tick */
      tickstart = HAL_GetTick();
 8000aa4:	f7ff fd3a 	bl	800051c <HAL_GetTick>
 8000aa8:	0003      	movs	r3, r0
 8000aaa:	617b      	str	r3, [r7, #20]

      /* Wait till LSI is disabled */
      while(__HAL_RCC_GET_FLAG(RCC_FLAG_LSIRDY) != 0U)
 8000aac:	e008      	b.n	8000ac0 <HAL_RCC_OscConfig+0x428>
      {
        if((HAL_GetTick() - tickstart ) > LSI_TIMEOUT_VALUE)
 8000aae:	f7ff fd35 	bl	800051c <HAL_GetTick>
 8000ab2:	0002      	movs	r2, r0
 8000ab4:	697b      	ldr	r3, [r7, #20]
 8000ab6:	1ad3      	subs	r3, r2, r3
 8000ab8:	2b02      	cmp	r3, #2
 8000aba:	d901      	bls.n	8000ac0 <HAL_RCC_OscConfig+0x428>
        {
          return HAL_TIMEOUT;
 8000abc:	2303      	movs	r3, #3
 8000abe:	e15f      	b.n	8000d80 <HAL_RCC_OscConfig+0x6e8>
      while(__HAL_RCC_GET_FLAG(RCC_FLAG_LSIRDY) != 0U)
 8000ac0:	4b94      	ldr	r3, [pc, #592]	; (8000d14 <HAL_RCC_OscConfig+0x67c>)
 8000ac2:	6d1b      	ldr	r3, [r3, #80]	; 0x50
 8000ac4:	2202      	movs	r2, #2
 8000ac6:	4013      	ands	r3, r2
 8000ac8:	d1f1      	bne.n	8000aae <HAL_RCC_OscConfig+0x416>
        }
      }
    }
  }
  /*------------------------------ LSE Configuration -------------------------*/
  if(((RCC_OscInitStruct->OscillatorType) & RCC_OSCILLATORTYPE_LSE) == RCC_OSCILLATORTYPE_LSE)
 8000aca:	687b      	ldr	r3, [r7, #4]
 8000acc:	681b      	ldr	r3, [r3, #0]
 8000ace:	2204      	movs	r2, #4
 8000ad0:	4013      	ands	r3, r2
 8000ad2:	d100      	bne.n	8000ad6 <HAL_RCC_OscConfig+0x43e>
 8000ad4:	e0af      	b.n	8000c36 <HAL_RCC_OscConfig+0x59e>
  {
    FlagStatus       pwrclkchanged = RESET;
 8000ad6:	2323      	movs	r3, #35	; 0x23
 8000ad8:	18fb      	adds	r3, r7, r3
 8000ada:	2200      	movs	r2, #0
 8000adc:	701a      	strb	r2, [r3, #0]
    /* Check the parameters */
    assert_param(IS_RCC_LSE(RCC_OscInitStruct->LSEState));

    /* Update LSE configuration in Backup Domain control register    */
    /* Requires to enable write access to Backup Domain of necessary */
    if(__HAL_RCC_PWR_IS_CLK_DISABLED())
 8000ade:	4b8d      	ldr	r3, [pc, #564]	; (8000d14 <HAL_RCC_OscConfig+0x67c>)
 8000ae0:	6b9a      	ldr	r2, [r3, #56]	; 0x38
 8000ae2:	2380      	movs	r3, #128	; 0x80
 8000ae4:	055b      	lsls	r3, r3, #21
 8000ae6:	4013      	ands	r3, r2
 8000ae8:	d10a      	bne.n	8000b00 <HAL_RCC_OscConfig+0x468>
    {
      __HAL_RCC_PWR_CLK_ENABLE();
 8000aea:	4b8a      	ldr	r3, [pc, #552]	; (8000d14 <HAL_RCC_OscConfig+0x67c>)
 8000aec:	6b9a      	ldr	r2, [r3, #56]	; 0x38
 8000aee:	4b89      	ldr	r3, [pc, #548]	; (8000d14 <HAL_RCC_OscConfig+0x67c>)
 8000af0:	2180      	movs	r1, #128	; 0x80
 8000af2:	0549      	lsls	r1, r1, #21
 8000af4:	430a      	orrs	r2, r1
 8000af6:	639a      	str	r2, [r3, #56]	; 0x38
      pwrclkchanged = SET;
 8000af8:	2323      	movs	r3, #35	; 0x23
 8000afa:	18fb      	adds	r3, r7, r3
 8000afc:	2201      	movs	r2, #1
 8000afe:	701a      	strb	r2, [r3, #0]
    }

    if(HAL_IS_BIT_CLR(PWR->CR, PWR_CR_DBP))
 8000b00:	4b87      	ldr	r3, [pc, #540]	; (8000d20 <HAL_RCC_OscConfig+0x688>)
 8000b02:	681a      	ldr	r2, [r3, #0]
 8000b04:	2380      	movs	r3, #128	; 0x80
 8000b06:	005b      	lsls	r3, r3, #1
 8000b08:	4013      	ands	r3, r2
 8000b0a:	d11a      	bne.n	8000b42 <HAL_RCC_OscConfig+0x4aa>
    {
      /* Enable write access to Backup domain */
      SET_BIT(PWR->CR, PWR_CR_DBP);
 8000b0c:	4b84      	ldr	r3, [pc, #528]	; (8000d20 <HAL_RCC_OscConfig+0x688>)
 8000b0e:	681a      	ldr	r2, [r3, #0]
 8000b10:	4b83      	ldr	r3, [pc, #524]	; (8000d20 <HAL_RCC_OscConfig+0x688>)
 8000b12:	2180      	movs	r1, #128	; 0x80
 8000b14:	0049      	lsls	r1, r1, #1
 8000b16:	430a      	orrs	r2, r1
 8000b18:	601a      	str	r2, [r3, #0]

      /* Wait for Backup domain Write protection disable */
      tickstart = HAL_GetTick();
 8000b1a:	f7ff fcff 	bl	800051c <HAL_GetTick>
 8000b1e:	0003      	movs	r3, r0
 8000b20:	617b      	str	r3, [r7, #20]

      while(HAL_IS_BIT_CLR(PWR->CR, PWR_CR_DBP))
 8000b22:	e008      	b.n	8000b36 <HAL_RCC_OscConfig+0x49e>
      {
        if((HAL_GetTick() - tickstart) > RCC_DBP_TIMEOUT_VALUE)
 8000b24:	f7ff fcfa 	bl	800051c <HAL_GetTick>
 8000b28:	0002      	movs	r2, r0
 8000b2a:	697b      	ldr	r3, [r7, #20]
 8000b2c:	1ad3      	subs	r3, r2, r3
 8000b2e:	2b64      	cmp	r3, #100	; 0x64
 8000b30:	d901      	bls.n	8000b36 <HAL_RCC_OscConfig+0x49e>
        {
          return HAL_TIMEOUT;
 8000b32:	2303      	movs	r3, #3
 8000b34:	e124      	b.n	8000d80 <HAL_RCC_OscConfig+0x6e8>
      while(HAL_IS_BIT_CLR(PWR->CR, PWR_CR_DBP))
 8000b36:	4b7a      	ldr	r3, [pc, #488]	; (8000d20 <HAL_RCC_OscConfig+0x688>)
 8000b38:	681a      	ldr	r2, [r3, #0]
 8000b3a:	2380      	movs	r3, #128	; 0x80
 8000b3c:	005b      	lsls	r3, r3, #1
 8000b3e:	4013      	ands	r3, r2
 8000b40:	d0f0      	beq.n	8000b24 <HAL_RCC_OscConfig+0x48c>
        }
      }
    }

    /* Set the new LSE configuration -----------------------------------------*/
    __HAL_RCC_LSE_CONFIG(RCC_OscInitStruct->LSEState);
 8000b42:	687b      	ldr	r3, [r7, #4]
 8000b44:	689a      	ldr	r2, [r3, #8]
 8000b46:	2380      	movs	r3, #128	; 0x80
 8000b48:	005b      	lsls	r3, r3, #1
 8000b4a:	429a      	cmp	r2, r3
 8000b4c:	d107      	bne.n	8000b5e <HAL_RCC_OscConfig+0x4c6>
 8000b4e:	4b71      	ldr	r3, [pc, #452]	; (8000d14 <HAL_RCC_OscConfig+0x67c>)
 8000b50:	6d1a      	ldr	r2, [r3, #80]	; 0x50
 8000b52:	4b70      	ldr	r3, [pc, #448]	; (8000d14 <HAL_RCC_OscConfig+0x67c>)
 8000b54:	2180      	movs	r1, #128	; 0x80
 8000b56:	0049      	lsls	r1, r1, #1
 8000b58:	430a      	orrs	r2, r1
 8000b5a:	651a      	str	r2, [r3, #80]	; 0x50
 8000b5c:	e031      	b.n	8000bc2 <HAL_RCC_OscConfig+0x52a>
 8000b5e:	687b      	ldr	r3, [r7, #4]
 8000b60:	689b      	ldr	r3, [r3, #8]
 8000b62:	2b00      	cmp	r3, #0
 8000b64:	d10c      	bne.n	8000b80 <HAL_RCC_OscConfig+0x4e8>
 8000b66:	4b6b      	ldr	r3, [pc, #428]	; (8000d14 <HAL_RCC_OscConfig+0x67c>)
 8000b68:	6d1a      	ldr	r2, [r3, #80]	; 0x50
 8000b6a:	4b6a      	ldr	r3, [pc, #424]	; (8000d14 <HAL_RCC_OscConfig+0x67c>)
 8000b6c:	496b      	ldr	r1, [pc, #428]	; (8000d1c <HAL_RCC_OscConfig+0x684>)
 8000b6e:	400a      	ands	r2, r1
 8000b70:	651a      	str	r2, [r3, #80]	; 0x50
 8000b72:	4b68      	ldr	r3, [pc, #416]	; (8000d14 <HAL_RCC_OscConfig+0x67c>)
 8000b74:	6d1a      	ldr	r2, [r3, #80]	; 0x50
 8000b76:	4b67      	ldr	r3, [pc, #412]	; (8000d14 <HAL_RCC_OscConfig+0x67c>)
 8000b78:	496a      	ldr	r1, [pc, #424]	; (8000d24 <HAL_RCC_OscConfig+0x68c>)
 8000b7a:	400a      	ands	r2, r1
 8000b7c:	651a      	str	r2, [r3, #80]	; 0x50
 8000b7e:	e020      	b.n	8000bc2 <HAL_RCC_OscConfig+0x52a>
 8000b80:	687b      	ldr	r3, [r7, #4]
 8000b82:	689a      	ldr	r2, [r3, #8]
 8000b84:	23a0      	movs	r3, #160	; 0xa0
 8000b86:	00db      	lsls	r3, r3, #3
 8000b88:	429a      	cmp	r2, r3
 8000b8a:	d10e      	bne.n	8000baa <HAL_RCC_OscConfig+0x512>
 8000b8c:	4b61      	ldr	r3, [pc, #388]	; (8000d14 <HAL_RCC_OscConfig+0x67c>)
 8000b8e:	6d1a      	ldr	r2, [r3, #80]	; 0x50
 8000b90:	4b60      	ldr	r3, [pc, #384]	; (8000d14 <HAL_RCC_OscConfig+0x67c>)
 8000b92:	2180      	movs	r1, #128	; 0x80
 8000b94:	00c9      	lsls	r1, r1, #3
 8000b96:	430a      	orrs	r2, r1
 8000b98:	651a      	str	r2, [r3, #80]	; 0x50
 8000b9a:	4b5e      	ldr	r3, [pc, #376]	; (8000d14 <HAL_RCC_OscConfig+0x67c>)
 8000b9c:	6d1a      	ldr	r2, [r3, #80]	; 0x50
 8000b9e:	4b5d      	ldr	r3, [pc, #372]	; (8000d14 <HAL_RCC_OscConfig+0x67c>)
 8000ba0:	2180      	movs	r1, #128	; 0x80
 8000ba2:	0049      	lsls	r1, r1, #1
 8000ba4:	430a      	orrs	r2, r1
 8000ba6:	651a      	str	r2, [r3, #80]	; 0x50
 8000ba8:	e00b      	b.n	8000bc2 <HAL_RCC_OscConfig+0x52a>
 8000baa:	4b5a      	ldr	r3, [pc, #360]	; (8000d14 <HAL_RCC_OscConfig+0x67c>)
 8000bac:	6d1a      	ldr	r2, [r3, #80]	; 0x50
 8000bae:	4b59      	ldr	r3, [pc, #356]	; (8000d14 <HAL_RCC_OscConfig+0x67c>)
 8000bb0:	495a      	ldr	r1, [pc, #360]	; (8000d1c <HAL_RCC_OscConfig+0x684>)
 8000bb2:	400a      	ands	r2, r1
 8000bb4:	651a      	str	r2, [r3, #80]	; 0x50
 8000bb6:	4b57      	ldr	r3, [pc, #348]	; (8000d14 <HAL_RCC_OscConfig+0x67c>)
 8000bb8:	6d1a      	ldr	r2, [r3, #80]	; 0x50
 8000bba:	4b56      	ldr	r3, [pc, #344]	; (8000d14 <HAL_RCC_OscConfig+0x67c>)
 8000bbc:	4959      	ldr	r1, [pc, #356]	; (8000d24 <HAL_RCC_OscConfig+0x68c>)
 8000bbe:	400a      	ands	r2, r1
 8000bc0:	651a      	str	r2, [r3, #80]	; 0x50
    /* Check the LSE State */
    if(RCC_OscInitStruct->LSEState != RCC_LSE_OFF)
 8000bc2:	687b      	ldr	r3, [r7, #4]
 8000bc4:	689b      	ldr	r3, [r3, #8]
 8000bc6:	2b00      	cmp	r3, #0
 8000bc8:	d015      	beq.n	8000bf6 <HAL_RCC_OscConfig+0x55e>
    {
      /* Get Start Tick */
      tickstart = HAL_GetTick();
 8000bca:	f7ff fca7 	bl	800051c <HAL_GetTick>
 8000bce:	0003      	movs	r3, r0
 8000bd0:	617b      	str	r3, [r7, #20]

      /* Wait till LSE is ready */
      while(__HAL_RCC_GET_FLAG(RCC_FLAG_LSERDY) == 0U)
 8000bd2:	e009      	b.n	8000be8 <HAL_RCC_OscConfig+0x550>
      {
        if((HAL_GetTick() - tickstart ) > RCC_LSE_TIMEOUT_VALUE)
 8000bd4:	f7ff fca2 	bl	800051c <HAL_GetTick>
 8000bd8:	0002      	movs	r2, r0
 8000bda:	697b      	ldr	r3, [r7, #20]
 8000bdc:	1ad3      	subs	r3, r2, r3
 8000bde:	4a52      	ldr	r2, [pc, #328]	; (8000d28 <HAL_RCC_OscConfig+0x690>)
 8000be0:	4293      	cmp	r3, r2
 8000be2:	d901      	bls.n	8000be8 <HAL_RCC_OscConfig+0x550>
        {
          return HAL_TIMEOUT;
 8000be4:	2303      	movs	r3, #3
 8000be6:	e0cb      	b.n	8000d80 <HAL_RCC_OscConfig+0x6e8>
      while(__HAL_RCC_GET_FLAG(RCC_FLAG_LSERDY) == 0U)
 8000be8:	4b4a      	ldr	r3, [pc, #296]	; (8000d14 <HAL_RCC_OscConfig+0x67c>)
 8000bea:	6d1a      	ldr	r2, [r3, #80]	; 0x50
 8000bec:	2380      	movs	r3, #128	; 0x80
 8000bee:	009b      	lsls	r3, r3, #2
 8000bf0:	4013      	ands	r3, r2
 8000bf2:	d0ef      	beq.n	8000bd4 <HAL_RCC_OscConfig+0x53c>
 8000bf4:	e014      	b.n	8000c20 <HAL_RCC_OscConfig+0x588>
      }
    }
    else
    {
      /* Get Start Tick */
      tickstart = HAL_GetTick();
 8000bf6:	f7ff fc91 	bl	800051c <HAL_GetTick>
 8000bfa:	0003      	movs	r3, r0
 8000bfc:	617b      	str	r3, [r7, #20]

      /* Wait till LSE is disabled */
      while(__HAL_RCC_GET_FLAG(RCC_FLAG_LSERDY) != 0U)
 8000bfe:	e009      	b.n	8000c14 <HAL_RCC_OscConfig+0x57c>
      {
        if((HAL_GetTick() - tickstart ) > RCC_LSE_TIMEOUT_VALUE)
 8000c00:	f7ff fc8c 	bl	800051c <HAL_GetTick>
 8000c04:	0002      	movs	r2, r0
 8000c06:	697b      	ldr	r3, [r7, #20]
 8000c08:	1ad3      	subs	r3, r2, r3
 8000c0a:	4a47      	ldr	r2, [pc, #284]	; (8000d28 <HAL_RCC_OscConfig+0x690>)
 8000c0c:	4293      	cmp	r3, r2
 8000c0e:	d901      	bls.n	8000c14 <HAL_RCC_OscConfig+0x57c>
        {
          return HAL_TIMEOUT;
 8000c10:	2303      	movs	r3, #3
 8000c12:	e0b5      	b.n	8000d80 <HAL_RCC_OscConfig+0x6e8>
      while(__HAL_RCC_GET_FLAG(RCC_FLAG_LSERDY) != 0U)
 8000c14:	4b3f      	ldr	r3, [pc, #252]	; (8000d14 <HAL_RCC_OscConfig+0x67c>)
 8000c16:	6d1a      	ldr	r2, [r3, #80]	; 0x50
 8000c18:	2380      	movs	r3, #128	; 0x80
 8000c1a:	009b      	lsls	r3, r3, #2
 8000c1c:	4013      	ands	r3, r2
 8000c1e:	d1ef      	bne.n	8000c00 <HAL_RCC_OscConfig+0x568>
        }
      }
    }

    /* Require to disable power clock if necessary */
    if(pwrclkchanged == SET)
 8000c20:	2323      	movs	r3, #35	; 0x23
 8000c22:	18fb      	adds	r3, r7, r3
 8000c24:	781b      	ldrb	r3, [r3, #0]
 8000c26:	2b01      	cmp	r3, #1
 8000c28:	d105      	bne.n	8000c36 <HAL_RCC_OscConfig+0x59e>
    {
      __HAL_RCC_PWR_CLK_DISABLE();
 8000c2a:	4b3a      	ldr	r3, [pc, #232]	; (8000d14 <HAL_RCC_OscConfig+0x67c>)
 8000c2c:	6b9a      	ldr	r2, [r3, #56]	; 0x38
 8000c2e:	4b39      	ldr	r3, [pc, #228]	; (8000d14 <HAL_RCC_OscConfig+0x67c>)
 8000c30:	493e      	ldr	r1, [pc, #248]	; (8000d2c <HAL_RCC_OscConfig+0x694>)
 8000c32:	400a      	ands	r2, r1
 8000c34:	639a      	str	r2, [r3, #56]	; 0x38
#endif /* RCC_HSI48_SUPPORT */

  /*-------------------------------- PLL Configuration -----------------------*/
  /* Check the parameters */
  assert_param(IS_RCC_PLL(RCC_OscInitStruct->PLL.PLLState));
  if ((RCC_OscInitStruct->PLL.PLLState) != RCC_PLL_NONE)
 8000c36:	687b      	ldr	r3, [r7, #4]
 8000c38:	6a5b      	ldr	r3, [r3, #36]	; 0x24
 8000c3a:	2b00      	cmp	r3, #0
 8000c3c:	d100      	bne.n	8000c40 <HAL_RCC_OscConfig+0x5a8>
 8000c3e:	e09e      	b.n	8000d7e <HAL_RCC_OscConfig+0x6e6>
  {
    /* Check if the PLL is used as system clock or not */
    if(sysclk_source != RCC_SYSCLKSOURCE_STATUS_PLLCLK)
 8000c40:	69fb      	ldr	r3, [r7, #28]
 8000c42:	2b0c      	cmp	r3, #12
 8000c44:	d100      	bne.n	8000c48 <HAL_RCC_OscConfig+0x5b0>
 8000c46:	e077      	b.n	8000d38 <HAL_RCC_OscConfig+0x6a0>
    {
      if((RCC_OscInitStruct->PLL.PLLState) == RCC_PLL_ON)
 8000c48:	687b      	ldr	r3, [r7, #4]
 8000c4a:	6a5b      	ldr	r3, [r3, #36]	; 0x24
 8000c4c:	2b02      	cmp	r3, #2
 8000c4e:	d145      	bne.n	8000cdc <HAL_RCC_OscConfig+0x644>
        assert_param(IS_RCC_PLLSOURCE(RCC_OscInitStruct->PLL.PLLSource));
        assert_param(IS_RCC_PLL_MUL(RCC_OscInitStruct->PLL.PLLMUL));
        assert_param(IS_RCC_PLL_DIV(RCC_OscInitStruct->PLL.PLLDIV));

        /* Disable the main PLL. */
        __HAL_RCC_PLL_DISABLE();
 8000c50:	4b30      	ldr	r3, [pc, #192]	; (8000d14 <HAL_RCC_OscConfig+0x67c>)
 8000c52:	681a      	ldr	r2, [r3, #0]
 8000c54:	4b2f      	ldr	r3, [pc, #188]	; (8000d14 <HAL_RCC_OscConfig+0x67c>)
 8000c56:	4936      	ldr	r1, [pc, #216]	; (8000d30 <HAL_RCC_OscConfig+0x698>)
 8000c58:	400a      	ands	r2, r1
 8000c5a:	601a      	str	r2, [r3, #0]

        /* Get Start Tick */
        tickstart = HAL_GetTick();
 8000c5c:	f7ff fc5e 	bl	800051c <HAL_GetTick>
 8000c60:	0003      	movs	r3, r0
 8000c62:	617b      	str	r3, [r7, #20]

        /* Wait till PLL is disabled */
        while(__HAL_RCC_GET_FLAG(RCC_FLAG_PLLRDY)  != 0U)
 8000c64:	e008      	b.n	8000c78 <HAL_RCC_OscConfig+0x5e0>
        {
          if((HAL_GetTick() - tickstart ) > PLL_TIMEOUT_VALUE)
 8000c66:	f7ff fc59 	bl	800051c <HAL_GetTick>
 8000c6a:	0002      	movs	r2, r0
 8000c6c:	697b      	ldr	r3, [r7, #20]
 8000c6e:	1ad3      	subs	r3, r2, r3
 8000c70:	2b02      	cmp	r3, #2
 8000c72:	d901      	bls.n	8000c78 <HAL_RCC_OscConfig+0x5e0>
          {
            return HAL_TIMEOUT;
 8000c74:	2303      	movs	r3, #3
 8000c76:	e083      	b.n	8000d80 <HAL_RCC_OscConfig+0x6e8>
        while(__HAL_RCC_GET_FLAG(RCC_FLAG_PLLRDY)  != 0U)
 8000c78:	4b26      	ldr	r3, [pc, #152]	; (8000d14 <HAL_RCC_OscConfig+0x67c>)
 8000c7a:	681a      	ldr	r2, [r3, #0]
 8000c7c:	2380      	movs	r3, #128	; 0x80
 8000c7e:	049b      	lsls	r3, r3, #18
 8000c80:	4013      	ands	r3, r2
 8000c82:	d1f0      	bne.n	8000c66 <HAL_RCC_OscConfig+0x5ce>
          }
        }

        /* Configure the main PLL clock source, multiplication and division factors. */
        __HAL_RCC_PLL_CONFIG(RCC_OscInitStruct->PLL.PLLSource,
 8000c84:	4b23      	ldr	r3, [pc, #140]	; (8000d14 <HAL_RCC_OscConfig+0x67c>)
 8000c86:	68db      	ldr	r3, [r3, #12]
 8000c88:	4a2a      	ldr	r2, [pc, #168]	; (8000d34 <HAL_RCC_OscConfig+0x69c>)
 8000c8a:	4013      	ands	r3, r2
 8000c8c:	0019      	movs	r1, r3
 8000c8e:	687b      	ldr	r3, [r7, #4]
 8000c90:	6a9a      	ldr	r2, [r3, #40]	; 0x28
 8000c92:	687b      	ldr	r3, [r7, #4]
 8000c94:	6adb      	ldr	r3, [r3, #44]	; 0x2c
 8000c96:	431a      	orrs	r2, r3
 8000c98:	687b      	ldr	r3, [r7, #4]
 8000c9a:	6b1b      	ldr	r3, [r3, #48]	; 0x30
 8000c9c:	431a      	orrs	r2, r3
 8000c9e:	4b1d      	ldr	r3, [pc, #116]	; (8000d14 <HAL_RCC_OscConfig+0x67c>)
 8000ca0:	430a      	orrs	r2, r1
 8000ca2:	60da      	str	r2, [r3, #12]
                             RCC_OscInitStruct->PLL.PLLMUL,
                             RCC_OscInitStruct->PLL.PLLDIV);
        /* Enable the main PLL. */
        __HAL_RCC_PLL_ENABLE();
 8000ca4:	4b1b      	ldr	r3, [pc, #108]	; (8000d14 <HAL_RCC_OscConfig+0x67c>)
 8000ca6:	681a      	ldr	r2, [r3, #0]
 8000ca8:	4b1a      	ldr	r3, [pc, #104]	; (8000d14 <HAL_RCC_OscConfig+0x67c>)
 8000caa:	2180      	movs	r1, #128	; 0x80
 8000cac:	0449      	lsls	r1, r1, #17
 8000cae:	430a      	orrs	r2, r1
 8000cb0:	601a      	str	r2, [r3, #0]

        /* Get Start Tick */
        tickstart = HAL_GetTick();
 8000cb2:	f7ff fc33 	bl	800051c <HAL_GetTick>
 8000cb6:	0003      	movs	r3, r0
 8000cb8:	617b      	str	r3, [r7, #20]

        /* Wait till PLL is ready */
        while(__HAL_RCC_GET_FLAG(RCC_FLAG_PLLRDY)  == 0U)
 8000cba:	e008      	b.n	8000cce <HAL_RCC_OscConfig+0x636>
        {
          if((HAL_GetTick() - tickstart ) > PLL_TIMEOUT_VALUE)
 8000cbc:	f7ff fc2e 	bl	800051c <HAL_GetTick>
 8000cc0:	0002      	movs	r2, r0
 8000cc2:	697b      	ldr	r3, [r7, #20]
 8000cc4:	1ad3      	subs	r3, r2, r3
 8000cc6:	2b02      	cmp	r3, #2
 8000cc8:	d901      	bls.n	8000cce <HAL_RCC_OscConfig+0x636>
          {
            return HAL_TIMEOUT;
 8000cca:	2303      	movs	r3, #3
 8000ccc:	e058      	b.n	8000d80 <HAL_RCC_OscConfig+0x6e8>
        while(__HAL_RCC_GET_FLAG(RCC_FLAG_PLLRDY)  == 0U)
 8000cce:	4b11      	ldr	r3, [pc, #68]	; (8000d14 <HAL_RCC_OscConfig+0x67c>)
 8000cd0:	681a      	ldr	r2, [r3, #0]
 8000cd2:	2380      	movs	r3, #128	; 0x80
 8000cd4:	049b      	lsls	r3, r3, #18
 8000cd6:	4013      	ands	r3, r2
 8000cd8:	d0f0      	beq.n	8000cbc <HAL_RCC_OscConfig+0x624>
 8000cda:	e050      	b.n	8000d7e <HAL_RCC_OscConfig+0x6e6>
        }
      }
      else
      {
        /* Disable the main PLL. */
        __HAL_RCC_PLL_DISABLE();
 8000cdc:	4b0d      	ldr	r3, [pc, #52]	; (8000d14 <HAL_RCC_OscConfig+0x67c>)
 8000cde:	681a      	ldr	r2, [r3, #0]
 8000ce0:	4b0c      	ldr	r3, [pc, #48]	; (8000d14 <HAL_RCC_OscConfig+0x67c>)
 8000ce2:	4913      	ldr	r1, [pc, #76]	; (8000d30 <HAL_RCC_OscConfig+0x698>)
 8000ce4:	400a      	ands	r2, r1
 8000ce6:	601a      	str	r2, [r3, #0]

        /* Get Start Tick */
        tickstart = HAL_GetTick();
 8000ce8:	f7ff fc18 	bl	800051c <HAL_GetTick>
 8000cec:	0003      	movs	r3, r0
 8000cee:	617b      	str	r3, [r7, #20]

        /* Wait till PLL is disabled */
        while(__HAL_RCC_GET_FLAG(RCC_FLAG_PLLRDY)  != 0U)
 8000cf0:	e008      	b.n	8000d04 <HAL_RCC_OscConfig+0x66c>
        {
          if((HAL_GetTick() - tickstart ) > PLL_TIMEOUT_VALUE)
 8000cf2:	f7ff fc13 	bl	800051c <HAL_GetTick>
 8000cf6:	0002      	movs	r2, r0
 8000cf8:	697b      	ldr	r3, [r7, #20]
 8000cfa:	1ad3      	subs	r3, r2, r3
 8000cfc:	2b02      	cmp	r3, #2
 8000cfe:	d901      	bls.n	8000d04 <HAL_RCC_OscConfig+0x66c>
          {
            return HAL_TIMEOUT;
 8000d00:	2303      	movs	r3, #3
 8000d02:	e03d      	b.n	8000d80 <HAL_RCC_OscConfig+0x6e8>
        while(__HAL_RCC_GET_FLAG(RCC_FLAG_PLLRDY)  != 0U)
 8000d04:	4b03      	ldr	r3, [pc, #12]	; (8000d14 <HAL_RCC_OscConfig+0x67c>)
 8000d06:	681a      	ldr	r2, [r3, #0]
 8000d08:	2380      	movs	r3, #128	; 0x80
 8000d0a:	049b      	lsls	r3, r3, #18
 8000d0c:	4013      	ands	r3, r2
 8000d0e:	d1f0      	bne.n	8000cf2 <HAL_RCC_OscConfig+0x65a>
 8000d10:	e035      	b.n	8000d7e <HAL_RCC_OscConfig+0x6e6>
 8000d12:	46c0      	nop			; (mov r8, r8)
 8000d14:	40021000 	.word	0x40021000
 8000d18:	ffff1fff 	.word	0xffff1fff
 8000d1c:	fffffeff 	.word	0xfffffeff
 8000d20:	40007000 	.word	0x40007000
 8000d24:	fffffbff 	.word	0xfffffbff
 8000d28:	00001388 	.word	0x00001388
 8000d2c:	efffffff 	.word	0xefffffff
 8000d30:	feffffff 	.word	0xfeffffff
 8000d34:	ff02ffff 	.word	0xff02ffff
      }
    }
    else
    {
      /* Check if there is a request to disable the PLL used as System clock source */
      if((RCC_OscInitStruct->PLL.PLLState) == RCC_PLL_OFF)
 8000d38:	687b      	ldr	r3, [r7, #4]
 8000d3a:	6a5b      	ldr	r3, [r3, #36]	; 0x24
 8000d3c:	2b01      	cmp	r3, #1
 8000d3e:	d101      	bne.n	8000d44 <HAL_RCC_OscConfig+0x6ac>
      {
        return HAL_ERROR;
 8000d40:	2301      	movs	r3, #1
 8000d42:	e01d      	b.n	8000d80 <HAL_RCC_OscConfig+0x6e8>
      }
      else
      {
        /* Do not return HAL_ERROR if request repeats the current configuration */
        pll_config = RCC->CFGR;
 8000d44:	4b10      	ldr	r3, [pc, #64]	; (8000d88 <HAL_RCC_OscConfig+0x6f0>)
 8000d46:	68db      	ldr	r3, [r3, #12]
 8000d48:	61bb      	str	r3, [r7, #24]
        if((READ_BIT(pll_config, RCC_CFGR_PLLSRC) != RCC_OscInitStruct->PLL.PLLSource) ||
 8000d4a:	69ba      	ldr	r2, [r7, #24]
 8000d4c:	2380      	movs	r3, #128	; 0x80
 8000d4e:	025b      	lsls	r3, r3, #9
 8000d50:	401a      	ands	r2, r3
 8000d52:	687b      	ldr	r3, [r7, #4]
 8000d54:	6a9b      	ldr	r3, [r3, #40]	; 0x28
 8000d56:	429a      	cmp	r2, r3
 8000d58:	d10f      	bne.n	8000d7a <HAL_RCC_OscConfig+0x6e2>
           (READ_BIT(pll_config, RCC_CFGR_PLLMUL) != RCC_OscInitStruct->PLL.PLLMUL) ||
 8000d5a:	69ba      	ldr	r2, [r7, #24]
 8000d5c:	23f0      	movs	r3, #240	; 0xf0
 8000d5e:	039b      	lsls	r3, r3, #14
 8000d60:	401a      	ands	r2, r3
 8000d62:	687b      	ldr	r3, [r7, #4]
 8000d64:	6adb      	ldr	r3, [r3, #44]	; 0x2c
        if((READ_BIT(pll_config, RCC_CFGR_PLLSRC) != RCC_OscInitStruct->PLL.PLLSource) ||
 8000d66:	429a      	cmp	r2, r3
 8000d68:	d107      	bne.n	8000d7a <HAL_RCC_OscConfig+0x6e2>
           (READ_BIT(pll_config, RCC_CFGR_PLLDIV) != RCC_OscInitStruct->PLL.PLLDIV))
 8000d6a:	69ba      	ldr	r2, [r7, #24]
 8000d6c:	23c0      	movs	r3, #192	; 0xc0
 8000d6e:	041b      	lsls	r3, r3, #16
 8000d70:	401a      	ands	r2, r3
 8000d72:	687b      	ldr	r3, [r7, #4]
 8000d74:	6b1b      	ldr	r3, [r3, #48]	; 0x30
           (READ_BIT(pll_config, RCC_CFGR_PLLMUL) != RCC_OscInitStruct->PLL.PLLMUL) ||
 8000d76:	429a      	cmp	r2, r3
 8000d78:	d001      	beq.n	8000d7e <HAL_RCC_OscConfig+0x6e6>
        {
          return HAL_ERROR;
 8000d7a:	2301      	movs	r3, #1
 8000d7c:	e000      	b.n	8000d80 <HAL_RCC_OscConfig+0x6e8>
        }
      }
    }
  }

  return HAL_OK;
 8000d7e:	2300      	movs	r3, #0
}
 8000d80:	0018      	movs	r0, r3
 8000d82:	46bd      	mov	sp, r7
 8000d84:	b00a      	add	sp, #40	; 0x28
 8000d86:	bdb0      	pop	{r4, r5, r7, pc}
 8000d88:	40021000 	.word	0x40021000

08000d8c <HAL_RCC_ClockConfig>:
  *         HPRE[3:0] bits to ensure that HCLK not exceed the maximum allowed frequency
  *         (for more details refer to section above "Initialization/de-initialization functions")
  * @retval HAL status
  */
HAL_StatusTypeDef HAL_RCC_ClockConfig(RCC_ClkInitTypeDef  *RCC_ClkInitStruct, uint32_t FLatency)
{
 8000d8c:	b5b0      	push	{r4, r5, r7, lr}
 8000d8e:	b084      	sub	sp, #16
 8000d90:	af00      	add	r7, sp, #0
 8000d92:	6078      	str	r0, [r7, #4]
 8000d94:	6039      	str	r1, [r7, #0]
  uint32_t tickstart;
  HAL_StatusTypeDef status;

  /* Check the parameters */
  if(RCC_ClkInitStruct == NULL)
 8000d96:	687b      	ldr	r3, [r7, #4]
 8000d98:	2b00      	cmp	r3, #0
 8000d9a:	d101      	bne.n	8000da0 <HAL_RCC_ClockConfig+0x14>
  {
    return HAL_ERROR;
 8000d9c:	2301      	movs	r3, #1
 8000d9e:	e10d      	b.n	8000fbc <HAL_RCC_ClockConfig+0x230>
  /* To correctly read data from FLASH memory, the number of wait states (LATENCY)
  must be correctly programmed according to the frequency of the CPU clock
  (HCLK) and the supply voltage of the device. */

  /* Increasing the number of wait states because of higher CPU frequency */
  if(FLatency > __HAL_FLASH_GET_LATENCY())
 8000da0:	4b88      	ldr	r3, [pc, #544]	; (8000fc4 <HAL_RCC_ClockConfig+0x238>)
 8000da2:	681b      	ldr	r3, [r3, #0]
 8000da4:	2201      	movs	r2, #1
 8000da6:	4013      	ands	r3, r2
 8000da8:	683a      	ldr	r2, [r7, #0]
 8000daa:	429a      	cmp	r2, r3
 8000dac:	d911      	bls.n	8000dd2 <HAL_RCC_ClockConfig+0x46>
  {
    /* Program the new number of wait states to the LATENCY bits in the FLASH_ACR register */
    __HAL_FLASH_SET_LATENCY(FLatency);
 8000dae:	4b85      	ldr	r3, [pc, #532]	; (8000fc4 <HAL_RCC_ClockConfig+0x238>)
 8000db0:	681b      	ldr	r3, [r3, #0]
 8000db2:	2201      	movs	r2, #1
 8000db4:	4393      	bics	r3, r2
 8000db6:	0019      	movs	r1, r3
 8000db8:	4b82      	ldr	r3, [pc, #520]	; (8000fc4 <HAL_RCC_ClockConfig+0x238>)
 8000dba:	683a      	ldr	r2, [r7, #0]
 8000dbc:	430a      	orrs	r2, r1
 8000dbe:	601a      	str	r2, [r3, #0]

    /* Check that the new number of wait states is taken into account to access the Flash
    memory by reading the FLASH_ACR register */
    if(__HAL_FLASH_GET_LATENCY() != FLatency)
 8000dc0:	4b80      	ldr	r3, [pc, #512]	; (8000fc4 <HAL_RCC_ClockConfig+0x238>)
 8000dc2:	681b      	ldr	r3, [r3, #0]
 8000dc4:	2201      	movs	r2, #1
 8000dc6:	4013      	ands	r3, r2
 8000dc8:	683a      	ldr	r2, [r7, #0]
 8000dca:	429a      	cmp	r2, r3
 8000dcc:	d001      	beq.n	8000dd2 <HAL_RCC_ClockConfig+0x46>
    {
      return HAL_ERROR;
 8000dce:	2301      	movs	r3, #1
 8000dd0:	e0f4      	b.n	8000fbc <HAL_RCC_ClockConfig+0x230>
    }
  }

  /*-------------------------- HCLK Configuration --------------------------*/
  if(((RCC_ClkInitStruct->ClockType) & RCC_CLOCKTYPE_HCLK) == RCC_CLOCKTYPE_HCLK)
 8000dd2:	687b      	ldr	r3, [r7, #4]
 8000dd4:	681b      	ldr	r3, [r3, #0]
 8000dd6:	2202      	movs	r2, #2
 8000dd8:	4013      	ands	r3, r2
 8000dda:	d009      	beq.n	8000df0 <HAL_RCC_ClockConfig+0x64>
  {
    assert_param(IS_RCC_HCLK(RCC_ClkInitStruct->AHBCLKDivider));
    MODIFY_REG(RCC->CFGR, RCC_CFGR_HPRE, RCC_ClkInitStruct->AHBCLKDivider);
 8000ddc:	4b7a      	ldr	r3, [pc, #488]	; (8000fc8 <HAL_RCC_ClockConfig+0x23c>)
 8000dde:	68db      	ldr	r3, [r3, #12]
 8000de0:	22f0      	movs	r2, #240	; 0xf0
 8000de2:	4393      	bics	r3, r2
 8000de4:	0019      	movs	r1, r3
 8000de6:	687b      	ldr	r3, [r7, #4]
 8000de8:	689a      	ldr	r2, [r3, #8]
 8000dea:	4b77      	ldr	r3, [pc, #476]	; (8000fc8 <HAL_RCC_ClockConfig+0x23c>)
 8000dec:	430a      	orrs	r2, r1
 8000dee:	60da      	str	r2, [r3, #12]
  }

  /*------------------------- SYSCLK Configuration ---------------------------*/
  if(((RCC_ClkInitStruct->ClockType) & RCC_CLOCKTYPE_SYSCLK) == RCC_CLOCKTYPE_SYSCLK)
 8000df0:	687b      	ldr	r3, [r7, #4]
 8000df2:	681b      	ldr	r3, [r3, #0]
 8000df4:	2201      	movs	r2, #1
 8000df6:	4013      	ands	r3, r2
 8000df8:	d100      	bne.n	8000dfc <HAL_RCC_ClockConfig+0x70>
 8000dfa:	e089      	b.n	8000f10 <HAL_RCC_ClockConfig+0x184>
  {
    assert_param(IS_RCC_SYSCLKSOURCE(RCC_ClkInitStruct->SYSCLKSource));

    /* HSE is selected as System Clock Source */
    if(RCC_ClkInitStruct->SYSCLKSource == RCC_SYSCLKSOURCE_HSE)
 8000dfc:	687b      	ldr	r3, [r7, #4]
 8000dfe:	685b      	ldr	r3, [r3, #4]
 8000e00:	2b02      	cmp	r3, #2
 8000e02:	d107      	bne.n	8000e14 <HAL_RCC_ClockConfig+0x88>
    {
      /* Check the HSE ready flag */
      if(__HAL_RCC_GET_FLAG(RCC_FLAG_HSERDY) == 0U)
 8000e04:	4b70      	ldr	r3, [pc, #448]	; (8000fc8 <HAL_RCC_ClockConfig+0x23c>)
 8000e06:	681a      	ldr	r2, [r3, #0]
 8000e08:	2380      	movs	r3, #128	; 0x80
 8000e0a:	029b      	lsls	r3, r3, #10
 8000e0c:	4013      	ands	r3, r2
 8000e0e:	d120      	bne.n	8000e52 <HAL_RCC_ClockConfig+0xc6>
      {
        return HAL_ERROR;
 8000e10:	2301      	movs	r3, #1
 8000e12:	e0d3      	b.n	8000fbc <HAL_RCC_ClockConfig+0x230>
      }
    }
    /* PLL is selected as System Clock Source */
    else if(RCC_ClkInitStruct->SYSCLKSource == RCC_SYSCLKSOURCE_PLLCLK)
 8000e14:	687b      	ldr	r3, [r7, #4]
 8000e16:	685b      	ldr	r3, [r3, #4]
 8000e18:	2b03      	cmp	r3, #3
 8000e1a:	d107      	bne.n	8000e2c <HAL_RCC_ClockConfig+0xa0>
    {
      /* Check the PLL ready flag */
      if(__HAL_RCC_GET_FLAG(RCC_FLAG_PLLRDY) == 0U)
 8000e1c:	4b6a      	ldr	r3, [pc, #424]	; (8000fc8 <HAL_RCC_ClockConfig+0x23c>)
 8000e1e:	681a      	ldr	r2, [r3, #0]
 8000e20:	2380      	movs	r3, #128	; 0x80
 8000e22:	049b      	lsls	r3, r3, #18
 8000e24:	4013      	ands	r3, r2
 8000e26:	d114      	bne.n	8000e52 <HAL_RCC_ClockConfig+0xc6>
      {
        return HAL_ERROR;
 8000e28:	2301      	movs	r3, #1
 8000e2a:	e0c7      	b.n	8000fbc <HAL_RCC_ClockConfig+0x230>
      }
    }
    /* HSI is selected as System Clock Source */
    else if(RCC_ClkInitStruct->SYSCLKSource == RCC_SYSCLKSOURCE_HSI)
 8000e2c:	687b      	ldr	r3, [r7, #4]
 8000e2e:	685b      	ldr	r3, [r3, #4]
 8000e30:	2b01      	cmp	r3, #1
 8000e32:	d106      	bne.n	8000e42 <HAL_RCC_ClockConfig+0xb6>
    {
      /* Check the HSI ready flag */
      if(__HAL_RCC_GET_FLAG(RCC_FLAG_HSIRDY) == 0U)
 8000e34:	4b64      	ldr	r3, [pc, #400]	; (8000fc8 <HAL_RCC_ClockConfig+0x23c>)
 8000e36:	681b      	ldr	r3, [r3, #0]
 8000e38:	2204      	movs	r2, #4
 8000e3a:	4013      	ands	r3, r2
 8000e3c:	d109      	bne.n	8000e52 <HAL_RCC_ClockConfig+0xc6>
      {
        return HAL_ERROR;
 8000e3e:	2301      	movs	r3, #1
 8000e40:	e0bc      	b.n	8000fbc <HAL_RCC_ClockConfig+0x230>
    }
    /* MSI is selected as System Clock Source */
    else
    {
      /* Check the MSI ready flag */
      if(__HAL_RCC_GET_FLAG(RCC_FLAG_MSIRDY) == 0U)
 8000e42:	4b61      	ldr	r3, [pc, #388]	; (8000fc8 <HAL_RCC_ClockConfig+0x23c>)
 8000e44:	681a      	ldr	r2, [r3, #0]
 8000e46:	2380      	movs	r3, #128	; 0x80
 8000e48:	009b      	lsls	r3, r3, #2
 8000e4a:	4013      	ands	r3, r2
 8000e4c:	d101      	bne.n	8000e52 <HAL_RCC_ClockConfig+0xc6>
      {
        return HAL_ERROR;
 8000e4e:	2301      	movs	r3, #1
 8000e50:	e0b4      	b.n	8000fbc <HAL_RCC_ClockConfig+0x230>
      }
    }
    __HAL_RCC_SYSCLK_CONFIG(RCC_ClkInitStruct->SYSCLKSource);
 8000e52:	4b5d      	ldr	r3, [pc, #372]	; (8000fc8 <HAL_RCC_ClockConfig+0x23c>)
 8000e54:	68db      	ldr	r3, [r3, #12]
 8000e56:	2203      	movs	r2, #3
 8000e58:	4393      	bics	r3, r2
 8000e5a:	0019      	movs	r1, r3
 8000e5c:	687b      	ldr	r3, [r7, #4]
 8000e5e:	685a      	ldr	r2, [r3, #4]
 8000e60:	4b59      	ldr	r3, [pc, #356]	; (8000fc8 <HAL_RCC_ClockConfig+0x23c>)
 8000e62:	430a      	orrs	r2, r1
 8000e64:	60da      	str	r2, [r3, #12]

    /* Get Start Tick */
    tickstart = HAL_GetTick();
 8000e66:	f7ff fb59 	bl	800051c <HAL_GetTick>
 8000e6a:	0003      	movs	r3, r0
 8000e6c:	60fb      	str	r3, [r7, #12]

    if(RCC_ClkInitStruct->SYSCLKSource == RCC_SYSCLKSOURCE_HSE)
 8000e6e:	687b      	ldr	r3, [r7, #4]
 8000e70:	685b      	ldr	r3, [r3, #4]
 8000e72:	2b02      	cmp	r3, #2
 8000e74:	d111      	bne.n	8000e9a <HAL_RCC_ClockConfig+0x10e>
    {
      while (__HAL_RCC_GET_SYSCLK_SOURCE() != RCC_SYSCLKSOURCE_STATUS_HSE)
 8000e76:	e009      	b.n	8000e8c <HAL_RCC_ClockConfig+0x100>
      {
        if((HAL_GetTick() - tickstart ) > CLOCKSWITCH_TIMEOUT_VALUE)
 8000e78:	f7ff fb50 	bl	800051c <HAL_GetTick>
 8000e7c:	0002      	movs	r2, r0
 8000e7e:	68fb      	ldr	r3, [r7, #12]
 8000e80:	1ad3      	subs	r3, r2, r3
 8000e82:	4a52      	ldr	r2, [pc, #328]	; (8000fcc <HAL_RCC_ClockConfig+0x240>)
 8000e84:	4293      	cmp	r3, r2
 8000e86:	d901      	bls.n	8000e8c <HAL_RCC_ClockConfig+0x100>
        {
          return HAL_TIMEOUT;
 8000e88:	2303      	movs	r3, #3
 8000e8a:	e097      	b.n	8000fbc <HAL_RCC_ClockConfig+0x230>
      while (__HAL_RCC_GET_SYSCLK_SOURCE() != RCC_SYSCLKSOURCE_STATUS_HSE)
 8000e8c:	4b4e      	ldr	r3, [pc, #312]	; (8000fc8 <HAL_RCC_ClockConfig+0x23c>)
 8000e8e:	68db      	ldr	r3, [r3, #12]
 8000e90:	220c      	movs	r2, #12
 8000e92:	4013      	ands	r3, r2
 8000e94:	2b08      	cmp	r3, #8
 8000e96:	d1ef      	bne.n	8000e78 <HAL_RCC_ClockConfig+0xec>
 8000e98:	e03a      	b.n	8000f10 <HAL_RCC_ClockConfig+0x184>
        }
      }
    }
    else if(RCC_ClkInitStruct->SYSCLKSource == RCC_SYSCLKSOURCE_PLLCLK)
 8000e9a:	687b      	ldr	r3, [r7, #4]
 8000e9c:	685b      	ldr	r3, [r3, #4]
 8000e9e:	2b03      	cmp	r3, #3
 8000ea0:	d111      	bne.n	8000ec6 <HAL_RCC_ClockConfig+0x13a>
    {
      while (__HAL_RCC_GET_SYSCLK_SOURCE() != RCC_SYSCLKSOURCE_STATUS_PLLCLK)
 8000ea2:	e009      	b.n	8000eb8 <HAL_RCC_ClockConfig+0x12c>
      {
        if((HAL_GetTick() - tickstart ) > CLOCKSWITCH_TIMEOUT_VALUE)
 8000ea4:	f7ff fb3a 	bl	800051c <HAL_GetTick>
 8000ea8:	0002      	movs	r2, r0
 8000eaa:	68fb      	ldr	r3, [r7, #12]
 8000eac:	1ad3      	subs	r3, r2, r3
 8000eae:	4a47      	ldr	r2, [pc, #284]	; (8000fcc <HAL_RCC_ClockConfig+0x240>)
 8000eb0:	4293      	cmp	r3, r2
 8000eb2:	d901      	bls.n	8000eb8 <HAL_RCC_ClockConfig+0x12c>
        {
          return HAL_TIMEOUT;
 8000eb4:	2303      	movs	r3, #3
 8000eb6:	e081      	b.n	8000fbc <HAL_RCC_ClockConfig+0x230>
      while (__HAL_RCC_GET_SYSCLK_SOURCE() != RCC_SYSCLKSOURCE_STATUS_PLLCLK)
 8000eb8:	4b43      	ldr	r3, [pc, #268]	; (8000fc8 <HAL_RCC_ClockConfig+0x23c>)
 8000eba:	68db      	ldr	r3, [r3, #12]
 8000ebc:	220c      	movs	r2, #12
 8000ebe:	4013      	ands	r3, r2
 8000ec0:	2b0c      	cmp	r3, #12
 8000ec2:	d1ef      	bne.n	8000ea4 <HAL_RCC_ClockConfig+0x118>
 8000ec4:	e024      	b.n	8000f10 <HAL_RCC_ClockConfig+0x184>
        }
      }
    }
    else if(RCC_ClkInitStruct->SYSCLKSource == RCC_SYSCLKSOURCE_HSI)
 8000ec6:	687b      	ldr	r3, [r7, #4]
 8000ec8:	685b      	ldr	r3, [r3, #4]
 8000eca:	2b01      	cmp	r3, #1
 8000ecc:	d11b      	bne.n	8000f06 <HAL_RCC_ClockConfig+0x17a>
    {
      while (__HAL_RCC_GET_SYSCLK_SOURCE() != RCC_SYSCLKSOURCE_STATUS_HSI)
 8000ece:	e009      	b.n	8000ee4 <HAL_RCC_ClockConfig+0x158>
      {
        if((HAL_GetTick() - tickstart ) > CLOCKSWITCH_TIMEOUT_VALUE)
 8000ed0:	f7ff fb24 	bl	800051c <HAL_GetTick>
 8000ed4:	0002      	movs	r2, r0
 8000ed6:	68fb      	ldr	r3, [r7, #12]
 8000ed8:	1ad3      	subs	r3, r2, r3
 8000eda:	4a3c      	ldr	r2, [pc, #240]	; (8000fcc <HAL_RCC_ClockConfig+0x240>)
 8000edc:	4293      	cmp	r3, r2
 8000ede:	d901      	bls.n	8000ee4 <HAL_RCC_ClockConfig+0x158>
        {
          return HAL_TIMEOUT;
 8000ee0:	2303      	movs	r3, #3
 8000ee2:	e06b      	b.n	8000fbc <HAL_RCC_ClockConfig+0x230>
      while (__HAL_RCC_GET_SYSCLK_SOURCE() != RCC_SYSCLKSOURCE_STATUS_HSI)
 8000ee4:	4b38      	ldr	r3, [pc, #224]	; (8000fc8 <HAL_RCC_ClockConfig+0x23c>)
 8000ee6:	68db      	ldr	r3, [r3, #12]
 8000ee8:	220c      	movs	r2, #12
 8000eea:	4013      	ands	r3, r2
 8000eec:	2b04      	cmp	r3, #4
 8000eee:	d1ef      	bne.n	8000ed0 <HAL_RCC_ClockConfig+0x144>
 8000ef0:	e00e      	b.n	8000f10 <HAL_RCC_ClockConfig+0x184>
    }
    else
    {
      while(__HAL_RCC_GET_SYSCLK_SOURCE() != RCC_SYSCLKSOURCE_STATUS_MSI)
      {
        if((HAL_GetTick() - tickstart ) > CLOCKSWITCH_TIMEOUT_VALUE)
 8000ef2:	f7ff fb13 	bl	800051c <HAL_GetTick>
 8000ef6:	0002      	movs	r2, r0
 8000ef8:	68fb      	ldr	r3, [r7, #12]
 8000efa:	1ad3      	subs	r3, r2, r3
 8000efc:	4a33      	ldr	r2, [pc, #204]	; (8000fcc <HAL_RCC_ClockConfig+0x240>)
 8000efe:	4293      	cmp	r3, r2
 8000f00:	d901      	bls.n	8000f06 <HAL_RCC_ClockConfig+0x17a>
        {
          return HAL_TIMEOUT;
 8000f02:	2303      	movs	r3, #3
 8000f04:	e05a      	b.n	8000fbc <HAL_RCC_ClockConfig+0x230>
      while(__HAL_RCC_GET_SYSCLK_SOURCE() != RCC_SYSCLKSOURCE_STATUS_MSI)
 8000f06:	4b30      	ldr	r3, [pc, #192]	; (8000fc8 <HAL_RCC_ClockConfig+0x23c>)
 8000f08:	68db      	ldr	r3, [r3, #12]
 8000f0a:	220c      	movs	r2, #12
 8000f0c:	4013      	ands	r3, r2
 8000f0e:	d1f0      	bne.n	8000ef2 <HAL_RCC_ClockConfig+0x166>
        }
      }
    }
  }
  /* Decreasing the number of wait states because of lower CPU frequency */
  if(FLatency < __HAL_FLASH_GET_LATENCY())
 8000f10:	4b2c      	ldr	r3, [pc, #176]	; (8000fc4 <HAL_RCC_ClockConfig+0x238>)
 8000f12:	681b      	ldr	r3, [r3, #0]
 8000f14:	2201      	movs	r2, #1
 8000f16:	4013      	ands	r3, r2
 8000f18:	683a      	ldr	r2, [r7, #0]
 8000f1a:	429a      	cmp	r2, r3
 8000f1c:	d211      	bcs.n	8000f42 <HAL_RCC_ClockConfig+0x1b6>
  {
    /* Program the new number of wait states to the LATENCY bits in the FLASH_ACR register */
    __HAL_FLASH_SET_LATENCY(FLatency);
 8000f1e:	4b29      	ldr	r3, [pc, #164]	; (8000fc4 <HAL_RCC_ClockConfig+0x238>)
 8000f20:	681b      	ldr	r3, [r3, #0]
 8000f22:	2201      	movs	r2, #1
 8000f24:	4393      	bics	r3, r2
 8000f26:	0019      	movs	r1, r3
 8000f28:	4b26      	ldr	r3, [pc, #152]	; (8000fc4 <HAL_RCC_ClockConfig+0x238>)
 8000f2a:	683a      	ldr	r2, [r7, #0]
 8000f2c:	430a      	orrs	r2, r1
 8000f2e:	601a      	str	r2, [r3, #0]

    /* Check that the new number of wait states is taken into account to access the Flash
    memory by reading the FLASH_ACR register */
    if(__HAL_FLASH_GET_LATENCY() != FLatency)
 8000f30:	4b24      	ldr	r3, [pc, #144]	; (8000fc4 <HAL_RCC_ClockConfig+0x238>)
 8000f32:	681b      	ldr	r3, [r3, #0]
 8000f34:	2201      	movs	r2, #1
 8000f36:	4013      	ands	r3, r2
 8000f38:	683a      	ldr	r2, [r7, #0]
 8000f3a:	429a      	cmp	r2, r3
 8000f3c:	d001      	beq.n	8000f42 <HAL_RCC_ClockConfig+0x1b6>
    {
      return HAL_ERROR;
 8000f3e:	2301      	movs	r3, #1
 8000f40:	e03c      	b.n	8000fbc <HAL_RCC_ClockConfig+0x230>
    }
  }

  /*-------------------------- PCLK1 Configuration ---------------------------*/
  if(((RCC_ClkInitStruct->ClockType) & RCC_CLOCKTYPE_PCLK1) == RCC_CLOCKTYPE_PCLK1)
 8000f42:	687b      	ldr	r3, [r7, #4]
 8000f44:	681b      	ldr	r3, [r3, #0]
 8000f46:	2204      	movs	r2, #4
 8000f48:	4013      	ands	r3, r2
 8000f4a:	d009      	beq.n	8000f60 <HAL_RCC_ClockConfig+0x1d4>
  {
    assert_param(IS_RCC_PCLK(RCC_ClkInitStruct->APB1CLKDivider));
    MODIFY_REG(RCC->CFGR, RCC_CFGR_PPRE1, RCC_ClkInitStruct->APB1CLKDivider);
 8000f4c:	4b1e      	ldr	r3, [pc, #120]	; (8000fc8 <HAL_RCC_ClockConfig+0x23c>)
 8000f4e:	68db      	ldr	r3, [r3, #12]
 8000f50:	4a1f      	ldr	r2, [pc, #124]	; (8000fd0 <HAL_RCC_ClockConfig+0x244>)
 8000f52:	4013      	ands	r3, r2
 8000f54:	0019      	movs	r1, r3
 8000f56:	687b      	ldr	r3, [r7, #4]
 8000f58:	68da      	ldr	r2, [r3, #12]
 8000f5a:	4b1b      	ldr	r3, [pc, #108]	; (8000fc8 <HAL_RCC_ClockConfig+0x23c>)
 8000f5c:	430a      	orrs	r2, r1
 8000f5e:	60da      	str	r2, [r3, #12]
  }

  /*-------------------------- PCLK2 Configuration ---------------------------*/
  if(((RCC_ClkInitStruct->ClockType) & RCC_CLOCKTYPE_PCLK2) == RCC_CLOCKTYPE_PCLK2)
 8000f60:	687b      	ldr	r3, [r7, #4]
 8000f62:	681b      	ldr	r3, [r3, #0]
 8000f64:	2208      	movs	r2, #8
 8000f66:	4013      	ands	r3, r2
 8000f68:	d00a      	beq.n	8000f80 <HAL_RCC_ClockConfig+0x1f4>
  {
    assert_param(IS_RCC_PCLK(RCC_ClkInitStruct->APB2CLKDivider));
    MODIFY_REG(RCC->CFGR, RCC_CFGR_PPRE2, ((RCC_ClkInitStruct->APB2CLKDivider) << 3));
 8000f6a:	4b17      	ldr	r3, [pc, #92]	; (8000fc8 <HAL_RCC_ClockConfig+0x23c>)
 8000f6c:	68db      	ldr	r3, [r3, #12]
 8000f6e:	4a19      	ldr	r2, [pc, #100]	; (8000fd4 <HAL_RCC_ClockConfig+0x248>)
 8000f70:	4013      	ands	r3, r2
 8000f72:	0019      	movs	r1, r3
 8000f74:	687b      	ldr	r3, [r7, #4]
 8000f76:	691b      	ldr	r3, [r3, #16]
 8000f78:	00da      	lsls	r2, r3, #3
 8000f7a:	4b13      	ldr	r3, [pc, #76]	; (8000fc8 <HAL_RCC_ClockConfig+0x23c>)
 8000f7c:	430a      	orrs	r2, r1
 8000f7e:	60da      	str	r2, [r3, #12]
  }

  /* Update the SystemCoreClock global variable */
  SystemCoreClock = HAL_RCC_GetSysClockFreq() >> AHBPrescTable[(RCC->CFGR & RCC_CFGR_HPRE)>> RCC_CFGR_HPRE_Pos];
 8000f80:	f000 f82e 	bl	8000fe0 <HAL_RCC_GetSysClockFreq>
 8000f84:	0001      	movs	r1, r0
 8000f86:	4b10      	ldr	r3, [pc, #64]	; (8000fc8 <HAL_RCC_ClockConfig+0x23c>)
 8000f88:	68db      	ldr	r3, [r3, #12]
 8000f8a:	091b      	lsrs	r3, r3, #4
 8000f8c:	220f      	movs	r2, #15
 8000f8e:	4013      	ands	r3, r2
 8000f90:	4a11      	ldr	r2, [pc, #68]	; (8000fd8 <HAL_RCC_ClockConfig+0x24c>)
 8000f92:	5cd3      	ldrb	r3, [r2, r3]
 8000f94:	000a      	movs	r2, r1
 8000f96:	40da      	lsrs	r2, r3
 8000f98:	4b10      	ldr	r3, [pc, #64]	; (8000fdc <HAL_RCC_ClockConfig+0x250>)
 8000f9a:	601a      	str	r2, [r3, #0]

  /* Configure the source of time base considering new system clocks settings*/
  status = HAL_InitTick(TICK_INT_PRIORITY);
 8000f9c:	250b      	movs	r5, #11
 8000f9e:	197c      	adds	r4, r7, r5
 8000fa0:	2000      	movs	r0, #0
 8000fa2:	f7ff fa85 	bl	80004b0 <HAL_InitTick>
 8000fa6:	0003      	movs	r3, r0
 8000fa8:	7023      	strb	r3, [r4, #0]
  if(status != HAL_OK)
 8000faa:	197b      	adds	r3, r7, r5
 8000fac:	781b      	ldrb	r3, [r3, #0]
 8000fae:	2b00      	cmp	r3, #0
 8000fb0:	d003      	beq.n	8000fba <HAL_RCC_ClockConfig+0x22e>
  {
    return status;
 8000fb2:	230b      	movs	r3, #11
 8000fb4:	18fb      	adds	r3, r7, r3
 8000fb6:	781b      	ldrb	r3, [r3, #0]
 8000fb8:	e000      	b.n	8000fbc <HAL_RCC_ClockConfig+0x230>
  }

  return HAL_OK;
 8000fba:	2300      	movs	r3, #0
}
 8000fbc:	0018      	movs	r0, r3
 8000fbe:	46bd      	mov	sp, r7
 8000fc0:	b004      	add	sp, #16
 8000fc2:	bdb0      	pop	{r4, r5, r7, pc}
 8000fc4:	40022000 	.word	0x40022000
 8000fc8:	40021000 	.word	0x40021000
 8000fcc:	00001388 	.word	0x00001388
 8000fd0:	fffff8ff 	.word	0xfffff8ff
 8000fd4:	ffffc7ff 	.word	0xffffc7ff
 8000fd8:	08001158 	.word	0x08001158
 8000fdc:	20000000 	.word	0x20000000

08000fe0 <HAL_RCC_GetSysClockFreq>:
  *         right SYSCLK value. Otherwise, any configuration based on this function will be incorrect.
  *
  * @retval SYSCLK frequency
  */
uint32_t HAL_RCC_GetSysClockFreq(void)
{
 8000fe0:	b580      	push	{r7, lr}
 8000fe2:	b086      	sub	sp, #24
 8000fe4:	af00      	add	r7, sp, #0
  uint32_t tmpreg, pllm, plld, pllvco, msiclkrange;    /* no init needed */
  uint32_t sysclockfreq;

  tmpreg = RCC->CFGR;
 8000fe6:	4b3b      	ldr	r3, [pc, #236]	; (80010d4 <HAL_RCC_GetSysClockFreq+0xf4>)
 8000fe8:	68db      	ldr	r3, [r3, #12]
 8000fea:	60fb      	str	r3, [r7, #12]

  /* Get SYSCLK source -------------------------------------------------------*/
  switch (tmpreg & RCC_CFGR_SWS)
 8000fec:	68fb      	ldr	r3, [r7, #12]
 8000fee:	220c      	movs	r2, #12
 8000ff0:	4013      	ands	r3, r2
 8000ff2:	2b08      	cmp	r3, #8
 8000ff4:	d00e      	beq.n	8001014 <HAL_RCC_GetSysClockFreq+0x34>
 8000ff6:	2b0c      	cmp	r3, #12
 8000ff8:	d00f      	beq.n	800101a <HAL_RCC_GetSysClockFreq+0x3a>
 8000ffa:	2b04      	cmp	r3, #4
 8000ffc:	d157      	bne.n	80010ae <HAL_RCC_GetSysClockFreq+0xce>
  {
    case RCC_SYSCLKSOURCE_STATUS_HSI:  /* HSI used as system clock source */
    {
      if ((RCC->CR & RCC_CR_HSIDIVF) != 0U)
 8000ffe:	4b35      	ldr	r3, [pc, #212]	; (80010d4 <HAL_RCC_GetSysClockFreq+0xf4>)
 8001000:	681b      	ldr	r3, [r3, #0]
 8001002:	2210      	movs	r2, #16
 8001004:	4013      	ands	r3, r2
 8001006:	d002      	beq.n	800100e <HAL_RCC_GetSysClockFreq+0x2e>
      {
        sysclockfreq =  (HSI_VALUE >> 2);
 8001008:	4b33      	ldr	r3, [pc, #204]	; (80010d8 <HAL_RCC_GetSysClockFreq+0xf8>)
 800100a:	613b      	str	r3, [r7, #16]
      }
      else
      {
        sysclockfreq =  HSI_VALUE;
      }
      break;
 800100c:	e05d      	b.n	80010ca <HAL_RCC_GetSysClockFreq+0xea>
        sysclockfreq =  HSI_VALUE;
 800100e:	4b33      	ldr	r3, [pc, #204]	; (80010dc <HAL_RCC_GetSysClockFreq+0xfc>)
 8001010:	613b      	str	r3, [r7, #16]
      break;
 8001012:	e05a      	b.n	80010ca <HAL_RCC_GetSysClockFreq+0xea>
    }
    case RCC_SYSCLKSOURCE_STATUS_HSE:  /* HSE used as system clock */
    {
      sysclockfreq = HSE_VALUE;
 8001014:	4b32      	ldr	r3, [pc, #200]	; (80010e0 <HAL_RCC_GetSysClockFreq+0x100>)
 8001016:	613b      	str	r3, [r7, #16]
      break;
 8001018:	e057      	b.n	80010ca <HAL_RCC_GetSysClockFreq+0xea>
    }
    case RCC_SYSCLKSOURCE_STATUS_PLLCLK:  /* PLL used as system clock */
    {
      pllm = PLLMulTable[(uint32_t)(tmpreg & RCC_CFGR_PLLMUL) >> RCC_CFGR_PLLMUL_Pos];
 800101a:	68fb      	ldr	r3, [r7, #12]
 800101c:	0c9b      	lsrs	r3, r3, #18
 800101e:	220f      	movs	r2, #15
 8001020:	4013      	ands	r3, r2
 8001022:	4a30      	ldr	r2, [pc, #192]	; (80010e4 <HAL_RCC_GetSysClockFreq+0x104>)
 8001024:	5cd3      	ldrb	r3, [r2, r3]
 8001026:	60bb      	str	r3, [r7, #8]
      plld = ((uint32_t)(tmpreg & RCC_CFGR_PLLDIV) >> RCC_CFGR_PLLDIV_Pos) + 1U;
 8001028:	68fb      	ldr	r3, [r7, #12]
 800102a:	0d9b      	lsrs	r3, r3, #22
 800102c:	2203      	movs	r2, #3
 800102e:	4013      	ands	r3, r2
 8001030:	3301      	adds	r3, #1
 8001032:	607b      	str	r3, [r7, #4]
      if (__HAL_RCC_GET_PLL_OSCSOURCE() != RCC_PLLSOURCE_HSI)
 8001034:	4b27      	ldr	r3, [pc, #156]	; (80010d4 <HAL_RCC_GetSysClockFreq+0xf4>)
 8001036:	68da      	ldr	r2, [r3, #12]
 8001038:	2380      	movs	r3, #128	; 0x80
 800103a:	025b      	lsls	r3, r3, #9
 800103c:	4013      	ands	r3, r2
 800103e:	d00f      	beq.n	8001060 <HAL_RCC_GetSysClockFreq+0x80>
      {
        /* HSE used as PLL clock source */
        pllvco = (HSE_VALUE * pllm) / plld;
 8001040:	68b9      	ldr	r1, [r7, #8]
 8001042:	000a      	movs	r2, r1
 8001044:	0152      	lsls	r2, r2, #5
 8001046:	1a52      	subs	r2, r2, r1
 8001048:	0193      	lsls	r3, r2, #6
 800104a:	1a9b      	subs	r3, r3, r2
 800104c:	00db      	lsls	r3, r3, #3
 800104e:	185b      	adds	r3, r3, r1
 8001050:	025b      	lsls	r3, r3, #9
 8001052:	6879      	ldr	r1, [r7, #4]
 8001054:	0018      	movs	r0, r3
 8001056:	f7ff f857 	bl	8000108 <__udivsi3>
 800105a:	0003      	movs	r3, r0
 800105c:	617b      	str	r3, [r7, #20]
 800105e:	e023      	b.n	80010a8 <HAL_RCC_GetSysClockFreq+0xc8>
      }
      else
      {
        if ((RCC->CR & RCC_CR_HSIDIVF) != 0U)
 8001060:	4b1c      	ldr	r3, [pc, #112]	; (80010d4 <HAL_RCC_GetSysClockFreq+0xf4>)
 8001062:	681b      	ldr	r3, [r3, #0]
 8001064:	2210      	movs	r2, #16
 8001066:	4013      	ands	r3, r2
 8001068:	d00f      	beq.n	800108a <HAL_RCC_GetSysClockFreq+0xaa>
        {
          pllvco = ((HSI_VALUE >> 2) * pllm) / plld;
 800106a:	68b9      	ldr	r1, [r7, #8]
 800106c:	000a      	movs	r2, r1
 800106e:	0152      	lsls	r2, r2, #5
 8001070:	1a52      	subs	r2, r2, r1
 8001072:	0193      	lsls	r3, r2, #6
 8001074:	1a9b      	subs	r3, r3, r2
 8001076:	00db      	lsls	r3, r3, #3
 8001078:	185b      	adds	r3, r3, r1
 800107a:	021b      	lsls	r3, r3, #8
 800107c:	6879      	ldr	r1, [r7, #4]
 800107e:	0018      	movs	r0, r3
 8001080:	f7ff f842 	bl	8000108 <__udivsi3>
 8001084:	0003      	movs	r3, r0
 8001086:	617b      	str	r3, [r7, #20]
 8001088:	e00e      	b.n	80010a8 <HAL_RCC_GetSysClockFreq+0xc8>
        }
        else
        {
         pllvco = (HSI_VALUE * pllm) / plld;
 800108a:	68b9      	ldr	r1, [r7, #8]
 800108c:	000a      	movs	r2, r1
 800108e:	0152      	lsls	r2, r2, #5
 8001090:	1a52      	subs	r2, r2, r1
 8001092:	0193      	lsls	r3, r2, #6
 8001094:	1a9b      	subs	r3, r3, r2
 8001096:	00db      	lsls	r3, r3, #3
 8001098:	185b      	adds	r3, r3, r1
 800109a:	029b      	lsls	r3, r3, #10
 800109c:	6879      	ldr	r1, [r7, #4]
 800109e:	0018      	movs	r0, r3
 80010a0:	f7ff f832 	bl	8000108 <__udivsi3>
 80010a4:	0003      	movs	r3, r0
 80010a6:	617b      	str	r3, [r7, #20]
        }
      }
      sysclockfreq = pllvco;
 80010a8:	697b      	ldr	r3, [r7, #20]
 80010aa:	613b      	str	r3, [r7, #16]
      break;
 80010ac:	e00d      	b.n	80010ca <HAL_RCC_GetSysClockFreq+0xea>
    }
    case RCC_SYSCLKSOURCE_STATUS_MSI:  /* MSI used as system clock source */
    default: /* MSI used as system clock */
    {
      msiclkrange = (RCC->ICSCR & RCC_ICSCR_MSIRANGE ) >> RCC_ICSCR_MSIRANGE_Pos;
 80010ae:	4b09      	ldr	r3, [pc, #36]	; (80010d4 <HAL_RCC_GetSysClockFreq+0xf4>)
 80010b0:	685b      	ldr	r3, [r3, #4]
 80010b2:	0b5b      	lsrs	r3, r3, #13
 80010b4:	2207      	movs	r2, #7
 80010b6:	4013      	ands	r3, r2
 80010b8:	603b      	str	r3, [r7, #0]
      sysclockfreq = (32768U * (1UL << (msiclkrange + 1U)));
 80010ba:	683b      	ldr	r3, [r7, #0]
 80010bc:	3301      	adds	r3, #1
 80010be:	2280      	movs	r2, #128	; 0x80
 80010c0:	0212      	lsls	r2, r2, #8
 80010c2:	409a      	lsls	r2, r3
 80010c4:	0013      	movs	r3, r2
 80010c6:	613b      	str	r3, [r7, #16]
      break;
 80010c8:	46c0      	nop			; (mov r8, r8)
    }
  }
  return sysclockfreq;
 80010ca:	693b      	ldr	r3, [r7, #16]
}
 80010cc:	0018      	movs	r0, r3
 80010ce:	46bd      	mov	sp, r7
 80010d0:	b006      	add	sp, #24
 80010d2:	bd80      	pop	{r7, pc}
 80010d4:	40021000 	.word	0x40021000
 80010d8:	003d0900 	.word	0x003d0900
 80010dc:	00f42400 	.word	0x00f42400
 80010e0:	007a1200 	.word	0x007a1200
 80010e4:	08001168 	.word	0x08001168

080010e8 <__libc_init_array>:
 80010e8:	b570      	push	{r4, r5, r6, lr}
 80010ea:	2600      	movs	r6, #0
 80010ec:	4d0c      	ldr	r5, [pc, #48]	; (8001120 <__libc_init_array+0x38>)
 80010ee:	4c0d      	ldr	r4, [pc, #52]	; (8001124 <__libc_init_array+0x3c>)
 80010f0:	1b64      	subs	r4, r4, r5
 80010f2:	10a4      	asrs	r4, r4, #2
 80010f4:	42a6      	cmp	r6, r4
 80010f6:	d109      	bne.n	800110c <__libc_init_array+0x24>
 80010f8:	2600      	movs	r6, #0
 80010fa:	f000 f821 	bl	8001140 <_init>
 80010fe:	4d0a      	ldr	r5, [pc, #40]	; (8001128 <__libc_init_array+0x40>)
 8001100:	4c0a      	ldr	r4, [pc, #40]	; (800112c <__libc_init_array+0x44>)
 8001102:	1b64      	subs	r4, r4, r5
 8001104:	10a4      	asrs	r4, r4, #2
 8001106:	42a6      	cmp	r6, r4
 8001108:	d105      	bne.n	8001116 <__libc_init_array+0x2e>
 800110a:	bd70      	pop	{r4, r5, r6, pc}
 800110c:	00b3      	lsls	r3, r6, #2
 800110e:	58eb      	ldr	r3, [r5, r3]
 8001110:	4798      	blx	r3
 8001112:	3601      	adds	r6, #1
 8001114:	e7ee      	b.n	80010f4 <__libc_init_array+0xc>
 8001116:	00b3      	lsls	r3, r6, #2
 8001118:	58eb      	ldr	r3, [r5, r3]
 800111a:	4798      	blx	r3
 800111c:	3601      	adds	r6, #1
 800111e:	e7f2      	b.n	8001106 <__libc_init_array+0x1e>
 8001120:	08001174 	.word	0x08001174
 8001124:	08001174 	.word	0x08001174
 8001128:	08001174 	.word	0x08001174
 800112c:	08001178 	.word	0x08001178

08001130 <memset>:
 8001130:	0003      	movs	r3, r0
 8001132:	1812      	adds	r2, r2, r0
 8001134:	4293      	cmp	r3, r2
 8001136:	d100      	bne.n	800113a <memset+0xa>
 8001138:	4770      	bx	lr
 800113a:	7019      	strb	r1, [r3, #0]
 800113c:	3301      	adds	r3, #1
 800113e:	e7f9      	b.n	8001134 <memset+0x4>

08001140 <_init>:
 8001140:	b5f8      	push	{r3, r4, r5, r6, r7, lr}
 8001142:	46c0      	nop			; (mov r8, r8)
 8001144:	bcf8      	pop	{r3, r4, r5, r6, r7}
 8001146:	bc08      	pop	{r3}
 8001148:	469e      	mov	lr, r3
 800114a:	4770      	bx	lr

0800114c <_fini>:
 800114c:	b5f8      	push	{r3, r4, r5, r6, r7, lr}
 800114e:	46c0      	nop			; (mov r8, r8)
 8001150:	bcf8      	pop	{r3, r4, r5, r6, r7}
 8001152:	bc08      	pop	{r3}
 8001154:	469e      	mov	lr, r3
 8001156:	4770      	bx	lr
