
OverDrivePedal_SW_LL.elf:     file format elf32-littlearm

Sections:
Idx Name          Size      VMA       LMA       File off  Algn
  0 .isr_vector   000000c0  08000000  08000000  00010000  2**0
                  CONTENTS, ALLOC, LOAD, READONLY, DATA
  1 .text         00001dbc  080000c0  080000c0  000100c0  2**2
                  CONTENTS, ALLOC, LOAD, READONLY, CODE
  2 .rodata       00000020  08001e7c  08001e7c  00011e7c  2**2
                  CONTENTS, ALLOC, LOAD, READONLY, DATA
  3 .ARM.extab    00000000  08001e9c  08001e9c  00020088  2**0
                  CONTENTS
  4 .ARM          00000000  08001e9c  08001e9c  00020088  2**0
                  CONTENTS
  5 .preinit_array 00000000  08001e9c  08001e9c  00020088  2**0
                  CONTENTS, ALLOC, LOAD, DATA
  6 .init_array   00000004  08001e9c  08001e9c  00011e9c  2**2
                  CONTENTS, ALLOC, LOAD, DATA
  7 .fini_array   00000004  08001ea0  08001ea0  00011ea0  2**2
                  CONTENTS, ALLOC, LOAD, DATA
  8 .data         00000088  20000000  08001ea4  00020000  2**2
                  CONTENTS, ALLOC, LOAD, DATA
  9 .bss          00000020  20000088  08001f2c  00020088  2**2
                  ALLOC
 10 ._user_heap_stack 00000600  200000a8  08001f2c  000200a8  2**0
                  ALLOC
 11 .ARM.attributes 00000028  00000000  00000000  00020088  2**0
                  CONTENTS, READONLY
 12 .debug_info   00004d36  00000000  00000000  000200b0  2**0
                  CONTENTS, READONLY, DEBUGGING
 13 .debug_abbrev 00001102  00000000  00000000  00024de6  2**0
                  CONTENTS, READONLY, DEBUGGING
 14 .debug_aranges 000005e0  00000000  00000000  00025ee8  2**3
                  CONTENTS, READONLY, DEBUGGING
 15 .debug_ranges 00000528  00000000  00000000  000264c8  2**3
                  CONTENTS, READONLY, DEBUGGING
 16 .debug_macro  0000b64c  00000000  00000000  000269f0  2**0
                  CONTENTS, READONLY, DEBUGGING
 17 .debug_line   00004822  00000000  00000000  0003203c  2**0
                  CONTENTS, READONLY, DEBUGGING
 18 .debug_str    0003ac0f  00000000  00000000  0003685e  2**0
                  CONTENTS, READONLY, DEBUGGING
 19 .comment      0000007b  00000000  00000000  0007146d  2**0
                  CONTENTS, READONLY
 20 .debug_frame  00001368  00000000  00000000  000714e8  2**2
                  CONTENTS, READONLY, DEBUGGING

Disassembly of section .text:

080000c0 <__do_global_dtors_aux>:
 80000c0:	b510      	push	{r4, lr}
 80000c2:	4c06      	ldr	r4, [pc, #24]	; (80000dc <__do_global_dtors_aux+0x1c>)
 80000c4:	7823      	ldrb	r3, [r4, #0]
 80000c6:	2b00      	cmp	r3, #0
 80000c8:	d107      	bne.n	80000da <__do_global_dtors_aux+0x1a>
 80000ca:	4b05      	ldr	r3, [pc, #20]	; (80000e0 <__do_global_dtors_aux+0x20>)
 80000cc:	2b00      	cmp	r3, #0
 80000ce:	d002      	beq.n	80000d6 <__do_global_dtors_aux+0x16>
 80000d0:	4804      	ldr	r0, [pc, #16]	; (80000e4 <__do_global_dtors_aux+0x24>)
 80000d2:	e000      	b.n	80000d6 <__do_global_dtors_aux+0x16>
 80000d4:	bf00      	nop
 80000d6:	2301      	movs	r3, #1
 80000d8:	7023      	strb	r3, [r4, #0]
 80000da:	bd10      	pop	{r4, pc}
 80000dc:	20000088 	.word	0x20000088
 80000e0:	00000000 	.word	0x00000000
 80000e4:	08001e64 	.word	0x08001e64

080000e8 <frame_dummy>:
 80000e8:	4b04      	ldr	r3, [pc, #16]	; (80000fc <frame_dummy+0x14>)
 80000ea:	b510      	push	{r4, lr}
 80000ec:	2b00      	cmp	r3, #0
 80000ee:	d003      	beq.n	80000f8 <frame_dummy+0x10>
 80000f0:	4903      	ldr	r1, [pc, #12]	; (8000100 <frame_dummy+0x18>)
 80000f2:	4804      	ldr	r0, [pc, #16]	; (8000104 <frame_dummy+0x1c>)
 80000f4:	e000      	b.n	80000f8 <frame_dummy+0x10>
 80000f6:	bf00      	nop
 80000f8:	bd10      	pop	{r4, pc}
 80000fa:	46c0      	nop			; (mov r8, r8)
 80000fc:	00000000 	.word	0x00000000
 8000100:	2000008c 	.word	0x2000008c
 8000104:	08001e64 	.word	0x08001e64

08000108 <__udivsi3>:
 8000108:	2200      	movs	r2, #0
 800010a:	0843      	lsrs	r3, r0, #1
 800010c:	428b      	cmp	r3, r1
 800010e:	d374      	bcc.n	80001fa <__udivsi3+0xf2>
 8000110:	0903      	lsrs	r3, r0, #4
 8000112:	428b      	cmp	r3, r1
 8000114:	d35f      	bcc.n	80001d6 <__udivsi3+0xce>
 8000116:	0a03      	lsrs	r3, r0, #8
 8000118:	428b      	cmp	r3, r1
 800011a:	d344      	bcc.n	80001a6 <__udivsi3+0x9e>
 800011c:	0b03      	lsrs	r3, r0, #12
 800011e:	428b      	cmp	r3, r1
 8000120:	d328      	bcc.n	8000174 <__udivsi3+0x6c>
 8000122:	0c03      	lsrs	r3, r0, #16
 8000124:	428b      	cmp	r3, r1
 8000126:	d30d      	bcc.n	8000144 <__udivsi3+0x3c>
 8000128:	22ff      	movs	r2, #255	; 0xff
 800012a:	0209      	lsls	r1, r1, #8
 800012c:	ba12      	rev	r2, r2
 800012e:	0c03      	lsrs	r3, r0, #16
 8000130:	428b      	cmp	r3, r1
 8000132:	d302      	bcc.n	800013a <__udivsi3+0x32>
 8000134:	1212      	asrs	r2, r2, #8
 8000136:	0209      	lsls	r1, r1, #8
 8000138:	d065      	beq.n	8000206 <__udivsi3+0xfe>
 800013a:	0b03      	lsrs	r3, r0, #12
 800013c:	428b      	cmp	r3, r1
 800013e:	d319      	bcc.n	8000174 <__udivsi3+0x6c>
 8000140:	e000      	b.n	8000144 <__udivsi3+0x3c>
 8000142:	0a09      	lsrs	r1, r1, #8
 8000144:	0bc3      	lsrs	r3, r0, #15
 8000146:	428b      	cmp	r3, r1
 8000148:	d301      	bcc.n	800014e <__udivsi3+0x46>
 800014a:	03cb      	lsls	r3, r1, #15
 800014c:	1ac0      	subs	r0, r0, r3
 800014e:	4152      	adcs	r2, r2
 8000150:	0b83      	lsrs	r3, r0, #14
 8000152:	428b      	cmp	r3, r1
 8000154:	d301      	bcc.n	800015a <__udivsi3+0x52>
 8000156:	038b      	lsls	r3, r1, #14
 8000158:	1ac0      	subs	r0, r0, r3
 800015a:	4152      	adcs	r2, r2
 800015c:	0b43      	lsrs	r3, r0, #13
 800015e:	428b      	cmp	r3, r1
 8000160:	d301      	bcc.n	8000166 <__udivsi3+0x5e>
 8000162:	034b      	lsls	r3, r1, #13
 8000164:	1ac0      	subs	r0, r0, r3
 8000166:	4152      	adcs	r2, r2
 8000168:	0b03      	lsrs	r3, r0, #12
 800016a:	428b      	cmp	r3, r1
 800016c:	d301      	bcc.n	8000172 <__udivsi3+0x6a>
 800016e:	030b      	lsls	r3, r1, #12
 8000170:	1ac0      	subs	r0, r0, r3
 8000172:	4152      	adcs	r2, r2
 8000174:	0ac3      	lsrs	r3, r0, #11
 8000176:	428b      	cmp	r3, r1
 8000178:	d301      	bcc.n	800017e <__udivsi3+0x76>
 800017a:	02cb      	lsls	r3, r1, #11
 800017c:	1ac0      	subs	r0, r0, r3
 800017e:	4152      	adcs	r2, r2
 8000180:	0a83      	lsrs	r3, r0, #10
 8000182:	428b      	cmp	r3, r1
 8000184:	d301      	bcc.n	800018a <__udivsi3+0x82>
 8000186:	028b      	lsls	r3, r1, #10
 8000188:	1ac0      	subs	r0, r0, r3
 800018a:	4152      	adcs	r2, r2
 800018c:	0a43      	lsrs	r3, r0, #9
 800018e:	428b      	cmp	r3, r1
 8000190:	d301      	bcc.n	8000196 <__udivsi3+0x8e>
 8000192:	024b      	lsls	r3, r1, #9
 8000194:	1ac0      	subs	r0, r0, r3
 8000196:	4152      	adcs	r2, r2
 8000198:	0a03      	lsrs	r3, r0, #8
 800019a:	428b      	cmp	r3, r1
 800019c:	d301      	bcc.n	80001a2 <__udivsi3+0x9a>
 800019e:	020b      	lsls	r3, r1, #8
 80001a0:	1ac0      	subs	r0, r0, r3
 80001a2:	4152      	adcs	r2, r2
 80001a4:	d2cd      	bcs.n	8000142 <__udivsi3+0x3a>
 80001a6:	09c3      	lsrs	r3, r0, #7
 80001a8:	428b      	cmp	r3, r1
 80001aa:	d301      	bcc.n	80001b0 <__udivsi3+0xa8>
 80001ac:	01cb      	lsls	r3, r1, #7
 80001ae:	1ac0      	subs	r0, r0, r3
 80001b0:	4152      	adcs	r2, r2
 80001b2:	0983      	lsrs	r3, r0, #6
 80001b4:	428b      	cmp	r3, r1
 80001b6:	d301      	bcc.n	80001bc <__udivsi3+0xb4>
 80001b8:	018b      	lsls	r3, r1, #6
 80001ba:	1ac0      	subs	r0, r0, r3
 80001bc:	4152      	adcs	r2, r2
 80001be:	0943      	lsrs	r3, r0, #5
 80001c0:	428b      	cmp	r3, r1
 80001c2:	d301      	bcc.n	80001c8 <__udivsi3+0xc0>
 80001c4:	014b      	lsls	r3, r1, #5
 80001c6:	1ac0      	subs	r0, r0, r3
 80001c8:	4152      	adcs	r2, r2
 80001ca:	0903      	lsrs	r3, r0, #4
 80001cc:	428b      	cmp	r3, r1
 80001ce:	d301      	bcc.n	80001d4 <__udivsi3+0xcc>
 80001d0:	010b      	lsls	r3, r1, #4
 80001d2:	1ac0      	subs	r0, r0, r3
 80001d4:	4152      	adcs	r2, r2
 80001d6:	08c3      	lsrs	r3, r0, #3
 80001d8:	428b      	cmp	r3, r1
 80001da:	d301      	bcc.n	80001e0 <__udivsi3+0xd8>
 80001dc:	00cb      	lsls	r3, r1, #3
 80001de:	1ac0      	subs	r0, r0, r3
 80001e0:	4152      	adcs	r2, r2
 80001e2:	0883      	lsrs	r3, r0, #2
 80001e4:	428b      	cmp	r3, r1
 80001e6:	d301      	bcc.n	80001ec <__udivsi3+0xe4>
 80001e8:	008b      	lsls	r3, r1, #2
 80001ea:	1ac0      	subs	r0, r0, r3
 80001ec:	4152      	adcs	r2, r2
 80001ee:	0843      	lsrs	r3, r0, #1
 80001f0:	428b      	cmp	r3, r1
 80001f2:	d301      	bcc.n	80001f8 <__udivsi3+0xf0>
 80001f4:	004b      	lsls	r3, r1, #1
 80001f6:	1ac0      	subs	r0, r0, r3
 80001f8:	4152      	adcs	r2, r2
 80001fa:	1a41      	subs	r1, r0, r1
 80001fc:	d200      	bcs.n	8000200 <__udivsi3+0xf8>
 80001fe:	4601      	mov	r1, r0
 8000200:	4152      	adcs	r2, r2
 8000202:	4610      	mov	r0, r2
 8000204:	4770      	bx	lr
 8000206:	e7ff      	b.n	8000208 <__udivsi3+0x100>
 8000208:	b501      	push	{r0, lr}
 800020a:	2000      	movs	r0, #0
 800020c:	f000 f806 	bl	800021c <__aeabi_idiv0>
 8000210:	bd02      	pop	{r1, pc}
 8000212:	46c0      	nop			; (mov r8, r8)

08000214 <__aeabi_uidivmod>:
 8000214:	2900      	cmp	r1, #0
 8000216:	d0f7      	beq.n	8000208 <__udivsi3+0x100>
 8000218:	e776      	b.n	8000108 <__udivsi3>
 800021a:	4770      	bx	lr

0800021c <__aeabi_idiv0>:
 800021c:	4770      	bx	lr
 800021e:	46c0      	nop			; (mov r8, r8)

08000220 <NVIC_EnableIRQ>:
  \brief   Enable External Interrupt
  \details Enables a device-specific interrupt in the NVIC interrupt controller.
  \param [in]      IRQn  External interrupt number. Value cannot be negative.
 */
__STATIC_INLINE void NVIC_EnableIRQ(IRQn_Type IRQn)
{
 8000220:	b580      	push	{r7, lr}
 8000222:	b082      	sub	sp, #8
 8000224:	af00      	add	r7, sp, #0
 8000226:	0002      	movs	r2, r0
 8000228:	1dfb      	adds	r3, r7, #7
 800022a:	701a      	strb	r2, [r3, #0]
  NVIC->ISER[0U] = (uint32_t)(1UL << (((uint32_t)(int32_t)IRQn) & 0x1FUL));
 800022c:	1dfb      	adds	r3, r7, #7
 800022e:	781b      	ldrb	r3, [r3, #0]
 8000230:	001a      	movs	r2, r3
 8000232:	231f      	movs	r3, #31
 8000234:	401a      	ands	r2, r3
 8000236:	4b04      	ldr	r3, [pc, #16]	; (8000248 <NVIC_EnableIRQ+0x28>)
 8000238:	2101      	movs	r1, #1
 800023a:	4091      	lsls	r1, r2
 800023c:	000a      	movs	r2, r1
 800023e:	601a      	str	r2, [r3, #0]
}
 8000240:	46c0      	nop			; (mov r8, r8)
 8000242:	46bd      	mov	sp, r7
 8000244:	b002      	add	sp, #8
 8000246:	bd80      	pop	{r7, pc}
 8000248:	e000e100 	.word	0xe000e100

0800024c <NVIC_SetPriority>:
  \note    The priority cannot be set for every core interrupt.
  \param [in]      IRQn  Interrupt number.
  \param [in]  priority  Priority to set.
 */
__STATIC_INLINE void NVIC_SetPriority(IRQn_Type IRQn, uint32_t priority)
{
 800024c:	b590      	push	{r4, r7, lr}
 800024e:	b083      	sub	sp, #12
 8000250:	af00      	add	r7, sp, #0
 8000252:	0002      	movs	r2, r0
 8000254:	6039      	str	r1, [r7, #0]
 8000256:	1dfb      	adds	r3, r7, #7
 8000258:	701a      	strb	r2, [r3, #0]
  if ((int32_t)(IRQn) < 0)
 800025a:	1dfb      	adds	r3, r7, #7
 800025c:	781b      	ldrb	r3, [r3, #0]
 800025e:	2b7f      	cmp	r3, #127	; 0x7f
 8000260:	d932      	bls.n	80002c8 <NVIC_SetPriority+0x7c>
  {
    SCB->SHP[_SHP_IDX(IRQn)] = ((uint32_t)(SCB->SHP[_SHP_IDX(IRQn)] & ~(0xFFUL << _BIT_SHIFT(IRQn))) |
 8000262:	4a2f      	ldr	r2, [pc, #188]	; (8000320 <NVIC_SetPriority+0xd4>)
 8000264:	1dfb      	adds	r3, r7, #7
 8000266:	781b      	ldrb	r3, [r3, #0]
 8000268:	0019      	movs	r1, r3
 800026a:	230f      	movs	r3, #15
 800026c:	400b      	ands	r3, r1
 800026e:	3b08      	subs	r3, #8
 8000270:	089b      	lsrs	r3, r3, #2
 8000272:	3306      	adds	r3, #6
 8000274:	009b      	lsls	r3, r3, #2
 8000276:	18d3      	adds	r3, r2, r3
 8000278:	3304      	adds	r3, #4
 800027a:	681b      	ldr	r3, [r3, #0]
 800027c:	1dfa      	adds	r2, r7, #7
 800027e:	7812      	ldrb	r2, [r2, #0]
 8000280:	0011      	movs	r1, r2
 8000282:	2203      	movs	r2, #3
 8000284:	400a      	ands	r2, r1
 8000286:	00d2      	lsls	r2, r2, #3
 8000288:	21ff      	movs	r1, #255	; 0xff
 800028a:	4091      	lsls	r1, r2
 800028c:	000a      	movs	r2, r1
 800028e:	43d2      	mvns	r2, r2
 8000290:	401a      	ands	r2, r3
 8000292:	0011      	movs	r1, r2
       (((priority << (8U - __NVIC_PRIO_BITS)) & (uint32_t)0xFFUL) << _BIT_SHIFT(IRQn)));
 8000294:	683b      	ldr	r3, [r7, #0]
 8000296:	019b      	lsls	r3, r3, #6
 8000298:	22ff      	movs	r2, #255	; 0xff
 800029a:	401a      	ands	r2, r3
 800029c:	1dfb      	adds	r3, r7, #7
 800029e:	781b      	ldrb	r3, [r3, #0]
 80002a0:	0018      	movs	r0, r3
 80002a2:	2303      	movs	r3, #3
 80002a4:	4003      	ands	r3, r0
 80002a6:	00db      	lsls	r3, r3, #3
 80002a8:	409a      	lsls	r2, r3
    SCB->SHP[_SHP_IDX(IRQn)] = ((uint32_t)(SCB->SHP[_SHP_IDX(IRQn)] & ~(0xFFUL << _BIT_SHIFT(IRQn))) |
 80002aa:	481d      	ldr	r0, [pc, #116]	; (8000320 <NVIC_SetPriority+0xd4>)
 80002ac:	1dfb      	adds	r3, r7, #7
 80002ae:	781b      	ldrb	r3, [r3, #0]
 80002b0:	001c      	movs	r4, r3
 80002b2:	230f      	movs	r3, #15
 80002b4:	4023      	ands	r3, r4
 80002b6:	3b08      	subs	r3, #8
 80002b8:	089b      	lsrs	r3, r3, #2
 80002ba:	430a      	orrs	r2, r1
 80002bc:	3306      	adds	r3, #6
 80002be:	009b      	lsls	r3, r3, #2
 80002c0:	18c3      	adds	r3, r0, r3
 80002c2:	3304      	adds	r3, #4
 80002c4:	601a      	str	r2, [r3, #0]
  else
  {
    NVIC->IP[_IP_IDX(IRQn)]  = ((uint32_t)(NVIC->IP[_IP_IDX(IRQn)]  & ~(0xFFUL << _BIT_SHIFT(IRQn))) |
       (((priority << (8U - __NVIC_PRIO_BITS)) & (uint32_t)0xFFUL) << _BIT_SHIFT(IRQn)));
  }
}
 80002c6:	e027      	b.n	8000318 <NVIC_SetPriority+0xcc>
    NVIC->IP[_IP_IDX(IRQn)]  = ((uint32_t)(NVIC->IP[_IP_IDX(IRQn)]  & ~(0xFFUL << _BIT_SHIFT(IRQn))) |
 80002c8:	4a16      	ldr	r2, [pc, #88]	; (8000324 <NVIC_SetPriority+0xd8>)
 80002ca:	1dfb      	adds	r3, r7, #7
 80002cc:	781b      	ldrb	r3, [r3, #0]
 80002ce:	b25b      	sxtb	r3, r3
 80002d0:	089b      	lsrs	r3, r3, #2
 80002d2:	33c0      	adds	r3, #192	; 0xc0
 80002d4:	009b      	lsls	r3, r3, #2
 80002d6:	589b      	ldr	r3, [r3, r2]
 80002d8:	1dfa      	adds	r2, r7, #7
 80002da:	7812      	ldrb	r2, [r2, #0]
 80002dc:	0011      	movs	r1, r2
 80002de:	2203      	movs	r2, #3
 80002e0:	400a      	ands	r2, r1
 80002e2:	00d2      	lsls	r2, r2, #3
 80002e4:	21ff      	movs	r1, #255	; 0xff
 80002e6:	4091      	lsls	r1, r2
 80002e8:	000a      	movs	r2, r1
 80002ea:	43d2      	mvns	r2, r2
 80002ec:	401a      	ands	r2, r3
 80002ee:	0011      	movs	r1, r2
       (((priority << (8U - __NVIC_PRIO_BITS)) & (uint32_t)0xFFUL) << _BIT_SHIFT(IRQn)));
 80002f0:	683b      	ldr	r3, [r7, #0]
 80002f2:	019b      	lsls	r3, r3, #6
 80002f4:	22ff      	movs	r2, #255	; 0xff
 80002f6:	401a      	ands	r2, r3
 80002f8:	1dfb      	adds	r3, r7, #7
 80002fa:	781b      	ldrb	r3, [r3, #0]
 80002fc:	0018      	movs	r0, r3
 80002fe:	2303      	movs	r3, #3
 8000300:	4003      	ands	r3, r0
 8000302:	00db      	lsls	r3, r3, #3
 8000304:	409a      	lsls	r2, r3
    NVIC->IP[_IP_IDX(IRQn)]  = ((uint32_t)(NVIC->IP[_IP_IDX(IRQn)]  & ~(0xFFUL << _BIT_SHIFT(IRQn))) |
 8000306:	4807      	ldr	r0, [pc, #28]	; (8000324 <NVIC_SetPriority+0xd8>)
 8000308:	1dfb      	adds	r3, r7, #7
 800030a:	781b      	ldrb	r3, [r3, #0]
 800030c:	b25b      	sxtb	r3, r3
 800030e:	089b      	lsrs	r3, r3, #2
 8000310:	430a      	orrs	r2, r1
 8000312:	33c0      	adds	r3, #192	; 0xc0
 8000314:	009b      	lsls	r3, r3, #2
 8000316:	501a      	str	r2, [r3, r0]
}
 8000318:	46c0      	nop			; (mov r8, r8)
 800031a:	46bd      	mov	sp, r7
 800031c:	b003      	add	sp, #12
 800031e:	bd90      	pop	{r4, r7, pc}
 8000320:	e000ed00 	.word	0xe000ed00
 8000324:	e000e100 	.word	0xe000e100

08000328 <LL_IOP_GRP1_EnableClock>:
  *
  *         (*) value not defined in all devices.
  * @retval None
*/
__STATIC_INLINE void LL_IOP_GRP1_EnableClock(uint32_t Periphs)
{
 8000328:	b580      	push	{r7, lr}
 800032a:	b084      	sub	sp, #16
 800032c:	af00      	add	r7, sp, #0
 800032e:	6078      	str	r0, [r7, #4]
  __IO uint32_t tmpreg;
  SET_BIT(RCC->IOPENR, Periphs);
 8000330:	4b07      	ldr	r3, [pc, #28]	; (8000350 <LL_IOP_GRP1_EnableClock+0x28>)
 8000332:	6ad9      	ldr	r1, [r3, #44]	; 0x2c
 8000334:	4b06      	ldr	r3, [pc, #24]	; (8000350 <LL_IOP_GRP1_EnableClock+0x28>)
 8000336:	687a      	ldr	r2, [r7, #4]
 8000338:	430a      	orrs	r2, r1
 800033a:	62da      	str	r2, [r3, #44]	; 0x2c
  /* Delay after an RCC peripheral clock enabling */
  tmpreg = READ_BIT(RCC->IOPENR, Periphs);
 800033c:	4b04      	ldr	r3, [pc, #16]	; (8000350 <LL_IOP_GRP1_EnableClock+0x28>)
 800033e:	6adb      	ldr	r3, [r3, #44]	; 0x2c
 8000340:	687a      	ldr	r2, [r7, #4]
 8000342:	4013      	ands	r3, r2
 8000344:	60fb      	str	r3, [r7, #12]
  (void)tmpreg;
 8000346:	68fb      	ldr	r3, [r7, #12]
}
 8000348:	46c0      	nop			; (mov r8, r8)
 800034a:	46bd      	mov	sp, r7
 800034c:	b004      	add	sp, #16
 800034e:	bd80      	pop	{r7, pc}
 8000350:	40021000 	.word	0x40021000

08000354 <LL_SYSCFG_SetEXTISource>:
  *         @arg @ref LL_SYSCFG_EXTI_LINE14
  *         @arg @ref LL_SYSCFG_EXTI_LINE15
  * @retval None
  */
__STATIC_INLINE void LL_SYSCFG_SetEXTISource(uint32_t Port, uint32_t Line)
{
 8000354:	b590      	push	{r4, r7, lr}
 8000356:	b083      	sub	sp, #12
 8000358:	af00      	add	r7, sp, #0
 800035a:	6078      	str	r0, [r7, #4]
 800035c:	6039      	str	r1, [r7, #0]
  MODIFY_REG(SYSCFG->EXTICR[Line & 0xFFU], SYSCFG_EXTICR1_EXTI0 << (Line >> 16U), Port << (Line >> 16U));
 800035e:	4a0f      	ldr	r2, [pc, #60]	; (800039c <LL_SYSCFG_SetEXTISource+0x48>)
 8000360:	683b      	ldr	r3, [r7, #0]
 8000362:	21ff      	movs	r1, #255	; 0xff
 8000364:	400b      	ands	r3, r1
 8000366:	3302      	adds	r3, #2
 8000368:	009b      	lsls	r3, r3, #2
 800036a:	589b      	ldr	r3, [r3, r2]
 800036c:	683a      	ldr	r2, [r7, #0]
 800036e:	0c12      	lsrs	r2, r2, #16
 8000370:	210f      	movs	r1, #15
 8000372:	4091      	lsls	r1, r2
 8000374:	000a      	movs	r2, r1
 8000376:	43d2      	mvns	r2, r2
 8000378:	401a      	ands	r2, r3
 800037a:	0011      	movs	r1, r2
 800037c:	683b      	ldr	r3, [r7, #0]
 800037e:	0c1b      	lsrs	r3, r3, #16
 8000380:	687a      	ldr	r2, [r7, #4]
 8000382:	409a      	lsls	r2, r3
 8000384:	4805      	ldr	r0, [pc, #20]	; (800039c <LL_SYSCFG_SetEXTISource+0x48>)
 8000386:	683b      	ldr	r3, [r7, #0]
 8000388:	24ff      	movs	r4, #255	; 0xff
 800038a:	4023      	ands	r3, r4
 800038c:	430a      	orrs	r2, r1
 800038e:	3302      	adds	r3, #2
 8000390:	009b      	lsls	r3, r3, #2
 8000392:	501a      	str	r2, [r3, r0]
}
 8000394:	46c0      	nop			; (mov r8, r8)
 8000396:	46bd      	mov	sp, r7
 8000398:	b003      	add	sp, #12
 800039a:	bd90      	pop	{r4, r7, pc}
 800039c:	40010000 	.word	0x40010000

080003a0 <LL_GPIO_SetPinMode>:
  *         @arg @ref LL_GPIO_MODE_ALTERNATE
  *         @arg @ref LL_GPIO_MODE_ANALOG
  * @retval None
  */
__STATIC_INLINE void LL_GPIO_SetPinMode(GPIO_TypeDef *GPIOx, uint32_t Pin, uint32_t Mode)
{
 80003a0:	b580      	push	{r7, lr}
 80003a2:	b084      	sub	sp, #16
 80003a4:	af00      	add	r7, sp, #0
 80003a6:	60f8      	str	r0, [r7, #12]
 80003a8:	60b9      	str	r1, [r7, #8]
 80003aa:	607a      	str	r2, [r7, #4]
  MODIFY_REG(GPIOx->MODER, ((Pin * Pin) * GPIO_MODER_MODE0), ((Pin * Pin) * Mode));
 80003ac:	68fb      	ldr	r3, [r7, #12]
 80003ae:	6819      	ldr	r1, [r3, #0]
 80003b0:	68bb      	ldr	r3, [r7, #8]
 80003b2:	68ba      	ldr	r2, [r7, #8]
 80003b4:	435a      	muls	r2, r3
 80003b6:	0013      	movs	r3, r2
 80003b8:	005b      	lsls	r3, r3, #1
 80003ba:	189b      	adds	r3, r3, r2
 80003bc:	43db      	mvns	r3, r3
 80003be:	400b      	ands	r3, r1
 80003c0:	001a      	movs	r2, r3
 80003c2:	68bb      	ldr	r3, [r7, #8]
 80003c4:	68b9      	ldr	r1, [r7, #8]
 80003c6:	434b      	muls	r3, r1
 80003c8:	6879      	ldr	r1, [r7, #4]
 80003ca:	434b      	muls	r3, r1
 80003cc:	431a      	orrs	r2, r3
 80003ce:	68fb      	ldr	r3, [r7, #12]
 80003d0:	601a      	str	r2, [r3, #0]
}
 80003d2:	46c0      	nop			; (mov r8, r8)
 80003d4:	46bd      	mov	sp, r7
 80003d6:	b004      	add	sp, #16
 80003d8:	bd80      	pop	{r7, pc}

080003da <LL_GPIO_SetPinPull>:
  *         @arg @ref LL_GPIO_PULL_UP
  *         @arg @ref LL_GPIO_PULL_DOWN
  * @retval None
  */
__STATIC_INLINE void LL_GPIO_SetPinPull(GPIO_TypeDef *GPIOx, uint32_t Pin, uint32_t Pull)
{
 80003da:	b580      	push	{r7, lr}
 80003dc:	b084      	sub	sp, #16
 80003de:	af00      	add	r7, sp, #0
 80003e0:	60f8      	str	r0, [r7, #12]
 80003e2:	60b9      	str	r1, [r7, #8]
 80003e4:	607a      	str	r2, [r7, #4]
  MODIFY_REG(GPIOx->PUPDR, ((Pin * Pin) * GPIO_PUPDR_PUPD0), ((Pin * Pin) * Pull));
 80003e6:	68fb      	ldr	r3, [r7, #12]
 80003e8:	68d9      	ldr	r1, [r3, #12]
 80003ea:	68bb      	ldr	r3, [r7, #8]
 80003ec:	68ba      	ldr	r2, [r7, #8]
 80003ee:	435a      	muls	r2, r3
 80003f0:	0013      	movs	r3, r2
 80003f2:	005b      	lsls	r3, r3, #1
 80003f4:	189b      	adds	r3, r3, r2
 80003f6:	43db      	mvns	r3, r3
 80003f8:	400b      	ands	r3, r1
 80003fa:	001a      	movs	r2, r3
 80003fc:	68bb      	ldr	r3, [r7, #8]
 80003fe:	68b9      	ldr	r1, [r7, #8]
 8000400:	434b      	muls	r3, r1
 8000402:	6879      	ldr	r1, [r7, #4]
 8000404:	434b      	muls	r3, r1
 8000406:	431a      	orrs	r2, r3
 8000408:	68fb      	ldr	r3, [r7, #12]
 800040a:	60da      	str	r2, [r3, #12]
}
 800040c:	46c0      	nop			; (mov r8, r8)
 800040e:	46bd      	mov	sp, r7
 8000410:	b004      	add	sp, #16
 8000412:	bd80      	pop	{r7, pc}

08000414 <LL_GPIO_ResetOutputPin>:
  *         @arg @ref LL_GPIO_PIN_15
  *         @arg @ref LL_GPIO_PIN_ALL
  * @retval None
  */
__STATIC_INLINE void LL_GPIO_ResetOutputPin(GPIO_TypeDef *GPIOx, uint32_t PinMask)
{
 8000414:	b580      	push	{r7, lr}
 8000416:	b082      	sub	sp, #8
 8000418:	af00      	add	r7, sp, #0
 800041a:	6078      	str	r0, [r7, #4]
 800041c:	6039      	str	r1, [r7, #0]
  WRITE_REG(GPIOx->BRR, PinMask);
 800041e:	687b      	ldr	r3, [r7, #4]
 8000420:	683a      	ldr	r2, [r7, #0]
 8000422:	629a      	str	r2, [r3, #40]	; 0x28
}
 8000424:	46c0      	nop			; (mov r8, r8)
 8000426:	46bd      	mov	sp, r7
 8000428:	b002      	add	sp, #8
 800042a:	bd80      	pop	{r7, pc}

0800042c <MX_GPIO_Init>:
        * Output
        * EVENT_OUT
        * EXTI
*/
void MX_GPIO_Init(void)
{
 800042c:	b590      	push	{r4, r7, lr}
 800042e:	b089      	sub	sp, #36	; 0x24
 8000430:	af00      	add	r7, sp, #0

  LL_EXTI_InitTypeDef EXTI_InitStruct = {0};
 8000432:	2418      	movs	r4, #24
 8000434:	193b      	adds	r3, r7, r4
 8000436:	0018      	movs	r0, r3
 8000438:	2308      	movs	r3, #8
 800043a:	001a      	movs	r2, r3
 800043c:	2100      	movs	r1, #0
 800043e:	f001 fd09 	bl	8001e54 <memset>
  LL_GPIO_InitTypeDef GPIO_InitStruct = {0};
 8000442:	003b      	movs	r3, r7
 8000444:	0018      	movs	r0, r3
 8000446:	2318      	movs	r3, #24
 8000448:	001a      	movs	r2, r3
 800044a:	2100      	movs	r1, #0
 800044c:	f001 fd02 	bl	8001e54 <memset>

  /* GPIO Ports Clock Enable */
  LL_IOP_GRP1_EnableClock(LL_IOP_GRP1_PERIPH_GPIOC);
 8000450:	2004      	movs	r0, #4
 8000452:	f7ff ff69 	bl	8000328 <LL_IOP_GRP1_EnableClock>
  LL_IOP_GRP1_EnableClock(LL_IOP_GRP1_PERIPH_GPIOA);
 8000456:	2001      	movs	r0, #1
 8000458:	f7ff ff66 	bl	8000328 <LL_IOP_GRP1_EnableClock>

  /**/
  LL_GPIO_ResetOutputPin(CLEAN_ENABLE_GPIO_Port, CLEAN_ENABLE_Pin);
 800045c:	2380      	movs	r3, #128	; 0x80
 800045e:	01db      	lsls	r3, r3, #7
 8000460:	4a33      	ldr	r2, [pc, #204]	; (8000530 <MX_GPIO_Init+0x104>)
 8000462:	0019      	movs	r1, r3
 8000464:	0010      	movs	r0, r2
 8000466:	f7ff ffd5 	bl	8000414 <LL_GPIO_ResetOutputPin>

  /**/
  LL_GPIO_ResetOutputPin(FX_ENABLE_GPIO_Port, FX_ENABLE_Pin);
 800046a:	2380      	movs	r3, #128	; 0x80
 800046c:	009a      	lsls	r2, r3, #2
 800046e:	23a0      	movs	r3, #160	; 0xa0
 8000470:	05db      	lsls	r3, r3, #23
 8000472:	0011      	movs	r1, r2
 8000474:	0018      	movs	r0, r3
 8000476:	f7ff ffcd 	bl	8000414 <LL_GPIO_ResetOutputPin>

  /**/
  GPIO_InitStruct.Pin = CLEAN_ENABLE_Pin;
 800047a:	003b      	movs	r3, r7
 800047c:	2280      	movs	r2, #128	; 0x80
 800047e:	01d2      	lsls	r2, r2, #7
 8000480:	601a      	str	r2, [r3, #0]
  GPIO_InitStruct.Mode = LL_GPIO_MODE_OUTPUT;
 8000482:	003b      	movs	r3, r7
 8000484:	2201      	movs	r2, #1
 8000486:	605a      	str	r2, [r3, #4]
  GPIO_InitStruct.Speed = LL_GPIO_SPEED_FREQ_LOW;
 8000488:	003b      	movs	r3, r7
 800048a:	2200      	movs	r2, #0
 800048c:	609a      	str	r2, [r3, #8]
  GPIO_InitStruct.OutputType = LL_GPIO_OUTPUT_PUSHPULL;
 800048e:	003b      	movs	r3, r7
 8000490:	2200      	movs	r2, #0
 8000492:	60da      	str	r2, [r3, #12]
  GPIO_InitStruct.Pull = LL_GPIO_PULL_UP;
 8000494:	003b      	movs	r3, r7
 8000496:	2201      	movs	r2, #1
 8000498:	611a      	str	r2, [r3, #16]
  LL_GPIO_Init(CLEAN_ENABLE_GPIO_Port, &GPIO_InitStruct);
 800049a:	003b      	movs	r3, r7
 800049c:	4a24      	ldr	r2, [pc, #144]	; (8000530 <MX_GPIO_Init+0x104>)
 800049e:	0019      	movs	r1, r3
 80004a0:	0010      	movs	r0, r2
 80004a2:	f001 f9dc 	bl	800185e <LL_GPIO_Init>

  /**/
  GPIO_InitStruct.Pin = FX_ENABLE_Pin;
 80004a6:	003b      	movs	r3, r7
 80004a8:	2280      	movs	r2, #128	; 0x80
 80004aa:	0092      	lsls	r2, r2, #2
 80004ac:	601a      	str	r2, [r3, #0]
  GPIO_InitStruct.Mode = LL_GPIO_MODE_OUTPUT;
 80004ae:	003b      	movs	r3, r7
 80004b0:	2201      	movs	r2, #1
 80004b2:	605a      	str	r2, [r3, #4]
  GPIO_InitStruct.Speed = LL_GPIO_SPEED_FREQ_LOW;
 80004b4:	003b      	movs	r3, r7
 80004b6:	2200      	movs	r2, #0
 80004b8:	609a      	str	r2, [r3, #8]
  GPIO_InitStruct.OutputType = LL_GPIO_OUTPUT_PUSHPULL;
 80004ba:	003b      	movs	r3, r7
 80004bc:	2200      	movs	r2, #0
 80004be:	60da      	str	r2, [r3, #12]
  GPIO_InitStruct.Pull = LL_GPIO_PULL_UP;
 80004c0:	003b      	movs	r3, r7
 80004c2:	2201      	movs	r2, #1
 80004c4:	611a      	str	r2, [r3, #16]
  LL_GPIO_Init(FX_ENABLE_GPIO_Port, &GPIO_InitStruct);
 80004c6:	003a      	movs	r2, r7
 80004c8:	23a0      	movs	r3, #160	; 0xa0
 80004ca:	05db      	lsls	r3, r3, #23
 80004cc:	0011      	movs	r1, r2
 80004ce:	0018      	movs	r0, r3
 80004d0:	f001 f9c5 	bl	800185e <LL_GPIO_Init>

  /**/
  LL_SYSCFG_SetEXTISource(LL_SYSCFG_EXTI_PORTA, LL_SYSCFG_EXTI_LINE4);
 80004d4:	2101      	movs	r1, #1
 80004d6:	2000      	movs	r0, #0
 80004d8:	f7ff ff3c 	bl	8000354 <LL_SYSCFG_SetEXTISource>

  /**/
  LL_GPIO_SetPinPull(GPIO_EXTI4_BYPASS_GPIO_Port, GPIO_EXTI4_BYPASS_Pin, LL_GPIO_PULL_UP);
 80004dc:	23a0      	movs	r3, #160	; 0xa0
 80004de:	05db      	lsls	r3, r3, #23
 80004e0:	2201      	movs	r2, #1
 80004e2:	2110      	movs	r1, #16
 80004e4:	0018      	movs	r0, r3
 80004e6:	f7ff ff78 	bl	80003da <LL_GPIO_SetPinPull>

  /**/
  LL_GPIO_SetPinMode(GPIO_EXTI4_BYPASS_GPIO_Port, GPIO_EXTI4_BYPASS_Pin, LL_GPIO_MODE_INPUT);
 80004ea:	23a0      	movs	r3, #160	; 0xa0
 80004ec:	05db      	lsls	r3, r3, #23
 80004ee:	2200      	movs	r2, #0
 80004f0:	2110      	movs	r1, #16
 80004f2:	0018      	movs	r0, r3
 80004f4:	f7ff ff54 	bl	80003a0 <LL_GPIO_SetPinMode>

  /**/
  EXTI_InitStruct.Line_0_31 = LL_EXTI_LINE_4;
 80004f8:	0021      	movs	r1, r4
 80004fa:	187b      	adds	r3, r7, r1
 80004fc:	2210      	movs	r2, #16
 80004fe:	601a      	str	r2, [r3, #0]
  EXTI_InitStruct.LineCommand = ENABLE;
 8000500:	187b      	adds	r3, r7, r1
 8000502:	2201      	movs	r2, #1
 8000504:	711a      	strb	r2, [r3, #4]
  EXTI_InitStruct.Mode = LL_EXTI_MODE_IT;
 8000506:	187b      	adds	r3, r7, r1
 8000508:	2200      	movs	r2, #0
 800050a:	715a      	strb	r2, [r3, #5]
  EXTI_InitStruct.Trigger = LL_EXTI_TRIGGER_FALLING;
 800050c:	187b      	adds	r3, r7, r1
 800050e:	2202      	movs	r2, #2
 8000510:	719a      	strb	r2, [r3, #6]
  LL_EXTI_Init(&EXTI_InitStruct);
 8000512:	187b      	adds	r3, r7, r1
 8000514:	0018      	movs	r0, r3
 8000516:	f001 f85f 	bl	80015d8 <LL_EXTI_Init>

  /* EXTI interrupt init*/
  NVIC_SetPriority(EXTI4_15_IRQn, 0);
 800051a:	2100      	movs	r1, #0
 800051c:	2007      	movs	r0, #7
 800051e:	f7ff fe95 	bl	800024c <NVIC_SetPriority>
  NVIC_EnableIRQ(EXTI4_15_IRQn);
 8000522:	2007      	movs	r0, #7
 8000524:	f7ff fe7c 	bl	8000220 <NVIC_EnableIRQ>

}
 8000528:	46c0      	nop			; (mov r8, r8)
 800052a:	46bd      	mov	sp, r7
 800052c:	b009      	add	sp, #36	; 0x24
 800052e:	bd90      	pop	{r4, r7, pc}
 8000530:	50000800 	.word	0x50000800

08000534 <ledprogram_symcontfade>:
uint8_t pwm_dir_forward = 1;


// Symmetrical PWM by lookup table
void ledprogram_symcontfade()
{
 8000534:	b580      	push	{r7, lr}
 8000536:	af00      	add	r7, sp, #0

	  if(pwm_dir_forward)
 8000538:	4b1c      	ldr	r3, [pc, #112]	; (80005ac <ledprogram_symcontfade+0x78>)
 800053a:	781b      	ldrb	r3, [r3, #0]
 800053c:	2b00      	cmp	r3, #0
 800053e:	d006      	beq.n	800054e <ledprogram_symcontfade+0x1a>
		  pwm_bit_pos++;
 8000540:	4b1b      	ldr	r3, [pc, #108]	; (80005b0 <ledprogram_symcontfade+0x7c>)
 8000542:	781b      	ldrb	r3, [r3, #0]
 8000544:	3301      	adds	r3, #1
 8000546:	b2da      	uxtb	r2, r3
 8000548:	4b19      	ldr	r3, [pc, #100]	; (80005b0 <ledprogram_symcontfade+0x7c>)
 800054a:	701a      	strb	r2, [r3, #0]
 800054c:	e005      	b.n	800055a <ledprogram_symcontfade+0x26>
	  else
		  pwm_bit_pos--;
 800054e:	4b18      	ldr	r3, [pc, #96]	; (80005b0 <ledprogram_symcontfade+0x7c>)
 8000550:	781b      	ldrb	r3, [r3, #0]
 8000552:	3b01      	subs	r3, #1
 8000554:	b2da      	uxtb	r2, r3
 8000556:	4b16      	ldr	r3, [pc, #88]	; (80005b0 <ledprogram_symcontfade+0x7c>)
 8000558:	701a      	strb	r2, [r3, #0]



	  // change direction at sequence limits
	  if(pwm_bit_pos >= ((FADE_LOG_SEQ_DATA_SIZE)-1))
 800055a:	4b15      	ldr	r3, [pc, #84]	; (80005b0 <ledprogram_symcontfade+0x7c>)
 800055c:	781b      	ldrb	r3, [r3, #0]
 800055e:	2b3e      	cmp	r3, #62	; 0x3e
 8000560:	d908      	bls.n	8000574 <ledprogram_symcontfade+0x40>
	  {
		  //pwm_bit_pos = FADE_LOG_SEQ_DATA_SIZE/5;
		  pwm_dir_forward = 0;
 8000562:	4b12      	ldr	r3, [pc, #72]	; (80005ac <ledprogram_symcontfade+0x78>)
 8000564:	2200      	movs	r2, #0
 8000566:	701a      	strb	r2, [r3, #0]
		  pwm_bit_pos--;
 8000568:	4b11      	ldr	r3, [pc, #68]	; (80005b0 <ledprogram_symcontfade+0x7c>)
 800056a:	781b      	ldrb	r3, [r3, #0]
 800056c:	3b01      	subs	r3, #1
 800056e:	b2da      	uxtb	r2, r3
 8000570:	4b0f      	ldr	r3, [pc, #60]	; (80005b0 <ledprogram_symcontfade+0x7c>)
 8000572:	701a      	strb	r2, [r3, #0]
	  }
	  if(pwm_bit_pos < 1)
 8000574:	4b0e      	ldr	r3, [pc, #56]	; (80005b0 <ledprogram_symcontfade+0x7c>)
 8000576:	781b      	ldrb	r3, [r3, #0]
 8000578:	2b00      	cmp	r3, #0
 800057a:	d102      	bne.n	8000582 <ledprogram_symcontfade+0x4e>
	  {
		  pwm_dir_forward = 1;
 800057c:	4b0b      	ldr	r3, [pc, #44]	; (80005ac <ledprogram_symcontfade+0x78>)
 800057e:	2201      	movs	r2, #1
 8000580:	701a      	strb	r2, [r3, #0]
	  }



	  TIM2->CCR1 = fade_log_seq_data_table[pwm_bit_pos];
 8000582:	4b0b      	ldr	r3, [pc, #44]	; (80005b0 <ledprogram_symcontfade+0x7c>)
 8000584:	781b      	ldrb	r3, [r3, #0]
 8000586:	001a      	movs	r2, r3
 8000588:	4b0a      	ldr	r3, [pc, #40]	; (80005b4 <ledprogram_symcontfade+0x80>)
 800058a:	0052      	lsls	r2, r2, #1
 800058c:	5ad2      	ldrh	r2, [r2, r3]
 800058e:	2380      	movs	r3, #128	; 0x80
 8000590:	05db      	lsls	r3, r3, #23
 8000592:	635a      	str	r2, [r3, #52]	; 0x34
	  TIM2->CCR2 = fade_log_seq_data_table[pwm_bit_pos];
 8000594:	4b06      	ldr	r3, [pc, #24]	; (80005b0 <ledprogram_symcontfade+0x7c>)
 8000596:	781b      	ldrb	r3, [r3, #0]
 8000598:	001a      	movs	r2, r3
 800059a:	4b06      	ldr	r3, [pc, #24]	; (80005b4 <ledprogram_symcontfade+0x80>)
 800059c:	0052      	lsls	r2, r2, #1
 800059e:	5ad2      	ldrh	r2, [r2, r3]
 80005a0:	2380      	movs	r3, #128	; 0x80
 80005a2:	05db      	lsls	r3, r3, #23
 80005a4:	639a      	str	r2, [r3, #56]	; 0x38

}
 80005a6:	46c0      	nop			; (mov r8, r8)
 80005a8:	46bd      	mov	sp, r7
 80005aa:	bd80      	pop	{r7, pc}
 80005ac:	20000080 	.word	0x20000080
 80005b0:	200000a4 	.word	0x200000a4
 80005b4:	20000000 	.word	0x20000000

080005b8 <ledprogram_resetall>:
		  pwm_bit_pos = 0;
}

// reset duty cycles to  0%
void ledprogram_resetall()
{
 80005b8:	b580      	push	{r7, lr}
 80005ba:	af00      	add	r7, sp, #0
	pwm_bit_pos = 0;
 80005bc:	4b06      	ldr	r3, [pc, #24]	; (80005d8 <ledprogram_resetall+0x20>)
 80005be:	2200      	movs	r2, #0
 80005c0:	701a      	strb	r2, [r3, #0]
	  TIM2->CCR1 = 0;
 80005c2:	2380      	movs	r3, #128	; 0x80
 80005c4:	05db      	lsls	r3, r3, #23
 80005c6:	2200      	movs	r2, #0
 80005c8:	635a      	str	r2, [r3, #52]	; 0x34
	  TIM2->CCR2 = 0;
 80005ca:	2380      	movs	r3, #128	; 0x80
 80005cc:	05db      	lsls	r3, r3, #23
 80005ce:	2200      	movs	r2, #0
 80005d0:	639a      	str	r2, [r3, #56]	; 0x38
}
 80005d2:	46c0      	nop			; (mov r8, r8)
 80005d4:	46bd      	mov	sp, r7
 80005d6:	bd80      	pop	{r7, pc}
 80005d8:	200000a4 	.word	0x200000a4

080005dc <ledprogram_flash>:

// flash *num* times with *delay* spacing
void ledprogram_flash(uint8_t num, uint8_t delay)
{
 80005dc:	b580      	push	{r7, lr}
 80005de:	b084      	sub	sp, #16
 80005e0:	af00      	add	r7, sp, #0
 80005e2:	0002      	movs	r2, r0
 80005e4:	1dfb      	adds	r3, r7, #7
 80005e6:	701a      	strb	r2, [r3, #0]
 80005e8:	1dbb      	adds	r3, r7, #6
 80005ea:	1c0a      	adds	r2, r1, #0
 80005ec:	701a      	strb	r2, [r3, #0]
	for(uint8_t seq = 0; seq < num; seq++)
 80005ee:	230f      	movs	r3, #15
 80005f0:	18fb      	adds	r3, r7, r3
 80005f2:	2200      	movs	r2, #0
 80005f4:	701a      	strb	r2, [r3, #0]
 80005f6:	e01a      	b.n	800062e <ledprogram_flash+0x52>
	{
		  TIM2->CCR1 ^= 0x30;
 80005f8:	2380      	movs	r3, #128	; 0x80
 80005fa:	05db      	lsls	r3, r3, #23
 80005fc:	6b5a      	ldr	r2, [r3, #52]	; 0x34
 80005fe:	2380      	movs	r3, #128	; 0x80
 8000600:	05db      	lsls	r3, r3, #23
 8000602:	2130      	movs	r1, #48	; 0x30
 8000604:	404a      	eors	r2, r1
 8000606:	635a      	str	r2, [r3, #52]	; 0x34
		  TIM2->CCR2 ^= 0x30;
 8000608:	2380      	movs	r3, #128	; 0x80
 800060a:	05db      	lsls	r3, r3, #23
 800060c:	6b9a      	ldr	r2, [r3, #56]	; 0x38
 800060e:	2380      	movs	r3, #128	; 0x80
 8000610:	05db      	lsls	r3, r3, #23
 8000612:	2130      	movs	r1, #48	; 0x30
 8000614:	404a      	eors	r2, r1
 8000616:	639a      	str	r2, [r3, #56]	; 0x38
		  LL_mDelay(delay);
 8000618:	1dbb      	adds	r3, r7, #6
 800061a:	781b      	ldrb	r3, [r3, #0]
 800061c:	0018      	movs	r0, r3
 800061e:	f001 fbc5 	bl	8001dac <LL_mDelay>
	for(uint8_t seq = 0; seq < num; seq++)
 8000622:	210f      	movs	r1, #15
 8000624:	187b      	adds	r3, r7, r1
 8000626:	781a      	ldrb	r2, [r3, #0]
 8000628:	187b      	adds	r3, r7, r1
 800062a:	3201      	adds	r2, #1
 800062c:	701a      	strb	r2, [r3, #0]
 800062e:	230f      	movs	r3, #15
 8000630:	18fa      	adds	r2, r7, r3
 8000632:	1dfb      	adds	r3, r7, #7
 8000634:	7812      	ldrb	r2, [r2, #0]
 8000636:	781b      	ldrb	r3, [r3, #0]
 8000638:	429a      	cmp	r2, r3
 800063a:	d3dd      	bcc.n	80005f8 <ledprogram_flash+0x1c>

	}
}
 800063c:	46c0      	nop			; (mov r8, r8)
 800063e:	46bd      	mov	sp, r7
 8000640:	b004      	add	sp, #16
 8000642:	bd80      	pop	{r7, pc}

08000644 <NVIC_EnableIRQ>:
{
 8000644:	b580      	push	{r7, lr}
 8000646:	b082      	sub	sp, #8
 8000648:	af00      	add	r7, sp, #0
 800064a:	0002      	movs	r2, r0
 800064c:	1dfb      	adds	r3, r7, #7
 800064e:	701a      	strb	r2, [r3, #0]
  NVIC->ISER[0U] = (uint32_t)(1UL << (((uint32_t)(int32_t)IRQn) & 0x1FUL));
 8000650:	1dfb      	adds	r3, r7, #7
 8000652:	781b      	ldrb	r3, [r3, #0]
 8000654:	001a      	movs	r2, r3
 8000656:	231f      	movs	r3, #31
 8000658:	401a      	ands	r2, r3
 800065a:	4b04      	ldr	r3, [pc, #16]	; (800066c <NVIC_EnableIRQ+0x28>)
 800065c:	2101      	movs	r1, #1
 800065e:	4091      	lsls	r1, r2
 8000660:	000a      	movs	r2, r1
 8000662:	601a      	str	r2, [r3, #0]
}
 8000664:	46c0      	nop			; (mov r8, r8)
 8000666:	46bd      	mov	sp, r7
 8000668:	b002      	add	sp, #8
 800066a:	bd80      	pop	{r7, pc}
 800066c:	e000e100 	.word	0xe000e100

08000670 <NVIC_SetPriority>:
{
 8000670:	b590      	push	{r4, r7, lr}
 8000672:	b083      	sub	sp, #12
 8000674:	af00      	add	r7, sp, #0
 8000676:	0002      	movs	r2, r0
 8000678:	6039      	str	r1, [r7, #0]
 800067a:	1dfb      	adds	r3, r7, #7
 800067c:	701a      	strb	r2, [r3, #0]
  if ((int32_t)(IRQn) < 0)
 800067e:	1dfb      	adds	r3, r7, #7
 8000680:	781b      	ldrb	r3, [r3, #0]
 8000682:	2b7f      	cmp	r3, #127	; 0x7f
 8000684:	d932      	bls.n	80006ec <NVIC_SetPriority+0x7c>
    SCB->SHP[_SHP_IDX(IRQn)] = ((uint32_t)(SCB->SHP[_SHP_IDX(IRQn)] & ~(0xFFUL << _BIT_SHIFT(IRQn))) |
 8000686:	4a2f      	ldr	r2, [pc, #188]	; (8000744 <NVIC_SetPriority+0xd4>)
 8000688:	1dfb      	adds	r3, r7, #7
 800068a:	781b      	ldrb	r3, [r3, #0]
 800068c:	0019      	movs	r1, r3
 800068e:	230f      	movs	r3, #15
 8000690:	400b      	ands	r3, r1
 8000692:	3b08      	subs	r3, #8
 8000694:	089b      	lsrs	r3, r3, #2
 8000696:	3306      	adds	r3, #6
 8000698:	009b      	lsls	r3, r3, #2
 800069a:	18d3      	adds	r3, r2, r3
 800069c:	3304      	adds	r3, #4
 800069e:	681b      	ldr	r3, [r3, #0]
 80006a0:	1dfa      	adds	r2, r7, #7
 80006a2:	7812      	ldrb	r2, [r2, #0]
 80006a4:	0011      	movs	r1, r2
 80006a6:	2203      	movs	r2, #3
 80006a8:	400a      	ands	r2, r1
 80006aa:	00d2      	lsls	r2, r2, #3
 80006ac:	21ff      	movs	r1, #255	; 0xff
 80006ae:	4091      	lsls	r1, r2
 80006b0:	000a      	movs	r2, r1
 80006b2:	43d2      	mvns	r2, r2
 80006b4:	401a      	ands	r2, r3
 80006b6:	0011      	movs	r1, r2
       (((priority << (8U - __NVIC_PRIO_BITS)) & (uint32_t)0xFFUL) << _BIT_SHIFT(IRQn)));
 80006b8:	683b      	ldr	r3, [r7, #0]
 80006ba:	019b      	lsls	r3, r3, #6
 80006bc:	22ff      	movs	r2, #255	; 0xff
 80006be:	401a      	ands	r2, r3
 80006c0:	1dfb      	adds	r3, r7, #7
 80006c2:	781b      	ldrb	r3, [r3, #0]
 80006c4:	0018      	movs	r0, r3
 80006c6:	2303      	movs	r3, #3
 80006c8:	4003      	ands	r3, r0
 80006ca:	00db      	lsls	r3, r3, #3
 80006cc:	409a      	lsls	r2, r3
    SCB->SHP[_SHP_IDX(IRQn)] = ((uint32_t)(SCB->SHP[_SHP_IDX(IRQn)] & ~(0xFFUL << _BIT_SHIFT(IRQn))) |
 80006ce:	481d      	ldr	r0, [pc, #116]	; (8000744 <NVIC_SetPriority+0xd4>)
 80006d0:	1dfb      	adds	r3, r7, #7
 80006d2:	781b      	ldrb	r3, [r3, #0]
 80006d4:	001c      	movs	r4, r3
 80006d6:	230f      	movs	r3, #15
 80006d8:	4023      	ands	r3, r4
 80006da:	3b08      	subs	r3, #8
 80006dc:	089b      	lsrs	r3, r3, #2
 80006de:	430a      	orrs	r2, r1
 80006e0:	3306      	adds	r3, #6
 80006e2:	009b      	lsls	r3, r3, #2
 80006e4:	18c3      	adds	r3, r0, r3
 80006e6:	3304      	adds	r3, #4
 80006e8:	601a      	str	r2, [r3, #0]
}
 80006ea:	e027      	b.n	800073c <NVIC_SetPriority+0xcc>
    NVIC->IP[_IP_IDX(IRQn)]  = ((uint32_t)(NVIC->IP[_IP_IDX(IRQn)]  & ~(0xFFUL << _BIT_SHIFT(IRQn))) |
 80006ec:	4a16      	ldr	r2, [pc, #88]	; (8000748 <NVIC_SetPriority+0xd8>)
 80006ee:	1dfb      	adds	r3, r7, #7
 80006f0:	781b      	ldrb	r3, [r3, #0]
 80006f2:	b25b      	sxtb	r3, r3
 80006f4:	089b      	lsrs	r3, r3, #2
 80006f6:	33c0      	adds	r3, #192	; 0xc0
 80006f8:	009b      	lsls	r3, r3, #2
 80006fa:	589b      	ldr	r3, [r3, r2]
 80006fc:	1dfa      	adds	r2, r7, #7
 80006fe:	7812      	ldrb	r2, [r2, #0]
 8000700:	0011      	movs	r1, r2
 8000702:	2203      	movs	r2, #3
 8000704:	400a      	ands	r2, r1
 8000706:	00d2      	lsls	r2, r2, #3
 8000708:	21ff      	movs	r1, #255	; 0xff
 800070a:	4091      	lsls	r1, r2
 800070c:	000a      	movs	r2, r1
 800070e:	43d2      	mvns	r2, r2
 8000710:	401a      	ands	r2, r3
 8000712:	0011      	movs	r1, r2
       (((priority << (8U - __NVIC_PRIO_BITS)) & (uint32_t)0xFFUL) << _BIT_SHIFT(IRQn)));
 8000714:	683b      	ldr	r3, [r7, #0]
 8000716:	019b      	lsls	r3, r3, #6
 8000718:	22ff      	movs	r2, #255	; 0xff
 800071a:	401a      	ands	r2, r3
 800071c:	1dfb      	adds	r3, r7, #7
 800071e:	781b      	ldrb	r3, [r3, #0]
 8000720:	0018      	movs	r0, r3
 8000722:	2303      	movs	r3, #3
 8000724:	4003      	ands	r3, r0
 8000726:	00db      	lsls	r3, r3, #3
 8000728:	409a      	lsls	r2, r3
    NVIC->IP[_IP_IDX(IRQn)]  = ((uint32_t)(NVIC->IP[_IP_IDX(IRQn)]  & ~(0xFFUL << _BIT_SHIFT(IRQn))) |
 800072a:	4807      	ldr	r0, [pc, #28]	; (8000748 <NVIC_SetPriority+0xd8>)
 800072c:	1dfb      	adds	r3, r7, #7
 800072e:	781b      	ldrb	r3, [r3, #0]
 8000730:	b25b      	sxtb	r3, r3
 8000732:	089b      	lsrs	r3, r3, #2
 8000734:	430a      	orrs	r2, r1
 8000736:	33c0      	adds	r3, #192	; 0xc0
 8000738:	009b      	lsls	r3, r3, #2
 800073a:	501a      	str	r2, [r3, r0]
}
 800073c:	46c0      	nop			; (mov r8, r8)
 800073e:	46bd      	mov	sp, r7
 8000740:	b003      	add	sp, #12
 8000742:	bd90      	pop	{r4, r7, pc}
 8000744:	e000ed00 	.word	0xe000ed00
 8000748:	e000e100 	.word	0xe000e100

0800074c <LL_LPTIM_SetUpdateMode>:
  *         @arg @ref LL_LPTIM_UPDATE_MODE_IMMEDIATE
  *         @arg @ref LL_LPTIM_UPDATE_MODE_ENDOFPERIOD
  * @retval None
  */
__STATIC_INLINE void LL_LPTIM_SetUpdateMode(LPTIM_TypeDef *LPTIMx, uint32_t UpdateMode)
{
 800074c:	b580      	push	{r7, lr}
 800074e:	b082      	sub	sp, #8
 8000750:	af00      	add	r7, sp, #0
 8000752:	6078      	str	r0, [r7, #4]
 8000754:	6039      	str	r1, [r7, #0]
  MODIFY_REG(LPTIMx->CFGR, LPTIM_CFGR_PRELOAD, UpdateMode);
 8000756:	687b      	ldr	r3, [r7, #4]
 8000758:	68db      	ldr	r3, [r3, #12]
 800075a:	4a05      	ldr	r2, [pc, #20]	; (8000770 <LL_LPTIM_SetUpdateMode+0x24>)
 800075c:	401a      	ands	r2, r3
 800075e:	683b      	ldr	r3, [r7, #0]
 8000760:	431a      	orrs	r2, r3
 8000762:	687b      	ldr	r3, [r7, #4]
 8000764:	60da      	str	r2, [r3, #12]
}
 8000766:	46c0      	nop			; (mov r8, r8)
 8000768:	46bd      	mov	sp, r7
 800076a:	b002      	add	sp, #8
 800076c:	bd80      	pop	{r7, pc}
 800076e:	46c0      	nop			; (mov r8, r8)
 8000770:	ffbfffff 	.word	0xffbfffff

08000774 <LL_LPTIM_SetCounterMode>:
  *         @arg @ref LL_LPTIM_COUNTER_MODE_INTERNAL
  *         @arg @ref LL_LPTIM_COUNTER_MODE_EXTERNAL
  * @retval None
  */
__STATIC_INLINE void LL_LPTIM_SetCounterMode(LPTIM_TypeDef *LPTIMx, uint32_t CounterMode)
{
 8000774:	b580      	push	{r7, lr}
 8000776:	b082      	sub	sp, #8
 8000778:	af00      	add	r7, sp, #0
 800077a:	6078      	str	r0, [r7, #4]
 800077c:	6039      	str	r1, [r7, #0]
  MODIFY_REG(LPTIMx->CFGR, LPTIM_CFGR_COUNTMODE, CounterMode);
 800077e:	687b      	ldr	r3, [r7, #4]
 8000780:	68db      	ldr	r3, [r3, #12]
 8000782:	4a05      	ldr	r2, [pc, #20]	; (8000798 <LL_LPTIM_SetCounterMode+0x24>)
 8000784:	401a      	ands	r2, r3
 8000786:	683b      	ldr	r3, [r7, #0]
 8000788:	431a      	orrs	r2, r3
 800078a:	687b      	ldr	r3, [r7, #4]
 800078c:	60da      	str	r2, [r3, #12]
}
 800078e:	46c0      	nop			; (mov r8, r8)
 8000790:	46bd      	mov	sp, r7
 8000792:	b002      	add	sp, #8
 8000794:	bd80      	pop	{r7, pc}
 8000796:	46c0      	nop			; (mov r8, r8)
 8000798:	ff7fffff 	.word	0xff7fffff

0800079c <LL_LPTIM_SetPolarity>:
  *         @arg @ref LL_LPTIM_OUTPUT_POLARITY_REGULAR
  *         @arg @ref LL_LPTIM_OUTPUT_POLARITY_INVERSE
  * @retval None
  */
__STATIC_INLINE void LL_LPTIM_SetPolarity(LPTIM_TypeDef *LPTIMx, uint32_t Polarity)
{
 800079c:	b580      	push	{r7, lr}
 800079e:	b082      	sub	sp, #8
 80007a0:	af00      	add	r7, sp, #0
 80007a2:	6078      	str	r0, [r7, #4]
 80007a4:	6039      	str	r1, [r7, #0]
  MODIFY_REG(LPTIMx->CFGR, LPTIM_CFGR_WAVPOL, Polarity);
 80007a6:	687b      	ldr	r3, [r7, #4]
 80007a8:	68db      	ldr	r3, [r3, #12]
 80007aa:	4a05      	ldr	r2, [pc, #20]	; (80007c0 <LL_LPTIM_SetPolarity+0x24>)
 80007ac:	401a      	ands	r2, r3
 80007ae:	683b      	ldr	r3, [r7, #0]
 80007b0:	431a      	orrs	r2, r3
 80007b2:	687b      	ldr	r3, [r7, #4]
 80007b4:	60da      	str	r2, [r3, #12]
}
 80007b6:	46c0      	nop			; (mov r8, r8)
 80007b8:	46bd      	mov	sp, r7
 80007ba:	b002      	add	sp, #8
 80007bc:	bd80      	pop	{r7, pc}
 80007be:	46c0      	nop			; (mov r8, r8)
 80007c0:	ffdfffff 	.word	0xffdfffff

080007c4 <LL_LPTIM_SetPrescaler>:
  *         @arg @ref LL_LPTIM_PRESCALER_DIV64
  *         @arg @ref LL_LPTIM_PRESCALER_DIV128
  * @retval None
  */
__STATIC_INLINE void LL_LPTIM_SetPrescaler(LPTIM_TypeDef *LPTIMx, uint32_t Prescaler)
{
 80007c4:	b580      	push	{r7, lr}
 80007c6:	b082      	sub	sp, #8
 80007c8:	af00      	add	r7, sp, #0
 80007ca:	6078      	str	r0, [r7, #4]
 80007cc:	6039      	str	r1, [r7, #0]
  MODIFY_REG(LPTIMx->CFGR, LPTIM_CFGR_PRESC, Prescaler);
 80007ce:	687b      	ldr	r3, [r7, #4]
 80007d0:	68db      	ldr	r3, [r3, #12]
 80007d2:	4a05      	ldr	r2, [pc, #20]	; (80007e8 <LL_LPTIM_SetPrescaler+0x24>)
 80007d4:	401a      	ands	r2, r3
 80007d6:	683b      	ldr	r3, [r7, #0]
 80007d8:	431a      	orrs	r2, r3
 80007da:	687b      	ldr	r3, [r7, #4]
 80007dc:	60da      	str	r2, [r3, #12]
}
 80007de:	46c0      	nop			; (mov r8, r8)
 80007e0:	46bd      	mov	sp, r7
 80007e2:	b002      	add	sp, #8
 80007e4:	bd80      	pop	{r7, pc}
 80007e6:	46c0      	nop			; (mov r8, r8)
 80007e8:	fffff1ff 	.word	0xfffff1ff

080007ec <LL_LPTIM_TrigSw>:
  * @rmtoll CFGR         TRIGEN        LL_LPTIM_TrigSw
  * @param  LPTIMx Low-Power Timer instance
  * @retval None
  */
__STATIC_INLINE void LL_LPTIM_TrigSw(LPTIM_TypeDef *LPTIMx)
{
 80007ec:	b580      	push	{r7, lr}
 80007ee:	b082      	sub	sp, #8
 80007f0:	af00      	add	r7, sp, #0
 80007f2:	6078      	str	r0, [r7, #4]
  CLEAR_BIT(LPTIMx->CFGR, LPTIM_CFGR_TRIGEN);
 80007f4:	687b      	ldr	r3, [r7, #4]
 80007f6:	68db      	ldr	r3, [r3, #12]
 80007f8:	4a03      	ldr	r2, [pc, #12]	; (8000808 <LL_LPTIM_TrigSw+0x1c>)
 80007fa:	401a      	ands	r2, r3
 80007fc:	687b      	ldr	r3, [r7, #4]
 80007fe:	60da      	str	r2, [r3, #12]
}
 8000800:	46c0      	nop			; (mov r8, r8)
 8000802:	46bd      	mov	sp, r7
 8000804:	b002      	add	sp, #8
 8000806:	bd80      	pop	{r7, pc}
 8000808:	fff9ffff 	.word	0xfff9ffff

0800080c <LL_LPTIM_SetClockSource>:
  *         @arg @ref LL_LPTIM_CLK_SOURCE_INTERNAL
  *         @arg @ref LL_LPTIM_CLK_SOURCE_EXTERNAL
  * @retval None
  */
__STATIC_INLINE void LL_LPTIM_SetClockSource(LPTIM_TypeDef *LPTIMx, uint32_t ClockSource)
{
 800080c:	b580      	push	{r7, lr}
 800080e:	b082      	sub	sp, #8
 8000810:	af00      	add	r7, sp, #0
 8000812:	6078      	str	r0, [r7, #4]
 8000814:	6039      	str	r1, [r7, #0]
  MODIFY_REG(LPTIMx->CFGR, LPTIM_CFGR_CKSEL, ClockSource);
 8000816:	687b      	ldr	r3, [r7, #4]
 8000818:	68db      	ldr	r3, [r3, #12]
 800081a:	2201      	movs	r2, #1
 800081c:	4393      	bics	r3, r2
 800081e:	001a      	movs	r2, r3
 8000820:	683b      	ldr	r3, [r7, #0]
 8000822:	431a      	orrs	r2, r3
 8000824:	687b      	ldr	r3, [r7, #4]
 8000826:	60da      	str	r2, [r3, #12]
}
 8000828:	46c0      	nop			; (mov r8, r8)
 800082a:	46bd      	mov	sp, r7
 800082c:	b002      	add	sp, #8
 800082e:	bd80      	pop	{r7, pc}

08000830 <LL_APB1_GRP1_EnableClock>:
{
 8000830:	b580      	push	{r7, lr}
 8000832:	b084      	sub	sp, #16
 8000834:	af00      	add	r7, sp, #0
 8000836:	6078      	str	r0, [r7, #4]
  SET_BIT(RCC->APB1ENR, Periphs);
 8000838:	4b07      	ldr	r3, [pc, #28]	; (8000858 <LL_APB1_GRP1_EnableClock+0x28>)
 800083a:	6b99      	ldr	r1, [r3, #56]	; 0x38
 800083c:	4b06      	ldr	r3, [pc, #24]	; (8000858 <LL_APB1_GRP1_EnableClock+0x28>)
 800083e:	687a      	ldr	r2, [r7, #4]
 8000840:	430a      	orrs	r2, r1
 8000842:	639a      	str	r2, [r3, #56]	; 0x38
  tmpreg = READ_BIT(RCC->APB1ENR, Periphs);
 8000844:	4b04      	ldr	r3, [pc, #16]	; (8000858 <LL_APB1_GRP1_EnableClock+0x28>)
 8000846:	6b9b      	ldr	r3, [r3, #56]	; 0x38
 8000848:	687a      	ldr	r2, [r7, #4]
 800084a:	4013      	ands	r3, r2
 800084c:	60fb      	str	r3, [r7, #12]
  (void)tmpreg;
 800084e:	68fb      	ldr	r3, [r7, #12]
}
 8000850:	46c0      	nop			; (mov r8, r8)
 8000852:	46bd      	mov	sp, r7
 8000854:	b004      	add	sp, #16
 8000856:	bd80      	pop	{r7, pc}
 8000858:	40021000 	.word	0x40021000

0800085c <MX_LPTIM1_Init>:

/* USER CODE END 0 */

/* LPTIM1 init function */
void MX_LPTIM1_Init(void)
{
 800085c:	b580      	push	{r7, lr}
 800085e:	af00      	add	r7, sp, #0

  /* Peripheral clock enable */
  LL_APB1_GRP1_EnableClock(LL_APB1_GRP1_PERIPH_LPTIM1);
 8000860:	2380      	movs	r3, #128	; 0x80
 8000862:	061b      	lsls	r3, r3, #24
 8000864:	0018      	movs	r0, r3
 8000866:	f7ff ffe3 	bl	8000830 <LL_APB1_GRP1_EnableClock>

  /* LPTIM1 interrupt Init */
  NVIC_SetPriority(LPTIM1_IRQn, 0);
 800086a:	2100      	movs	r1, #0
 800086c:	200d      	movs	r0, #13
 800086e:	f7ff feff 	bl	8000670 <NVIC_SetPriority>
  NVIC_EnableIRQ(LPTIM1_IRQn);
 8000872:	200d      	movs	r0, #13
 8000874:	f7ff fee6 	bl	8000644 <NVIC_EnableIRQ>

  LL_LPTIM_SetClockSource(LPTIM1, LL_LPTIM_CLK_SOURCE_INTERNAL);
 8000878:	4b10      	ldr	r3, [pc, #64]	; (80008bc <MX_LPTIM1_Init+0x60>)
 800087a:	2100      	movs	r1, #0
 800087c:	0018      	movs	r0, r3
 800087e:	f7ff ffc5 	bl	800080c <LL_LPTIM_SetClockSource>
  LL_LPTIM_SetPrescaler(LPTIM1, LL_LPTIM_PRESCALER_DIV128);
 8000882:	23e0      	movs	r3, #224	; 0xe0
 8000884:	011b      	lsls	r3, r3, #4
 8000886:	4a0d      	ldr	r2, [pc, #52]	; (80008bc <MX_LPTIM1_Init+0x60>)
 8000888:	0019      	movs	r1, r3
 800088a:	0010      	movs	r0, r2
 800088c:	f7ff ff9a 	bl	80007c4 <LL_LPTIM_SetPrescaler>
  LL_LPTIM_SetPolarity(LPTIM1, LL_LPTIM_OUTPUT_POLARITY_REGULAR);
 8000890:	4b0a      	ldr	r3, [pc, #40]	; (80008bc <MX_LPTIM1_Init+0x60>)
 8000892:	2100      	movs	r1, #0
 8000894:	0018      	movs	r0, r3
 8000896:	f7ff ff81 	bl	800079c <LL_LPTIM_SetPolarity>
  LL_LPTIM_SetUpdateMode(LPTIM1, LL_LPTIM_UPDATE_MODE_IMMEDIATE);
 800089a:	4b08      	ldr	r3, [pc, #32]	; (80008bc <MX_LPTIM1_Init+0x60>)
 800089c:	2100      	movs	r1, #0
 800089e:	0018      	movs	r0, r3
 80008a0:	f7ff ff54 	bl	800074c <LL_LPTIM_SetUpdateMode>
  LL_LPTIM_SetCounterMode(LPTIM1, LL_LPTIM_COUNTER_MODE_INTERNAL);
 80008a4:	4b05      	ldr	r3, [pc, #20]	; (80008bc <MX_LPTIM1_Init+0x60>)
 80008a6:	2100      	movs	r1, #0
 80008a8:	0018      	movs	r0, r3
 80008aa:	f7ff ff63 	bl	8000774 <LL_LPTIM_SetCounterMode>
  LL_LPTIM_TrigSw(LPTIM1);
 80008ae:	4b03      	ldr	r3, [pc, #12]	; (80008bc <MX_LPTIM1_Init+0x60>)
 80008b0:	0018      	movs	r0, r3
 80008b2:	f7ff ff9b 	bl	80007ec <LL_LPTIM_TrigSw>

}
 80008b6:	46c0      	nop			; (mov r8, r8)
 80008b8:	46bd      	mov	sp, r7
 80008ba:	bd80      	pop	{r7, pc}
 80008bc:	40007c00 	.word	0x40007c00

080008c0 <LL_RCC_HSI_Enable>:
  * @brief  Enable HSI oscillator
  * @rmtoll CR           HSION         LL_RCC_HSI_Enable
  * @retval None
  */
__STATIC_INLINE void LL_RCC_HSI_Enable(void)
{
 80008c0:	b580      	push	{r7, lr}
 80008c2:	af00      	add	r7, sp, #0
  SET_BIT(RCC->CR, RCC_CR_HSION);
 80008c4:	4b04      	ldr	r3, [pc, #16]	; (80008d8 <LL_RCC_HSI_Enable+0x18>)
 80008c6:	681a      	ldr	r2, [r3, #0]
 80008c8:	4b03      	ldr	r3, [pc, #12]	; (80008d8 <LL_RCC_HSI_Enable+0x18>)
 80008ca:	2101      	movs	r1, #1
 80008cc:	430a      	orrs	r2, r1
 80008ce:	601a      	str	r2, [r3, #0]
}
 80008d0:	46c0      	nop			; (mov r8, r8)
 80008d2:	46bd      	mov	sp, r7
 80008d4:	bd80      	pop	{r7, pc}
 80008d6:	46c0      	nop			; (mov r8, r8)
 80008d8:	40021000 	.word	0x40021000

080008dc <LL_RCC_HSI_IsReady>:
  * @brief  Check if HSI clock is ready
  * @rmtoll CR           HSIRDY        LL_RCC_HSI_IsReady
  * @retval State of bit (1 or 0).
  */
__STATIC_INLINE uint32_t LL_RCC_HSI_IsReady(void)
{
 80008dc:	b580      	push	{r7, lr}
 80008de:	af00      	add	r7, sp, #0
  return ((READ_BIT(RCC->CR, RCC_CR_HSIRDY) == RCC_CR_HSIRDY) ? 1UL : 0UL);
 80008e0:	4b05      	ldr	r3, [pc, #20]	; (80008f8 <LL_RCC_HSI_IsReady+0x1c>)
 80008e2:	681b      	ldr	r3, [r3, #0]
 80008e4:	2204      	movs	r2, #4
 80008e6:	4013      	ands	r3, r2
 80008e8:	2b04      	cmp	r3, #4
 80008ea:	d101      	bne.n	80008f0 <LL_RCC_HSI_IsReady+0x14>
 80008ec:	2301      	movs	r3, #1
 80008ee:	e000      	b.n	80008f2 <LL_RCC_HSI_IsReady+0x16>
 80008f0:	2300      	movs	r3, #0
}
 80008f2:	0018      	movs	r0, r3
 80008f4:	46bd      	mov	sp, r7
 80008f6:	bd80      	pop	{r7, pc}
 80008f8:	40021000 	.word	0x40021000

080008fc <LL_RCC_HSI_SetCalibTrimming>:
  * @rmtoll ICSCR        HSITRIM       LL_RCC_HSI_SetCalibTrimming
  * @param  Value between Min_Data = 0x00 and Max_Data = 0x1F
  * @retval None
  */
__STATIC_INLINE void LL_RCC_HSI_SetCalibTrimming(uint32_t Value)
{
 80008fc:	b580      	push	{r7, lr}
 80008fe:	b082      	sub	sp, #8
 8000900:	af00      	add	r7, sp, #0
 8000902:	6078      	str	r0, [r7, #4]
  MODIFY_REG(RCC->ICSCR, RCC_ICSCR_HSITRIM, Value << RCC_ICSCR_HSITRIM_Pos);
 8000904:	4b06      	ldr	r3, [pc, #24]	; (8000920 <LL_RCC_HSI_SetCalibTrimming+0x24>)
 8000906:	685b      	ldr	r3, [r3, #4]
 8000908:	4a06      	ldr	r2, [pc, #24]	; (8000924 <LL_RCC_HSI_SetCalibTrimming+0x28>)
 800090a:	4013      	ands	r3, r2
 800090c:	0019      	movs	r1, r3
 800090e:	687b      	ldr	r3, [r7, #4]
 8000910:	021a      	lsls	r2, r3, #8
 8000912:	4b03      	ldr	r3, [pc, #12]	; (8000920 <LL_RCC_HSI_SetCalibTrimming+0x24>)
 8000914:	430a      	orrs	r2, r1
 8000916:	605a      	str	r2, [r3, #4]
}
 8000918:	46c0      	nop			; (mov r8, r8)
 800091a:	46bd      	mov	sp, r7
 800091c:	b002      	add	sp, #8
 800091e:	bd80      	pop	{r7, pc}
 8000920:	40021000 	.word	0x40021000
 8000924:	ffffe0ff 	.word	0xffffe0ff

08000928 <LL_RCC_SetSysClkSource>:
  *         @arg @ref LL_RCC_SYS_CLKSOURCE_HSE
  *         @arg @ref LL_RCC_SYS_CLKSOURCE_PLL
  * @retval None
  */
__STATIC_INLINE void LL_RCC_SetSysClkSource(uint32_t Source)
{
 8000928:	b580      	push	{r7, lr}
 800092a:	b082      	sub	sp, #8
 800092c:	af00      	add	r7, sp, #0
 800092e:	6078      	str	r0, [r7, #4]
  MODIFY_REG(RCC->CFGR, RCC_CFGR_SW, Source);
 8000930:	4b06      	ldr	r3, [pc, #24]	; (800094c <LL_RCC_SetSysClkSource+0x24>)
 8000932:	68db      	ldr	r3, [r3, #12]
 8000934:	2203      	movs	r2, #3
 8000936:	4393      	bics	r3, r2
 8000938:	0019      	movs	r1, r3
 800093a:	4b04      	ldr	r3, [pc, #16]	; (800094c <LL_RCC_SetSysClkSource+0x24>)
 800093c:	687a      	ldr	r2, [r7, #4]
 800093e:	430a      	orrs	r2, r1
 8000940:	60da      	str	r2, [r3, #12]
}
 8000942:	46c0      	nop			; (mov r8, r8)
 8000944:	46bd      	mov	sp, r7
 8000946:	b002      	add	sp, #8
 8000948:	bd80      	pop	{r7, pc}
 800094a:	46c0      	nop			; (mov r8, r8)
 800094c:	40021000 	.word	0x40021000

08000950 <LL_RCC_GetSysClkSource>:
  *         @arg @ref LL_RCC_SYS_CLKSOURCE_STATUS_HSI
  *         @arg @ref LL_RCC_SYS_CLKSOURCE_STATUS_HSE
  *         @arg @ref LL_RCC_SYS_CLKSOURCE_STATUS_PLL
  */
__STATIC_INLINE uint32_t LL_RCC_GetSysClkSource(void)
{
 8000950:	b580      	push	{r7, lr}
 8000952:	af00      	add	r7, sp, #0
  return (uint32_t)(READ_BIT(RCC->CFGR, RCC_CFGR_SWS));
 8000954:	4b03      	ldr	r3, [pc, #12]	; (8000964 <LL_RCC_GetSysClkSource+0x14>)
 8000956:	68db      	ldr	r3, [r3, #12]
 8000958:	220c      	movs	r2, #12
 800095a:	4013      	ands	r3, r2
}
 800095c:	0018      	movs	r0, r3
 800095e:	46bd      	mov	sp, r7
 8000960:	bd80      	pop	{r7, pc}
 8000962:	46c0      	nop			; (mov r8, r8)
 8000964:	40021000 	.word	0x40021000

08000968 <LL_RCC_SetAHBPrescaler>:
  *         @arg @ref LL_RCC_SYSCLK_DIV_256
  *         @arg @ref LL_RCC_SYSCLK_DIV_512
  * @retval None
  */
__STATIC_INLINE void LL_RCC_SetAHBPrescaler(uint32_t Prescaler)
{
 8000968:	b580      	push	{r7, lr}
 800096a:	b082      	sub	sp, #8
 800096c:	af00      	add	r7, sp, #0
 800096e:	6078      	str	r0, [r7, #4]
  MODIFY_REG(RCC->CFGR, RCC_CFGR_HPRE, Prescaler);
 8000970:	4b06      	ldr	r3, [pc, #24]	; (800098c <LL_RCC_SetAHBPrescaler+0x24>)
 8000972:	68db      	ldr	r3, [r3, #12]
 8000974:	22f0      	movs	r2, #240	; 0xf0
 8000976:	4393      	bics	r3, r2
 8000978:	0019      	movs	r1, r3
 800097a:	4b04      	ldr	r3, [pc, #16]	; (800098c <LL_RCC_SetAHBPrescaler+0x24>)
 800097c:	687a      	ldr	r2, [r7, #4]
 800097e:	430a      	orrs	r2, r1
 8000980:	60da      	str	r2, [r3, #12]
}
 8000982:	46c0      	nop			; (mov r8, r8)
 8000984:	46bd      	mov	sp, r7
 8000986:	b002      	add	sp, #8
 8000988:	bd80      	pop	{r7, pc}
 800098a:	46c0      	nop			; (mov r8, r8)
 800098c:	40021000 	.word	0x40021000

08000990 <LL_RCC_SetAPB1Prescaler>:
  *         @arg @ref LL_RCC_APB1_DIV_8
  *         @arg @ref LL_RCC_APB1_DIV_16
  * @retval None
  */
__STATIC_INLINE void LL_RCC_SetAPB1Prescaler(uint32_t Prescaler)
{
 8000990:	b580      	push	{r7, lr}
 8000992:	b082      	sub	sp, #8
 8000994:	af00      	add	r7, sp, #0
 8000996:	6078      	str	r0, [r7, #4]
  MODIFY_REG(RCC->CFGR, RCC_CFGR_PPRE1, Prescaler);
 8000998:	4b06      	ldr	r3, [pc, #24]	; (80009b4 <LL_RCC_SetAPB1Prescaler+0x24>)
 800099a:	68db      	ldr	r3, [r3, #12]
 800099c:	4a06      	ldr	r2, [pc, #24]	; (80009b8 <LL_RCC_SetAPB1Prescaler+0x28>)
 800099e:	4013      	ands	r3, r2
 80009a0:	0019      	movs	r1, r3
 80009a2:	4b04      	ldr	r3, [pc, #16]	; (80009b4 <LL_RCC_SetAPB1Prescaler+0x24>)
 80009a4:	687a      	ldr	r2, [r7, #4]
 80009a6:	430a      	orrs	r2, r1
 80009a8:	60da      	str	r2, [r3, #12]
}
 80009aa:	46c0      	nop			; (mov r8, r8)
 80009ac:	46bd      	mov	sp, r7
 80009ae:	b002      	add	sp, #8
 80009b0:	bd80      	pop	{r7, pc}
 80009b2:	46c0      	nop			; (mov r8, r8)
 80009b4:	40021000 	.word	0x40021000
 80009b8:	fffff8ff 	.word	0xfffff8ff

080009bc <LL_RCC_SetAPB2Prescaler>:
  *         @arg @ref LL_RCC_APB2_DIV_8
  *         @arg @ref LL_RCC_APB2_DIV_16
  * @retval None
  */
__STATIC_INLINE void LL_RCC_SetAPB2Prescaler(uint32_t Prescaler)
{
 80009bc:	b580      	push	{r7, lr}
 80009be:	b082      	sub	sp, #8
 80009c0:	af00      	add	r7, sp, #0
 80009c2:	6078      	str	r0, [r7, #4]
  MODIFY_REG(RCC->CFGR, RCC_CFGR_PPRE2, Prescaler);
 80009c4:	4b06      	ldr	r3, [pc, #24]	; (80009e0 <LL_RCC_SetAPB2Prescaler+0x24>)
 80009c6:	68db      	ldr	r3, [r3, #12]
 80009c8:	4a06      	ldr	r2, [pc, #24]	; (80009e4 <LL_RCC_SetAPB2Prescaler+0x28>)
 80009ca:	4013      	ands	r3, r2
 80009cc:	0019      	movs	r1, r3
 80009ce:	4b04      	ldr	r3, [pc, #16]	; (80009e0 <LL_RCC_SetAPB2Prescaler+0x24>)
 80009d0:	687a      	ldr	r2, [r7, #4]
 80009d2:	430a      	orrs	r2, r1
 80009d4:	60da      	str	r2, [r3, #12]
}
 80009d6:	46c0      	nop			; (mov r8, r8)
 80009d8:	46bd      	mov	sp, r7
 80009da:	b002      	add	sp, #8
 80009dc:	bd80      	pop	{r7, pc}
 80009de:	46c0      	nop			; (mov r8, r8)
 80009e0:	40021000 	.word	0x40021000
 80009e4:	ffffc7ff 	.word	0xffffc7ff

080009e8 <LL_RCC_SetLPTIMClockSource>:
  *         @arg @ref LL_RCC_LPTIM1_CLKSOURCE_HSI
  *         @arg @ref LL_RCC_LPTIM1_CLKSOURCE_LSE
  * @retval None
  */
__STATIC_INLINE void LL_RCC_SetLPTIMClockSource(uint32_t LPTIMxSource)
{
 80009e8:	b580      	push	{r7, lr}
 80009ea:	b082      	sub	sp, #8
 80009ec:	af00      	add	r7, sp, #0
 80009ee:	6078      	str	r0, [r7, #4]
  MODIFY_REG(RCC->CCIPR, RCC_CCIPR_LPTIM1SEL, LPTIMxSource);
 80009f0:	4b06      	ldr	r3, [pc, #24]	; (8000a0c <LL_RCC_SetLPTIMClockSource+0x24>)
 80009f2:	6cdb      	ldr	r3, [r3, #76]	; 0x4c
 80009f4:	4a06      	ldr	r2, [pc, #24]	; (8000a10 <LL_RCC_SetLPTIMClockSource+0x28>)
 80009f6:	4013      	ands	r3, r2
 80009f8:	0019      	movs	r1, r3
 80009fa:	4b04      	ldr	r3, [pc, #16]	; (8000a0c <LL_RCC_SetLPTIMClockSource+0x24>)
 80009fc:	687a      	ldr	r2, [r7, #4]
 80009fe:	430a      	orrs	r2, r1
 8000a00:	64da      	str	r2, [r3, #76]	; 0x4c
}
 8000a02:	46c0      	nop			; (mov r8, r8)
 8000a04:	46bd      	mov	sp, r7
 8000a06:	b002      	add	sp, #8
 8000a08:	bd80      	pop	{r7, pc}
 8000a0a:	46c0      	nop			; (mov r8, r8)
 8000a0c:	40021000 	.word	0x40021000
 8000a10:	fff3ffff 	.word	0xfff3ffff

08000a14 <LL_RCC_PLL_Enable>:
  * @brief  Enable PLL
  * @rmtoll CR           PLLON         LL_RCC_PLL_Enable
  * @retval None
  */
__STATIC_INLINE void LL_RCC_PLL_Enable(void)
{
 8000a14:	b580      	push	{r7, lr}
 8000a16:	af00      	add	r7, sp, #0
  SET_BIT(RCC->CR, RCC_CR_PLLON);
 8000a18:	4b04      	ldr	r3, [pc, #16]	; (8000a2c <LL_RCC_PLL_Enable+0x18>)
 8000a1a:	681a      	ldr	r2, [r3, #0]
 8000a1c:	4b03      	ldr	r3, [pc, #12]	; (8000a2c <LL_RCC_PLL_Enable+0x18>)
 8000a1e:	2180      	movs	r1, #128	; 0x80
 8000a20:	0449      	lsls	r1, r1, #17
 8000a22:	430a      	orrs	r2, r1
 8000a24:	601a      	str	r2, [r3, #0]
}
 8000a26:	46c0      	nop			; (mov r8, r8)
 8000a28:	46bd      	mov	sp, r7
 8000a2a:	bd80      	pop	{r7, pc}
 8000a2c:	40021000 	.word	0x40021000

08000a30 <LL_RCC_PLL_IsReady>:
  * @brief  Check if PLL Ready
  * @rmtoll CR           PLLRDY        LL_RCC_PLL_IsReady
  * @retval State of bit (1 or 0).
  */
__STATIC_INLINE uint32_t LL_RCC_PLL_IsReady(void)
{
 8000a30:	b580      	push	{r7, lr}
 8000a32:	af00      	add	r7, sp, #0
  return ((READ_BIT(RCC->CR, RCC_CR_PLLRDY) == RCC_CR_PLLRDY) ? 1UL : 0UL);
 8000a34:	4b07      	ldr	r3, [pc, #28]	; (8000a54 <LL_RCC_PLL_IsReady+0x24>)
 8000a36:	681a      	ldr	r2, [r3, #0]
 8000a38:	2380      	movs	r3, #128	; 0x80
 8000a3a:	049b      	lsls	r3, r3, #18
 8000a3c:	401a      	ands	r2, r3
 8000a3e:	2380      	movs	r3, #128	; 0x80
 8000a40:	049b      	lsls	r3, r3, #18
 8000a42:	429a      	cmp	r2, r3
 8000a44:	d101      	bne.n	8000a4a <LL_RCC_PLL_IsReady+0x1a>
 8000a46:	2301      	movs	r3, #1
 8000a48:	e000      	b.n	8000a4c <LL_RCC_PLL_IsReady+0x1c>
 8000a4a:	2300      	movs	r3, #0
}
 8000a4c:	0018      	movs	r0, r3
 8000a4e:	46bd      	mov	sp, r7
 8000a50:	bd80      	pop	{r7, pc}
 8000a52:	46c0      	nop			; (mov r8, r8)
 8000a54:	40021000 	.word	0x40021000

08000a58 <LL_RCC_PLL_ConfigDomain_SYS>:
  *         @arg @ref LL_RCC_PLL_DIV_3
  *         @arg @ref LL_RCC_PLL_DIV_4
  * @retval None
  */
__STATIC_INLINE void LL_RCC_PLL_ConfigDomain_SYS(uint32_t Source, uint32_t PLLMul, uint32_t PLLDiv)
{
 8000a58:	b580      	push	{r7, lr}
 8000a5a:	b084      	sub	sp, #16
 8000a5c:	af00      	add	r7, sp, #0
 8000a5e:	60f8      	str	r0, [r7, #12]
 8000a60:	60b9      	str	r1, [r7, #8]
 8000a62:	607a      	str	r2, [r7, #4]
  MODIFY_REG(RCC->CFGR, RCC_CFGR_PLLSRC | RCC_CFGR_PLLMUL | RCC_CFGR_PLLDIV, Source | PLLMul | PLLDiv);
 8000a64:	4b08      	ldr	r3, [pc, #32]	; (8000a88 <LL_RCC_PLL_ConfigDomain_SYS+0x30>)
 8000a66:	68db      	ldr	r3, [r3, #12]
 8000a68:	4a08      	ldr	r2, [pc, #32]	; (8000a8c <LL_RCC_PLL_ConfigDomain_SYS+0x34>)
 8000a6a:	4013      	ands	r3, r2
 8000a6c:	0019      	movs	r1, r3
 8000a6e:	68fa      	ldr	r2, [r7, #12]
 8000a70:	68bb      	ldr	r3, [r7, #8]
 8000a72:	431a      	orrs	r2, r3
 8000a74:	687b      	ldr	r3, [r7, #4]
 8000a76:	431a      	orrs	r2, r3
 8000a78:	4b03      	ldr	r3, [pc, #12]	; (8000a88 <LL_RCC_PLL_ConfigDomain_SYS+0x30>)
 8000a7a:	430a      	orrs	r2, r1
 8000a7c:	60da      	str	r2, [r3, #12]
}
 8000a7e:	46c0      	nop			; (mov r8, r8)
 8000a80:	46bd      	mov	sp, r7
 8000a82:	b004      	add	sp, #16
 8000a84:	bd80      	pop	{r7, pc}
 8000a86:	46c0      	nop			; (mov r8, r8)
 8000a88:	40021000 	.word	0x40021000
 8000a8c:	ff02ffff 	.word	0xff02ffff

08000a90 <LL_APB1_GRP1_EnableClock>:
{
 8000a90:	b580      	push	{r7, lr}
 8000a92:	b084      	sub	sp, #16
 8000a94:	af00      	add	r7, sp, #0
 8000a96:	6078      	str	r0, [r7, #4]
  SET_BIT(RCC->APB1ENR, Periphs);
 8000a98:	4b07      	ldr	r3, [pc, #28]	; (8000ab8 <LL_APB1_GRP1_EnableClock+0x28>)
 8000a9a:	6b99      	ldr	r1, [r3, #56]	; 0x38
 8000a9c:	4b06      	ldr	r3, [pc, #24]	; (8000ab8 <LL_APB1_GRP1_EnableClock+0x28>)
 8000a9e:	687a      	ldr	r2, [r7, #4]
 8000aa0:	430a      	orrs	r2, r1
 8000aa2:	639a      	str	r2, [r3, #56]	; 0x38
  tmpreg = READ_BIT(RCC->APB1ENR, Periphs);
 8000aa4:	4b04      	ldr	r3, [pc, #16]	; (8000ab8 <LL_APB1_GRP1_EnableClock+0x28>)
 8000aa6:	6b9b      	ldr	r3, [r3, #56]	; 0x38
 8000aa8:	687a      	ldr	r2, [r7, #4]
 8000aaa:	4013      	ands	r3, r2
 8000aac:	60fb      	str	r3, [r7, #12]
  (void)tmpreg;
 8000aae:	68fb      	ldr	r3, [r7, #12]
}
 8000ab0:	46c0      	nop			; (mov r8, r8)
 8000ab2:	46bd      	mov	sp, r7
 8000ab4:	b004      	add	sp, #16
 8000ab6:	bd80      	pop	{r7, pc}
 8000ab8:	40021000 	.word	0x40021000

08000abc <LL_APB2_GRP1_EnableClock>:
{
 8000abc:	b580      	push	{r7, lr}
 8000abe:	b084      	sub	sp, #16
 8000ac0:	af00      	add	r7, sp, #0
 8000ac2:	6078      	str	r0, [r7, #4]
  SET_BIT(RCC->APB2ENR, Periphs);
 8000ac4:	4b07      	ldr	r3, [pc, #28]	; (8000ae4 <LL_APB2_GRP1_EnableClock+0x28>)
 8000ac6:	6b59      	ldr	r1, [r3, #52]	; 0x34
 8000ac8:	4b06      	ldr	r3, [pc, #24]	; (8000ae4 <LL_APB2_GRP1_EnableClock+0x28>)
 8000aca:	687a      	ldr	r2, [r7, #4]
 8000acc:	430a      	orrs	r2, r1
 8000ace:	635a      	str	r2, [r3, #52]	; 0x34
  tmpreg = READ_BIT(RCC->APB2ENR, Periphs);
 8000ad0:	4b04      	ldr	r3, [pc, #16]	; (8000ae4 <LL_APB2_GRP1_EnableClock+0x28>)
 8000ad2:	6b5b      	ldr	r3, [r3, #52]	; 0x34
 8000ad4:	687a      	ldr	r2, [r7, #4]
 8000ad6:	4013      	ands	r3, r2
 8000ad8:	60fb      	str	r3, [r7, #12]
  (void)tmpreg;
 8000ada:	68fb      	ldr	r3, [r7, #12]
}
 8000adc:	46c0      	nop			; (mov r8, r8)
 8000ade:	46bd      	mov	sp, r7
 8000ae0:	b004      	add	sp, #16
 8000ae2:	bd80      	pop	{r7, pc}
 8000ae4:	40021000 	.word	0x40021000

08000ae8 <LL_FLASH_SetLatency>:
  *         @arg @ref LL_FLASH_LATENCY_0
  *         @arg @ref LL_FLASH_LATENCY_1
  * @retval None
  */
__STATIC_INLINE void LL_FLASH_SetLatency(uint32_t Latency)
{
 8000ae8:	b580      	push	{r7, lr}
 8000aea:	b082      	sub	sp, #8
 8000aec:	af00      	add	r7, sp, #0
 8000aee:	6078      	str	r0, [r7, #4]
  MODIFY_REG(FLASH->ACR, FLASH_ACR_LATENCY, Latency);
 8000af0:	4b06      	ldr	r3, [pc, #24]	; (8000b0c <LL_FLASH_SetLatency+0x24>)
 8000af2:	681b      	ldr	r3, [r3, #0]
 8000af4:	2201      	movs	r2, #1
 8000af6:	4393      	bics	r3, r2
 8000af8:	0019      	movs	r1, r3
 8000afa:	4b04      	ldr	r3, [pc, #16]	; (8000b0c <LL_FLASH_SetLatency+0x24>)
 8000afc:	687a      	ldr	r2, [r7, #4]
 8000afe:	430a      	orrs	r2, r1
 8000b00:	601a      	str	r2, [r3, #0]
}
 8000b02:	46c0      	nop			; (mov r8, r8)
 8000b04:	46bd      	mov	sp, r7
 8000b06:	b002      	add	sp, #8
 8000b08:	bd80      	pop	{r7, pc}
 8000b0a:	46c0      	nop			; (mov r8, r8)
 8000b0c:	40022000 	.word	0x40022000

08000b10 <LL_FLASH_GetLatency>:
  * @retval Returned value can be one of the following values:
  *         @arg @ref LL_FLASH_LATENCY_0
  *         @arg @ref LL_FLASH_LATENCY_1
  */
__STATIC_INLINE uint32_t LL_FLASH_GetLatency(void)
{
 8000b10:	b580      	push	{r7, lr}
 8000b12:	af00      	add	r7, sp, #0
  return (uint32_t)(READ_BIT(FLASH->ACR, FLASH_ACR_LATENCY));
 8000b14:	4b03      	ldr	r3, [pc, #12]	; (8000b24 <LL_FLASH_GetLatency+0x14>)
 8000b16:	681b      	ldr	r3, [r3, #0]
 8000b18:	2201      	movs	r2, #1
 8000b1a:	4013      	ands	r3, r2
}
 8000b1c:	0018      	movs	r0, r3
 8000b1e:	46bd      	mov	sp, r7
 8000b20:	bd80      	pop	{r7, pc}
 8000b22:	46c0      	nop			; (mov r8, r8)
 8000b24:	40022000 	.word	0x40022000

08000b28 <LL_PWR_SetRegulVoltageScaling>:
  *         @arg @ref LL_PWR_REGU_VOLTAGE_SCALE2
  *         @arg @ref LL_PWR_REGU_VOLTAGE_SCALE3
  * @retval None
  */
__STATIC_INLINE void LL_PWR_SetRegulVoltageScaling(uint32_t VoltageScaling)
{
 8000b28:	b580      	push	{r7, lr}
 8000b2a:	b082      	sub	sp, #8
 8000b2c:	af00      	add	r7, sp, #0
 8000b2e:	6078      	str	r0, [r7, #4]
  MODIFY_REG(PWR->CR, PWR_CR_VOS, VoltageScaling);
 8000b30:	4b06      	ldr	r3, [pc, #24]	; (8000b4c <LL_PWR_SetRegulVoltageScaling+0x24>)
 8000b32:	681b      	ldr	r3, [r3, #0]
 8000b34:	4a06      	ldr	r2, [pc, #24]	; (8000b50 <LL_PWR_SetRegulVoltageScaling+0x28>)
 8000b36:	4013      	ands	r3, r2
 8000b38:	0019      	movs	r1, r3
 8000b3a:	4b04      	ldr	r3, [pc, #16]	; (8000b4c <LL_PWR_SetRegulVoltageScaling+0x24>)
 8000b3c:	687a      	ldr	r2, [r7, #4]
 8000b3e:	430a      	orrs	r2, r1
 8000b40:	601a      	str	r2, [r3, #0]
}
 8000b42:	46c0      	nop			; (mov r8, r8)
 8000b44:	46bd      	mov	sp, r7
 8000b46:	b002      	add	sp, #8
 8000b48:	bd80      	pop	{r7, pc}
 8000b4a:	46c0      	nop			; (mov r8, r8)
 8000b4c:	40007000 	.word	0x40007000
 8000b50:	ffffe7ff 	.word	0xffffe7ff

08000b54 <LL_TIM_EnableCounter>:
  * @rmtoll CR1          CEN           LL_TIM_EnableCounter
  * @param  TIMx Timer instance
  * @retval None
  */
__STATIC_INLINE void LL_TIM_EnableCounter(TIM_TypeDef *TIMx)
{
 8000b54:	b580      	push	{r7, lr}
 8000b56:	b082      	sub	sp, #8
 8000b58:	af00      	add	r7, sp, #0
 8000b5a:	6078      	str	r0, [r7, #4]
  SET_BIT(TIMx->CR1, TIM_CR1_CEN);
 8000b5c:	687b      	ldr	r3, [r7, #4]
 8000b5e:	681b      	ldr	r3, [r3, #0]
 8000b60:	2201      	movs	r2, #1
 8000b62:	431a      	orrs	r2, r3
 8000b64:	687b      	ldr	r3, [r7, #4]
 8000b66:	601a      	str	r2, [r3, #0]
}
 8000b68:	46c0      	nop			; (mov r8, r8)
 8000b6a:	46bd      	mov	sp, r7
 8000b6c:	b002      	add	sp, #8
 8000b6e:	bd80      	pop	{r7, pc}

08000b70 <LL_TIM_CC_EnableChannel>:
  *         @arg @ref LL_TIM_CHANNEL_CH3
  *         @arg @ref LL_TIM_CHANNEL_CH4
  * @retval None
  */
__STATIC_INLINE void LL_TIM_CC_EnableChannel(TIM_TypeDef *TIMx, uint32_t Channels)
{
 8000b70:	b580      	push	{r7, lr}
 8000b72:	b082      	sub	sp, #8
 8000b74:	af00      	add	r7, sp, #0
 8000b76:	6078      	str	r0, [r7, #4]
 8000b78:	6039      	str	r1, [r7, #0]
  SET_BIT(TIMx->CCER, Channels);
 8000b7a:	687b      	ldr	r3, [r7, #4]
 8000b7c:	6a1a      	ldr	r2, [r3, #32]
 8000b7e:	683b      	ldr	r3, [r7, #0]
 8000b80:	431a      	orrs	r2, r3
 8000b82:	687b      	ldr	r3, [r7, #4]
 8000b84:	621a      	str	r2, [r3, #32]
}
 8000b86:	46c0      	nop			; (mov r8, r8)
 8000b88:	46bd      	mov	sp, r7
 8000b8a:	b002      	add	sp, #8
 8000b8c:	bd80      	pop	{r7, pc}
	...

08000b90 <LL_TIM_OC_SetMode>:
  *         @arg @ref LL_TIM_OCMODE_PWM1
  *         @arg @ref LL_TIM_OCMODE_PWM2
  * @retval None
  */
__STATIC_INLINE void LL_TIM_OC_SetMode(TIM_TypeDef *TIMx, uint32_t Channel, uint32_t Mode)
{
 8000b90:	b5b0      	push	{r4, r5, r7, lr}
 8000b92:	b084      	sub	sp, #16
 8000b94:	af00      	add	r7, sp, #0
 8000b96:	60f8      	str	r0, [r7, #12]
 8000b98:	60b9      	str	r1, [r7, #8]
 8000b9a:	607a      	str	r2, [r7, #4]
  register uint8_t iChannel = TIM_GET_CHANNEL_INDEX(Channel);
 8000b9c:	68bb      	ldr	r3, [r7, #8]
 8000b9e:	2b01      	cmp	r3, #1
 8000ba0:	d00d      	beq.n	8000bbe <LL_TIM_OC_SetMode+0x2e>
 8000ba2:	68bb      	ldr	r3, [r7, #8]
 8000ba4:	2b10      	cmp	r3, #16
 8000ba6:	d008      	beq.n	8000bba <LL_TIM_OC_SetMode+0x2a>
 8000ba8:	68ba      	ldr	r2, [r7, #8]
 8000baa:	2380      	movs	r3, #128	; 0x80
 8000bac:	005b      	lsls	r3, r3, #1
 8000bae:	429a      	cmp	r2, r3
 8000bb0:	d101      	bne.n	8000bb6 <LL_TIM_OC_SetMode+0x26>
 8000bb2:	2304      	movs	r3, #4
 8000bb4:	e004      	b.n	8000bc0 <LL_TIM_OC_SetMode+0x30>
 8000bb6:	2306      	movs	r3, #6
 8000bb8:	e002      	b.n	8000bc0 <LL_TIM_OC_SetMode+0x30>
 8000bba:	2302      	movs	r3, #2
 8000bbc:	e000      	b.n	8000bc0 <LL_TIM_OC_SetMode+0x30>
 8000bbe:	2300      	movs	r3, #0
 8000bc0:	001d      	movs	r5, r3
  register __IO uint32_t *pReg = (__IO uint32_t *)((uint32_t)((uint32_t)(&TIMx->CCMR1) + OFFSET_TAB_CCMRx[iChannel]));
 8000bc2:	68fb      	ldr	r3, [r7, #12]
 8000bc4:	3318      	adds	r3, #24
 8000bc6:	001a      	movs	r2, r3
 8000bc8:	0029      	movs	r1, r5
 8000bca:	4b0c      	ldr	r3, [pc, #48]	; (8000bfc <LL_TIM_OC_SetMode+0x6c>)
 8000bcc:	5c5b      	ldrb	r3, [r3, r1]
 8000bce:	18d3      	adds	r3, r2, r3
 8000bd0:	001c      	movs	r4, r3
  MODIFY_REG(*pReg, ((TIM_CCMR1_OC1M  | TIM_CCMR1_CC1S) << SHIFT_TAB_OCxx[iChannel]),  Mode << SHIFT_TAB_OCxx[iChannel]);
 8000bd2:	6823      	ldr	r3, [r4, #0]
 8000bd4:	0029      	movs	r1, r5
 8000bd6:	4a0a      	ldr	r2, [pc, #40]	; (8000c00 <LL_TIM_OC_SetMode+0x70>)
 8000bd8:	5c52      	ldrb	r2, [r2, r1]
 8000bda:	0011      	movs	r1, r2
 8000bdc:	2273      	movs	r2, #115	; 0x73
 8000bde:	408a      	lsls	r2, r1
 8000be0:	43d2      	mvns	r2, r2
 8000be2:	401a      	ands	r2, r3
 8000be4:	0029      	movs	r1, r5
 8000be6:	4b06      	ldr	r3, [pc, #24]	; (8000c00 <LL_TIM_OC_SetMode+0x70>)
 8000be8:	5c5b      	ldrb	r3, [r3, r1]
 8000bea:	0019      	movs	r1, r3
 8000bec:	687b      	ldr	r3, [r7, #4]
 8000bee:	408b      	lsls	r3, r1
 8000bf0:	4313      	orrs	r3, r2
 8000bf2:	6023      	str	r3, [r4, #0]
}
 8000bf4:	46c0      	nop			; (mov r8, r8)
 8000bf6:	46bd      	mov	sp, r7
 8000bf8:	b004      	add	sp, #16
 8000bfa:	bdb0      	pop	{r4, r5, r7, pc}
 8000bfc:	08001e7c 	.word	0x08001e7c
 8000c00:	08001e84 	.word	0x08001e84

08000c04 <main>:
/**
  * @brief  The application entry point.
  * @retval int
  */
int main(void)
{
 8000c04:	b580      	push	{r7, lr}
 8000c06:	af00      	add	r7, sp, #0
  /* MCU Configuration--------------------------------------------------------*/

  /* Reset of all peripherals, Initializes the Flash interface and the Systick. */
  

  LL_APB2_GRP1_EnableClock(LL_APB2_GRP1_PERIPH_SYSCFG);
 8000c08:	2001      	movs	r0, #1
 8000c0a:	f7ff ff57 	bl	8000abc <LL_APB2_GRP1_EnableClock>
  LL_APB1_GRP1_EnableClock(LL_APB1_GRP1_PERIPH_PWR);
 8000c0e:	2380      	movs	r3, #128	; 0x80
 8000c10:	055b      	lsls	r3, r3, #21
 8000c12:	0018      	movs	r0, r3
 8000c14:	f7ff ff3c 	bl	8000a90 <LL_APB1_GRP1_EnableClock>
  /* USER CODE BEGIN Init */

  /* USER CODE END Init */

  /* Configure the system clock */
  SystemClock_Config();
 8000c18:	f000 f866 	bl	8000ce8 <SystemClock_Config>
  /* USER CODE BEGIN SysInit */

  /* USER CODE END SysInit */

  /* Initialize all configured peripherals */
  MX_GPIO_Init();
 8000c1c:	f7ff fc06 	bl	800042c <MX_GPIO_Init>
  MX_TIM2_Init();
 8000c20:	f000 fb19 	bl	8001256 <MX_TIM2_Init>
  MX_LPTIM1_Init();
 8000c24:	f7ff fe1a 	bl	800085c <MX_LPTIM1_Init>
  MX_TIM21_Init();
 8000c28:	f000 fbca 	bl	80013c0 <MX_TIM21_Init>
  /* USER CODE BEGIN 2 */

  LL_TIM_OC_SetMode(TIM2, LL_TIM_CHANNEL_CH1, LL_TIM_OCMODE_PWM1);
 8000c2c:	2380      	movs	r3, #128	; 0x80
 8000c2e:	05db      	lsls	r3, r3, #23
 8000c30:	2260      	movs	r2, #96	; 0x60
 8000c32:	2101      	movs	r1, #1
 8000c34:	0018      	movs	r0, r3
 8000c36:	f7ff ffab 	bl	8000b90 <LL_TIM_OC_SetMode>
  LL_TIM_CC_EnableChannel(TIM2, LL_TIM_CHANNEL_CH1);
 8000c3a:	2380      	movs	r3, #128	; 0x80
 8000c3c:	05db      	lsls	r3, r3, #23
 8000c3e:	2101      	movs	r1, #1
 8000c40:	0018      	movs	r0, r3
 8000c42:	f7ff ff95 	bl	8000b70 <LL_TIM_CC_EnableChannel>

  LL_TIM_OC_SetMode(TIM2, LL_TIM_CHANNEL_CH2, LL_TIM_OCMODE_PWM1);
 8000c46:	2380      	movs	r3, #128	; 0x80
 8000c48:	05db      	lsls	r3, r3, #23
 8000c4a:	2260      	movs	r2, #96	; 0x60
 8000c4c:	2110      	movs	r1, #16
 8000c4e:	0018      	movs	r0, r3
 8000c50:	f7ff ff9e 	bl	8000b90 <LL_TIM_OC_SetMode>
  LL_TIM_CC_EnableChannel(TIM2, LL_TIM_CHANNEL_CH2);
 8000c54:	2380      	movs	r3, #128	; 0x80
 8000c56:	05db      	lsls	r3, r3, #23
 8000c58:	2110      	movs	r1, #16
 8000c5a:	0018      	movs	r0, r3
 8000c5c:	f7ff ff88 	bl	8000b70 <LL_TIM_CC_EnableChannel>

  LL_TIM_EnableCounter(TIM2);
 8000c60:	2380      	movs	r3, #128	; 0x80
 8000c62:	05db      	lsls	r3, r3, #23
 8000c64:	0018      	movs	r0, r3
 8000c66:	f7ff ff75 	bl	8000b54 <LL_TIM_EnableCounter>
  TIM2->PSC = 0;
 8000c6a:	2380      	movs	r3, #128	; 0x80
 8000c6c:	05db      	lsls	r3, r3, #23
 8000c6e:	2200      	movs	r2, #0
 8000c70:	629a      	str	r2, [r3, #40]	; 0x28
  TIM2->ARR = 128;
 8000c72:	2380      	movs	r3, #128	; 0x80
 8000c74:	05db      	lsls	r3, r3, #23
 8000c76:	2280      	movs	r2, #128	; 0x80
 8000c78:	62da      	str	r2, [r3, #44]	; 0x2c
  // init the PWM duty to 0%
  TIM2->CCR1 = 0;
 8000c7a:	2380      	movs	r3, #128	; 0x80
 8000c7c:	05db      	lsls	r3, r3, #23
 8000c7e:	2200      	movs	r2, #0
 8000c80:	635a      	str	r2, [r3, #52]	; 0x34
  TIM2->CCR2 = 0;
 8000c82:	2380      	movs	r3, #128	; 0x80
 8000c84:	05db      	lsls	r3, r3, #23
 8000c86:	2200      	movs	r2, #0
 8000c88:	639a      	str	r2, [r3, #56]	; 0x38



  // init bypass soft switches
  // clean routing enabled, fx routing disabled
  CLEAN_ENABLE_GPIO_Port->ODR |= (CLEAN_ENABLE_Pin);
 8000c8a:	4b13      	ldr	r3, [pc, #76]	; (8000cd8 <main+0xd4>)
 8000c8c:	695a      	ldr	r2, [r3, #20]
 8000c8e:	4b12      	ldr	r3, [pc, #72]	; (8000cd8 <main+0xd4>)
 8000c90:	2180      	movs	r1, #128	; 0x80
 8000c92:	01c9      	lsls	r1, r1, #7
 8000c94:	430a      	orrs	r2, r1
 8000c96:	615a      	str	r2, [r3, #20]
  FX_ENABLE_GPIO_Port->ODR &= ~(FX_ENABLE_Pin);
 8000c98:	23a0      	movs	r3, #160	; 0xa0
 8000c9a:	05db      	lsls	r3, r3, #23
 8000c9c:	695a      	ldr	r2, [r3, #20]
 8000c9e:	23a0      	movs	r3, #160	; 0xa0
 8000ca0:	05db      	lsls	r3, r3, #23
 8000ca2:	490e      	ldr	r1, [pc, #56]	; (8000cdc <main+0xd8>)
 8000ca4:	400a      	ands	r2, r1
 8000ca6:	615a      	str	r2, [r3, #20]


  // debounce timer
  //LL_TIM_EnableIT_UPDATE(TIM21);
  LL_TIM_EnableCounter(TIM21);
 8000ca8:	4b0d      	ldr	r3, [pc, #52]	; (8000ce0 <main+0xdc>)
 8000caa:	0018      	movs	r0, r3
 8000cac:	f7ff ff52 	bl	8000b54 <LL_TIM_EnableCounter>
  TIM21->PSC = 65535;
 8000cb0:	4b0b      	ldr	r3, [pc, #44]	; (8000ce0 <main+0xdc>)
 8000cb2:	4a0c      	ldr	r2, [pc, #48]	; (8000ce4 <main+0xe0>)
 8000cb4:	629a      	str	r2, [r3, #40]	; 0x28
  TIM21->ARR = 65535;
 8000cb6:	4b0a      	ldr	r3, [pc, #40]	; (8000ce0 <main+0xdc>)
 8000cb8:	4a0a      	ldr	r2, [pc, #40]	; (8000ce4 <main+0xe0>)
 8000cba:	62da      	str	r2, [r3, #44]	; 0x2c
  /* Infinite loop */
  /* USER CODE BEGIN WHILE */
  while (1)
  {

	  if(FX_ENABLE_GPIO_Port->ODR)
 8000cbc:	23a0      	movs	r3, #160	; 0xa0
 8000cbe:	05db      	lsls	r3, r3, #23
 8000cc0:	695b      	ldr	r3, [r3, #20]
 8000cc2:	2b00      	cmp	r3, #0
 8000cc4:	d005      	beq.n	8000cd2 <main+0xce>
	  {
		  LL_mDelay(75);
 8000cc6:	204b      	movs	r0, #75	; 0x4b
 8000cc8:	f001 f870 	bl	8001dac <LL_mDelay>
		  //ledprogram_contfade();
		  ledprogram_symcontfade();
 8000ccc:	f7ff fc32 	bl	8000534 <ledprogram_symcontfade>
 8000cd0:	e7f4      	b.n	8000cbc <main+0xb8>
		  //ledprogram_stepfade();
	  }
	  else
	  {
		  ledprogram_resetall();
 8000cd2:	f7ff fc71 	bl	80005b8 <ledprogram_resetall>
	  if(FX_ENABLE_GPIO_Port->ODR)
 8000cd6:	e7f1      	b.n	8000cbc <main+0xb8>
 8000cd8:	50000800 	.word	0x50000800
 8000cdc:	fffffdff 	.word	0xfffffdff
 8000ce0:	40010800 	.word	0x40010800
 8000ce4:	0000ffff 	.word	0x0000ffff

08000ce8 <SystemClock_Config>:
/**
  * @brief System Clock Configuration
  * @retval None
  */
void SystemClock_Config(void)
{
 8000ce8:	b580      	push	{r7, lr}
 8000cea:	af00      	add	r7, sp, #0
  LL_FLASH_SetLatency(LL_FLASH_LATENCY_1);
 8000cec:	2001      	movs	r0, #1
 8000cee:	f7ff fefb 	bl	8000ae8 <LL_FLASH_SetLatency>

  if(LL_FLASH_GetLatency() != LL_FLASH_LATENCY_1)
 8000cf2:	f7ff ff0d 	bl	8000b10 <LL_FLASH_GetLatency>
 8000cf6:	0003      	movs	r3, r0
 8000cf8:	2b01      	cmp	r3, #1
 8000cfa:	d001      	beq.n	8000d00 <SystemClock_Config+0x18>
  {
  Error_Handler();  
 8000cfc:	f000 f842 	bl	8000d84 <Error_Handler>
  }
  LL_PWR_SetRegulVoltageScaling(LL_PWR_REGU_VOLTAGE_SCALE1);
 8000d00:	2380      	movs	r3, #128	; 0x80
 8000d02:	011b      	lsls	r3, r3, #4
 8000d04:	0018      	movs	r0, r3
 8000d06:	f7ff ff0f 	bl	8000b28 <LL_PWR_SetRegulVoltageScaling>
  LL_RCC_HSI_Enable();
 8000d0a:	f7ff fdd9 	bl	80008c0 <LL_RCC_HSI_Enable>

   /* Wait till HSI is ready */
  while(LL_RCC_HSI_IsReady() != 1)
 8000d0e:	46c0      	nop			; (mov r8, r8)
 8000d10:	f7ff fde4 	bl	80008dc <LL_RCC_HSI_IsReady>
 8000d14:	0003      	movs	r3, r0
 8000d16:	2b01      	cmp	r3, #1
 8000d18:	d1fa      	bne.n	8000d10 <SystemClock_Config+0x28>
  {
    
  }
  LL_RCC_HSI_SetCalibTrimming(16);
 8000d1a:	2010      	movs	r0, #16
 8000d1c:	f7ff fdee 	bl	80008fc <LL_RCC_HSI_SetCalibTrimming>
  LL_RCC_PLL_ConfigDomain_SYS(LL_RCC_PLLSOURCE_HSI, LL_RCC_PLL_MUL_4, LL_RCC_PLL_DIV_2);
 8000d20:	2380      	movs	r3, #128	; 0x80
 8000d22:	03da      	lsls	r2, r3, #15
 8000d24:	2380      	movs	r3, #128	; 0x80
 8000d26:	02db      	lsls	r3, r3, #11
 8000d28:	0019      	movs	r1, r3
 8000d2a:	2000      	movs	r0, #0
 8000d2c:	f7ff fe94 	bl	8000a58 <LL_RCC_PLL_ConfigDomain_SYS>
  LL_RCC_PLL_Enable();
 8000d30:	f7ff fe70 	bl	8000a14 <LL_RCC_PLL_Enable>

   /* Wait till PLL is ready */
  while(LL_RCC_PLL_IsReady() != 1)
 8000d34:	46c0      	nop			; (mov r8, r8)
 8000d36:	f7ff fe7b 	bl	8000a30 <LL_RCC_PLL_IsReady>
 8000d3a:	0003      	movs	r3, r0
 8000d3c:	2b01      	cmp	r3, #1
 8000d3e:	d1fa      	bne.n	8000d36 <SystemClock_Config+0x4e>
  {
    
  }
  LL_RCC_SetAHBPrescaler(LL_RCC_SYSCLK_DIV_1);
 8000d40:	2000      	movs	r0, #0
 8000d42:	f7ff fe11 	bl	8000968 <LL_RCC_SetAHBPrescaler>
  LL_RCC_SetAPB1Prescaler(LL_RCC_APB1_DIV_1);
 8000d46:	2000      	movs	r0, #0
 8000d48:	f7ff fe22 	bl	8000990 <LL_RCC_SetAPB1Prescaler>
  LL_RCC_SetAPB2Prescaler(LL_RCC_APB2_DIV_1);
 8000d4c:	2000      	movs	r0, #0
 8000d4e:	f7ff fe35 	bl	80009bc <LL_RCC_SetAPB2Prescaler>
  LL_RCC_SetSysClkSource(LL_RCC_SYS_CLKSOURCE_PLL);
 8000d52:	2003      	movs	r0, #3
 8000d54:	f7ff fde8 	bl	8000928 <LL_RCC_SetSysClkSource>

   /* Wait till System clock is ready */
  while(LL_RCC_GetSysClkSource() != LL_RCC_SYS_CLKSOURCE_STATUS_PLL)
 8000d58:	46c0      	nop			; (mov r8, r8)
 8000d5a:	f7ff fdf9 	bl	8000950 <LL_RCC_GetSysClkSource>
 8000d5e:	0003      	movs	r3, r0
 8000d60:	2b0c      	cmp	r3, #12
 8000d62:	d1fa      	bne.n	8000d5a <SystemClock_Config+0x72>
  {
  
  }

  LL_Init1msTick(32000000);
 8000d64:	4b06      	ldr	r3, [pc, #24]	; (8000d80 <SystemClock_Config+0x98>)
 8000d66:	0018      	movs	r0, r3
 8000d68:	f001 f810 	bl	8001d8c <LL_Init1msTick>

  LL_SetSystemCoreClock(32000000);
 8000d6c:	4b04      	ldr	r3, [pc, #16]	; (8000d80 <SystemClock_Config+0x98>)
 8000d6e:	0018      	movs	r0, r3
 8000d70:	f001 f83e 	bl	8001df0 <LL_SetSystemCoreClock>
  LL_RCC_SetLPTIMClockSource(LL_RCC_LPTIM1_CLKSOURCE_PCLK1);
 8000d74:	2000      	movs	r0, #0
 8000d76:	f7ff fe37 	bl	80009e8 <LL_RCC_SetLPTIMClockSource>
}
 8000d7a:	46c0      	nop			; (mov r8, r8)
 8000d7c:	46bd      	mov	sp, r7
 8000d7e:	bd80      	pop	{r7, pc}
 8000d80:	01e84800 	.word	0x01e84800

08000d84 <Error_Handler>:
/**
  * @brief  This function is executed in case of error occurrence.
  * @retval None
  */
void Error_Handler(void)
{
 8000d84:	b580      	push	{r7, lr}
 8000d86:	af00      	add	r7, sp, #0
  /* USER CODE BEGIN Error_Handler_Debug */
  /* User can add his own implementation to report the HAL error return state */

  /* USER CODE END Error_Handler_Debug */
}
 8000d88:	46c0      	nop			; (mov r8, r8)
 8000d8a:	46bd      	mov	sp, r7
 8000d8c:	bd80      	pop	{r7, pc}
	...

08000d90 <LL_EXTI_IsActiveFlag_0_31>:
  *         @arg @ref LL_EXTI_LINE_31
  * @note   Please check each device line mapping for EXTI Line availability
  * @retval State of bit (1 or 0).
  */
__STATIC_INLINE uint32_t LL_EXTI_IsActiveFlag_0_31(uint32_t ExtiLine)
{
 8000d90:	b580      	push	{r7, lr}
 8000d92:	b082      	sub	sp, #8
 8000d94:	af00      	add	r7, sp, #0
 8000d96:	6078      	str	r0, [r7, #4]
  return (READ_BIT(EXTI->PR, ExtiLine) == (ExtiLine));
 8000d98:	4b06      	ldr	r3, [pc, #24]	; (8000db4 <LL_EXTI_IsActiveFlag_0_31+0x24>)
 8000d9a:	695b      	ldr	r3, [r3, #20]
 8000d9c:	687a      	ldr	r2, [r7, #4]
 8000d9e:	4013      	ands	r3, r2
 8000da0:	687a      	ldr	r2, [r7, #4]
 8000da2:	1ad3      	subs	r3, r2, r3
 8000da4:	425a      	negs	r2, r3
 8000da6:	4153      	adcs	r3, r2
 8000da8:	b2db      	uxtb	r3, r3
}
 8000daa:	0018      	movs	r0, r3
 8000dac:	46bd      	mov	sp, r7
 8000dae:	b002      	add	sp, #8
 8000db0:	bd80      	pop	{r7, pc}
 8000db2:	46c0      	nop			; (mov r8, r8)
 8000db4:	40010400 	.word	0x40010400

08000db8 <LL_EXTI_ClearFlag_0_31>:
  *         @arg @ref LL_EXTI_LINE_31
  * @note   Please check each device line mapping for EXTI Line availability
  * @retval None
  */
__STATIC_INLINE void LL_EXTI_ClearFlag_0_31(uint32_t ExtiLine)
{
 8000db8:	b580      	push	{r7, lr}
 8000dba:	b082      	sub	sp, #8
 8000dbc:	af00      	add	r7, sp, #0
 8000dbe:	6078      	str	r0, [r7, #4]
  WRITE_REG(EXTI->PR, ExtiLine);
 8000dc0:	4b03      	ldr	r3, [pc, #12]	; (8000dd0 <LL_EXTI_ClearFlag_0_31+0x18>)
 8000dc2:	687a      	ldr	r2, [r7, #4]
 8000dc4:	615a      	str	r2, [r3, #20]
}
 8000dc6:	46c0      	nop			; (mov r8, r8)
 8000dc8:	46bd      	mov	sp, r7
 8000dca:	b002      	add	sp, #8
 8000dcc:	bd80      	pop	{r7, pc}
 8000dce:	46c0      	nop			; (mov r8, r8)
 8000dd0:	40010400 	.word	0x40010400

08000dd4 <NMI_Handler>:
/******************************************************************************/
/**
  * @brief This function handles Non maskable interrupt.
  */
void NMI_Handler(void)
{
 8000dd4:	b580      	push	{r7, lr}
 8000dd6:	af00      	add	r7, sp, #0

  /* USER CODE END NonMaskableInt_IRQn 0 */
  /* USER CODE BEGIN NonMaskableInt_IRQn 1 */

  /* USER CODE END NonMaskableInt_IRQn 1 */
}
 8000dd8:	46c0      	nop			; (mov r8, r8)
 8000dda:	46bd      	mov	sp, r7
 8000ddc:	bd80      	pop	{r7, pc}

08000dde <HardFault_Handler>:

/**
  * @brief This function handles Hard fault interrupt.
  */
void HardFault_Handler(void)
{
 8000dde:	b580      	push	{r7, lr}
 8000de0:	af00      	add	r7, sp, #0
  /* USER CODE BEGIN HardFault_IRQn 0 */

  /* USER CODE END HardFault_IRQn 0 */
  while (1)
 8000de2:	e7fe      	b.n	8000de2 <HardFault_Handler+0x4>

08000de4 <SVC_Handler>:

/**
  * @brief This function handles System service call via SWI instruction.
  */
void SVC_Handler(void)
{
 8000de4:	b580      	push	{r7, lr}
 8000de6:	af00      	add	r7, sp, #0

  /* USER CODE END SVC_IRQn 0 */
  /* USER CODE BEGIN SVC_IRQn 1 */

  /* USER CODE END SVC_IRQn 1 */
}
 8000de8:	46c0      	nop			; (mov r8, r8)
 8000dea:	46bd      	mov	sp, r7
 8000dec:	bd80      	pop	{r7, pc}

08000dee <PendSV_Handler>:

/**
  * @brief This function handles Pendable request for system service.
  */
void PendSV_Handler(void)
{
 8000dee:	b580      	push	{r7, lr}
 8000df0:	af00      	add	r7, sp, #0

  /* USER CODE END PendSV_IRQn 0 */
  /* USER CODE BEGIN PendSV_IRQn 1 */

  /* USER CODE END PendSV_IRQn 1 */
}
 8000df2:	46c0      	nop			; (mov r8, r8)
 8000df4:	46bd      	mov	sp, r7
 8000df6:	bd80      	pop	{r7, pc}

08000df8 <SysTick_Handler>:

/**
  * @brief This function handles System tick timer.
  */
void SysTick_Handler(void)
{
 8000df8:	b580      	push	{r7, lr}
 8000dfa:	af00      	add	r7, sp, #0
  /* USER CODE END SysTick_IRQn 0 */
  
  /* USER CODE BEGIN SysTick_IRQn 1 */

  /* USER CODE END SysTick_IRQn 1 */
}
 8000dfc:	46c0      	nop			; (mov r8, r8)
 8000dfe:	46bd      	mov	sp, r7
 8000e00:	bd80      	pop	{r7, pc}
	...

08000e04 <EXTI4_15_IRQHandler>:

/**
  * @brief This function handles EXTI line 4 to 15 interrupts.
  */
void EXTI4_15_IRQHandler(void)
{
 8000e04:	b580      	push	{r7, lr}
 8000e06:	b082      	sub	sp, #8
 8000e08:	af00      	add	r7, sp, #0
  /* USER CODE BEGIN EXTI4_15_IRQn 0 */
	uint16_t interrupt_time = TIM21->CNT;
 8000e0a:	4b1b      	ldr	r3, [pc, #108]	; (8000e78 <EXTI4_15_IRQHandler+0x74>)
 8000e0c:	6a5a      	ldr	r2, [r3, #36]	; 0x24
 8000e0e:	1dbb      	adds	r3, r7, #6
 8000e10:	801a      	strh	r2, [r3, #0]
	if ((interrupt_time - last_interrupt_time) > MAX_DEBOUNCE_DELAY)
 8000e12:	1dbb      	adds	r3, r7, #6
 8000e14:	881b      	ldrh	r3, [r3, #0]
 8000e16:	4a19      	ldr	r2, [pc, #100]	; (8000e7c <EXTI4_15_IRQHandler+0x78>)
 8000e18:	8812      	ldrh	r2, [r2, #0]
 8000e1a:	1a9b      	subs	r3, r3, r2
 8000e1c:	2b40      	cmp	r3, #64	; 0x40
 8000e1e:	dd1a      	ble.n	8000e56 <EXTI4_15_IRQHandler+0x52>
	{
		// flash leds to indicate bypass switch

		if(CLEAN_ENABLE_GPIO_Port->ODR)
 8000e20:	4b17      	ldr	r3, [pc, #92]	; (8000e80 <EXTI4_15_IRQHandler+0x7c>)
 8000e22:	695b      	ldr	r3, [r3, #20]
 8000e24:	2b00      	cmp	r3, #0
 8000e26:	d004      	beq.n	8000e32 <EXTI4_15_IRQHandler+0x2e>
			ledprogram_flash(4, 100);				// slower for fx enable
 8000e28:	2164      	movs	r1, #100	; 0x64
 8000e2a:	2004      	movs	r0, #4
 8000e2c:	f7ff fbd6 	bl	80005dc <ledprogram_flash>
 8000e30:	e001      	b.n	8000e36 <EXTI4_15_IRQHandler+0x32>
		else
			ledprogram_resetall();
 8000e32:	f7ff fbc1 	bl	80005b8 <ledprogram_resetall>

		// toggle bypass soft switches
		CLEAN_ENABLE_GPIO_Port->ODR ^= CLEAN_ENABLE_Pin;
 8000e36:	4b12      	ldr	r3, [pc, #72]	; (8000e80 <EXTI4_15_IRQHandler+0x7c>)
 8000e38:	695a      	ldr	r2, [r3, #20]
 8000e3a:	4b11      	ldr	r3, [pc, #68]	; (8000e80 <EXTI4_15_IRQHandler+0x7c>)
 8000e3c:	2180      	movs	r1, #128	; 0x80
 8000e3e:	01c9      	lsls	r1, r1, #7
 8000e40:	404a      	eors	r2, r1
 8000e42:	615a      	str	r2, [r3, #20]
		FX_ENABLE_GPIO_Port->ODR ^= FX_ENABLE_Pin;
 8000e44:	23a0      	movs	r3, #160	; 0xa0
 8000e46:	05db      	lsls	r3, r3, #23
 8000e48:	695a      	ldr	r2, [r3, #20]
 8000e4a:	23a0      	movs	r3, #160	; 0xa0
 8000e4c:	05db      	lsls	r3, r3, #23
 8000e4e:	2180      	movs	r1, #128	; 0x80
 8000e50:	0089      	lsls	r1, r1, #2
 8000e52:	404a      	eors	r2, r1
 8000e54:	615a      	str	r2, [r3, #20]
	}
	last_interrupt_time = interrupt_time;
 8000e56:	4b09      	ldr	r3, [pc, #36]	; (8000e7c <EXTI4_15_IRQHandler+0x78>)
 8000e58:	1dba      	adds	r2, r7, #6
 8000e5a:	8812      	ldrh	r2, [r2, #0]
 8000e5c:	801a      	strh	r2, [r3, #0]
  /* USER CODE END EXTI4_15_IRQn 0 */
  if (LL_EXTI_IsActiveFlag_0_31(LL_EXTI_LINE_4) != RESET)
 8000e5e:	2010      	movs	r0, #16
 8000e60:	f7ff ff96 	bl	8000d90 <LL_EXTI_IsActiveFlag_0_31>
 8000e64:	1e03      	subs	r3, r0, #0
 8000e66:	d002      	beq.n	8000e6e <EXTI4_15_IRQHandler+0x6a>
  {
    LL_EXTI_ClearFlag_0_31(LL_EXTI_LINE_4);
 8000e68:	2010      	movs	r0, #16
 8000e6a:	f7ff ffa5 	bl	8000db8 <LL_EXTI_ClearFlag_0_31>
    /* USER CODE END LL_EXTI_LINE_4 */
  }
  /* USER CODE BEGIN EXTI4_15_IRQn 1 */

  /* USER CODE END EXTI4_15_IRQn 1 */
}
 8000e6e:	46c0      	nop			; (mov r8, r8)
 8000e70:	46bd      	mov	sp, r7
 8000e72:	b002      	add	sp, #8
 8000e74:	bd80      	pop	{r7, pc}
 8000e76:	46c0      	nop			; (mov r8, r8)
 8000e78:	40010800 	.word	0x40010800
 8000e7c:	200000a6 	.word	0x200000a6
 8000e80:	50000800 	.word	0x50000800

08000e84 <LPTIM1_IRQHandler>:

/**
  * @brief This function handles LPTIM1 global interrupt / LPTIM1 wake-up interrupt through EXTI line 29.
  */
void LPTIM1_IRQHandler(void)
{
 8000e84:	b580      	push	{r7, lr}
 8000e86:	af00      	add	r7, sp, #0
	//TIM2->CCR2 = led_value2;
  /* USER CODE END LPTIM1_IRQn 0 */
  /* USER CODE BEGIN LPTIM1_IRQn 1 */

  /* USER CODE END LPTIM1_IRQn 1 */
}
 8000e88:	46c0      	nop			; (mov r8, r8)
 8000e8a:	46bd      	mov	sp, r7
 8000e8c:	bd80      	pop	{r7, pc}

08000e8e <TIM21_IRQHandler>:

/**
  * @brief This function handles TIM21 global interrupt.
  */
void TIM21_IRQHandler(void)
{
 8000e8e:	b580      	push	{r7, lr}
 8000e90:	af00      	add	r7, sp, #0

  /* USER CODE END TIM21_IRQn 0 */
  /* USER CODE BEGIN TIM21_IRQn 1 */

  /* USER CODE END TIM21_IRQn 1 */
}
 8000e92:	46c0      	nop			; (mov r8, r8)
 8000e94:	46bd      	mov	sp, r7
 8000e96:	bd80      	pop	{r7, pc}

08000e98 <SystemInit>:
  * @brief  Setup the microcontroller system.
  * @param  None
  * @retval None
  */
void SystemInit (void)
{
 8000e98:	b580      	push	{r7, lr}
 8000e9a:	af00      	add	r7, sp, #0
/*!< Set MSION bit */
  RCC->CR |= (uint32_t)0x00000100U;
 8000e9c:	4b17      	ldr	r3, [pc, #92]	; (8000efc <SystemInit+0x64>)
 8000e9e:	681a      	ldr	r2, [r3, #0]
 8000ea0:	4b16      	ldr	r3, [pc, #88]	; (8000efc <SystemInit+0x64>)
 8000ea2:	2180      	movs	r1, #128	; 0x80
 8000ea4:	0049      	lsls	r1, r1, #1
 8000ea6:	430a      	orrs	r2, r1
 8000ea8:	601a      	str	r2, [r3, #0]

  /*!< Reset SW[1:0], HPRE[3:0], PPRE1[2:0], PPRE2[2:0], MCOSEL[2:0] and MCOPRE[2:0] bits */
  RCC->CFGR &= (uint32_t) 0x88FF400CU;
 8000eaa:	4b14      	ldr	r3, [pc, #80]	; (8000efc <SystemInit+0x64>)
 8000eac:	68da      	ldr	r2, [r3, #12]
 8000eae:	4b13      	ldr	r3, [pc, #76]	; (8000efc <SystemInit+0x64>)
 8000eb0:	4913      	ldr	r1, [pc, #76]	; (8000f00 <SystemInit+0x68>)
 8000eb2:	400a      	ands	r2, r1
 8000eb4:	60da      	str	r2, [r3, #12]

  /*!< Reset HSION, HSIDIVEN, HSEON, CSSON and PLLON bits */
  RCC->CR &= (uint32_t)0xFEF6FFF6U;
 8000eb6:	4b11      	ldr	r3, [pc, #68]	; (8000efc <SystemInit+0x64>)
 8000eb8:	681a      	ldr	r2, [r3, #0]
 8000eba:	4b10      	ldr	r3, [pc, #64]	; (8000efc <SystemInit+0x64>)
 8000ebc:	4911      	ldr	r1, [pc, #68]	; (8000f04 <SystemInit+0x6c>)
 8000ebe:	400a      	ands	r2, r1
 8000ec0:	601a      	str	r2, [r3, #0]

  /*!< Reset HSI48ON  bit */
  RCC->CRRCR &= (uint32_t)0xFFFFFFFEU;
 8000ec2:	4b0e      	ldr	r3, [pc, #56]	; (8000efc <SystemInit+0x64>)
 8000ec4:	689a      	ldr	r2, [r3, #8]
 8000ec6:	4b0d      	ldr	r3, [pc, #52]	; (8000efc <SystemInit+0x64>)
 8000ec8:	2101      	movs	r1, #1
 8000eca:	438a      	bics	r2, r1
 8000ecc:	609a      	str	r2, [r3, #8]

  /*!< Reset HSEBYP bit */
  RCC->CR &= (uint32_t)0xFFFBFFFFU;
 8000ece:	4b0b      	ldr	r3, [pc, #44]	; (8000efc <SystemInit+0x64>)
 8000ed0:	681a      	ldr	r2, [r3, #0]
 8000ed2:	4b0a      	ldr	r3, [pc, #40]	; (8000efc <SystemInit+0x64>)
 8000ed4:	490c      	ldr	r1, [pc, #48]	; (8000f08 <SystemInit+0x70>)
 8000ed6:	400a      	ands	r2, r1
 8000ed8:	601a      	str	r2, [r3, #0]

  /*!< Reset PLLSRC, PLLMUL[3:0] and PLLDIV[1:0] bits */
  RCC->CFGR &= (uint32_t)0xFF02FFFFU;
 8000eda:	4b08      	ldr	r3, [pc, #32]	; (8000efc <SystemInit+0x64>)
 8000edc:	68da      	ldr	r2, [r3, #12]
 8000ede:	4b07      	ldr	r3, [pc, #28]	; (8000efc <SystemInit+0x64>)
 8000ee0:	490a      	ldr	r1, [pc, #40]	; (8000f0c <SystemInit+0x74>)
 8000ee2:	400a      	ands	r2, r1
 8000ee4:	60da      	str	r2, [r3, #12]

  /*!< Disable all interrupts */
  RCC->CIER = 0x00000000U;
 8000ee6:	4b05      	ldr	r3, [pc, #20]	; (8000efc <SystemInit+0x64>)
 8000ee8:	2200      	movs	r2, #0
 8000eea:	611a      	str	r2, [r3, #16]

  /* Configure the Vector Table location add offset address ------------------*/
#ifdef VECT_TAB_SRAM
  SCB->VTOR = SRAM_BASE | VECT_TAB_OFFSET; /* Vector Table Relocation in Internal SRAM */
#else
  SCB->VTOR = FLASH_BASE | VECT_TAB_OFFSET; /* Vector Table Relocation in Internal FLASH */
 8000eec:	4b08      	ldr	r3, [pc, #32]	; (8000f10 <SystemInit+0x78>)
 8000eee:	2280      	movs	r2, #128	; 0x80
 8000ef0:	0512      	lsls	r2, r2, #20
 8000ef2:	609a      	str	r2, [r3, #8]
#endif
}
 8000ef4:	46c0      	nop			; (mov r8, r8)
 8000ef6:	46bd      	mov	sp, r7
 8000ef8:	bd80      	pop	{r7, pc}
 8000efa:	46c0      	nop			; (mov r8, r8)
 8000efc:	40021000 	.word	0x40021000
 8000f00:	88ff400c 	.word	0x88ff400c
 8000f04:	fef6fff6 	.word	0xfef6fff6
 8000f08:	fffbffff 	.word	0xfffbffff
 8000f0c:	ff02ffff 	.word	0xff02ffff
 8000f10:	e000ed00 	.word	0xe000ed00

08000f14 <NVIC_EnableIRQ>:
{
 8000f14:	b580      	push	{r7, lr}
 8000f16:	b082      	sub	sp, #8
 8000f18:	af00      	add	r7, sp, #0
 8000f1a:	0002      	movs	r2, r0
 8000f1c:	1dfb      	adds	r3, r7, #7
 8000f1e:	701a      	strb	r2, [r3, #0]
  NVIC->ISER[0U] = (uint32_t)(1UL << (((uint32_t)(int32_t)IRQn) & 0x1FUL));
 8000f20:	1dfb      	adds	r3, r7, #7
 8000f22:	781b      	ldrb	r3, [r3, #0]
 8000f24:	001a      	movs	r2, r3
 8000f26:	231f      	movs	r3, #31
 8000f28:	401a      	ands	r2, r3
 8000f2a:	4b04      	ldr	r3, [pc, #16]	; (8000f3c <NVIC_EnableIRQ+0x28>)
 8000f2c:	2101      	movs	r1, #1
 8000f2e:	4091      	lsls	r1, r2
 8000f30:	000a      	movs	r2, r1
 8000f32:	601a      	str	r2, [r3, #0]
}
 8000f34:	46c0      	nop			; (mov r8, r8)
 8000f36:	46bd      	mov	sp, r7
 8000f38:	b002      	add	sp, #8
 8000f3a:	bd80      	pop	{r7, pc}
 8000f3c:	e000e100 	.word	0xe000e100

08000f40 <NVIC_SetPriority>:
{
 8000f40:	b590      	push	{r4, r7, lr}
 8000f42:	b083      	sub	sp, #12
 8000f44:	af00      	add	r7, sp, #0
 8000f46:	0002      	movs	r2, r0
 8000f48:	6039      	str	r1, [r7, #0]
 8000f4a:	1dfb      	adds	r3, r7, #7
 8000f4c:	701a      	strb	r2, [r3, #0]
  if ((int32_t)(IRQn) < 0)
 8000f4e:	1dfb      	adds	r3, r7, #7
 8000f50:	781b      	ldrb	r3, [r3, #0]
 8000f52:	2b7f      	cmp	r3, #127	; 0x7f
 8000f54:	d932      	bls.n	8000fbc <NVIC_SetPriority+0x7c>
    SCB->SHP[_SHP_IDX(IRQn)] = ((uint32_t)(SCB->SHP[_SHP_IDX(IRQn)] & ~(0xFFUL << _BIT_SHIFT(IRQn))) |
 8000f56:	4a2f      	ldr	r2, [pc, #188]	; (8001014 <NVIC_SetPriority+0xd4>)
 8000f58:	1dfb      	adds	r3, r7, #7
 8000f5a:	781b      	ldrb	r3, [r3, #0]
 8000f5c:	0019      	movs	r1, r3
 8000f5e:	230f      	movs	r3, #15
 8000f60:	400b      	ands	r3, r1
 8000f62:	3b08      	subs	r3, #8
 8000f64:	089b      	lsrs	r3, r3, #2
 8000f66:	3306      	adds	r3, #6
 8000f68:	009b      	lsls	r3, r3, #2
 8000f6a:	18d3      	adds	r3, r2, r3
 8000f6c:	3304      	adds	r3, #4
 8000f6e:	681b      	ldr	r3, [r3, #0]
 8000f70:	1dfa      	adds	r2, r7, #7
 8000f72:	7812      	ldrb	r2, [r2, #0]
 8000f74:	0011      	movs	r1, r2
 8000f76:	2203      	movs	r2, #3
 8000f78:	400a      	ands	r2, r1
 8000f7a:	00d2      	lsls	r2, r2, #3
 8000f7c:	21ff      	movs	r1, #255	; 0xff
 8000f7e:	4091      	lsls	r1, r2
 8000f80:	000a      	movs	r2, r1
 8000f82:	43d2      	mvns	r2, r2
 8000f84:	401a      	ands	r2, r3
 8000f86:	0011      	movs	r1, r2
       (((priority << (8U - __NVIC_PRIO_BITS)) & (uint32_t)0xFFUL) << _BIT_SHIFT(IRQn)));
 8000f88:	683b      	ldr	r3, [r7, #0]
 8000f8a:	019b      	lsls	r3, r3, #6
 8000f8c:	22ff      	movs	r2, #255	; 0xff
 8000f8e:	401a      	ands	r2, r3
 8000f90:	1dfb      	adds	r3, r7, #7
 8000f92:	781b      	ldrb	r3, [r3, #0]
 8000f94:	0018      	movs	r0, r3
 8000f96:	2303      	movs	r3, #3
 8000f98:	4003      	ands	r3, r0
 8000f9a:	00db      	lsls	r3, r3, #3
 8000f9c:	409a      	lsls	r2, r3
    SCB->SHP[_SHP_IDX(IRQn)] = ((uint32_t)(SCB->SHP[_SHP_IDX(IRQn)] & ~(0xFFUL << _BIT_SHIFT(IRQn))) |
 8000f9e:	481d      	ldr	r0, [pc, #116]	; (8001014 <NVIC_SetPriority+0xd4>)
 8000fa0:	1dfb      	adds	r3, r7, #7
 8000fa2:	781b      	ldrb	r3, [r3, #0]
 8000fa4:	001c      	movs	r4, r3
 8000fa6:	230f      	movs	r3, #15
 8000fa8:	4023      	ands	r3, r4
 8000faa:	3b08      	subs	r3, #8
 8000fac:	089b      	lsrs	r3, r3, #2
 8000fae:	430a      	orrs	r2, r1
 8000fb0:	3306      	adds	r3, #6
 8000fb2:	009b      	lsls	r3, r3, #2
 8000fb4:	18c3      	adds	r3, r0, r3
 8000fb6:	3304      	adds	r3, #4
 8000fb8:	601a      	str	r2, [r3, #0]
}
 8000fba:	e027      	b.n	800100c <NVIC_SetPriority+0xcc>
    NVIC->IP[_IP_IDX(IRQn)]  = ((uint32_t)(NVIC->IP[_IP_IDX(IRQn)]  & ~(0xFFUL << _BIT_SHIFT(IRQn))) |
 8000fbc:	4a16      	ldr	r2, [pc, #88]	; (8001018 <NVIC_SetPriority+0xd8>)
 8000fbe:	1dfb      	adds	r3, r7, #7
 8000fc0:	781b      	ldrb	r3, [r3, #0]
 8000fc2:	b25b      	sxtb	r3, r3
 8000fc4:	089b      	lsrs	r3, r3, #2
 8000fc6:	33c0      	adds	r3, #192	; 0xc0
 8000fc8:	009b      	lsls	r3, r3, #2
 8000fca:	589b      	ldr	r3, [r3, r2]
 8000fcc:	1dfa      	adds	r2, r7, #7
 8000fce:	7812      	ldrb	r2, [r2, #0]
 8000fd0:	0011      	movs	r1, r2
 8000fd2:	2203      	movs	r2, #3
 8000fd4:	400a      	ands	r2, r1
 8000fd6:	00d2      	lsls	r2, r2, #3
 8000fd8:	21ff      	movs	r1, #255	; 0xff
 8000fda:	4091      	lsls	r1, r2
 8000fdc:	000a      	movs	r2, r1
 8000fde:	43d2      	mvns	r2, r2
 8000fe0:	401a      	ands	r2, r3
 8000fe2:	0011      	movs	r1, r2
       (((priority << (8U - __NVIC_PRIO_BITS)) & (uint32_t)0xFFUL) << _BIT_SHIFT(IRQn)));
 8000fe4:	683b      	ldr	r3, [r7, #0]
 8000fe6:	019b      	lsls	r3, r3, #6
 8000fe8:	22ff      	movs	r2, #255	; 0xff
 8000fea:	401a      	ands	r2, r3
 8000fec:	1dfb      	adds	r3, r7, #7
 8000fee:	781b      	ldrb	r3, [r3, #0]
 8000ff0:	0018      	movs	r0, r3
 8000ff2:	2303      	movs	r3, #3
 8000ff4:	4003      	ands	r3, r0
 8000ff6:	00db      	lsls	r3, r3, #3
 8000ff8:	409a      	lsls	r2, r3
    NVIC->IP[_IP_IDX(IRQn)]  = ((uint32_t)(NVIC->IP[_IP_IDX(IRQn)]  & ~(0xFFUL << _BIT_SHIFT(IRQn))) |
 8000ffa:	4807      	ldr	r0, [pc, #28]	; (8001018 <NVIC_SetPriority+0xd8>)
 8000ffc:	1dfb      	adds	r3, r7, #7
 8000ffe:	781b      	ldrb	r3, [r3, #0]
 8001000:	b25b      	sxtb	r3, r3
 8001002:	089b      	lsrs	r3, r3, #2
 8001004:	430a      	orrs	r2, r1
 8001006:	33c0      	adds	r3, #192	; 0xc0
 8001008:	009b      	lsls	r3, r3, #2
 800100a:	501a      	str	r2, [r3, r0]
}
 800100c:	46c0      	nop			; (mov r8, r8)
 800100e:	46bd      	mov	sp, r7
 8001010:	b003      	add	sp, #12
 8001012:	bd90      	pop	{r4, r7, pc}
 8001014:	e000ed00 	.word	0xe000ed00
 8001018:	e000e100 	.word	0xe000e100

0800101c <LL_APB1_GRP1_EnableClock>:
{
 800101c:	b580      	push	{r7, lr}
 800101e:	b084      	sub	sp, #16
 8001020:	af00      	add	r7, sp, #0
 8001022:	6078      	str	r0, [r7, #4]
  SET_BIT(RCC->APB1ENR, Periphs);
 8001024:	4b07      	ldr	r3, [pc, #28]	; (8001044 <LL_APB1_GRP1_EnableClock+0x28>)
 8001026:	6b99      	ldr	r1, [r3, #56]	; 0x38
 8001028:	4b06      	ldr	r3, [pc, #24]	; (8001044 <LL_APB1_GRP1_EnableClock+0x28>)
 800102a:	687a      	ldr	r2, [r7, #4]
 800102c:	430a      	orrs	r2, r1
 800102e:	639a      	str	r2, [r3, #56]	; 0x38
  tmpreg = READ_BIT(RCC->APB1ENR, Periphs);
 8001030:	4b04      	ldr	r3, [pc, #16]	; (8001044 <LL_APB1_GRP1_EnableClock+0x28>)
 8001032:	6b9b      	ldr	r3, [r3, #56]	; 0x38
 8001034:	687a      	ldr	r2, [r7, #4]
 8001036:	4013      	ands	r3, r2
 8001038:	60fb      	str	r3, [r7, #12]
  (void)tmpreg;
 800103a:	68fb      	ldr	r3, [r7, #12]
}
 800103c:	46c0      	nop			; (mov r8, r8)
 800103e:	46bd      	mov	sp, r7
 8001040:	b004      	add	sp, #16
 8001042:	bd80      	pop	{r7, pc}
 8001044:	40021000 	.word	0x40021000

08001048 <LL_APB2_GRP1_EnableClock>:
{
 8001048:	b580      	push	{r7, lr}
 800104a:	b084      	sub	sp, #16
 800104c:	af00      	add	r7, sp, #0
 800104e:	6078      	str	r0, [r7, #4]
  SET_BIT(RCC->APB2ENR, Periphs);
 8001050:	4b07      	ldr	r3, [pc, #28]	; (8001070 <LL_APB2_GRP1_EnableClock+0x28>)
 8001052:	6b59      	ldr	r1, [r3, #52]	; 0x34
 8001054:	4b06      	ldr	r3, [pc, #24]	; (8001070 <LL_APB2_GRP1_EnableClock+0x28>)
 8001056:	687a      	ldr	r2, [r7, #4]
 8001058:	430a      	orrs	r2, r1
 800105a:	635a      	str	r2, [r3, #52]	; 0x34
  tmpreg = READ_BIT(RCC->APB2ENR, Periphs);
 800105c:	4b04      	ldr	r3, [pc, #16]	; (8001070 <LL_APB2_GRP1_EnableClock+0x28>)
 800105e:	6b5b      	ldr	r3, [r3, #52]	; 0x34
 8001060:	687a      	ldr	r2, [r7, #4]
 8001062:	4013      	ands	r3, r2
 8001064:	60fb      	str	r3, [r7, #12]
  (void)tmpreg;
 8001066:	68fb      	ldr	r3, [r7, #12]
}
 8001068:	46c0      	nop			; (mov r8, r8)
 800106a:	46bd      	mov	sp, r7
 800106c:	b004      	add	sp, #16
 800106e:	bd80      	pop	{r7, pc}
 8001070:	40021000 	.word	0x40021000

08001074 <LL_IOP_GRP1_EnableClock>:
{
 8001074:	b580      	push	{r7, lr}
 8001076:	b084      	sub	sp, #16
 8001078:	af00      	add	r7, sp, #0
 800107a:	6078      	str	r0, [r7, #4]
  SET_BIT(RCC->IOPENR, Periphs);
 800107c:	4b07      	ldr	r3, [pc, #28]	; (800109c <LL_IOP_GRP1_EnableClock+0x28>)
 800107e:	6ad9      	ldr	r1, [r3, #44]	; 0x2c
 8001080:	4b06      	ldr	r3, [pc, #24]	; (800109c <LL_IOP_GRP1_EnableClock+0x28>)
 8001082:	687a      	ldr	r2, [r7, #4]
 8001084:	430a      	orrs	r2, r1
 8001086:	62da      	str	r2, [r3, #44]	; 0x2c
  tmpreg = READ_BIT(RCC->IOPENR, Periphs);
 8001088:	4b04      	ldr	r3, [pc, #16]	; (800109c <LL_IOP_GRP1_EnableClock+0x28>)
 800108a:	6adb      	ldr	r3, [r3, #44]	; 0x2c
 800108c:	687a      	ldr	r2, [r7, #4]
 800108e:	4013      	ands	r3, r2
 8001090:	60fb      	str	r3, [r7, #12]
  (void)tmpreg;
 8001092:	68fb      	ldr	r3, [r7, #12]
}
 8001094:	46c0      	nop			; (mov r8, r8)
 8001096:	46bd      	mov	sp, r7
 8001098:	b004      	add	sp, #16
 800109a:	bd80      	pop	{r7, pc}
 800109c:	40021000 	.word	0x40021000

080010a0 <LL_TIM_DisableARRPreload>:
{
 80010a0:	b580      	push	{r7, lr}
 80010a2:	b082      	sub	sp, #8
 80010a4:	af00      	add	r7, sp, #0
 80010a6:	6078      	str	r0, [r7, #4]
  CLEAR_BIT(TIMx->CR1,TIM_CR1_ARPE);
 80010a8:	687b      	ldr	r3, [r7, #4]
 80010aa:	681b      	ldr	r3, [r3, #0]
 80010ac:	2280      	movs	r2, #128	; 0x80
 80010ae:	4393      	bics	r3, r2
 80010b0:	001a      	movs	r2, r3
 80010b2:	687b      	ldr	r3, [r7, #4]
 80010b4:	601a      	str	r2, [r3, #0]
}
 80010b6:	46c0      	nop			; (mov r8, r8)
 80010b8:	46bd      	mov	sp, r7
 80010ba:	b002      	add	sp, #8
 80010bc:	bd80      	pop	{r7, pc}
	...

080010c0 <LL_TIM_OC_EnableFast>:
  *         @arg @ref LL_TIM_CHANNEL_CH3
  *         @arg @ref LL_TIM_CHANNEL_CH4
  * @retval None
  */
__STATIC_INLINE void LL_TIM_OC_EnableFast(TIM_TypeDef *TIMx, uint32_t Channel)
{
 80010c0:	b5b0      	push	{r4, r5, r7, lr}
 80010c2:	b082      	sub	sp, #8
 80010c4:	af00      	add	r7, sp, #0
 80010c6:	6078      	str	r0, [r7, #4]
 80010c8:	6039      	str	r1, [r7, #0]
  register uint8_t iChannel = TIM_GET_CHANNEL_INDEX(Channel);
 80010ca:	683b      	ldr	r3, [r7, #0]
 80010cc:	2b01      	cmp	r3, #1
 80010ce:	d00d      	beq.n	80010ec <LL_TIM_OC_EnableFast+0x2c>
 80010d0:	683b      	ldr	r3, [r7, #0]
 80010d2:	2b10      	cmp	r3, #16
 80010d4:	d008      	beq.n	80010e8 <LL_TIM_OC_EnableFast+0x28>
 80010d6:	683a      	ldr	r2, [r7, #0]
 80010d8:	2380      	movs	r3, #128	; 0x80
 80010da:	005b      	lsls	r3, r3, #1
 80010dc:	429a      	cmp	r2, r3
 80010de:	d101      	bne.n	80010e4 <LL_TIM_OC_EnableFast+0x24>
 80010e0:	2304      	movs	r3, #4
 80010e2:	e004      	b.n	80010ee <LL_TIM_OC_EnableFast+0x2e>
 80010e4:	2306      	movs	r3, #6
 80010e6:	e002      	b.n	80010ee <LL_TIM_OC_EnableFast+0x2e>
 80010e8:	2302      	movs	r3, #2
 80010ea:	e000      	b.n	80010ee <LL_TIM_OC_EnableFast+0x2e>
 80010ec:	2300      	movs	r3, #0
 80010ee:	001d      	movs	r5, r3
  register __IO uint32_t *pReg = (__IO uint32_t *)((uint32_t)((uint32_t)(&TIMx->CCMR1) + OFFSET_TAB_CCMRx[iChannel]));
 80010f0:	687b      	ldr	r3, [r7, #4]
 80010f2:	3318      	adds	r3, #24
 80010f4:	001a      	movs	r2, r3
 80010f6:	0029      	movs	r1, r5
 80010f8:	4b08      	ldr	r3, [pc, #32]	; (800111c <LL_TIM_OC_EnableFast+0x5c>)
 80010fa:	5c5b      	ldrb	r3, [r3, r1]
 80010fc:	18d3      	adds	r3, r2, r3
 80010fe:	001c      	movs	r4, r3
  SET_BIT(*pReg, (TIM_CCMR1_OC1FE << SHIFT_TAB_OCxx[iChannel]));
 8001100:	6822      	ldr	r2, [r4, #0]
 8001102:	0029      	movs	r1, r5
 8001104:	4b06      	ldr	r3, [pc, #24]	; (8001120 <LL_TIM_OC_EnableFast+0x60>)
 8001106:	5c5b      	ldrb	r3, [r3, r1]
 8001108:	0019      	movs	r1, r3
 800110a:	2304      	movs	r3, #4
 800110c:	408b      	lsls	r3, r1
 800110e:	4313      	orrs	r3, r2
 8001110:	6023      	str	r3, [r4, #0]

}
 8001112:	46c0      	nop			; (mov r8, r8)
 8001114:	46bd      	mov	sp, r7
 8001116:	b002      	add	sp, #8
 8001118:	bdb0      	pop	{r4, r5, r7, pc}
 800111a:	46c0      	nop			; (mov r8, r8)
 800111c:	08001e8c 	.word	0x08001e8c
 8001120:	08001e94 	.word	0x08001e94

08001124 <LL_TIM_OC_EnablePreload>:
  *         @arg @ref LL_TIM_CHANNEL_CH3
  *         @arg @ref LL_TIM_CHANNEL_CH4
  * @retval None
  */
__STATIC_INLINE void LL_TIM_OC_EnablePreload(TIM_TypeDef *TIMx, uint32_t Channel)
{
 8001124:	b5b0      	push	{r4, r5, r7, lr}
 8001126:	b082      	sub	sp, #8
 8001128:	af00      	add	r7, sp, #0
 800112a:	6078      	str	r0, [r7, #4]
 800112c:	6039      	str	r1, [r7, #0]
  register uint8_t iChannel = TIM_GET_CHANNEL_INDEX(Channel);
 800112e:	683b      	ldr	r3, [r7, #0]
 8001130:	2b01      	cmp	r3, #1
 8001132:	d00d      	beq.n	8001150 <LL_TIM_OC_EnablePreload+0x2c>
 8001134:	683b      	ldr	r3, [r7, #0]
 8001136:	2b10      	cmp	r3, #16
 8001138:	d008      	beq.n	800114c <LL_TIM_OC_EnablePreload+0x28>
 800113a:	683a      	ldr	r2, [r7, #0]
 800113c:	2380      	movs	r3, #128	; 0x80
 800113e:	005b      	lsls	r3, r3, #1
 8001140:	429a      	cmp	r2, r3
 8001142:	d101      	bne.n	8001148 <LL_TIM_OC_EnablePreload+0x24>
 8001144:	2304      	movs	r3, #4
 8001146:	e004      	b.n	8001152 <LL_TIM_OC_EnablePreload+0x2e>
 8001148:	2306      	movs	r3, #6
 800114a:	e002      	b.n	8001152 <LL_TIM_OC_EnablePreload+0x2e>
 800114c:	2302      	movs	r3, #2
 800114e:	e000      	b.n	8001152 <LL_TIM_OC_EnablePreload+0x2e>
 8001150:	2300      	movs	r3, #0
 8001152:	001d      	movs	r5, r3
  register __IO uint32_t *pReg = (__IO uint32_t *)((uint32_t)((uint32_t)(&TIMx->CCMR1) + OFFSET_TAB_CCMRx[iChannel]));
 8001154:	687b      	ldr	r3, [r7, #4]
 8001156:	3318      	adds	r3, #24
 8001158:	001a      	movs	r2, r3
 800115a:	0029      	movs	r1, r5
 800115c:	4b08      	ldr	r3, [pc, #32]	; (8001180 <LL_TIM_OC_EnablePreload+0x5c>)
 800115e:	5c5b      	ldrb	r3, [r3, r1]
 8001160:	18d3      	adds	r3, r2, r3
 8001162:	001c      	movs	r4, r3
  SET_BIT(*pReg, (TIM_CCMR1_OC1PE << SHIFT_TAB_OCxx[iChannel]));
 8001164:	6822      	ldr	r2, [r4, #0]
 8001166:	0029      	movs	r1, r5
 8001168:	4b06      	ldr	r3, [pc, #24]	; (8001184 <LL_TIM_OC_EnablePreload+0x60>)
 800116a:	5c5b      	ldrb	r3, [r3, r1]
 800116c:	0019      	movs	r1, r3
 800116e:	2308      	movs	r3, #8
 8001170:	408b      	lsls	r3, r1
 8001172:	4313      	orrs	r3, r2
 8001174:	6023      	str	r3, [r4, #0]
}
 8001176:	46c0      	nop			; (mov r8, r8)
 8001178:	46bd      	mov	sp, r7
 800117a:	b002      	add	sp, #8
 800117c:	bdb0      	pop	{r4, r5, r7, pc}
 800117e:	46c0      	nop			; (mov r8, r8)
 8001180:	08001e8c 	.word	0x08001e8c
 8001184:	08001e94 	.word	0x08001e94

08001188 <LL_TIM_OC_DisablePreload>:
  *         @arg @ref LL_TIM_CHANNEL_CH3
  *         @arg @ref LL_TIM_CHANNEL_CH4
  * @retval None
  */
__STATIC_INLINE void LL_TIM_OC_DisablePreload(TIM_TypeDef *TIMx, uint32_t Channel)
{
 8001188:	b5b0      	push	{r4, r5, r7, lr}
 800118a:	b082      	sub	sp, #8
 800118c:	af00      	add	r7, sp, #0
 800118e:	6078      	str	r0, [r7, #4]
 8001190:	6039      	str	r1, [r7, #0]
  register uint8_t iChannel = TIM_GET_CHANNEL_INDEX(Channel);
 8001192:	683b      	ldr	r3, [r7, #0]
 8001194:	2b01      	cmp	r3, #1
 8001196:	d00d      	beq.n	80011b4 <LL_TIM_OC_DisablePreload+0x2c>
 8001198:	683b      	ldr	r3, [r7, #0]
 800119a:	2b10      	cmp	r3, #16
 800119c:	d008      	beq.n	80011b0 <LL_TIM_OC_DisablePreload+0x28>
 800119e:	683a      	ldr	r2, [r7, #0]
 80011a0:	2380      	movs	r3, #128	; 0x80
 80011a2:	005b      	lsls	r3, r3, #1
 80011a4:	429a      	cmp	r2, r3
 80011a6:	d101      	bne.n	80011ac <LL_TIM_OC_DisablePreload+0x24>
 80011a8:	2304      	movs	r3, #4
 80011aa:	e004      	b.n	80011b6 <LL_TIM_OC_DisablePreload+0x2e>
 80011ac:	2306      	movs	r3, #6
 80011ae:	e002      	b.n	80011b6 <LL_TIM_OC_DisablePreload+0x2e>
 80011b0:	2302      	movs	r3, #2
 80011b2:	e000      	b.n	80011b6 <LL_TIM_OC_DisablePreload+0x2e>
 80011b4:	2300      	movs	r3, #0
 80011b6:	001d      	movs	r5, r3
  register __IO uint32_t *pReg = (__IO uint32_t *)((uint32_t)((uint32_t)(&TIMx->CCMR1) + OFFSET_TAB_CCMRx[iChannel]));
 80011b8:	687b      	ldr	r3, [r7, #4]
 80011ba:	3318      	adds	r3, #24
 80011bc:	001a      	movs	r2, r3
 80011be:	0029      	movs	r1, r5
 80011c0:	4b08      	ldr	r3, [pc, #32]	; (80011e4 <LL_TIM_OC_DisablePreload+0x5c>)
 80011c2:	5c5b      	ldrb	r3, [r3, r1]
 80011c4:	18d3      	adds	r3, r2, r3
 80011c6:	001c      	movs	r4, r3
  CLEAR_BIT(*pReg, (TIM_CCMR1_OC1PE << SHIFT_TAB_OCxx[iChannel]));
 80011c8:	6823      	ldr	r3, [r4, #0]
 80011ca:	0029      	movs	r1, r5
 80011cc:	4a06      	ldr	r2, [pc, #24]	; (80011e8 <LL_TIM_OC_DisablePreload+0x60>)
 80011ce:	5c52      	ldrb	r2, [r2, r1]
 80011d0:	0011      	movs	r1, r2
 80011d2:	2208      	movs	r2, #8
 80011d4:	408a      	lsls	r2, r1
 80011d6:	43d2      	mvns	r2, r2
 80011d8:	4013      	ands	r3, r2
 80011da:	6023      	str	r3, [r4, #0]
}
 80011dc:	46c0      	nop			; (mov r8, r8)
 80011de:	46bd      	mov	sp, r7
 80011e0:	b002      	add	sp, #8
 80011e2:	bdb0      	pop	{r4, r5, r7, pc}
 80011e4:	08001e8c 	.word	0x08001e8c
 80011e8:	08001e94 	.word	0x08001e94

080011ec <LL_TIM_SetClockSource>:
  *         @arg @ref LL_TIM_CLOCKSOURCE_EXT_MODE1
  *         @arg @ref LL_TIM_CLOCKSOURCE_EXT_MODE2
  * @retval None
  */
__STATIC_INLINE void LL_TIM_SetClockSource(TIM_TypeDef *TIMx, uint32_t ClockSource)
{
 80011ec:	b580      	push	{r7, lr}
 80011ee:	b082      	sub	sp, #8
 80011f0:	af00      	add	r7, sp, #0
 80011f2:	6078      	str	r0, [r7, #4]
 80011f4:	6039      	str	r1, [r7, #0]
  MODIFY_REG(TIMx->SMCR, TIM_SMCR_SMS | TIM_SMCR_ECE, ClockSource);
 80011f6:	687b      	ldr	r3, [r7, #4]
 80011f8:	689b      	ldr	r3, [r3, #8]
 80011fa:	4a05      	ldr	r2, [pc, #20]	; (8001210 <LL_TIM_SetClockSource+0x24>)
 80011fc:	401a      	ands	r2, r3
 80011fe:	683b      	ldr	r3, [r7, #0]
 8001200:	431a      	orrs	r2, r3
 8001202:	687b      	ldr	r3, [r7, #4]
 8001204:	609a      	str	r2, [r3, #8]
}
 8001206:	46c0      	nop			; (mov r8, r8)
 8001208:	46bd      	mov	sp, r7
 800120a:	b002      	add	sp, #8
 800120c:	bd80      	pop	{r7, pc}
 800120e:	46c0      	nop			; (mov r8, r8)
 8001210:	ffffbff8 	.word	0xffffbff8

08001214 <LL_TIM_SetTriggerOutput>:
  *         @arg @ref LL_TIM_TRGO_OC3REF
  *         @arg @ref LL_TIM_TRGO_OC4REF
  * @retval None
  */
__STATIC_INLINE void LL_TIM_SetTriggerOutput(TIM_TypeDef *TIMx, uint32_t TimerSynchronization)
{
 8001214:	b580      	push	{r7, lr}
 8001216:	b082      	sub	sp, #8
 8001218:	af00      	add	r7, sp, #0
 800121a:	6078      	str	r0, [r7, #4]
 800121c:	6039      	str	r1, [r7, #0]
  MODIFY_REG(TIMx->CR2, TIM_CR2_MMS, TimerSynchronization);
 800121e:	687b      	ldr	r3, [r7, #4]
 8001220:	685b      	ldr	r3, [r3, #4]
 8001222:	2270      	movs	r2, #112	; 0x70
 8001224:	4393      	bics	r3, r2
 8001226:	001a      	movs	r2, r3
 8001228:	683b      	ldr	r3, [r7, #0]
 800122a:	431a      	orrs	r2, r3
 800122c:	687b      	ldr	r3, [r7, #4]
 800122e:	605a      	str	r2, [r3, #4]
}
 8001230:	46c0      	nop			; (mov r8, r8)
 8001232:	46bd      	mov	sp, r7
 8001234:	b002      	add	sp, #8
 8001236:	bd80      	pop	{r7, pc}

08001238 <LL_TIM_DisableMasterSlaveMode>:
  * @rmtoll SMCR         MSM           LL_TIM_DisableMasterSlaveMode
  * @param  TIMx Timer instance
  * @retval None
  */
__STATIC_INLINE void LL_TIM_DisableMasterSlaveMode(TIM_TypeDef *TIMx)
{
 8001238:	b580      	push	{r7, lr}
 800123a:	b082      	sub	sp, #8
 800123c:	af00      	add	r7, sp, #0
 800123e:	6078      	str	r0, [r7, #4]
  CLEAR_BIT(TIMx->SMCR, TIM_SMCR_MSM);
 8001240:	687b      	ldr	r3, [r7, #4]
 8001242:	689b      	ldr	r3, [r3, #8]
 8001244:	2280      	movs	r2, #128	; 0x80
 8001246:	4393      	bics	r3, r2
 8001248:	001a      	movs	r2, r3
 800124a:	687b      	ldr	r3, [r7, #4]
 800124c:	609a      	str	r2, [r3, #8]
}
 800124e:	46c0      	nop			; (mov r8, r8)
 8001250:	46bd      	mov	sp, r7
 8001252:	b002      	add	sp, #8
 8001254:	bd80      	pop	{r7, pc}

08001256 <MX_TIM2_Init>:

/* USER CODE END 0 */

/* TIM2 init function */
void MX_TIM2_Init(void)
{
 8001256:	b5b0      	push	{r4, r5, r7, lr}
 8001258:	b08e      	sub	sp, #56	; 0x38
 800125a:	af00      	add	r7, sp, #0
  LL_TIM_InitTypeDef TIM_InitStruct = {0};
 800125c:	2528      	movs	r5, #40	; 0x28
 800125e:	197b      	adds	r3, r7, r5
 8001260:	0018      	movs	r0, r3
 8001262:	2310      	movs	r3, #16
 8001264:	001a      	movs	r2, r3
 8001266:	2100      	movs	r1, #0
 8001268:	f000 fdf4 	bl	8001e54 <memset>
  LL_TIM_OC_InitTypeDef TIM_OC_InitStruct = {0};
 800126c:	2418      	movs	r4, #24
 800126e:	193b      	adds	r3, r7, r4
 8001270:	0018      	movs	r0, r3
 8001272:	2310      	movs	r3, #16
 8001274:	001a      	movs	r2, r3
 8001276:	2100      	movs	r1, #0
 8001278:	f000 fdec 	bl	8001e54 <memset>

  LL_GPIO_InitTypeDef GPIO_InitStruct = {0};
 800127c:	003b      	movs	r3, r7
 800127e:	0018      	movs	r0, r3
 8001280:	2318      	movs	r3, #24
 8001282:	001a      	movs	r2, r3
 8001284:	2100      	movs	r1, #0
 8001286:	f000 fde5 	bl	8001e54 <memset>
  /* Peripheral clock enable */
  LL_APB1_GRP1_EnableClock(LL_APB1_GRP1_PERIPH_TIM2);
 800128a:	2001      	movs	r0, #1
 800128c:	f7ff fec6 	bl	800101c <LL_APB1_GRP1_EnableClock>

  TIM_InitStruct.Prescaler = 0;
 8001290:	197b      	adds	r3, r7, r5
 8001292:	2200      	movs	r2, #0
 8001294:	801a      	strh	r2, [r3, #0]
  TIM_InitStruct.CounterMode = LL_TIM_COUNTERMODE_UP;
 8001296:	197b      	adds	r3, r7, r5
 8001298:	2200      	movs	r2, #0
 800129a:	605a      	str	r2, [r3, #4]
  TIM_InitStruct.Autoreload = 32;
 800129c:	197b      	adds	r3, r7, r5
 800129e:	2220      	movs	r2, #32
 80012a0:	609a      	str	r2, [r3, #8]
  TIM_InitStruct.ClockDivision = LL_TIM_CLOCKDIVISION_DIV1;
 80012a2:	197b      	adds	r3, r7, r5
 80012a4:	2200      	movs	r2, #0
 80012a6:	60da      	str	r2, [r3, #12]
  LL_TIM_Init(TIM2, &TIM_InitStruct);
 80012a8:	197a      	adds	r2, r7, r5
 80012aa:	2380      	movs	r3, #128	; 0x80
 80012ac:	05db      	lsls	r3, r3, #23
 80012ae:	0011      	movs	r1, r2
 80012b0:	0018      	movs	r0, r3
 80012b2:	f000 fb91 	bl	80019d8 <LL_TIM_Init>
  LL_TIM_DisableARRPreload(TIM2);
 80012b6:	2380      	movs	r3, #128	; 0x80
 80012b8:	05db      	lsls	r3, r3, #23
 80012ba:	0018      	movs	r0, r3
 80012bc:	f7ff fef0 	bl	80010a0 <LL_TIM_DisableARRPreload>
  LL_TIM_OC_EnablePreload(TIM2, LL_TIM_CHANNEL_CH1);
 80012c0:	2380      	movs	r3, #128	; 0x80
 80012c2:	05db      	lsls	r3, r3, #23
 80012c4:	2101      	movs	r1, #1
 80012c6:	0018      	movs	r0, r3
 80012c8:	f7ff ff2c 	bl	8001124 <LL_TIM_OC_EnablePreload>
  TIM_OC_InitStruct.OCMode = LL_TIM_OCMODE_PWM2;
 80012cc:	193b      	adds	r3, r7, r4
 80012ce:	2270      	movs	r2, #112	; 0x70
 80012d0:	601a      	str	r2, [r3, #0]
  TIM_OC_InitStruct.OCState = LL_TIM_OCSTATE_DISABLE;
 80012d2:	193b      	adds	r3, r7, r4
 80012d4:	2200      	movs	r2, #0
 80012d6:	605a      	str	r2, [r3, #4]
  TIM_OC_InitStruct.CompareValue = 0;
 80012d8:	193b      	adds	r3, r7, r4
 80012da:	2200      	movs	r2, #0
 80012dc:	609a      	str	r2, [r3, #8]
  TIM_OC_InitStruct.OCPolarity = LL_TIM_OCPOLARITY_HIGH;
 80012de:	193b      	adds	r3, r7, r4
 80012e0:	2200      	movs	r2, #0
 80012e2:	60da      	str	r2, [r3, #12]
  LL_TIM_OC_Init(TIM2, LL_TIM_CHANNEL_CH1, &TIM_OC_InitStruct);
 80012e4:	193a      	adds	r2, r7, r4
 80012e6:	2380      	movs	r3, #128	; 0x80
 80012e8:	05db      	lsls	r3, r3, #23
 80012ea:	2101      	movs	r1, #1
 80012ec:	0018      	movs	r0, r3
 80012ee:	f000 fbbb 	bl	8001a68 <LL_TIM_OC_Init>
  LL_TIM_OC_EnableFast(TIM2, LL_TIM_CHANNEL_CH1);
 80012f2:	2380      	movs	r3, #128	; 0x80
 80012f4:	05db      	lsls	r3, r3, #23
 80012f6:	2101      	movs	r1, #1
 80012f8:	0018      	movs	r0, r3
 80012fa:	f7ff fee1 	bl	80010c0 <LL_TIM_OC_EnableFast>
  LL_TIM_OC_EnablePreload(TIM2, LL_TIM_CHANNEL_CH2);
 80012fe:	2380      	movs	r3, #128	; 0x80
 8001300:	05db      	lsls	r3, r3, #23
 8001302:	2110      	movs	r1, #16
 8001304:	0018      	movs	r0, r3
 8001306:	f7ff ff0d 	bl	8001124 <LL_TIM_OC_EnablePreload>
  TIM_OC_InitStruct.OCState = LL_TIM_OCSTATE_DISABLE;
 800130a:	193b      	adds	r3, r7, r4
 800130c:	2200      	movs	r2, #0
 800130e:	605a      	str	r2, [r3, #4]
  LL_TIM_OC_Init(TIM2, LL_TIM_CHANNEL_CH2, &TIM_OC_InitStruct);
 8001310:	193a      	adds	r2, r7, r4
 8001312:	2380      	movs	r3, #128	; 0x80
 8001314:	05db      	lsls	r3, r3, #23
 8001316:	2110      	movs	r1, #16
 8001318:	0018      	movs	r0, r3
 800131a:	f000 fba5 	bl	8001a68 <LL_TIM_OC_Init>
  LL_TIM_OC_EnableFast(TIM2, LL_TIM_CHANNEL_CH2);
 800131e:	2380      	movs	r3, #128	; 0x80
 8001320:	05db      	lsls	r3, r3, #23
 8001322:	2110      	movs	r1, #16
 8001324:	0018      	movs	r0, r3
 8001326:	f7ff fecb 	bl	80010c0 <LL_TIM_OC_EnableFast>
  LL_TIM_SetTriggerOutput(TIM2, LL_TIM_TRGO_RESET);
 800132a:	2380      	movs	r3, #128	; 0x80
 800132c:	05db      	lsls	r3, r3, #23
 800132e:	2100      	movs	r1, #0
 8001330:	0018      	movs	r0, r3
 8001332:	f7ff ff6f 	bl	8001214 <LL_TIM_SetTriggerOutput>
  LL_TIM_DisableMasterSlaveMode(TIM2);
 8001336:	2380      	movs	r3, #128	; 0x80
 8001338:	05db      	lsls	r3, r3, #23
 800133a:	0018      	movs	r0, r3
 800133c:	f7ff ff7c 	bl	8001238 <LL_TIM_DisableMasterSlaveMode>
  LL_TIM_OC_DisablePreload(TIM2, LL_TIM_CHANNEL_CH2);
 8001340:	2380      	movs	r3, #128	; 0x80
 8001342:	05db      	lsls	r3, r3, #23
 8001344:	2110      	movs	r1, #16
 8001346:	0018      	movs	r0, r3
 8001348:	f7ff ff1e 	bl	8001188 <LL_TIM_OC_DisablePreload>
  LL_IOP_GRP1_EnableClock(LL_IOP_GRP1_PERIPH_GPIOA);
 800134c:	2001      	movs	r0, #1
 800134e:	f7ff fe91 	bl	8001074 <LL_IOP_GRP1_EnableClock>
    /**TIM2 GPIO Configuration    
    PA0-CK_IN     ------> TIM2_CH1
    PA1     ------> TIM2_CH2 
    */
  GPIO_InitStruct.Pin = LL_GPIO_PIN_0;
 8001352:	003b      	movs	r3, r7
 8001354:	2201      	movs	r2, #1
 8001356:	601a      	str	r2, [r3, #0]
  GPIO_InitStruct.Mode = LL_GPIO_MODE_ALTERNATE;
 8001358:	003b      	movs	r3, r7
 800135a:	2202      	movs	r2, #2
 800135c:	605a      	str	r2, [r3, #4]
  GPIO_InitStruct.Speed = LL_GPIO_SPEED_FREQ_LOW;
 800135e:	003b      	movs	r3, r7
 8001360:	2200      	movs	r2, #0
 8001362:	609a      	str	r2, [r3, #8]
  GPIO_InitStruct.OutputType = LL_GPIO_OUTPUT_PUSHPULL;
 8001364:	003b      	movs	r3, r7
 8001366:	2200      	movs	r2, #0
 8001368:	60da      	str	r2, [r3, #12]
  GPIO_InitStruct.Pull = LL_GPIO_PULL_NO;
 800136a:	003b      	movs	r3, r7
 800136c:	2200      	movs	r2, #0
 800136e:	611a      	str	r2, [r3, #16]
  GPIO_InitStruct.Alternate = LL_GPIO_AF_2;
 8001370:	003b      	movs	r3, r7
 8001372:	2202      	movs	r2, #2
 8001374:	615a      	str	r2, [r3, #20]
  LL_GPIO_Init(GPIOA, &GPIO_InitStruct);
 8001376:	003a      	movs	r2, r7
 8001378:	23a0      	movs	r3, #160	; 0xa0
 800137a:	05db      	lsls	r3, r3, #23
 800137c:	0011      	movs	r1, r2
 800137e:	0018      	movs	r0, r3
 8001380:	f000 fa6d 	bl	800185e <LL_GPIO_Init>

  GPIO_InitStruct.Pin = LL_GPIO_PIN_1;
 8001384:	003b      	movs	r3, r7
 8001386:	2202      	movs	r2, #2
 8001388:	601a      	str	r2, [r3, #0]
  GPIO_InitStruct.Mode = LL_GPIO_MODE_ALTERNATE;
 800138a:	003b      	movs	r3, r7
 800138c:	2202      	movs	r2, #2
 800138e:	605a      	str	r2, [r3, #4]
  GPIO_InitStruct.Speed = LL_GPIO_SPEED_FREQ_LOW;
 8001390:	003b      	movs	r3, r7
 8001392:	2200      	movs	r2, #0
 8001394:	609a      	str	r2, [r3, #8]
  GPIO_InitStruct.OutputType = LL_GPIO_OUTPUT_PUSHPULL;
 8001396:	003b      	movs	r3, r7
 8001398:	2200      	movs	r2, #0
 800139a:	60da      	str	r2, [r3, #12]
  GPIO_InitStruct.Pull = LL_GPIO_PULL_NO;
 800139c:	003b      	movs	r3, r7
 800139e:	2200      	movs	r2, #0
 80013a0:	611a      	str	r2, [r3, #16]
  GPIO_InitStruct.Alternate = LL_GPIO_AF_2;
 80013a2:	003b      	movs	r3, r7
 80013a4:	2202      	movs	r2, #2
 80013a6:	615a      	str	r2, [r3, #20]
  LL_GPIO_Init(GPIOA, &GPIO_InitStruct);
 80013a8:	003a      	movs	r2, r7
 80013aa:	23a0      	movs	r3, #160	; 0xa0
 80013ac:	05db      	lsls	r3, r3, #23
 80013ae:	0011      	movs	r1, r2
 80013b0:	0018      	movs	r0, r3
 80013b2:	f000 fa54 	bl	800185e <LL_GPIO_Init>

}
 80013b6:	46c0      	nop			; (mov r8, r8)
 80013b8:	46bd      	mov	sp, r7
 80013ba:	b00e      	add	sp, #56	; 0x38
 80013bc:	bdb0      	pop	{r4, r5, r7, pc}
	...

080013c0 <MX_TIM21_Init>:
/* TIM21 init function */
void MX_TIM21_Init(void)
{
 80013c0:	b580      	push	{r7, lr}
 80013c2:	b084      	sub	sp, #16
 80013c4:	af00      	add	r7, sp, #0
  LL_TIM_InitTypeDef TIM_InitStruct = {0};
 80013c6:	003b      	movs	r3, r7
 80013c8:	0018      	movs	r0, r3
 80013ca:	2310      	movs	r3, #16
 80013cc:	001a      	movs	r2, r3
 80013ce:	2100      	movs	r1, #0
 80013d0:	f000 fd40 	bl	8001e54 <memset>

  /* Peripheral clock enable */
  LL_APB2_GRP1_EnableClock(LL_APB2_GRP1_PERIPH_TIM21);
 80013d4:	2004      	movs	r0, #4
 80013d6:	f7ff fe37 	bl	8001048 <LL_APB2_GRP1_EnableClock>

  /* TIM21 interrupt Init */
  NVIC_SetPriority(TIM21_IRQn, 0);
 80013da:	2100      	movs	r1, #0
 80013dc:	2014      	movs	r0, #20
 80013de:	f7ff fdaf 	bl	8000f40 <NVIC_SetPriority>
  NVIC_EnableIRQ(TIM21_IRQn);
 80013e2:	2014      	movs	r0, #20
 80013e4:	f7ff fd96 	bl	8000f14 <NVIC_EnableIRQ>

  TIM_InitStruct.Prescaler = 65535;
 80013e8:	003b      	movs	r3, r7
 80013ea:	2201      	movs	r2, #1
 80013ec:	4252      	negs	r2, r2
 80013ee:	801a      	strh	r2, [r3, #0]
  TIM_InitStruct.CounterMode = LL_TIM_COUNTERMODE_UP;
 80013f0:	003b      	movs	r3, r7
 80013f2:	2200      	movs	r2, #0
 80013f4:	605a      	str	r2, [r3, #4]
  TIM_InitStruct.Autoreload = 65535;
 80013f6:	003b      	movs	r3, r7
 80013f8:	4a10      	ldr	r2, [pc, #64]	; (800143c <MX_TIM21_Init+0x7c>)
 80013fa:	609a      	str	r2, [r3, #8]
  TIM_InitStruct.ClockDivision = LL_TIM_CLOCKDIVISION_DIV1;
 80013fc:	003b      	movs	r3, r7
 80013fe:	2200      	movs	r2, #0
 8001400:	60da      	str	r2, [r3, #12]
  LL_TIM_Init(TIM21, &TIM_InitStruct);
 8001402:	003b      	movs	r3, r7
 8001404:	4a0e      	ldr	r2, [pc, #56]	; (8001440 <MX_TIM21_Init+0x80>)
 8001406:	0019      	movs	r1, r3
 8001408:	0010      	movs	r0, r2
 800140a:	f000 fae5 	bl	80019d8 <LL_TIM_Init>
  LL_TIM_DisableARRPreload(TIM21);
 800140e:	4b0c      	ldr	r3, [pc, #48]	; (8001440 <MX_TIM21_Init+0x80>)
 8001410:	0018      	movs	r0, r3
 8001412:	f7ff fe45 	bl	80010a0 <LL_TIM_DisableARRPreload>
  LL_TIM_SetClockSource(TIM21, LL_TIM_CLOCKSOURCE_INTERNAL);
 8001416:	4b0a      	ldr	r3, [pc, #40]	; (8001440 <MX_TIM21_Init+0x80>)
 8001418:	2100      	movs	r1, #0
 800141a:	0018      	movs	r0, r3
 800141c:	f7ff fee6 	bl	80011ec <LL_TIM_SetClockSource>
  LL_TIM_SetTriggerOutput(TIM21, LL_TIM_TRGO_RESET);
 8001420:	4b07      	ldr	r3, [pc, #28]	; (8001440 <MX_TIM21_Init+0x80>)
 8001422:	2100      	movs	r1, #0
 8001424:	0018      	movs	r0, r3
 8001426:	f7ff fef5 	bl	8001214 <LL_TIM_SetTriggerOutput>
  LL_TIM_DisableMasterSlaveMode(TIM21);
 800142a:	4b05      	ldr	r3, [pc, #20]	; (8001440 <MX_TIM21_Init+0x80>)
 800142c:	0018      	movs	r0, r3
 800142e:	f7ff ff03 	bl	8001238 <LL_TIM_DisableMasterSlaveMode>

}
 8001432:	46c0      	nop			; (mov r8, r8)
 8001434:	46bd      	mov	sp, r7
 8001436:	b004      	add	sp, #16
 8001438:	bd80      	pop	{r7, pc}
 800143a:	46c0      	nop			; (mov r8, r8)
 800143c:	0000ffff 	.word	0x0000ffff
 8001440:	40010800 	.word	0x40010800

08001444 <Reset_Handler>:

    .section  .text.Reset_Handler
  .weak  Reset_Handler
  .type  Reset_Handler, %function
Reset_Handler:  
   ldr   r0, =_estack
 8001444:	4813      	ldr	r0, [pc, #76]	; (8001494 <LoopForever+0x2>)
   mov   sp, r0          /* set stack pointer */
 8001446:	4685      	mov	sp, r0

/*Check if boot space corresponds to system memory*/

    LDR R0,=0x00000004
 8001448:	4813      	ldr	r0, [pc, #76]	; (8001498 <LoopForever+0x6>)
    LDR R1, [R0]
 800144a:	6801      	ldr	r1, [r0, #0]
    LSRS R1, R1, #24
 800144c:	0e09      	lsrs	r1, r1, #24
    LDR R2,=0x1F
 800144e:	4a13      	ldr	r2, [pc, #76]	; (800149c <LoopForever+0xa>)
    CMP R1, R2
 8001450:	4291      	cmp	r1, r2
    BNE ApplicationStart
 8001452:	d105      	bne.n	8001460 <ApplicationStart>

 /*SYSCFG clock enable*/
    LDR R0,=0x40021034
 8001454:	4812      	ldr	r0, [pc, #72]	; (80014a0 <LoopForever+0xe>)
    LDR R1,=0x00000001
 8001456:	4913      	ldr	r1, [pc, #76]	; (80014a4 <LoopForever+0x12>)
    STR R1, [R0]
 8001458:	6001      	str	r1, [r0, #0]

/*Set CFGR1 register with flash memory remap at address 0*/
    LDR R0,=0x40010000
 800145a:	4813      	ldr	r0, [pc, #76]	; (80014a8 <LoopForever+0x16>)
    LDR R1,=0x00000000
 800145c:	4913      	ldr	r1, [pc, #76]	; (80014ac <LoopForever+0x1a>)
    STR R1, [R0]
 800145e:	6001      	str	r1, [r0, #0]

08001460 <ApplicationStart>:

ApplicationStart:
/* Copy the data segment initializers from flash to SRAM */
  movs  r1, #0
 8001460:	2100      	movs	r1, #0
  b  LoopCopyDataInit
 8001462:	e003      	b.n	800146c <LoopCopyDataInit>

08001464 <CopyDataInit>:

CopyDataInit:
  ldr  r3, =_sidata
 8001464:	4b12      	ldr	r3, [pc, #72]	; (80014b0 <LoopForever+0x1e>)
  ldr  r3, [r3, r1]
 8001466:	585b      	ldr	r3, [r3, r1]
  str  r3, [r0, r1]
 8001468:	5043      	str	r3, [r0, r1]
  adds  r1, r1, #4
 800146a:	3104      	adds	r1, #4

0800146c <LoopCopyDataInit>:

LoopCopyDataInit:
  ldr  r0, =_sdata
 800146c:	4811      	ldr	r0, [pc, #68]	; (80014b4 <LoopForever+0x22>)
  ldr  r3, =_edata
 800146e:	4b12      	ldr	r3, [pc, #72]	; (80014b8 <LoopForever+0x26>)
  adds  r2, r0, r1
 8001470:	1842      	adds	r2, r0, r1
  cmp  r2, r3
 8001472:	429a      	cmp	r2, r3
  bcc  CopyDataInit
 8001474:	d3f6      	bcc.n	8001464 <CopyDataInit>
  ldr  r2, =_sbss
 8001476:	4a11      	ldr	r2, [pc, #68]	; (80014bc <LoopForever+0x2a>)
  b  LoopFillZerobss
 8001478:	e002      	b.n	8001480 <LoopFillZerobss>

0800147a <FillZerobss>:
/* Zero fill the bss segment. */
FillZerobss:
  movs  r3, #0
 800147a:	2300      	movs	r3, #0
  str  r3, [r2]
 800147c:	6013      	str	r3, [r2, #0]
  adds r2, r2, #4
 800147e:	3204      	adds	r2, #4

08001480 <LoopFillZerobss>:


LoopFillZerobss:
  ldr  r3, = _ebss
 8001480:	4b0f      	ldr	r3, [pc, #60]	; (80014c0 <LoopForever+0x2e>)
  cmp  r2, r3
 8001482:	429a      	cmp	r2, r3
  bcc  FillZerobss
 8001484:	d3f9      	bcc.n	800147a <FillZerobss>

/* Call the clock system intitialization function.*/
  bl  SystemInit
 8001486:	f7ff fd07 	bl	8000e98 <SystemInit>
/* Call static constructors */
    bl __libc_init_array
 800148a:	f000 fcbf 	bl	8001e0c <__libc_init_array>
/* Call the application's entry point.*/
  bl  main
 800148e:	f7ff fbb9 	bl	8000c04 <main>

08001492 <LoopForever>:

LoopForever:
    b LoopForever
 8001492:	e7fe      	b.n	8001492 <LoopForever>
   ldr   r0, =_estack
 8001494:	20000800 	.word	0x20000800
    LDR R0,=0x00000004
 8001498:	00000004 	.word	0x00000004
    LDR R2,=0x1F
 800149c:	0000001f 	.word	0x0000001f
    LDR R0,=0x40021034
 80014a0:	40021034 	.word	0x40021034
    LDR R1,=0x00000001
 80014a4:	00000001 	.word	0x00000001
    LDR R0,=0x40010000
 80014a8:	40010000 	.word	0x40010000
    LDR R1,=0x00000000
 80014ac:	00000000 	.word	0x00000000
  ldr  r3, =_sidata
 80014b0:	08001ea4 	.word	0x08001ea4
  ldr  r0, =_sdata
 80014b4:	20000000 	.word	0x20000000
  ldr  r3, =_edata
 80014b8:	20000088 	.word	0x20000088
  ldr  r2, =_sbss
 80014bc:	20000088 	.word	0x20000088
  ldr  r3, = _ebss
 80014c0:	200000a8 	.word	0x200000a8

080014c4 <ADC1_COMP_IRQHandler>:
 * @retval : None
*/
    .section  .text.Default_Handler,"ax",%progbits
Default_Handler:
Infinite_Loop:
  b  Infinite_Loop
 80014c4:	e7fe      	b.n	80014c4 <ADC1_COMP_IRQHandler>
	...

080014c8 <LL_EXTI_EnableIT_0_31>:
{
 80014c8:	b580      	push	{r7, lr}
 80014ca:	b082      	sub	sp, #8
 80014cc:	af00      	add	r7, sp, #0
 80014ce:	6078      	str	r0, [r7, #4]
  SET_BIT(EXTI->IMR, ExtiLine);
 80014d0:	4b04      	ldr	r3, [pc, #16]	; (80014e4 <LL_EXTI_EnableIT_0_31+0x1c>)
 80014d2:	6819      	ldr	r1, [r3, #0]
 80014d4:	4b03      	ldr	r3, [pc, #12]	; (80014e4 <LL_EXTI_EnableIT_0_31+0x1c>)
 80014d6:	687a      	ldr	r2, [r7, #4]
 80014d8:	430a      	orrs	r2, r1
 80014da:	601a      	str	r2, [r3, #0]
}
 80014dc:	46c0      	nop			; (mov r8, r8)
 80014de:	46bd      	mov	sp, r7
 80014e0:	b002      	add	sp, #8
 80014e2:	bd80      	pop	{r7, pc}
 80014e4:	40010400 	.word	0x40010400

080014e8 <LL_EXTI_DisableIT_0_31>:
{
 80014e8:	b580      	push	{r7, lr}
 80014ea:	b082      	sub	sp, #8
 80014ec:	af00      	add	r7, sp, #0
 80014ee:	6078      	str	r0, [r7, #4]
  CLEAR_BIT(EXTI->IMR, ExtiLine);
 80014f0:	4b05      	ldr	r3, [pc, #20]	; (8001508 <LL_EXTI_DisableIT_0_31+0x20>)
 80014f2:	681a      	ldr	r2, [r3, #0]
 80014f4:	687b      	ldr	r3, [r7, #4]
 80014f6:	43d9      	mvns	r1, r3
 80014f8:	4b03      	ldr	r3, [pc, #12]	; (8001508 <LL_EXTI_DisableIT_0_31+0x20>)
 80014fa:	400a      	ands	r2, r1
 80014fc:	601a      	str	r2, [r3, #0]
}
 80014fe:	46c0      	nop			; (mov r8, r8)
 8001500:	46bd      	mov	sp, r7
 8001502:	b002      	add	sp, #8
 8001504:	bd80      	pop	{r7, pc}
 8001506:	46c0      	nop			; (mov r8, r8)
 8001508:	40010400 	.word	0x40010400

0800150c <LL_EXTI_EnableEvent_0_31>:
{
 800150c:	b580      	push	{r7, lr}
 800150e:	b082      	sub	sp, #8
 8001510:	af00      	add	r7, sp, #0
 8001512:	6078      	str	r0, [r7, #4]
  SET_BIT(EXTI->EMR, ExtiLine);
 8001514:	4b04      	ldr	r3, [pc, #16]	; (8001528 <LL_EXTI_EnableEvent_0_31+0x1c>)
 8001516:	6859      	ldr	r1, [r3, #4]
 8001518:	4b03      	ldr	r3, [pc, #12]	; (8001528 <LL_EXTI_EnableEvent_0_31+0x1c>)
 800151a:	687a      	ldr	r2, [r7, #4]
 800151c:	430a      	orrs	r2, r1
 800151e:	605a      	str	r2, [r3, #4]
}
 8001520:	46c0      	nop			; (mov r8, r8)
 8001522:	46bd      	mov	sp, r7
 8001524:	b002      	add	sp, #8
 8001526:	bd80      	pop	{r7, pc}
 8001528:	40010400 	.word	0x40010400

0800152c <LL_EXTI_DisableEvent_0_31>:
{
 800152c:	b580      	push	{r7, lr}
 800152e:	b082      	sub	sp, #8
 8001530:	af00      	add	r7, sp, #0
 8001532:	6078      	str	r0, [r7, #4]
  CLEAR_BIT(EXTI->EMR, ExtiLine);
 8001534:	4b05      	ldr	r3, [pc, #20]	; (800154c <LL_EXTI_DisableEvent_0_31+0x20>)
 8001536:	685a      	ldr	r2, [r3, #4]
 8001538:	687b      	ldr	r3, [r7, #4]
 800153a:	43d9      	mvns	r1, r3
 800153c:	4b03      	ldr	r3, [pc, #12]	; (800154c <LL_EXTI_DisableEvent_0_31+0x20>)
 800153e:	400a      	ands	r2, r1
 8001540:	605a      	str	r2, [r3, #4]
}
 8001542:	46c0      	nop			; (mov r8, r8)
 8001544:	46bd      	mov	sp, r7
 8001546:	b002      	add	sp, #8
 8001548:	bd80      	pop	{r7, pc}
 800154a:	46c0      	nop			; (mov r8, r8)
 800154c:	40010400 	.word	0x40010400

08001550 <LL_EXTI_EnableRisingTrig_0_31>:
{
 8001550:	b580      	push	{r7, lr}
 8001552:	b082      	sub	sp, #8
 8001554:	af00      	add	r7, sp, #0
 8001556:	6078      	str	r0, [r7, #4]
  SET_BIT(EXTI->RTSR, ExtiLine);
 8001558:	4b04      	ldr	r3, [pc, #16]	; (800156c <LL_EXTI_EnableRisingTrig_0_31+0x1c>)
 800155a:	6899      	ldr	r1, [r3, #8]
 800155c:	4b03      	ldr	r3, [pc, #12]	; (800156c <LL_EXTI_EnableRisingTrig_0_31+0x1c>)
 800155e:	687a      	ldr	r2, [r7, #4]
 8001560:	430a      	orrs	r2, r1
 8001562:	609a      	str	r2, [r3, #8]
}
 8001564:	46c0      	nop			; (mov r8, r8)
 8001566:	46bd      	mov	sp, r7
 8001568:	b002      	add	sp, #8
 800156a:	bd80      	pop	{r7, pc}
 800156c:	40010400 	.word	0x40010400

08001570 <LL_EXTI_DisableRisingTrig_0_31>:
{
 8001570:	b580      	push	{r7, lr}
 8001572:	b082      	sub	sp, #8
 8001574:	af00      	add	r7, sp, #0
 8001576:	6078      	str	r0, [r7, #4]
  CLEAR_BIT(EXTI->RTSR, ExtiLine);
 8001578:	4b05      	ldr	r3, [pc, #20]	; (8001590 <LL_EXTI_DisableRisingTrig_0_31+0x20>)
 800157a:	689a      	ldr	r2, [r3, #8]
 800157c:	687b      	ldr	r3, [r7, #4]
 800157e:	43d9      	mvns	r1, r3
 8001580:	4b03      	ldr	r3, [pc, #12]	; (8001590 <LL_EXTI_DisableRisingTrig_0_31+0x20>)
 8001582:	400a      	ands	r2, r1
 8001584:	609a      	str	r2, [r3, #8]
}
 8001586:	46c0      	nop			; (mov r8, r8)
 8001588:	46bd      	mov	sp, r7
 800158a:	b002      	add	sp, #8
 800158c:	bd80      	pop	{r7, pc}
 800158e:	46c0      	nop			; (mov r8, r8)
 8001590:	40010400 	.word	0x40010400

08001594 <LL_EXTI_EnableFallingTrig_0_31>:
{
 8001594:	b580      	push	{r7, lr}
 8001596:	b082      	sub	sp, #8
 8001598:	af00      	add	r7, sp, #0
 800159a:	6078      	str	r0, [r7, #4]
  SET_BIT(EXTI->FTSR, ExtiLine);
 800159c:	4b04      	ldr	r3, [pc, #16]	; (80015b0 <LL_EXTI_EnableFallingTrig_0_31+0x1c>)
 800159e:	68d9      	ldr	r1, [r3, #12]
 80015a0:	4b03      	ldr	r3, [pc, #12]	; (80015b0 <LL_EXTI_EnableFallingTrig_0_31+0x1c>)
 80015a2:	687a      	ldr	r2, [r7, #4]
 80015a4:	430a      	orrs	r2, r1
 80015a6:	60da      	str	r2, [r3, #12]
}
 80015a8:	46c0      	nop			; (mov r8, r8)
 80015aa:	46bd      	mov	sp, r7
 80015ac:	b002      	add	sp, #8
 80015ae:	bd80      	pop	{r7, pc}
 80015b0:	40010400 	.word	0x40010400

080015b4 <LL_EXTI_DisableFallingTrig_0_31>:
{
 80015b4:	b580      	push	{r7, lr}
 80015b6:	b082      	sub	sp, #8
 80015b8:	af00      	add	r7, sp, #0
 80015ba:	6078      	str	r0, [r7, #4]
  CLEAR_BIT(EXTI->FTSR, ExtiLine);
 80015bc:	4b05      	ldr	r3, [pc, #20]	; (80015d4 <LL_EXTI_DisableFallingTrig_0_31+0x20>)
 80015be:	68da      	ldr	r2, [r3, #12]
 80015c0:	687b      	ldr	r3, [r7, #4]
 80015c2:	43d9      	mvns	r1, r3
 80015c4:	4b03      	ldr	r3, [pc, #12]	; (80015d4 <LL_EXTI_DisableFallingTrig_0_31+0x20>)
 80015c6:	400a      	ands	r2, r1
 80015c8:	60da      	str	r2, [r3, #12]
}
 80015ca:	46c0      	nop			; (mov r8, r8)
 80015cc:	46bd      	mov	sp, r7
 80015ce:	b002      	add	sp, #8
 80015d0:	bd80      	pop	{r7, pc}
 80015d2:	46c0      	nop			; (mov r8, r8)
 80015d4:	40010400 	.word	0x40010400

080015d8 <LL_EXTI_Init>:
  * @retval An ErrorStatus enumeration value:
  *          - SUCCESS: EXTI registers are initialized
  *          - ERROR: not applicable
  */
uint32_t LL_EXTI_Init(LL_EXTI_InitTypeDef *EXTI_InitStruct)
{
 80015d8:	b580      	push	{r7, lr}
 80015da:	b084      	sub	sp, #16
 80015dc:	af00      	add	r7, sp, #0
 80015de:	6078      	str	r0, [r7, #4]
  ErrorStatus status = SUCCESS;
 80015e0:	230f      	movs	r3, #15
 80015e2:	18fb      	adds	r3, r7, r3
 80015e4:	2200      	movs	r2, #0
 80015e6:	701a      	strb	r2, [r3, #0]
  assert_param(IS_LL_EXTI_LINE_0_31(EXTI_InitStruct->Line_0_31));
  assert_param(IS_FUNCTIONAL_STATE(EXTI_InitStruct->LineCommand));
  assert_param(IS_LL_EXTI_MODE(EXTI_InitStruct->Mode));

  /* ENABLE LineCommand */
  if (EXTI_InitStruct->LineCommand != DISABLE)
 80015e8:	687b      	ldr	r3, [r7, #4]
 80015ea:	791b      	ldrb	r3, [r3, #4]
 80015ec:	2b00      	cmp	r3, #0
 80015ee:	d065      	beq.n	80016bc <LL_EXTI_Init+0xe4>
  {
    assert_param(IS_LL_EXTI_TRIGGER(EXTI_InitStruct->Trigger));

    /* Configure EXTI Lines in range from 0 to 31 */
    if (EXTI_InitStruct->Line_0_31 != LL_EXTI_LINE_NONE)
 80015f0:	687b      	ldr	r3, [r7, #4]
 80015f2:	681b      	ldr	r3, [r3, #0]
 80015f4:	2b00      	cmp	r3, #0
 80015f6:	d100      	bne.n	80015fa <LL_EXTI_Init+0x22>
 80015f8:	e06b      	b.n	80016d2 <LL_EXTI_Init+0xfa>
    {
      switch (EXTI_InitStruct->Mode)
 80015fa:	687b      	ldr	r3, [r7, #4]
 80015fc:	795b      	ldrb	r3, [r3, #5]
 80015fe:	2b01      	cmp	r3, #1
 8001600:	d00e      	beq.n	8001620 <LL_EXTI_Init+0x48>
 8001602:	2b02      	cmp	r3, #2
 8001604:	d017      	beq.n	8001636 <LL_EXTI_Init+0x5e>
 8001606:	2b00      	cmp	r3, #0
 8001608:	d120      	bne.n	800164c <LL_EXTI_Init+0x74>
      {
        case LL_EXTI_MODE_IT:
          /* First Disable Event on provided Lines */
          LL_EXTI_DisableEvent_0_31(EXTI_InitStruct->Line_0_31);
 800160a:	687b      	ldr	r3, [r7, #4]
 800160c:	681b      	ldr	r3, [r3, #0]
 800160e:	0018      	movs	r0, r3
 8001610:	f7ff ff8c 	bl	800152c <LL_EXTI_DisableEvent_0_31>
          /* Then Enable IT on provided Lines */
          LL_EXTI_EnableIT_0_31(EXTI_InitStruct->Line_0_31);
 8001614:	687b      	ldr	r3, [r7, #4]
 8001616:	681b      	ldr	r3, [r3, #0]
 8001618:	0018      	movs	r0, r3
 800161a:	f7ff ff55 	bl	80014c8 <LL_EXTI_EnableIT_0_31>
          break;
 800161e:	e01a      	b.n	8001656 <LL_EXTI_Init+0x7e>
        case LL_EXTI_MODE_EVENT:
          /* First Disable IT on provided Lines */
          LL_EXTI_DisableIT_0_31(EXTI_InitStruct->Line_0_31);
 8001620:	687b      	ldr	r3, [r7, #4]
 8001622:	681b      	ldr	r3, [r3, #0]
 8001624:	0018      	movs	r0, r3
 8001626:	f7ff ff5f 	bl	80014e8 <LL_EXTI_DisableIT_0_31>
          /* Then Enable Event on provided Lines */
          LL_EXTI_EnableEvent_0_31(EXTI_InitStruct->Line_0_31);
 800162a:	687b      	ldr	r3, [r7, #4]
 800162c:	681b      	ldr	r3, [r3, #0]
 800162e:	0018      	movs	r0, r3
 8001630:	f7ff ff6c 	bl	800150c <LL_EXTI_EnableEvent_0_31>
          break;
 8001634:	e00f      	b.n	8001656 <LL_EXTI_Init+0x7e>
        case LL_EXTI_MODE_IT_EVENT:
          /* Directly Enable IT & Event on provided Lines */
          LL_EXTI_EnableIT_0_31(EXTI_InitStruct->Line_0_31);
 8001636:	687b      	ldr	r3, [r7, #4]
 8001638:	681b      	ldr	r3, [r3, #0]
 800163a:	0018      	movs	r0, r3
 800163c:	f7ff ff44 	bl	80014c8 <LL_EXTI_EnableIT_0_31>
          LL_EXTI_EnableEvent_0_31(EXTI_InitStruct->Line_0_31);
 8001640:	687b      	ldr	r3, [r7, #4]
 8001642:	681b      	ldr	r3, [r3, #0]
 8001644:	0018      	movs	r0, r3
 8001646:	f7ff ff61 	bl	800150c <LL_EXTI_EnableEvent_0_31>
          break;
 800164a:	e004      	b.n	8001656 <LL_EXTI_Init+0x7e>
        default:
          status = ERROR;
 800164c:	230f      	movs	r3, #15
 800164e:	18fb      	adds	r3, r7, r3
 8001650:	2201      	movs	r2, #1
 8001652:	701a      	strb	r2, [r3, #0]
          break;
 8001654:	46c0      	nop			; (mov r8, r8)
      }
      if (EXTI_InitStruct->Trigger != LL_EXTI_TRIGGER_NONE)
 8001656:	687b      	ldr	r3, [r7, #4]
 8001658:	799b      	ldrb	r3, [r3, #6]
 800165a:	2b00      	cmp	r3, #0
 800165c:	d039      	beq.n	80016d2 <LL_EXTI_Init+0xfa>
      {
        switch (EXTI_InitStruct->Trigger)
 800165e:	687b      	ldr	r3, [r7, #4]
 8001660:	799b      	ldrb	r3, [r3, #6]
 8001662:	2b02      	cmp	r3, #2
 8001664:	d00e      	beq.n	8001684 <LL_EXTI_Init+0xac>
 8001666:	2b03      	cmp	r3, #3
 8001668:	d017      	beq.n	800169a <LL_EXTI_Init+0xc2>
 800166a:	2b01      	cmp	r3, #1
 800166c:	d120      	bne.n	80016b0 <LL_EXTI_Init+0xd8>
        {
          case LL_EXTI_TRIGGER_RISING:
            /* First Disable Falling Trigger on provided Lines */
            LL_EXTI_DisableFallingTrig_0_31(EXTI_InitStruct->Line_0_31);
 800166e:	687b      	ldr	r3, [r7, #4]
 8001670:	681b      	ldr	r3, [r3, #0]
 8001672:	0018      	movs	r0, r3
 8001674:	f7ff ff9e 	bl	80015b4 <LL_EXTI_DisableFallingTrig_0_31>
            /* Then Enable Rising Trigger on provided Lines */
            LL_EXTI_EnableRisingTrig_0_31(EXTI_InitStruct->Line_0_31);
 8001678:	687b      	ldr	r3, [r7, #4]
 800167a:	681b      	ldr	r3, [r3, #0]
 800167c:	0018      	movs	r0, r3
 800167e:	f7ff ff67 	bl	8001550 <LL_EXTI_EnableRisingTrig_0_31>
            break;
 8001682:	e027      	b.n	80016d4 <LL_EXTI_Init+0xfc>
          case LL_EXTI_TRIGGER_FALLING:
            /* First Disable Rising Trigger on provided Lines */
            LL_EXTI_DisableRisingTrig_0_31(EXTI_InitStruct->Line_0_31);
 8001684:	687b      	ldr	r3, [r7, #4]
 8001686:	681b      	ldr	r3, [r3, #0]
 8001688:	0018      	movs	r0, r3
 800168a:	f7ff ff71 	bl	8001570 <LL_EXTI_DisableRisingTrig_0_31>
            /* Then Enable Falling Trigger on provided Lines */
            LL_EXTI_EnableFallingTrig_0_31(EXTI_InitStruct->Line_0_31);
 800168e:	687b      	ldr	r3, [r7, #4]
 8001690:	681b      	ldr	r3, [r3, #0]
 8001692:	0018      	movs	r0, r3
 8001694:	f7ff ff7e 	bl	8001594 <LL_EXTI_EnableFallingTrig_0_31>
            break;
 8001698:	e01c      	b.n	80016d4 <LL_EXTI_Init+0xfc>
          case LL_EXTI_TRIGGER_RISING_FALLING:
            LL_EXTI_EnableRisingTrig_0_31(EXTI_InitStruct->Line_0_31);
 800169a:	687b      	ldr	r3, [r7, #4]
 800169c:	681b      	ldr	r3, [r3, #0]
 800169e:	0018      	movs	r0, r3
 80016a0:	f7ff ff56 	bl	8001550 <LL_EXTI_EnableRisingTrig_0_31>
            LL_EXTI_EnableFallingTrig_0_31(EXTI_InitStruct->Line_0_31);
 80016a4:	687b      	ldr	r3, [r7, #4]
 80016a6:	681b      	ldr	r3, [r3, #0]
 80016a8:	0018      	movs	r0, r3
 80016aa:	f7ff ff73 	bl	8001594 <LL_EXTI_EnableFallingTrig_0_31>
            break;
 80016ae:	e011      	b.n	80016d4 <LL_EXTI_Init+0xfc>
          default:
            status = ERROR;
 80016b0:	230f      	movs	r3, #15
 80016b2:	18fb      	adds	r3, r7, r3
 80016b4:	2201      	movs	r2, #1
 80016b6:	701a      	strb	r2, [r3, #0]
            break;
 80016b8:	46c0      	nop			; (mov r8, r8)
 80016ba:	e00b      	b.n	80016d4 <LL_EXTI_Init+0xfc>
  }
  /* DISABLE LineCommand */
  else
  {
    /* De-configure EXTI Lines in range from 0 to 31 */
    LL_EXTI_DisableIT_0_31(EXTI_InitStruct->Line_0_31);
 80016bc:	687b      	ldr	r3, [r7, #4]
 80016be:	681b      	ldr	r3, [r3, #0]
 80016c0:	0018      	movs	r0, r3
 80016c2:	f7ff ff11 	bl	80014e8 <LL_EXTI_DisableIT_0_31>
    LL_EXTI_DisableEvent_0_31(EXTI_InitStruct->Line_0_31);
 80016c6:	687b      	ldr	r3, [r7, #4]
 80016c8:	681b      	ldr	r3, [r3, #0]
 80016ca:	0018      	movs	r0, r3
 80016cc:	f7ff ff2e 	bl	800152c <LL_EXTI_DisableEvent_0_31>
 80016d0:	e000      	b.n	80016d4 <LL_EXTI_Init+0xfc>
      }
 80016d2:	46c0      	nop			; (mov r8, r8)
  }
  return status;
 80016d4:	230f      	movs	r3, #15
 80016d6:	18fb      	adds	r3, r7, r3
 80016d8:	781b      	ldrb	r3, [r3, #0]
}
 80016da:	0018      	movs	r0, r3
 80016dc:	46bd      	mov	sp, r7
 80016de:	b004      	add	sp, #16
 80016e0:	bd80      	pop	{r7, pc}

080016e2 <LL_GPIO_SetPinMode>:
{
 80016e2:	b580      	push	{r7, lr}
 80016e4:	b084      	sub	sp, #16
 80016e6:	af00      	add	r7, sp, #0
 80016e8:	60f8      	str	r0, [r7, #12]
 80016ea:	60b9      	str	r1, [r7, #8]
 80016ec:	607a      	str	r2, [r7, #4]
  MODIFY_REG(GPIOx->MODER, ((Pin * Pin) * GPIO_MODER_MODE0), ((Pin * Pin) * Mode));
 80016ee:	68fb      	ldr	r3, [r7, #12]
 80016f0:	6819      	ldr	r1, [r3, #0]
 80016f2:	68bb      	ldr	r3, [r7, #8]
 80016f4:	68ba      	ldr	r2, [r7, #8]
 80016f6:	435a      	muls	r2, r3
 80016f8:	0013      	movs	r3, r2
 80016fa:	005b      	lsls	r3, r3, #1
 80016fc:	189b      	adds	r3, r3, r2
 80016fe:	43db      	mvns	r3, r3
 8001700:	400b      	ands	r3, r1
 8001702:	001a      	movs	r2, r3
 8001704:	68bb      	ldr	r3, [r7, #8]
 8001706:	68b9      	ldr	r1, [r7, #8]
 8001708:	434b      	muls	r3, r1
 800170a:	6879      	ldr	r1, [r7, #4]
 800170c:	434b      	muls	r3, r1
 800170e:	431a      	orrs	r2, r3
 8001710:	68fb      	ldr	r3, [r7, #12]
 8001712:	601a      	str	r2, [r3, #0]
}
 8001714:	46c0      	nop			; (mov r8, r8)
 8001716:	46bd      	mov	sp, r7
 8001718:	b004      	add	sp, #16
 800171a:	bd80      	pop	{r7, pc}

0800171c <LL_GPIO_SetPinOutputType>:
{
 800171c:	b580      	push	{r7, lr}
 800171e:	b084      	sub	sp, #16
 8001720:	af00      	add	r7, sp, #0
 8001722:	60f8      	str	r0, [r7, #12]
 8001724:	60b9      	str	r1, [r7, #8]
 8001726:	607a      	str	r2, [r7, #4]
  MODIFY_REG(GPIOx->OTYPER, PinMask, (PinMask * OutputType));
 8001728:	68fb      	ldr	r3, [r7, #12]
 800172a:	685b      	ldr	r3, [r3, #4]
 800172c:	68ba      	ldr	r2, [r7, #8]
 800172e:	43d2      	mvns	r2, r2
 8001730:	401a      	ands	r2, r3
 8001732:	68bb      	ldr	r3, [r7, #8]
 8001734:	6879      	ldr	r1, [r7, #4]
 8001736:	434b      	muls	r3, r1
 8001738:	431a      	orrs	r2, r3
 800173a:	68fb      	ldr	r3, [r7, #12]
 800173c:	605a      	str	r2, [r3, #4]
}
 800173e:	46c0      	nop			; (mov r8, r8)
 8001740:	46bd      	mov	sp, r7
 8001742:	b004      	add	sp, #16
 8001744:	bd80      	pop	{r7, pc}

08001746 <LL_GPIO_SetPinSpeed>:
{
 8001746:	b580      	push	{r7, lr}
 8001748:	b084      	sub	sp, #16
 800174a:	af00      	add	r7, sp, #0
 800174c:	60f8      	str	r0, [r7, #12]
 800174e:	60b9      	str	r1, [r7, #8]
 8001750:	607a      	str	r2, [r7, #4]
  MODIFY_REG(GPIOx->OSPEEDR, ((Pin * Pin) * GPIO_OSPEEDER_OSPEED0), ((Pin * Pin) * Speed));
 8001752:	68fb      	ldr	r3, [r7, #12]
 8001754:	6899      	ldr	r1, [r3, #8]
 8001756:	68bb      	ldr	r3, [r7, #8]
 8001758:	68ba      	ldr	r2, [r7, #8]
 800175a:	435a      	muls	r2, r3
 800175c:	0013      	movs	r3, r2
 800175e:	005b      	lsls	r3, r3, #1
 8001760:	189b      	adds	r3, r3, r2
 8001762:	43db      	mvns	r3, r3
 8001764:	400b      	ands	r3, r1
 8001766:	001a      	movs	r2, r3
 8001768:	68bb      	ldr	r3, [r7, #8]
 800176a:	68b9      	ldr	r1, [r7, #8]
 800176c:	434b      	muls	r3, r1
 800176e:	6879      	ldr	r1, [r7, #4]
 8001770:	434b      	muls	r3, r1
 8001772:	431a      	orrs	r2, r3
 8001774:	68fb      	ldr	r3, [r7, #12]
 8001776:	609a      	str	r2, [r3, #8]
}
 8001778:	46c0      	nop			; (mov r8, r8)
 800177a:	46bd      	mov	sp, r7
 800177c:	b004      	add	sp, #16
 800177e:	bd80      	pop	{r7, pc}

08001780 <LL_GPIO_SetPinPull>:
{
 8001780:	b580      	push	{r7, lr}
 8001782:	b084      	sub	sp, #16
 8001784:	af00      	add	r7, sp, #0
 8001786:	60f8      	str	r0, [r7, #12]
 8001788:	60b9      	str	r1, [r7, #8]
 800178a:	607a      	str	r2, [r7, #4]
  MODIFY_REG(GPIOx->PUPDR, ((Pin * Pin) * GPIO_PUPDR_PUPD0), ((Pin * Pin) * Pull));
 800178c:	68fb      	ldr	r3, [r7, #12]
 800178e:	68d9      	ldr	r1, [r3, #12]
 8001790:	68bb      	ldr	r3, [r7, #8]
 8001792:	68ba      	ldr	r2, [r7, #8]
 8001794:	435a      	muls	r2, r3
 8001796:	0013      	movs	r3, r2
 8001798:	005b      	lsls	r3, r3, #1
 800179a:	189b      	adds	r3, r3, r2
 800179c:	43db      	mvns	r3, r3
 800179e:	400b      	ands	r3, r1
 80017a0:	001a      	movs	r2, r3
 80017a2:	68bb      	ldr	r3, [r7, #8]
 80017a4:	68b9      	ldr	r1, [r7, #8]
 80017a6:	434b      	muls	r3, r1
 80017a8:	6879      	ldr	r1, [r7, #4]
 80017aa:	434b      	muls	r3, r1
 80017ac:	431a      	orrs	r2, r3
 80017ae:	68fb      	ldr	r3, [r7, #12]
 80017b0:	60da      	str	r2, [r3, #12]
}
 80017b2:	46c0      	nop			; (mov r8, r8)
 80017b4:	46bd      	mov	sp, r7
 80017b6:	b004      	add	sp, #16
 80017b8:	bd80      	pop	{r7, pc}

080017ba <LL_GPIO_SetAFPin_0_7>:
{
 80017ba:	b580      	push	{r7, lr}
 80017bc:	b084      	sub	sp, #16
 80017be:	af00      	add	r7, sp, #0
 80017c0:	60f8      	str	r0, [r7, #12]
 80017c2:	60b9      	str	r1, [r7, #8]
 80017c4:	607a      	str	r2, [r7, #4]
  MODIFY_REG(GPIOx->AFR[0], ((((Pin * Pin) * Pin) * Pin) * GPIO_AFRL_AFSEL0),
 80017c6:	68fb      	ldr	r3, [r7, #12]
 80017c8:	6a19      	ldr	r1, [r3, #32]
 80017ca:	68bb      	ldr	r3, [r7, #8]
 80017cc:	68ba      	ldr	r2, [r7, #8]
 80017ce:	4353      	muls	r3, r2
 80017d0:	68ba      	ldr	r2, [r7, #8]
 80017d2:	4353      	muls	r3, r2
 80017d4:	68ba      	ldr	r2, [r7, #8]
 80017d6:	435a      	muls	r2, r3
 80017d8:	0013      	movs	r3, r2
 80017da:	011b      	lsls	r3, r3, #4
 80017dc:	1a9b      	subs	r3, r3, r2
 80017de:	43db      	mvns	r3, r3
 80017e0:	400b      	ands	r3, r1
 80017e2:	001a      	movs	r2, r3
 80017e4:	68bb      	ldr	r3, [r7, #8]
 80017e6:	68b9      	ldr	r1, [r7, #8]
 80017e8:	434b      	muls	r3, r1
 80017ea:	68b9      	ldr	r1, [r7, #8]
 80017ec:	434b      	muls	r3, r1
 80017ee:	68b9      	ldr	r1, [r7, #8]
 80017f0:	434b      	muls	r3, r1
 80017f2:	6879      	ldr	r1, [r7, #4]
 80017f4:	434b      	muls	r3, r1
 80017f6:	431a      	orrs	r2, r3
 80017f8:	68fb      	ldr	r3, [r7, #12]
 80017fa:	621a      	str	r2, [r3, #32]
}
 80017fc:	46c0      	nop			; (mov r8, r8)
 80017fe:	46bd      	mov	sp, r7
 8001800:	b004      	add	sp, #16
 8001802:	bd80      	pop	{r7, pc}

08001804 <LL_GPIO_SetAFPin_8_15>:
{
 8001804:	b580      	push	{r7, lr}
 8001806:	b084      	sub	sp, #16
 8001808:	af00      	add	r7, sp, #0
 800180a:	60f8      	str	r0, [r7, #12]
 800180c:	60b9      	str	r1, [r7, #8]
 800180e:	607a      	str	r2, [r7, #4]
  MODIFY_REG(GPIOx->AFR[1], (((((Pin >> 8U) * (Pin >> 8U)) * (Pin >> 8U)) * (Pin >> 8U)) * GPIO_AFRH_AFSEL8),
 8001810:	68fb      	ldr	r3, [r7, #12]
 8001812:	6a59      	ldr	r1, [r3, #36]	; 0x24
 8001814:	68bb      	ldr	r3, [r7, #8]
 8001816:	0a1b      	lsrs	r3, r3, #8
 8001818:	68ba      	ldr	r2, [r7, #8]
 800181a:	0a12      	lsrs	r2, r2, #8
 800181c:	4353      	muls	r3, r2
 800181e:	68ba      	ldr	r2, [r7, #8]
 8001820:	0a12      	lsrs	r2, r2, #8
 8001822:	4353      	muls	r3, r2
 8001824:	68ba      	ldr	r2, [r7, #8]
 8001826:	0a12      	lsrs	r2, r2, #8
 8001828:	435a      	muls	r2, r3
 800182a:	0013      	movs	r3, r2
 800182c:	011b      	lsls	r3, r3, #4
 800182e:	1a9b      	subs	r3, r3, r2
 8001830:	43db      	mvns	r3, r3
 8001832:	400b      	ands	r3, r1
 8001834:	001a      	movs	r2, r3
 8001836:	68bb      	ldr	r3, [r7, #8]
 8001838:	0a1b      	lsrs	r3, r3, #8
 800183a:	68b9      	ldr	r1, [r7, #8]
 800183c:	0a09      	lsrs	r1, r1, #8
 800183e:	434b      	muls	r3, r1
 8001840:	68b9      	ldr	r1, [r7, #8]
 8001842:	0a09      	lsrs	r1, r1, #8
 8001844:	434b      	muls	r3, r1
 8001846:	68b9      	ldr	r1, [r7, #8]
 8001848:	0a09      	lsrs	r1, r1, #8
 800184a:	434b      	muls	r3, r1
 800184c:	6879      	ldr	r1, [r7, #4]
 800184e:	434b      	muls	r3, r1
 8001850:	431a      	orrs	r2, r3
 8001852:	68fb      	ldr	r3, [r7, #12]
 8001854:	625a      	str	r2, [r3, #36]	; 0x24
}
 8001856:	46c0      	nop			; (mov r8, r8)
 8001858:	46bd      	mov	sp, r7
 800185a:	b004      	add	sp, #16
 800185c:	bd80      	pop	{r7, pc}

0800185e <LL_GPIO_Init>:
  * @retval An ErrorStatus enumeration value:
  *          - SUCCESS: GPIO registers are initialized according to GPIO_InitStruct content
  *          - ERROR:   Not applicable
  */
ErrorStatus LL_GPIO_Init(GPIO_TypeDef *GPIOx, LL_GPIO_InitTypeDef *GPIO_InitStruct)
{
 800185e:	b580      	push	{r7, lr}
 8001860:	b084      	sub	sp, #16
 8001862:	af00      	add	r7, sp, #0
 8001864:	6078      	str	r0, [r7, #4]
 8001866:	6039      	str	r1, [r7, #0]
  uint32_t pinpos     = 0x00000000U;
 8001868:	2300      	movs	r3, #0
 800186a:	60fb      	str	r3, [r7, #12]
  uint32_t currentpin = 0x00000000U;
 800186c:	2300      	movs	r3, #0
 800186e:	60bb      	str	r3, [r7, #8]
  /* ------------------------- Configure the port pins ---------------- */
  /* Initialize  pinpos on first pin set */
  /* pinpos = 0; useless as already done in default initialization */

  /* Configure the port pins */
  while (((GPIO_InitStruct->Pin) >> pinpos) != 0x00000000U)
 8001870:	e040      	b.n	80018f4 <LL_GPIO_Init+0x96>
  {
    /* Get current io position */
    currentpin = (GPIO_InitStruct->Pin) & (0x00000001U << pinpos);
 8001872:	683b      	ldr	r3, [r7, #0]
 8001874:	681b      	ldr	r3, [r3, #0]
 8001876:	2101      	movs	r1, #1
 8001878:	68fa      	ldr	r2, [r7, #12]
 800187a:	4091      	lsls	r1, r2
 800187c:	000a      	movs	r2, r1
 800187e:	4013      	ands	r3, r2
 8001880:	60bb      	str	r3, [r7, #8]

    if (currentpin)
 8001882:	68bb      	ldr	r3, [r7, #8]
 8001884:	2b00      	cmp	r3, #0
 8001886:	d032      	beq.n	80018ee <LL_GPIO_Init+0x90>
    {
      /* Pin Mode configuration */
      LL_GPIO_SetPinMode(GPIOx, currentpin, GPIO_InitStruct->Mode);
 8001888:	683b      	ldr	r3, [r7, #0]
 800188a:	685a      	ldr	r2, [r3, #4]
 800188c:	68b9      	ldr	r1, [r7, #8]
 800188e:	687b      	ldr	r3, [r7, #4]
 8001890:	0018      	movs	r0, r3
 8001892:	f7ff ff26 	bl	80016e2 <LL_GPIO_SetPinMode>

      if ((GPIO_InitStruct->Mode == LL_GPIO_MODE_OUTPUT) || (GPIO_InitStruct->Mode == LL_GPIO_MODE_ALTERNATE))
 8001896:	683b      	ldr	r3, [r7, #0]
 8001898:	685b      	ldr	r3, [r3, #4]
 800189a:	2b01      	cmp	r3, #1
 800189c:	d003      	beq.n	80018a6 <LL_GPIO_Init+0x48>
 800189e:	683b      	ldr	r3, [r7, #0]
 80018a0:	685b      	ldr	r3, [r3, #4]
 80018a2:	2b02      	cmp	r3, #2
 80018a4:	d106      	bne.n	80018b4 <LL_GPIO_Init+0x56>
      {
        /* Check Speed mode parameters */
        assert_param(IS_LL_GPIO_SPEED(GPIO_InitStruct->Speed));

        /* Speed mode configuration */
        LL_GPIO_SetPinSpeed(GPIOx, currentpin, GPIO_InitStruct->Speed);
 80018a6:	683b      	ldr	r3, [r7, #0]
 80018a8:	689a      	ldr	r2, [r3, #8]
 80018aa:	68b9      	ldr	r1, [r7, #8]
 80018ac:	687b      	ldr	r3, [r7, #4]
 80018ae:	0018      	movs	r0, r3
 80018b0:	f7ff ff49 	bl	8001746 <LL_GPIO_SetPinSpeed>
      }

      /* Pull-up Pull down resistor configuration*/
      LL_GPIO_SetPinPull(GPIOx, currentpin, GPIO_InitStruct->Pull);
 80018b4:	683b      	ldr	r3, [r7, #0]
 80018b6:	691a      	ldr	r2, [r3, #16]
 80018b8:	68b9      	ldr	r1, [r7, #8]
 80018ba:	687b      	ldr	r3, [r7, #4]
 80018bc:	0018      	movs	r0, r3
 80018be:	f7ff ff5f 	bl	8001780 <LL_GPIO_SetPinPull>

      if (GPIO_InitStruct->Mode == LL_GPIO_MODE_ALTERNATE)
 80018c2:	683b      	ldr	r3, [r7, #0]
 80018c4:	685b      	ldr	r3, [r3, #4]
 80018c6:	2b02      	cmp	r3, #2
 80018c8:	d111      	bne.n	80018ee <LL_GPIO_Init+0x90>
      {
        /* Check Alternate parameter */
        assert_param(IS_LL_GPIO_ALTERNATE(GPIO_InitStruct->Alternate));

        /* Speed mode configuration */
        if (currentpin < LL_GPIO_PIN_8)
 80018ca:	68bb      	ldr	r3, [r7, #8]
 80018cc:	2bff      	cmp	r3, #255	; 0xff
 80018ce:	d807      	bhi.n	80018e0 <LL_GPIO_Init+0x82>
        {
          LL_GPIO_SetAFPin_0_7(GPIOx, currentpin, GPIO_InitStruct->Alternate);
 80018d0:	683b      	ldr	r3, [r7, #0]
 80018d2:	695a      	ldr	r2, [r3, #20]
 80018d4:	68b9      	ldr	r1, [r7, #8]
 80018d6:	687b      	ldr	r3, [r7, #4]
 80018d8:	0018      	movs	r0, r3
 80018da:	f7ff ff6e 	bl	80017ba <LL_GPIO_SetAFPin_0_7>
 80018de:	e006      	b.n	80018ee <LL_GPIO_Init+0x90>
        }
        else
        {
          LL_GPIO_SetAFPin_8_15(GPIOx, currentpin, GPIO_InitStruct->Alternate);
 80018e0:	683b      	ldr	r3, [r7, #0]
 80018e2:	695a      	ldr	r2, [r3, #20]
 80018e4:	68b9      	ldr	r1, [r7, #8]
 80018e6:	687b      	ldr	r3, [r7, #4]
 80018e8:	0018      	movs	r0, r3
 80018ea:	f7ff ff8b 	bl	8001804 <LL_GPIO_SetAFPin_8_15>
        }
      }
    }
    pinpos++;
 80018ee:	68fb      	ldr	r3, [r7, #12]
 80018f0:	3301      	adds	r3, #1
 80018f2:	60fb      	str	r3, [r7, #12]
  while (((GPIO_InitStruct->Pin) >> pinpos) != 0x00000000U)
 80018f4:	683b      	ldr	r3, [r7, #0]
 80018f6:	681a      	ldr	r2, [r3, #0]
 80018f8:	68fb      	ldr	r3, [r7, #12]
 80018fa:	40da      	lsrs	r2, r3
 80018fc:	1e13      	subs	r3, r2, #0
 80018fe:	d1b8      	bne.n	8001872 <LL_GPIO_Init+0x14>
  }

  if ((GPIO_InitStruct->Mode == LL_GPIO_MODE_OUTPUT) || (GPIO_InitStruct->Mode == LL_GPIO_MODE_ALTERNATE))
 8001900:	683b      	ldr	r3, [r7, #0]
 8001902:	685b      	ldr	r3, [r3, #4]
 8001904:	2b01      	cmp	r3, #1
 8001906:	d003      	beq.n	8001910 <LL_GPIO_Init+0xb2>
 8001908:	683b      	ldr	r3, [r7, #0]
 800190a:	685b      	ldr	r3, [r3, #4]
 800190c:	2b02      	cmp	r3, #2
 800190e:	d107      	bne.n	8001920 <LL_GPIO_Init+0xc2>
  {
    /* Check Output mode parameters */
    assert_param(IS_LL_GPIO_OUTPUT_TYPE(GPIO_InitStruct->OutputType));

    /* Output mode configuration*/
    LL_GPIO_SetPinOutputType(GPIOx, GPIO_InitStruct->Pin, GPIO_InitStruct->OutputType);
 8001910:	683b      	ldr	r3, [r7, #0]
 8001912:	6819      	ldr	r1, [r3, #0]
 8001914:	683b      	ldr	r3, [r7, #0]
 8001916:	68da      	ldr	r2, [r3, #12]
 8001918:	687b      	ldr	r3, [r7, #4]
 800191a:	0018      	movs	r0, r3
 800191c:	f7ff fefe 	bl	800171c <LL_GPIO_SetPinOutputType>

  }
  return (SUCCESS);
 8001920:	2300      	movs	r3, #0
}
 8001922:	0018      	movs	r0, r3
 8001924:	46bd      	mov	sp, r7
 8001926:	b004      	add	sp, #16
 8001928:	bd80      	pop	{r7, pc}

0800192a <LL_TIM_SetPrescaler>:
{
 800192a:	b580      	push	{r7, lr}
 800192c:	b082      	sub	sp, #8
 800192e:	af00      	add	r7, sp, #0
 8001930:	6078      	str	r0, [r7, #4]
 8001932:	6039      	str	r1, [r7, #0]
  WRITE_REG(TIMx->PSC, Prescaler);
 8001934:	687b      	ldr	r3, [r7, #4]
 8001936:	683a      	ldr	r2, [r7, #0]
 8001938:	629a      	str	r2, [r3, #40]	; 0x28
}
 800193a:	46c0      	nop			; (mov r8, r8)
 800193c:	46bd      	mov	sp, r7
 800193e:	b002      	add	sp, #8
 8001940:	bd80      	pop	{r7, pc}

08001942 <LL_TIM_SetAutoReload>:
{
 8001942:	b580      	push	{r7, lr}
 8001944:	b082      	sub	sp, #8
 8001946:	af00      	add	r7, sp, #0
 8001948:	6078      	str	r0, [r7, #4]
 800194a:	6039      	str	r1, [r7, #0]
  WRITE_REG(TIMx->ARR, AutoReload);
 800194c:	687b      	ldr	r3, [r7, #4]
 800194e:	683a      	ldr	r2, [r7, #0]
 8001950:	62da      	str	r2, [r3, #44]	; 0x2c
}
 8001952:	46c0      	nop			; (mov r8, r8)
 8001954:	46bd      	mov	sp, r7
 8001956:	b002      	add	sp, #8
 8001958:	bd80      	pop	{r7, pc}

0800195a <LL_TIM_OC_SetCompareCH1>:
{
 800195a:	b580      	push	{r7, lr}
 800195c:	b082      	sub	sp, #8
 800195e:	af00      	add	r7, sp, #0
 8001960:	6078      	str	r0, [r7, #4]
 8001962:	6039      	str	r1, [r7, #0]
  WRITE_REG(TIMx->CCR1, CompareValue);
 8001964:	687b      	ldr	r3, [r7, #4]
 8001966:	683a      	ldr	r2, [r7, #0]
 8001968:	635a      	str	r2, [r3, #52]	; 0x34
}
 800196a:	46c0      	nop			; (mov r8, r8)
 800196c:	46bd      	mov	sp, r7
 800196e:	b002      	add	sp, #8
 8001970:	bd80      	pop	{r7, pc}

08001972 <LL_TIM_OC_SetCompareCH2>:
{
 8001972:	b580      	push	{r7, lr}
 8001974:	b082      	sub	sp, #8
 8001976:	af00      	add	r7, sp, #0
 8001978:	6078      	str	r0, [r7, #4]
 800197a:	6039      	str	r1, [r7, #0]
  WRITE_REG(TIMx->CCR2, CompareValue);
 800197c:	687b      	ldr	r3, [r7, #4]
 800197e:	683a      	ldr	r2, [r7, #0]
 8001980:	639a      	str	r2, [r3, #56]	; 0x38
}
 8001982:	46c0      	nop			; (mov r8, r8)
 8001984:	46bd      	mov	sp, r7
 8001986:	b002      	add	sp, #8
 8001988:	bd80      	pop	{r7, pc}

0800198a <LL_TIM_OC_SetCompareCH3>:
{
 800198a:	b580      	push	{r7, lr}
 800198c:	b082      	sub	sp, #8
 800198e:	af00      	add	r7, sp, #0
 8001990:	6078      	str	r0, [r7, #4]
 8001992:	6039      	str	r1, [r7, #0]
  WRITE_REG(TIMx->CCR3, CompareValue);
 8001994:	687b      	ldr	r3, [r7, #4]
 8001996:	683a      	ldr	r2, [r7, #0]
 8001998:	63da      	str	r2, [r3, #60]	; 0x3c
}
 800199a:	46c0      	nop			; (mov r8, r8)
 800199c:	46bd      	mov	sp, r7
 800199e:	b002      	add	sp, #8
 80019a0:	bd80      	pop	{r7, pc}

080019a2 <LL_TIM_OC_SetCompareCH4>:
{
 80019a2:	b580      	push	{r7, lr}
 80019a4:	b082      	sub	sp, #8
 80019a6:	af00      	add	r7, sp, #0
 80019a8:	6078      	str	r0, [r7, #4]
 80019aa:	6039      	str	r1, [r7, #0]
  WRITE_REG(TIMx->CCR4, CompareValue);
 80019ac:	687b      	ldr	r3, [r7, #4]
 80019ae:	683a      	ldr	r2, [r7, #0]
 80019b0:	641a      	str	r2, [r3, #64]	; 0x40
}
 80019b2:	46c0      	nop			; (mov r8, r8)
 80019b4:	46bd      	mov	sp, r7
 80019b6:	b002      	add	sp, #8
 80019b8:	bd80      	pop	{r7, pc}

080019ba <LL_TIM_GenerateEvent_UPDATE>:
  * @rmtoll EGR          UG            LL_TIM_GenerateEvent_UPDATE
  * @param  TIMx Timer instance
  * @retval None
  */
__STATIC_INLINE void LL_TIM_GenerateEvent_UPDATE(TIM_TypeDef *TIMx)
{
 80019ba:	b580      	push	{r7, lr}
 80019bc:	b082      	sub	sp, #8
 80019be:	af00      	add	r7, sp, #0
 80019c0:	6078      	str	r0, [r7, #4]
  SET_BIT(TIMx->EGR, TIM_EGR_UG);
 80019c2:	687b      	ldr	r3, [r7, #4]
 80019c4:	695b      	ldr	r3, [r3, #20]
 80019c6:	2201      	movs	r2, #1
 80019c8:	431a      	orrs	r2, r3
 80019ca:	687b      	ldr	r3, [r7, #4]
 80019cc:	615a      	str	r2, [r3, #20]
}
 80019ce:	46c0      	nop			; (mov r8, r8)
 80019d0:	46bd      	mov	sp, r7
 80019d2:	b002      	add	sp, #8
 80019d4:	bd80      	pop	{r7, pc}
	...

080019d8 <LL_TIM_Init>:
  * @retval An ErrorStatus enumeration value:
  *          - SUCCESS: TIMx registers are de-initialized
  *          - ERROR: not applicable
  */
ErrorStatus LL_TIM_Init(TIM_TypeDef *TIMx, LL_TIM_InitTypeDef *TIM_InitStruct)
{
 80019d8:	b580      	push	{r7, lr}
 80019da:	b084      	sub	sp, #16
 80019dc:	af00      	add	r7, sp, #0
 80019de:	6078      	str	r0, [r7, #4]
 80019e0:	6039      	str	r1, [r7, #0]
  /* Check the parameters */
  assert_param(IS_TIM_INSTANCE(TIMx));
  assert_param(IS_LL_TIM_COUNTERMODE(TIM_InitStruct->CounterMode));
  assert_param(IS_LL_TIM_CLOCKDIVISION(TIM_InitStruct->ClockDivision));

  tmpcr1 = LL_TIM_ReadReg(TIMx, CR1);
 80019e2:	687b      	ldr	r3, [r7, #4]
 80019e4:	681b      	ldr	r3, [r3, #0]
 80019e6:	60fb      	str	r3, [r7, #12]

  if (IS_TIM_COUNTER_MODE_SELECT_INSTANCE(TIMx))
 80019e8:	687a      	ldr	r2, [r7, #4]
 80019ea:	2380      	movs	r3, #128	; 0x80
 80019ec:	05db      	lsls	r3, r3, #23
 80019ee:	429a      	cmp	r2, r3
 80019f0:	d003      	beq.n	80019fa <LL_TIM_Init+0x22>
 80019f2:	687b      	ldr	r3, [r7, #4]
 80019f4:	4a1a      	ldr	r2, [pc, #104]	; (8001a60 <LL_TIM_Init+0x88>)
 80019f6:	4293      	cmp	r3, r2
 80019f8:	d107      	bne.n	8001a0a <LL_TIM_Init+0x32>
  {
    /* Select the Counter Mode */
    MODIFY_REG(tmpcr1, (TIM_CR1_DIR | TIM_CR1_CMS), TIM_InitStruct->CounterMode);
 80019fa:	68fb      	ldr	r3, [r7, #12]
 80019fc:	2270      	movs	r2, #112	; 0x70
 80019fe:	4393      	bics	r3, r2
 8001a00:	001a      	movs	r2, r3
 8001a02:	683b      	ldr	r3, [r7, #0]
 8001a04:	685b      	ldr	r3, [r3, #4]
 8001a06:	4313      	orrs	r3, r2
 8001a08:	60fb      	str	r3, [r7, #12]
  }

  if (IS_TIM_CLOCK_DIVISION_INSTANCE(TIMx))
 8001a0a:	687a      	ldr	r2, [r7, #4]
 8001a0c:	2380      	movs	r3, #128	; 0x80
 8001a0e:	05db      	lsls	r3, r3, #23
 8001a10:	429a      	cmp	r2, r3
 8001a12:	d003      	beq.n	8001a1c <LL_TIM_Init+0x44>
 8001a14:	687b      	ldr	r3, [r7, #4]
 8001a16:	4a12      	ldr	r2, [pc, #72]	; (8001a60 <LL_TIM_Init+0x88>)
 8001a18:	4293      	cmp	r3, r2
 8001a1a:	d106      	bne.n	8001a2a <LL_TIM_Init+0x52>
  {
    /* Set the clock division */
    MODIFY_REG(tmpcr1, TIM_CR1_CKD, TIM_InitStruct->ClockDivision);
 8001a1c:	68fb      	ldr	r3, [r7, #12]
 8001a1e:	4a11      	ldr	r2, [pc, #68]	; (8001a64 <LL_TIM_Init+0x8c>)
 8001a20:	401a      	ands	r2, r3
 8001a22:	683b      	ldr	r3, [r7, #0]
 8001a24:	68db      	ldr	r3, [r3, #12]
 8001a26:	4313      	orrs	r3, r2
 8001a28:	60fb      	str	r3, [r7, #12]
  }

  /* Write to TIMx CR1 */
  LL_TIM_WriteReg(TIMx, CR1, tmpcr1);
 8001a2a:	687b      	ldr	r3, [r7, #4]
 8001a2c:	68fa      	ldr	r2, [r7, #12]
 8001a2e:	601a      	str	r2, [r3, #0]

  /* Set the Autoreload value */
  LL_TIM_SetAutoReload(TIMx, TIM_InitStruct->Autoreload);
 8001a30:	683b      	ldr	r3, [r7, #0]
 8001a32:	689a      	ldr	r2, [r3, #8]
 8001a34:	687b      	ldr	r3, [r7, #4]
 8001a36:	0011      	movs	r1, r2
 8001a38:	0018      	movs	r0, r3
 8001a3a:	f7ff ff82 	bl	8001942 <LL_TIM_SetAutoReload>

  /* Set the Prescaler value */
  LL_TIM_SetPrescaler(TIMx, TIM_InitStruct->Prescaler);
 8001a3e:	683b      	ldr	r3, [r7, #0]
 8001a40:	881b      	ldrh	r3, [r3, #0]
 8001a42:	001a      	movs	r2, r3
 8001a44:	687b      	ldr	r3, [r7, #4]
 8001a46:	0011      	movs	r1, r2
 8001a48:	0018      	movs	r0, r3
 8001a4a:	f7ff ff6e 	bl	800192a <LL_TIM_SetPrescaler>
  /* Generate an update event to reload the Prescaler
     and the repetition counter value (if applicable) immediately */
  LL_TIM_GenerateEvent_UPDATE(TIMx);
 8001a4e:	687b      	ldr	r3, [r7, #4]
 8001a50:	0018      	movs	r0, r3
 8001a52:	f7ff ffb2 	bl	80019ba <LL_TIM_GenerateEvent_UPDATE>

  return SUCCESS;
 8001a56:	2300      	movs	r3, #0
}
 8001a58:	0018      	movs	r0, r3
 8001a5a:	46bd      	mov	sp, r7
 8001a5c:	b004      	add	sp, #16
 8001a5e:	bd80      	pop	{r7, pc}
 8001a60:	40010800 	.word	0x40010800
 8001a64:	fffffcff 	.word	0xfffffcff

08001a68 <LL_TIM_OC_Init>:
  * @retval An ErrorStatus enumeration value:
  *          - SUCCESS: TIMx output channel is initialized
  *          - ERROR: TIMx output channel is not initialized
  */
ErrorStatus LL_TIM_OC_Init(TIM_TypeDef *TIMx, uint32_t Channel, LL_TIM_OC_InitTypeDef *TIM_OC_InitStruct)
{
 8001a68:	b590      	push	{r4, r7, lr}
 8001a6a:	b087      	sub	sp, #28
 8001a6c:	af00      	add	r7, sp, #0
 8001a6e:	60f8      	str	r0, [r7, #12]
 8001a70:	60b9      	str	r1, [r7, #8]
 8001a72:	607a      	str	r2, [r7, #4]
  ErrorStatus result = ERROR;
 8001a74:	2317      	movs	r3, #23
 8001a76:	18fb      	adds	r3, r7, r3
 8001a78:	2201      	movs	r2, #1
 8001a7a:	701a      	strb	r2, [r3, #0]

  switch (Channel)
 8001a7c:	68bb      	ldr	r3, [r7, #8]
 8001a7e:	2b10      	cmp	r3, #16
 8001a80:	d017      	beq.n	8001ab2 <LL_TIM_OC_Init+0x4a>
 8001a82:	d802      	bhi.n	8001a8a <LL_TIM_OC_Init+0x22>
 8001a84:	2b01      	cmp	r3, #1
 8001a86:	d009      	beq.n	8001a9c <LL_TIM_OC_Init+0x34>
      break;
    case LL_TIM_CHANNEL_CH4:
      result = OC4Config(TIMx, TIM_OC_InitStruct);
      break;
    default:
      break;
 8001a88:	e034      	b.n	8001af4 <LL_TIM_OC_Init+0x8c>
  switch (Channel)
 8001a8a:	2280      	movs	r2, #128	; 0x80
 8001a8c:	0052      	lsls	r2, r2, #1
 8001a8e:	4293      	cmp	r3, r2
 8001a90:	d01a      	beq.n	8001ac8 <LL_TIM_OC_Init+0x60>
 8001a92:	2280      	movs	r2, #128	; 0x80
 8001a94:	0152      	lsls	r2, r2, #5
 8001a96:	4293      	cmp	r3, r2
 8001a98:	d021      	beq.n	8001ade <LL_TIM_OC_Init+0x76>
      break;
 8001a9a:	e02b      	b.n	8001af4 <LL_TIM_OC_Init+0x8c>
      result = OC1Config(TIMx, TIM_OC_InitStruct);
 8001a9c:	2317      	movs	r3, #23
 8001a9e:	18fc      	adds	r4, r7, r3
 8001aa0:	687a      	ldr	r2, [r7, #4]
 8001aa2:	68fb      	ldr	r3, [r7, #12]
 8001aa4:	0011      	movs	r1, r2
 8001aa6:	0018      	movs	r0, r3
 8001aa8:	f000 f82b 	bl	8001b02 <OC1Config>
 8001aac:	0003      	movs	r3, r0
 8001aae:	7023      	strb	r3, [r4, #0]
      break;
 8001ab0:	e020      	b.n	8001af4 <LL_TIM_OC_Init+0x8c>
      result = OC2Config(TIMx, TIM_OC_InitStruct);
 8001ab2:	2317      	movs	r3, #23
 8001ab4:	18fc      	adds	r4, r7, r3
 8001ab6:	687a      	ldr	r2, [r7, #4]
 8001ab8:	68fb      	ldr	r3, [r7, #12]
 8001aba:	0011      	movs	r1, r2
 8001abc:	0018      	movs	r0, r3
 8001abe:	f000 f867 	bl	8001b90 <OC2Config>
 8001ac2:	0003      	movs	r3, r0
 8001ac4:	7023      	strb	r3, [r4, #0]
      break;
 8001ac6:	e015      	b.n	8001af4 <LL_TIM_OC_Init+0x8c>
      result = OC3Config(TIMx, TIM_OC_InitStruct);
 8001ac8:	2317      	movs	r3, #23
 8001aca:	18fc      	adds	r4, r7, r3
 8001acc:	687a      	ldr	r2, [r7, #4]
 8001ace:	68fb      	ldr	r3, [r7, #12]
 8001ad0:	0011      	movs	r1, r2
 8001ad2:	0018      	movs	r0, r3
 8001ad4:	f000 f8a8 	bl	8001c28 <OC3Config>
 8001ad8:	0003      	movs	r3, r0
 8001ada:	7023      	strb	r3, [r4, #0]
      break;
 8001adc:	e00a      	b.n	8001af4 <LL_TIM_OC_Init+0x8c>
      result = OC4Config(TIMx, TIM_OC_InitStruct);
 8001ade:	2317      	movs	r3, #23
 8001ae0:	18fc      	adds	r4, r7, r3
 8001ae2:	687a      	ldr	r2, [r7, #4]
 8001ae4:	68fb      	ldr	r3, [r7, #12]
 8001ae6:	0011      	movs	r1, r2
 8001ae8:	0018      	movs	r0, r3
 8001aea:	f000 f8e7 	bl	8001cbc <OC4Config>
 8001aee:	0003      	movs	r3, r0
 8001af0:	7023      	strb	r3, [r4, #0]
      break;
 8001af2:	46c0      	nop			; (mov r8, r8)
  }

  return result;
 8001af4:	2317      	movs	r3, #23
 8001af6:	18fb      	adds	r3, r7, r3
 8001af8:	781b      	ldrb	r3, [r3, #0]
}
 8001afa:	0018      	movs	r0, r3
 8001afc:	46bd      	mov	sp, r7
 8001afe:	b007      	add	sp, #28
 8001b00:	bd90      	pop	{r4, r7, pc}

08001b02 <OC1Config>:
  * @retval An ErrorStatus enumeration value:
  *          - SUCCESS: TIMx registers are de-initialized
  *          - ERROR: not applicable
  */
static ErrorStatus OC1Config(TIM_TypeDef *TIMx, LL_TIM_OC_InitTypeDef *TIM_OCInitStruct)
{
 8001b02:	b580      	push	{r7, lr}
 8001b04:	b086      	sub	sp, #24
 8001b06:	af00      	add	r7, sp, #0
 8001b08:	6078      	str	r0, [r7, #4]
 8001b0a:	6039      	str	r1, [r7, #0]
  assert_param(IS_LL_TIM_OCMODE(TIM_OCInitStruct->OCMode));
  assert_param(IS_LL_TIM_OCSTATE(TIM_OCInitStruct->OCState));
  assert_param(IS_LL_TIM_OCPOLARITY(TIM_OCInitStruct->OCPolarity));

  /* Disable the Channel 1: Reset the CC1E Bit */
  CLEAR_BIT(TIMx->CCER, TIM_CCER_CC1E);
 8001b0c:	687b      	ldr	r3, [r7, #4]
 8001b0e:	6a1b      	ldr	r3, [r3, #32]
 8001b10:	2201      	movs	r2, #1
 8001b12:	4393      	bics	r3, r2
 8001b14:	001a      	movs	r2, r3
 8001b16:	687b      	ldr	r3, [r7, #4]
 8001b18:	621a      	str	r2, [r3, #32]

  /* Get the TIMx CCER register value */
  tmpccer = LL_TIM_ReadReg(TIMx, CCER);
 8001b1a:	687b      	ldr	r3, [r7, #4]
 8001b1c:	6a1b      	ldr	r3, [r3, #32]
 8001b1e:	617b      	str	r3, [r7, #20]

  /* Get the TIMx CR2 register value */
  tmpcr2 = LL_TIM_ReadReg(TIMx, CR2);
 8001b20:	687b      	ldr	r3, [r7, #4]
 8001b22:	685b      	ldr	r3, [r3, #4]
 8001b24:	613b      	str	r3, [r7, #16]

  /* Get the TIMx CCMR1 register value */
  tmpccmr1 = LL_TIM_ReadReg(TIMx, CCMR1);
 8001b26:	687b      	ldr	r3, [r7, #4]
 8001b28:	699b      	ldr	r3, [r3, #24]
 8001b2a:	60fb      	str	r3, [r7, #12]

  /* Reset Capture/Compare selection Bits */
  CLEAR_BIT(tmpccmr1, TIM_CCMR1_CC1S);
 8001b2c:	68fb      	ldr	r3, [r7, #12]
 8001b2e:	2203      	movs	r2, #3
 8001b30:	4393      	bics	r3, r2
 8001b32:	60fb      	str	r3, [r7, #12]

  /* Set the Output Compare Mode */
  MODIFY_REG(tmpccmr1, TIM_CCMR1_OC1M, TIM_OCInitStruct->OCMode);
 8001b34:	68fb      	ldr	r3, [r7, #12]
 8001b36:	2270      	movs	r2, #112	; 0x70
 8001b38:	4393      	bics	r3, r2
 8001b3a:	001a      	movs	r2, r3
 8001b3c:	683b      	ldr	r3, [r7, #0]
 8001b3e:	681b      	ldr	r3, [r3, #0]
 8001b40:	4313      	orrs	r3, r2
 8001b42:	60fb      	str	r3, [r7, #12]

  /* Set the Output Compare Polarity */
  MODIFY_REG(tmpccer, TIM_CCER_CC1P, TIM_OCInitStruct->OCPolarity);
 8001b44:	697b      	ldr	r3, [r7, #20]
 8001b46:	2202      	movs	r2, #2
 8001b48:	4393      	bics	r3, r2
 8001b4a:	001a      	movs	r2, r3
 8001b4c:	683b      	ldr	r3, [r7, #0]
 8001b4e:	68db      	ldr	r3, [r3, #12]
 8001b50:	4313      	orrs	r3, r2
 8001b52:	617b      	str	r3, [r7, #20]

  /* Set the Output State */
  MODIFY_REG(tmpccer, TIM_CCER_CC1E, TIM_OCInitStruct->OCState);
 8001b54:	697b      	ldr	r3, [r7, #20]
 8001b56:	2201      	movs	r2, #1
 8001b58:	4393      	bics	r3, r2
 8001b5a:	001a      	movs	r2, r3
 8001b5c:	683b      	ldr	r3, [r7, #0]
 8001b5e:	685b      	ldr	r3, [r3, #4]
 8001b60:	4313      	orrs	r3, r2
 8001b62:	617b      	str	r3, [r7, #20]

  /* Write to TIMx CR2 */
  LL_TIM_WriteReg(TIMx, CR2, tmpcr2);
 8001b64:	687b      	ldr	r3, [r7, #4]
 8001b66:	693a      	ldr	r2, [r7, #16]
 8001b68:	605a      	str	r2, [r3, #4]

  /* Write to TIMx CCMR1 */
  LL_TIM_WriteReg(TIMx, CCMR1, tmpccmr1);
 8001b6a:	687b      	ldr	r3, [r7, #4]
 8001b6c:	68fa      	ldr	r2, [r7, #12]
 8001b6e:	619a      	str	r2, [r3, #24]

  /* Set the Capture Compare Register value */
  LL_TIM_OC_SetCompareCH1(TIMx, TIM_OCInitStruct->CompareValue);
 8001b70:	683b      	ldr	r3, [r7, #0]
 8001b72:	689a      	ldr	r2, [r3, #8]
 8001b74:	687b      	ldr	r3, [r7, #4]
 8001b76:	0011      	movs	r1, r2
 8001b78:	0018      	movs	r0, r3
 8001b7a:	f7ff feee 	bl	800195a <LL_TIM_OC_SetCompareCH1>

  /* Write to TIMx CCER */
  LL_TIM_WriteReg(TIMx, CCER, tmpccer);
 8001b7e:	687b      	ldr	r3, [r7, #4]
 8001b80:	697a      	ldr	r2, [r7, #20]
 8001b82:	621a      	str	r2, [r3, #32]

  return SUCCESS;
 8001b84:	2300      	movs	r3, #0
}
 8001b86:	0018      	movs	r0, r3
 8001b88:	46bd      	mov	sp, r7
 8001b8a:	b006      	add	sp, #24
 8001b8c:	bd80      	pop	{r7, pc}
	...

08001b90 <OC2Config>:
  * @retval An ErrorStatus enumeration value:
  *          - SUCCESS: TIMx registers are de-initialized
  *          - ERROR: not applicable
  */
static ErrorStatus OC2Config(TIM_TypeDef *TIMx, LL_TIM_OC_InitTypeDef *TIM_OCInitStruct)
{
 8001b90:	b580      	push	{r7, lr}
 8001b92:	b086      	sub	sp, #24
 8001b94:	af00      	add	r7, sp, #0
 8001b96:	6078      	str	r0, [r7, #4]
 8001b98:	6039      	str	r1, [r7, #0]
  assert_param(IS_LL_TIM_OCMODE(TIM_OCInitStruct->OCMode));
  assert_param(IS_LL_TIM_OCSTATE(TIM_OCInitStruct->OCState));
  assert_param(IS_LL_TIM_OCPOLARITY(TIM_OCInitStruct->OCPolarity));

  /* Disable the Channel 2: Reset the CC2E Bit */
  CLEAR_BIT(TIMx->CCER, TIM_CCER_CC2E);
 8001b9a:	687b      	ldr	r3, [r7, #4]
 8001b9c:	6a1b      	ldr	r3, [r3, #32]
 8001b9e:	2210      	movs	r2, #16
 8001ba0:	4393      	bics	r3, r2
 8001ba2:	001a      	movs	r2, r3
 8001ba4:	687b      	ldr	r3, [r7, #4]
 8001ba6:	621a      	str	r2, [r3, #32]

  /* Get the TIMx CCER register value */
  tmpccer =  LL_TIM_ReadReg(TIMx, CCER);
 8001ba8:	687b      	ldr	r3, [r7, #4]
 8001baa:	6a1b      	ldr	r3, [r3, #32]
 8001bac:	617b      	str	r3, [r7, #20]

  /* Get the TIMx CR2 register value */
  tmpcr2 = LL_TIM_ReadReg(TIMx, CR2);
 8001bae:	687b      	ldr	r3, [r7, #4]
 8001bb0:	685b      	ldr	r3, [r3, #4]
 8001bb2:	613b      	str	r3, [r7, #16]

  /* Get the TIMx CCMR1 register value */
  tmpccmr1 = LL_TIM_ReadReg(TIMx, CCMR1);
 8001bb4:	687b      	ldr	r3, [r7, #4]
 8001bb6:	699b      	ldr	r3, [r3, #24]
 8001bb8:	60fb      	str	r3, [r7, #12]

  /* Reset Capture/Compare selection Bits */
  CLEAR_BIT(tmpccmr1, TIM_CCMR1_CC2S);
 8001bba:	68fb      	ldr	r3, [r7, #12]
 8001bbc:	4a18      	ldr	r2, [pc, #96]	; (8001c20 <OC2Config+0x90>)
 8001bbe:	4013      	ands	r3, r2
 8001bc0:	60fb      	str	r3, [r7, #12]

  /* Select the Output Compare Mode */
  MODIFY_REG(tmpccmr1, TIM_CCMR1_OC2M, TIM_OCInitStruct->OCMode << 8U);
 8001bc2:	68fb      	ldr	r3, [r7, #12]
 8001bc4:	4a17      	ldr	r2, [pc, #92]	; (8001c24 <OC2Config+0x94>)
 8001bc6:	401a      	ands	r2, r3
 8001bc8:	683b      	ldr	r3, [r7, #0]
 8001bca:	681b      	ldr	r3, [r3, #0]
 8001bcc:	021b      	lsls	r3, r3, #8
 8001bce:	4313      	orrs	r3, r2
 8001bd0:	60fb      	str	r3, [r7, #12]

  /* Set the Output Compare Polarity */
  MODIFY_REG(tmpccer, TIM_CCER_CC2P, TIM_OCInitStruct->OCPolarity << 4U);
 8001bd2:	697b      	ldr	r3, [r7, #20]
 8001bd4:	2220      	movs	r2, #32
 8001bd6:	4393      	bics	r3, r2
 8001bd8:	001a      	movs	r2, r3
 8001bda:	683b      	ldr	r3, [r7, #0]
 8001bdc:	68db      	ldr	r3, [r3, #12]
 8001bde:	011b      	lsls	r3, r3, #4
 8001be0:	4313      	orrs	r3, r2
 8001be2:	617b      	str	r3, [r7, #20]

  /* Set the Output State */
  MODIFY_REG(tmpccer, TIM_CCER_CC2E, TIM_OCInitStruct->OCState << 4U);
 8001be4:	697b      	ldr	r3, [r7, #20]
 8001be6:	2210      	movs	r2, #16
 8001be8:	4393      	bics	r3, r2
 8001bea:	001a      	movs	r2, r3
 8001bec:	683b      	ldr	r3, [r7, #0]
 8001bee:	685b      	ldr	r3, [r3, #4]
 8001bf0:	011b      	lsls	r3, r3, #4
 8001bf2:	4313      	orrs	r3, r2
 8001bf4:	617b      	str	r3, [r7, #20]

  /* Write to TIMx CR2 */
  LL_TIM_WriteReg(TIMx, CR2, tmpcr2);
 8001bf6:	687b      	ldr	r3, [r7, #4]
 8001bf8:	693a      	ldr	r2, [r7, #16]
 8001bfa:	605a      	str	r2, [r3, #4]

  /* Write to TIMx CCMR1 */
  LL_TIM_WriteReg(TIMx, CCMR1, tmpccmr1);
 8001bfc:	687b      	ldr	r3, [r7, #4]
 8001bfe:	68fa      	ldr	r2, [r7, #12]
 8001c00:	619a      	str	r2, [r3, #24]

  /* Set the Capture Compare Register value */
  LL_TIM_OC_SetCompareCH2(TIMx, TIM_OCInitStruct->CompareValue);
 8001c02:	683b      	ldr	r3, [r7, #0]
 8001c04:	689a      	ldr	r2, [r3, #8]
 8001c06:	687b      	ldr	r3, [r7, #4]
 8001c08:	0011      	movs	r1, r2
 8001c0a:	0018      	movs	r0, r3
 8001c0c:	f7ff feb1 	bl	8001972 <LL_TIM_OC_SetCompareCH2>

  /* Write to TIMx CCER */
  LL_TIM_WriteReg(TIMx, CCER, tmpccer);
 8001c10:	687b      	ldr	r3, [r7, #4]
 8001c12:	697a      	ldr	r2, [r7, #20]
 8001c14:	621a      	str	r2, [r3, #32]

  return SUCCESS;
 8001c16:	2300      	movs	r3, #0
}
 8001c18:	0018      	movs	r0, r3
 8001c1a:	46bd      	mov	sp, r7
 8001c1c:	b006      	add	sp, #24
 8001c1e:	bd80      	pop	{r7, pc}
 8001c20:	fffffcff 	.word	0xfffffcff
 8001c24:	ffff8fff 	.word	0xffff8fff

08001c28 <OC3Config>:
  * @retval An ErrorStatus enumeration value:
  *          - SUCCESS: TIMx registers are de-initialized
  *          - ERROR: not applicable
  */
static ErrorStatus OC3Config(TIM_TypeDef *TIMx, LL_TIM_OC_InitTypeDef *TIM_OCInitStruct)
{
 8001c28:	b580      	push	{r7, lr}
 8001c2a:	b086      	sub	sp, #24
 8001c2c:	af00      	add	r7, sp, #0
 8001c2e:	6078      	str	r0, [r7, #4]
 8001c30:	6039      	str	r1, [r7, #0]
  assert_param(IS_LL_TIM_OCMODE(TIM_OCInitStruct->OCMode));
  assert_param(IS_LL_TIM_OCSTATE(TIM_OCInitStruct->OCState));
  assert_param(IS_LL_TIM_OCPOLARITY(TIM_OCInitStruct->OCPolarity));

  /* Disable the Channel 3: Reset the CC3E Bit */
  CLEAR_BIT(TIMx->CCER, TIM_CCER_CC3E);
 8001c32:	687b      	ldr	r3, [r7, #4]
 8001c34:	6a1b      	ldr	r3, [r3, #32]
 8001c36:	4a1f      	ldr	r2, [pc, #124]	; (8001cb4 <OC3Config+0x8c>)
 8001c38:	401a      	ands	r2, r3
 8001c3a:	687b      	ldr	r3, [r7, #4]
 8001c3c:	621a      	str	r2, [r3, #32]

  /* Get the TIMx CCER register value */
  tmpccer =  LL_TIM_ReadReg(TIMx, CCER);
 8001c3e:	687b      	ldr	r3, [r7, #4]
 8001c40:	6a1b      	ldr	r3, [r3, #32]
 8001c42:	617b      	str	r3, [r7, #20]

  /* Get the TIMx CR2 register value */
  tmpcr2 = LL_TIM_ReadReg(TIMx, CR2);
 8001c44:	687b      	ldr	r3, [r7, #4]
 8001c46:	685b      	ldr	r3, [r3, #4]
 8001c48:	613b      	str	r3, [r7, #16]

  /* Get the TIMx CCMR2 register value */
  tmpccmr2 = LL_TIM_ReadReg(TIMx, CCMR2);
 8001c4a:	687b      	ldr	r3, [r7, #4]
 8001c4c:	69db      	ldr	r3, [r3, #28]
 8001c4e:	60fb      	str	r3, [r7, #12]

  /* Reset Capture/Compare selection Bits */
  CLEAR_BIT(tmpccmr2, TIM_CCMR2_CC3S);
 8001c50:	68fb      	ldr	r3, [r7, #12]
 8001c52:	2203      	movs	r2, #3
 8001c54:	4393      	bics	r3, r2
 8001c56:	60fb      	str	r3, [r7, #12]

  /* Select the Output Compare Mode */
  MODIFY_REG(tmpccmr2, TIM_CCMR2_OC3M, TIM_OCInitStruct->OCMode);
 8001c58:	68fb      	ldr	r3, [r7, #12]
 8001c5a:	2270      	movs	r2, #112	; 0x70
 8001c5c:	4393      	bics	r3, r2
 8001c5e:	001a      	movs	r2, r3
 8001c60:	683b      	ldr	r3, [r7, #0]
 8001c62:	681b      	ldr	r3, [r3, #0]
 8001c64:	4313      	orrs	r3, r2
 8001c66:	60fb      	str	r3, [r7, #12]

  /* Set the Output Compare Polarity */
  MODIFY_REG(tmpccer, TIM_CCER_CC3P, TIM_OCInitStruct->OCPolarity << 8U);
 8001c68:	697b      	ldr	r3, [r7, #20]
 8001c6a:	4a13      	ldr	r2, [pc, #76]	; (8001cb8 <OC3Config+0x90>)
 8001c6c:	401a      	ands	r2, r3
 8001c6e:	683b      	ldr	r3, [r7, #0]
 8001c70:	68db      	ldr	r3, [r3, #12]
 8001c72:	021b      	lsls	r3, r3, #8
 8001c74:	4313      	orrs	r3, r2
 8001c76:	617b      	str	r3, [r7, #20]

  /* Set the Output State */
  MODIFY_REG(tmpccer, TIM_CCER_CC3E, TIM_OCInitStruct->OCState << 8U);
 8001c78:	697b      	ldr	r3, [r7, #20]
 8001c7a:	4a0e      	ldr	r2, [pc, #56]	; (8001cb4 <OC3Config+0x8c>)
 8001c7c:	401a      	ands	r2, r3
 8001c7e:	683b      	ldr	r3, [r7, #0]
 8001c80:	685b      	ldr	r3, [r3, #4]
 8001c82:	021b      	lsls	r3, r3, #8
 8001c84:	4313      	orrs	r3, r2
 8001c86:	617b      	str	r3, [r7, #20]

  /* Write to TIMx CR2 */
  LL_TIM_WriteReg(TIMx, CR2, tmpcr2);
 8001c88:	687b      	ldr	r3, [r7, #4]
 8001c8a:	693a      	ldr	r2, [r7, #16]
 8001c8c:	605a      	str	r2, [r3, #4]

  /* Write to TIMx CCMR2 */
  LL_TIM_WriteReg(TIMx, CCMR2, tmpccmr2);
 8001c8e:	687b      	ldr	r3, [r7, #4]
 8001c90:	68fa      	ldr	r2, [r7, #12]
 8001c92:	61da      	str	r2, [r3, #28]

  /* Set the Capture Compare Register value */
  LL_TIM_OC_SetCompareCH3(TIMx, TIM_OCInitStruct->CompareValue);
 8001c94:	683b      	ldr	r3, [r7, #0]
 8001c96:	689a      	ldr	r2, [r3, #8]
 8001c98:	687b      	ldr	r3, [r7, #4]
 8001c9a:	0011      	movs	r1, r2
 8001c9c:	0018      	movs	r0, r3
 8001c9e:	f7ff fe74 	bl	800198a <LL_TIM_OC_SetCompareCH3>

  /* Write to TIMx CCER */
  LL_TIM_WriteReg(TIMx, CCER, tmpccer);
 8001ca2:	687b      	ldr	r3, [r7, #4]
 8001ca4:	697a      	ldr	r2, [r7, #20]
 8001ca6:	621a      	str	r2, [r3, #32]

  return SUCCESS;
 8001ca8:	2300      	movs	r3, #0
}
 8001caa:	0018      	movs	r0, r3
 8001cac:	46bd      	mov	sp, r7
 8001cae:	b006      	add	sp, #24
 8001cb0:	bd80      	pop	{r7, pc}
 8001cb2:	46c0      	nop			; (mov r8, r8)
 8001cb4:	fffffeff 	.word	0xfffffeff
 8001cb8:	fffffdff 	.word	0xfffffdff

08001cbc <OC4Config>:
  * @retval An ErrorStatus enumeration value:
  *          - SUCCESS: TIMx registers are de-initialized
  *          - ERROR: not applicable
  */
static ErrorStatus OC4Config(TIM_TypeDef *TIMx, LL_TIM_OC_InitTypeDef *TIM_OCInitStruct)
{
 8001cbc:	b580      	push	{r7, lr}
 8001cbe:	b086      	sub	sp, #24
 8001cc0:	af00      	add	r7, sp, #0
 8001cc2:	6078      	str	r0, [r7, #4]
 8001cc4:	6039      	str	r1, [r7, #0]
  assert_param(IS_LL_TIM_OCMODE(TIM_OCInitStruct->OCMode));
  assert_param(IS_LL_TIM_OCSTATE(TIM_OCInitStruct->OCState));
  assert_param(IS_LL_TIM_OCPOLARITY(TIM_OCInitStruct->OCPolarity));

  /* Disable the Channel 4: Reset the CC4E Bit */
  CLEAR_BIT(TIMx->CCER, TIM_CCER_CC4E);
 8001cc6:	687b      	ldr	r3, [r7, #4]
 8001cc8:	6a1b      	ldr	r3, [r3, #32]
 8001cca:	4a1f      	ldr	r2, [pc, #124]	; (8001d48 <OC4Config+0x8c>)
 8001ccc:	401a      	ands	r2, r3
 8001cce:	687b      	ldr	r3, [r7, #4]
 8001cd0:	621a      	str	r2, [r3, #32]

  /* Get the TIMx CCER register value */
  tmpccer = LL_TIM_ReadReg(TIMx, CCER);
 8001cd2:	687b      	ldr	r3, [r7, #4]
 8001cd4:	6a1b      	ldr	r3, [r3, #32]
 8001cd6:	617b      	str	r3, [r7, #20]

  /* Get the TIMx CR2 register value */
  tmpcr2 =  LL_TIM_ReadReg(TIMx, CR2);
 8001cd8:	687b      	ldr	r3, [r7, #4]
 8001cda:	685b      	ldr	r3, [r3, #4]
 8001cdc:	613b      	str	r3, [r7, #16]

  /* Get the TIMx CCMR2 register value */
  tmpccmr2 = LL_TIM_ReadReg(TIMx, CCMR2);
 8001cde:	687b      	ldr	r3, [r7, #4]
 8001ce0:	69db      	ldr	r3, [r3, #28]
 8001ce2:	60fb      	str	r3, [r7, #12]

  /* Reset Capture/Compare selection Bits */
  CLEAR_BIT(tmpccmr2, TIM_CCMR2_CC4S);
 8001ce4:	68fb      	ldr	r3, [r7, #12]
 8001ce6:	4a19      	ldr	r2, [pc, #100]	; (8001d4c <OC4Config+0x90>)
 8001ce8:	4013      	ands	r3, r2
 8001cea:	60fb      	str	r3, [r7, #12]

  /* Select the Output Compare Mode */
  MODIFY_REG(tmpccmr2, TIM_CCMR2_OC4M, TIM_OCInitStruct->OCMode << 8U);
 8001cec:	68fb      	ldr	r3, [r7, #12]
 8001cee:	4a18      	ldr	r2, [pc, #96]	; (8001d50 <OC4Config+0x94>)
 8001cf0:	401a      	ands	r2, r3
 8001cf2:	683b      	ldr	r3, [r7, #0]
 8001cf4:	681b      	ldr	r3, [r3, #0]
 8001cf6:	021b      	lsls	r3, r3, #8
 8001cf8:	4313      	orrs	r3, r2
 8001cfa:	60fb      	str	r3, [r7, #12]

  /* Set the Output Compare Polarity */
  MODIFY_REG(tmpccer, TIM_CCER_CC4P, TIM_OCInitStruct->OCPolarity << 12U);
 8001cfc:	697b      	ldr	r3, [r7, #20]
 8001cfe:	4a15      	ldr	r2, [pc, #84]	; (8001d54 <OC4Config+0x98>)
 8001d00:	401a      	ands	r2, r3
 8001d02:	683b      	ldr	r3, [r7, #0]
 8001d04:	68db      	ldr	r3, [r3, #12]
 8001d06:	031b      	lsls	r3, r3, #12
 8001d08:	4313      	orrs	r3, r2
 8001d0a:	617b      	str	r3, [r7, #20]

  /* Set the Output State */
  MODIFY_REG(tmpccer, TIM_CCER_CC4E, TIM_OCInitStruct->OCState << 12U);
 8001d0c:	697b      	ldr	r3, [r7, #20]
 8001d0e:	4a0e      	ldr	r2, [pc, #56]	; (8001d48 <OC4Config+0x8c>)
 8001d10:	401a      	ands	r2, r3
 8001d12:	683b      	ldr	r3, [r7, #0]
 8001d14:	685b      	ldr	r3, [r3, #4]
 8001d16:	031b      	lsls	r3, r3, #12
 8001d18:	4313      	orrs	r3, r2
 8001d1a:	617b      	str	r3, [r7, #20]

  /* Write to TIMx CR2 */
  LL_TIM_WriteReg(TIMx, CR2, tmpcr2);
 8001d1c:	687b      	ldr	r3, [r7, #4]
 8001d1e:	693a      	ldr	r2, [r7, #16]
 8001d20:	605a      	str	r2, [r3, #4]

  /* Write to TIMx CCMR2 */
  LL_TIM_WriteReg(TIMx, CCMR2, tmpccmr2);
 8001d22:	687b      	ldr	r3, [r7, #4]
 8001d24:	68fa      	ldr	r2, [r7, #12]
 8001d26:	61da      	str	r2, [r3, #28]

  /* Set the Capture Compare Register value */
  LL_TIM_OC_SetCompareCH4(TIMx, TIM_OCInitStruct->CompareValue);
 8001d28:	683b      	ldr	r3, [r7, #0]
 8001d2a:	689a      	ldr	r2, [r3, #8]
 8001d2c:	687b      	ldr	r3, [r7, #4]
 8001d2e:	0011      	movs	r1, r2
 8001d30:	0018      	movs	r0, r3
 8001d32:	f7ff fe36 	bl	80019a2 <LL_TIM_OC_SetCompareCH4>

  /* Write to TIMx CCER */
  LL_TIM_WriteReg(TIMx, CCER, tmpccer);
 8001d36:	687b      	ldr	r3, [r7, #4]
 8001d38:	697a      	ldr	r2, [r7, #20]
 8001d3a:	621a      	str	r2, [r3, #32]

  return SUCCESS;
 8001d3c:	2300      	movs	r3, #0
}
 8001d3e:	0018      	movs	r0, r3
 8001d40:	46bd      	mov	sp, r7
 8001d42:	b006      	add	sp, #24
 8001d44:	bd80      	pop	{r7, pc}
 8001d46:	46c0      	nop			; (mov r8, r8)
 8001d48:	ffffefff 	.word	0xffffefff
 8001d4c:	fffffcff 	.word	0xfffffcff
 8001d50:	ffff8fff 	.word	0xffff8fff
 8001d54:	ffffdfff 	.word	0xffffdfff

08001d58 <LL_InitTick>:
  *         configuration by calling this function, for a delay use rather osDelay RTOS service.
  * @param  Ticks Number of ticks
  * @retval None
  */
__STATIC_INLINE void LL_InitTick(uint32_t HCLKFrequency, uint32_t Ticks)
{
 8001d58:	b580      	push	{r7, lr}
 8001d5a:	b082      	sub	sp, #8
 8001d5c:	af00      	add	r7, sp, #0
 8001d5e:	6078      	str	r0, [r7, #4]
 8001d60:	6039      	str	r1, [r7, #0]
  /* Configure the SysTick to have interrupt in 1ms time base */
  SysTick->LOAD  = (uint32_t)((HCLKFrequency / Ticks) - 1UL);  /* set reload register */
 8001d62:	6839      	ldr	r1, [r7, #0]
 8001d64:	6878      	ldr	r0, [r7, #4]
 8001d66:	f7fe f9cf 	bl	8000108 <__udivsi3>
 8001d6a:	0003      	movs	r3, r0
 8001d6c:	001a      	movs	r2, r3
 8001d6e:	4b06      	ldr	r3, [pc, #24]	; (8001d88 <LL_InitTick+0x30>)
 8001d70:	3a01      	subs	r2, #1
 8001d72:	605a      	str	r2, [r3, #4]
  SysTick->VAL   = 0UL;                                       /* Load the SysTick Counter Value */
 8001d74:	4b04      	ldr	r3, [pc, #16]	; (8001d88 <LL_InitTick+0x30>)
 8001d76:	2200      	movs	r2, #0
 8001d78:	609a      	str	r2, [r3, #8]
  SysTick->CTRL  = SysTick_CTRL_CLKSOURCE_Msk |
 8001d7a:	4b03      	ldr	r3, [pc, #12]	; (8001d88 <LL_InitTick+0x30>)
 8001d7c:	2205      	movs	r2, #5
 8001d7e:	601a      	str	r2, [r3, #0]
                   SysTick_CTRL_ENABLE_Msk;                   /* Enable the Systick Timer */
}
 8001d80:	46c0      	nop			; (mov r8, r8)
 8001d82:	46bd      	mov	sp, r7
 8001d84:	b002      	add	sp, #8
 8001d86:	bd80      	pop	{r7, pc}
 8001d88:	e000e010 	.word	0xe000e010

08001d8c <LL_Init1msTick>:
  * @param  HCLKFrequency HCLK frequency in Hz
  * @note   HCLK frequency can be calculated thanks to RCC helper macro or function @ref LL_RCC_GetSystemClocksFreq
  * @retval None
  */
void LL_Init1msTick(uint32_t HCLKFrequency)
{
 8001d8c:	b580      	push	{r7, lr}
 8001d8e:	b082      	sub	sp, #8
 8001d90:	af00      	add	r7, sp, #0
 8001d92:	6078      	str	r0, [r7, #4]
  /* Use frequency provided in argument */
  LL_InitTick(HCLKFrequency, 1000U);
 8001d94:	23fa      	movs	r3, #250	; 0xfa
 8001d96:	009a      	lsls	r2, r3, #2
 8001d98:	687b      	ldr	r3, [r7, #4]
 8001d9a:	0011      	movs	r1, r2
 8001d9c:	0018      	movs	r0, r3
 8001d9e:	f7ff ffdb 	bl	8001d58 <LL_InitTick>
}
 8001da2:	46c0      	nop			; (mov r8, r8)
 8001da4:	46bd      	mov	sp, r7
 8001da6:	b002      	add	sp, #8
 8001da8:	bd80      	pop	{r7, pc}
	...

08001dac <LL_mDelay>:
  *         will configure Systick to 1ms
  * @param  Delay specifies the delay time length, in milliseconds.
  * @retval None
  */
void LL_mDelay(uint32_t Delay)
{
 8001dac:	b580      	push	{r7, lr}
 8001dae:	b084      	sub	sp, #16
 8001db0:	af00      	add	r7, sp, #0
 8001db2:	6078      	str	r0, [r7, #4]
  __IO uint32_t  tmp = SysTick->CTRL;  /* Clear the COUNTFLAG first */
 8001db4:	4b0d      	ldr	r3, [pc, #52]	; (8001dec <LL_mDelay+0x40>)
 8001db6:	681b      	ldr	r3, [r3, #0]
 8001db8:	60fb      	str	r3, [r7, #12]
  /* Add this code to indicate that local variable is not used */
  ((void)tmp);
 8001dba:	68fb      	ldr	r3, [r7, #12]

  /* Add a period to guaranty minimum wait */
  if (Delay < LL_MAX_DELAY)
 8001dbc:	687b      	ldr	r3, [r7, #4]
 8001dbe:	3301      	adds	r3, #1
 8001dc0:	d00c      	beq.n	8001ddc <LL_mDelay+0x30>
  {
    Delay++;
 8001dc2:	687b      	ldr	r3, [r7, #4]
 8001dc4:	3301      	adds	r3, #1
 8001dc6:	607b      	str	r3, [r7, #4]
  }

  while (Delay)
 8001dc8:	e008      	b.n	8001ddc <LL_mDelay+0x30>
  {
    if ((SysTick->CTRL & SysTick_CTRL_COUNTFLAG_Msk) != 0U)
 8001dca:	4b08      	ldr	r3, [pc, #32]	; (8001dec <LL_mDelay+0x40>)
 8001dcc:	681a      	ldr	r2, [r3, #0]
 8001dce:	2380      	movs	r3, #128	; 0x80
 8001dd0:	025b      	lsls	r3, r3, #9
 8001dd2:	4013      	ands	r3, r2
 8001dd4:	d002      	beq.n	8001ddc <LL_mDelay+0x30>
    {
      Delay--;
 8001dd6:	687b      	ldr	r3, [r7, #4]
 8001dd8:	3b01      	subs	r3, #1
 8001dda:	607b      	str	r3, [r7, #4]
  while (Delay)
 8001ddc:	687b      	ldr	r3, [r7, #4]
 8001dde:	2b00      	cmp	r3, #0
 8001de0:	d1f3      	bne.n	8001dca <LL_mDelay+0x1e>
    }
  }
}
 8001de2:	46c0      	nop			; (mov r8, r8)
 8001de4:	46bd      	mov	sp, r7
 8001de6:	b004      	add	sp, #16
 8001de8:	bd80      	pop	{r7, pc}
 8001dea:	46c0      	nop			; (mov r8, r8)
 8001dec:	e000e010 	.word	0xe000e010

08001df0 <LL_SetSystemCoreClock>:
  * @note   Variable can be calculated also through SystemCoreClockUpdate function.
  * @param  HCLKFrequency HCLK frequency in Hz (can be calculated thanks to RCC helper macro)
  * @retval None
  */
void LL_SetSystemCoreClock(uint32_t HCLKFrequency)
{
 8001df0:	b580      	push	{r7, lr}
 8001df2:	b082      	sub	sp, #8
 8001df4:	af00      	add	r7, sp, #0
 8001df6:	6078      	str	r0, [r7, #4]
  /* HCLK clock frequency */
  SystemCoreClock = HCLKFrequency;
 8001df8:	4b03      	ldr	r3, [pc, #12]	; (8001e08 <LL_SetSystemCoreClock+0x18>)
 8001dfa:	687a      	ldr	r2, [r7, #4]
 8001dfc:	601a      	str	r2, [r3, #0]
}
 8001dfe:	46c0      	nop			; (mov r8, r8)
 8001e00:	46bd      	mov	sp, r7
 8001e02:	b002      	add	sp, #8
 8001e04:	bd80      	pop	{r7, pc}
 8001e06:	46c0      	nop			; (mov r8, r8)
 8001e08:	20000084 	.word	0x20000084

08001e0c <__libc_init_array>:
 8001e0c:	b570      	push	{r4, r5, r6, lr}
 8001e0e:	2600      	movs	r6, #0
 8001e10:	4d0c      	ldr	r5, [pc, #48]	; (8001e44 <__libc_init_array+0x38>)
 8001e12:	4c0d      	ldr	r4, [pc, #52]	; (8001e48 <__libc_init_array+0x3c>)
 8001e14:	1b64      	subs	r4, r4, r5
 8001e16:	10a4      	asrs	r4, r4, #2
 8001e18:	42a6      	cmp	r6, r4
 8001e1a:	d109      	bne.n	8001e30 <__libc_init_array+0x24>
 8001e1c:	2600      	movs	r6, #0
 8001e1e:	f000 f821 	bl	8001e64 <_init>
 8001e22:	4d0a      	ldr	r5, [pc, #40]	; (8001e4c <__libc_init_array+0x40>)
 8001e24:	4c0a      	ldr	r4, [pc, #40]	; (8001e50 <__libc_init_array+0x44>)
 8001e26:	1b64      	subs	r4, r4, r5
 8001e28:	10a4      	asrs	r4, r4, #2
 8001e2a:	42a6      	cmp	r6, r4
 8001e2c:	d105      	bne.n	8001e3a <__libc_init_array+0x2e>
 8001e2e:	bd70      	pop	{r4, r5, r6, pc}
 8001e30:	00b3      	lsls	r3, r6, #2
 8001e32:	58eb      	ldr	r3, [r5, r3]
 8001e34:	4798      	blx	r3
 8001e36:	3601      	adds	r6, #1
 8001e38:	e7ee      	b.n	8001e18 <__libc_init_array+0xc>
 8001e3a:	00b3      	lsls	r3, r6, #2
 8001e3c:	58eb      	ldr	r3, [r5, r3]
 8001e3e:	4798      	blx	r3
 8001e40:	3601      	adds	r6, #1
 8001e42:	e7f2      	b.n	8001e2a <__libc_init_array+0x1e>
 8001e44:	08001e9c 	.word	0x08001e9c
 8001e48:	08001e9c 	.word	0x08001e9c
 8001e4c:	08001e9c 	.word	0x08001e9c
 8001e50:	08001ea0 	.word	0x08001ea0

08001e54 <memset>:
 8001e54:	0003      	movs	r3, r0
 8001e56:	1812      	adds	r2, r2, r0
 8001e58:	4293      	cmp	r3, r2
 8001e5a:	d100      	bne.n	8001e5e <memset+0xa>
 8001e5c:	4770      	bx	lr
 8001e5e:	7019      	strb	r1, [r3, #0]
 8001e60:	3301      	adds	r3, #1
 8001e62:	e7f9      	b.n	8001e58 <memset+0x4>

08001e64 <_init>:
 8001e64:	b5f8      	push	{r3, r4, r5, r6, r7, lr}
 8001e66:	46c0      	nop			; (mov r8, r8)
 8001e68:	bcf8      	pop	{r3, r4, r5, r6, r7}
 8001e6a:	bc08      	pop	{r3}
 8001e6c:	469e      	mov	lr, r3
 8001e6e:	4770      	bx	lr

08001e70 <_fini>:
 8001e70:	b5f8      	push	{r3, r4, r5, r6, r7, lr}
 8001e72:	46c0      	nop			; (mov r8, r8)
 8001e74:	bcf8      	pop	{r3, r4, r5, r6, r7}
 8001e76:	bc08      	pop	{r3}
 8001e78:	469e      	mov	lr, r3
 8001e7a:	4770      	bx	lr
