
OverDriverPedal_SW.elf:     file format elf32-littlearm

Sections:
Idx Name          Size      VMA       LMA       File off  Algn
  0 .isr_vector   000000c0  08000000  08000000  00010000  2**0
                  CONTENTS, ALLOC, LOAD, READONLY, DATA
  1 .text         00003748  080000c0  080000c0  000100c0  2**2
                  CONTENTS, ALLOC, LOAD, READONLY, CODE
  2 .rodata       0000001c  08003808  08003808  00013808  2**2
                  CONTENTS, ALLOC, LOAD, READONLY, DATA
  3 .ARM.extab    00000000  08003824  08003824  00020008  2**0
                  CONTENTS
  4 .ARM          00000000  08003824  08003824  00020008  2**0
                  CONTENTS
  5 .preinit_array 00000000  08003824  08003824  00020008  2**0
                  CONTENTS, ALLOC, LOAD, DATA
  6 .init_array   00000004  08003824  08003824  00013824  2**2
                  CONTENTS, ALLOC, LOAD, DATA
  7 .fini_array   00000004  08003828  08003828  00013828  2**2
                  CONTENTS, ALLOC, LOAD, DATA
  8 .data         00000008  20000000  0800382c  00020000  2**2
                  CONTENTS, ALLOC, LOAD, DATA
  9 .bss          00000174  20000008  08003834  00020008  2**2
                  ALLOC
 10 ._user_heap_stack 00000604  2000017c  08003834  0002017c  2**0
                  ALLOC
 11 .ARM.attributes 00000028  00000000  00000000  00020008  2**0
                  CONTENTS, READONLY
 12 .debug_info   0000b5ef  00000000  00000000  00020030  2**0
                  CONTENTS, READONLY, DEBUGGING
 13 .debug_abbrev 00001fc8  00000000  00000000  0002b61f  2**0
                  CONTENTS, READONLY, DEBUGGING
 14 .debug_aranges 00000b70  00000000  00000000  0002d5e8  2**3
                  CONTENTS, READONLY, DEBUGGING
 15 .debug_ranges 00000a38  00000000  00000000  0002e158  2**3
                  CONTENTS, READONLY, DEBUGGING
 16 .debug_macro  00011c5f  00000000  00000000  0002eb90  2**0
                  CONTENTS, READONLY, DEBUGGING
 17 .debug_line   0000ab7f  00000000  00000000  000407ef  2**0
                  CONTENTS, READONLY, DEBUGGING
 18 .debug_str    0006ad82  00000000  00000000  0004b36e  2**0
                  CONTENTS, READONLY, DEBUGGING
 19 .comment      0000007b  00000000  00000000  000b60f0  2**0
                  CONTENTS, READONLY
 20 .debug_frame  000026fc  00000000  00000000  000b616c  2**2
                  CONTENTS, READONLY, DEBUGGING

Disassembly of section .text:

080000c0 <__do_global_dtors_aux>:
 80000c0:	b510      	push	{r4, lr}
 80000c2:	4c06      	ldr	r4, [pc, #24]	; (80000dc <__do_global_dtors_aux+0x1c>)
 80000c4:	7823      	ldrb	r3, [r4, #0]
 80000c6:	2b00      	cmp	r3, #0
 80000c8:	d107      	bne.n	80000da <__do_global_dtors_aux+0x1a>
 80000ca:	4b05      	ldr	r3, [pc, #20]	; (80000e0 <__do_global_dtors_aux+0x20>)
 80000cc:	2b00      	cmp	r3, #0
 80000ce:	d002      	beq.n	80000d6 <__do_global_dtors_aux+0x16>
 80000d0:	4804      	ldr	r0, [pc, #16]	; (80000e4 <__do_global_dtors_aux+0x24>)
 80000d2:	e000      	b.n	80000d6 <__do_global_dtors_aux+0x16>
 80000d4:	bf00      	nop
 80000d6:	2301      	movs	r3, #1
 80000d8:	7023      	strb	r3, [r4, #0]
 80000da:	bd10      	pop	{r4, pc}
 80000dc:	20000008 	.word	0x20000008
 80000e0:	00000000 	.word	0x00000000
 80000e4:	080037f0 	.word	0x080037f0

080000e8 <frame_dummy>:
 80000e8:	4b04      	ldr	r3, [pc, #16]	; (80000fc <frame_dummy+0x14>)
 80000ea:	b510      	push	{r4, lr}
 80000ec:	2b00      	cmp	r3, #0
 80000ee:	d003      	beq.n	80000f8 <frame_dummy+0x10>
 80000f0:	4903      	ldr	r1, [pc, #12]	; (8000100 <frame_dummy+0x18>)
 80000f2:	4804      	ldr	r0, [pc, #16]	; (8000104 <frame_dummy+0x1c>)
 80000f4:	e000      	b.n	80000f8 <frame_dummy+0x10>
 80000f6:	bf00      	nop
 80000f8:	bd10      	pop	{r4, pc}
 80000fa:	46c0      	nop			; (mov r8, r8)
 80000fc:	00000000 	.word	0x00000000
 8000100:	2000000c 	.word	0x2000000c
 8000104:	080037f0 	.word	0x080037f0

08000108 <__udivsi3>:
 8000108:	2200      	movs	r2, #0
 800010a:	0843      	lsrs	r3, r0, #1
 800010c:	428b      	cmp	r3, r1
 800010e:	d374      	bcc.n	80001fa <__udivsi3+0xf2>
 8000110:	0903      	lsrs	r3, r0, #4
 8000112:	428b      	cmp	r3, r1
 8000114:	d35f      	bcc.n	80001d6 <__udivsi3+0xce>
 8000116:	0a03      	lsrs	r3, r0, #8
 8000118:	428b      	cmp	r3, r1
 800011a:	d344      	bcc.n	80001a6 <__udivsi3+0x9e>
 800011c:	0b03      	lsrs	r3, r0, #12
 800011e:	428b      	cmp	r3, r1
 8000120:	d328      	bcc.n	8000174 <__udivsi3+0x6c>
 8000122:	0c03      	lsrs	r3, r0, #16
 8000124:	428b      	cmp	r3, r1
 8000126:	d30d      	bcc.n	8000144 <__udivsi3+0x3c>
 8000128:	22ff      	movs	r2, #255	; 0xff
 800012a:	0209      	lsls	r1, r1, #8
 800012c:	ba12      	rev	r2, r2
 800012e:	0c03      	lsrs	r3, r0, #16
 8000130:	428b      	cmp	r3, r1
 8000132:	d302      	bcc.n	800013a <__udivsi3+0x32>
 8000134:	1212      	asrs	r2, r2, #8
 8000136:	0209      	lsls	r1, r1, #8
 8000138:	d065      	beq.n	8000206 <__udivsi3+0xfe>
 800013a:	0b03      	lsrs	r3, r0, #12
 800013c:	428b      	cmp	r3, r1
 800013e:	d319      	bcc.n	8000174 <__udivsi3+0x6c>
 8000140:	e000      	b.n	8000144 <__udivsi3+0x3c>
 8000142:	0a09      	lsrs	r1, r1, #8
 8000144:	0bc3      	lsrs	r3, r0, #15
 8000146:	428b      	cmp	r3, r1
 8000148:	d301      	bcc.n	800014e <__udivsi3+0x46>
 800014a:	03cb      	lsls	r3, r1, #15
 800014c:	1ac0      	subs	r0, r0, r3
 800014e:	4152      	adcs	r2, r2
 8000150:	0b83      	lsrs	r3, r0, #14
 8000152:	428b      	cmp	r3, r1
 8000154:	d301      	bcc.n	800015a <__udivsi3+0x52>
 8000156:	038b      	lsls	r3, r1, #14
 8000158:	1ac0      	subs	r0, r0, r3
 800015a:	4152      	adcs	r2, r2
 800015c:	0b43      	lsrs	r3, r0, #13
 800015e:	428b      	cmp	r3, r1
 8000160:	d301      	bcc.n	8000166 <__udivsi3+0x5e>
 8000162:	034b      	lsls	r3, r1, #13
 8000164:	1ac0      	subs	r0, r0, r3
 8000166:	4152      	adcs	r2, r2
 8000168:	0b03      	lsrs	r3, r0, #12
 800016a:	428b      	cmp	r3, r1
 800016c:	d301      	bcc.n	8000172 <__udivsi3+0x6a>
 800016e:	030b      	lsls	r3, r1, #12
 8000170:	1ac0      	subs	r0, r0, r3
 8000172:	4152      	adcs	r2, r2
 8000174:	0ac3      	lsrs	r3, r0, #11
 8000176:	428b      	cmp	r3, r1
 8000178:	d301      	bcc.n	800017e <__udivsi3+0x76>
 800017a:	02cb      	lsls	r3, r1, #11
 800017c:	1ac0      	subs	r0, r0, r3
 800017e:	4152      	adcs	r2, r2
 8000180:	0a83      	lsrs	r3, r0, #10
 8000182:	428b      	cmp	r3, r1
 8000184:	d301      	bcc.n	800018a <__udivsi3+0x82>
 8000186:	028b      	lsls	r3, r1, #10
 8000188:	1ac0      	subs	r0, r0, r3
 800018a:	4152      	adcs	r2, r2
 800018c:	0a43      	lsrs	r3, r0, #9
 800018e:	428b      	cmp	r3, r1
 8000190:	d301      	bcc.n	8000196 <__udivsi3+0x8e>
 8000192:	024b      	lsls	r3, r1, #9
 8000194:	1ac0      	subs	r0, r0, r3
 8000196:	4152      	adcs	r2, r2
 8000198:	0a03      	lsrs	r3, r0, #8
 800019a:	428b      	cmp	r3, r1
 800019c:	d301      	bcc.n	80001a2 <__udivsi3+0x9a>
 800019e:	020b      	lsls	r3, r1, #8
 80001a0:	1ac0      	subs	r0, r0, r3
 80001a2:	4152      	adcs	r2, r2
 80001a4:	d2cd      	bcs.n	8000142 <__udivsi3+0x3a>
 80001a6:	09c3      	lsrs	r3, r0, #7
 80001a8:	428b      	cmp	r3, r1
 80001aa:	d301      	bcc.n	80001b0 <__udivsi3+0xa8>
 80001ac:	01cb      	lsls	r3, r1, #7
 80001ae:	1ac0      	subs	r0, r0, r3
 80001b0:	4152      	adcs	r2, r2
 80001b2:	0983      	lsrs	r3, r0, #6
 80001b4:	428b      	cmp	r3, r1
 80001b6:	d301      	bcc.n	80001bc <__udivsi3+0xb4>
 80001b8:	018b      	lsls	r3, r1, #6
 80001ba:	1ac0      	subs	r0, r0, r3
 80001bc:	4152      	adcs	r2, r2
 80001be:	0943      	lsrs	r3, r0, #5
 80001c0:	428b      	cmp	r3, r1
 80001c2:	d301      	bcc.n	80001c8 <__udivsi3+0xc0>
 80001c4:	014b      	lsls	r3, r1, #5
 80001c6:	1ac0      	subs	r0, r0, r3
 80001c8:	4152      	adcs	r2, r2
 80001ca:	0903      	lsrs	r3, r0, #4
 80001cc:	428b      	cmp	r3, r1
 80001ce:	d301      	bcc.n	80001d4 <__udivsi3+0xcc>
 80001d0:	010b      	lsls	r3, r1, #4
 80001d2:	1ac0      	subs	r0, r0, r3
 80001d4:	4152      	adcs	r2, r2
 80001d6:	08c3      	lsrs	r3, r0, #3
 80001d8:	428b      	cmp	r3, r1
 80001da:	d301      	bcc.n	80001e0 <__udivsi3+0xd8>
 80001dc:	00cb      	lsls	r3, r1, #3
 80001de:	1ac0      	subs	r0, r0, r3
 80001e0:	4152      	adcs	r2, r2
 80001e2:	0883      	lsrs	r3, r0, #2
 80001e4:	428b      	cmp	r3, r1
 80001e6:	d301      	bcc.n	80001ec <__udivsi3+0xe4>
 80001e8:	008b      	lsls	r3, r1, #2
 80001ea:	1ac0      	subs	r0, r0, r3
 80001ec:	4152      	adcs	r2, r2
 80001ee:	0843      	lsrs	r3, r0, #1
 80001f0:	428b      	cmp	r3, r1
 80001f2:	d301      	bcc.n	80001f8 <__udivsi3+0xf0>
 80001f4:	004b      	lsls	r3, r1, #1
 80001f6:	1ac0      	subs	r0, r0, r3
 80001f8:	4152      	adcs	r2, r2
 80001fa:	1a41      	subs	r1, r0, r1
 80001fc:	d200      	bcs.n	8000200 <__udivsi3+0xf8>
 80001fe:	4601      	mov	r1, r0
 8000200:	4152      	adcs	r2, r2
 8000202:	4610      	mov	r0, r2
 8000204:	4770      	bx	lr
 8000206:	e7ff      	b.n	8000208 <__udivsi3+0x100>
 8000208:	b501      	push	{r0, lr}
 800020a:	2000      	movs	r0, #0
 800020c:	f000 f806 	bl	800021c <__aeabi_idiv0>
 8000210:	bd02      	pop	{r1, pc}
 8000212:	46c0      	nop			; (mov r8, r8)

08000214 <__aeabi_uidivmod>:
 8000214:	2900      	cmp	r1, #0
 8000216:	d0f7      	beq.n	8000208 <__udivsi3+0x100>
 8000218:	e776      	b.n	8000108 <__udivsi3>
 800021a:	4770      	bx	lr

0800021c <__aeabi_idiv0>:
 800021c:	4770      	bx	lr
 800021e:	46c0      	nop			; (mov r8, r8)

08000220 <MX_ADC_Init>:
ADC_HandleTypeDef hadc;
DMA_HandleTypeDef hdma_adc;

/* ADC init function */
void MX_ADC_Init(void)
{
 8000220:	b580      	push	{r7, lr}
 8000222:	b082      	sub	sp, #8
 8000224:	af00      	add	r7, sp, #0
  ADC_ChannelConfTypeDef sConfig = {0};
 8000226:	003b      	movs	r3, r7
 8000228:	0018      	movs	r0, r3
 800022a:	2308      	movs	r3, #8
 800022c:	001a      	movs	r2, r3
 800022e:	2100      	movs	r1, #0
 8000230:	f003 fad6 	bl	80037e0 <memset>

  /** Configure the global features of the ADC (Clock, Resolution, Data Alignment and number of conversion) 
  */
  hadc.Instance = ADC1;
 8000234:	4b2a      	ldr	r3, [pc, #168]	; (80002e0 <MX_ADC_Init+0xc0>)
 8000236:	4a2b      	ldr	r2, [pc, #172]	; (80002e4 <MX_ADC_Init+0xc4>)
 8000238:	601a      	str	r2, [r3, #0]
  hadc.Init.OversamplingMode = DISABLE;
 800023a:	4b29      	ldr	r3, [pc, #164]	; (80002e0 <MX_ADC_Init+0xc0>)
 800023c:	2200      	movs	r2, #0
 800023e:	63da      	str	r2, [r3, #60]	; 0x3c
  hadc.Init.ClockPrescaler = ADC_CLOCK_SYNC_PCLK_DIV2;
 8000240:	4b27      	ldr	r3, [pc, #156]	; (80002e0 <MX_ADC_Init+0xc0>)
 8000242:	2280      	movs	r2, #128	; 0x80
 8000244:	05d2      	lsls	r2, r2, #23
 8000246:	605a      	str	r2, [r3, #4]
  hadc.Init.Resolution = ADC_RESOLUTION_12B;
 8000248:	4b25      	ldr	r3, [pc, #148]	; (80002e0 <MX_ADC_Init+0xc0>)
 800024a:	2200      	movs	r2, #0
 800024c:	609a      	str	r2, [r3, #8]
  hadc.Init.SamplingTime = ADC_SAMPLETIME_1CYCLE_5;
 800024e:	4b24      	ldr	r3, [pc, #144]	; (80002e0 <MX_ADC_Init+0xc0>)
 8000250:	2200      	movs	r2, #0
 8000252:	639a      	str	r2, [r3, #56]	; 0x38
  hadc.Init.ScanConvMode = ADC_SCAN_DIRECTION_FORWARD;
 8000254:	4b22      	ldr	r3, [pc, #136]	; (80002e0 <MX_ADC_Init+0xc0>)
 8000256:	2201      	movs	r2, #1
 8000258:	611a      	str	r2, [r3, #16]
  hadc.Init.DataAlign = ADC_DATAALIGN_RIGHT;
 800025a:	4b21      	ldr	r3, [pc, #132]	; (80002e0 <MX_ADC_Init+0xc0>)
 800025c:	2200      	movs	r2, #0
 800025e:	60da      	str	r2, [r3, #12]
  hadc.Init.ContinuousConvMode = ENABLE;
 8000260:	4b1f      	ldr	r3, [pc, #124]	; (80002e0 <MX_ADC_Init+0xc0>)
 8000262:	2220      	movs	r2, #32
 8000264:	2101      	movs	r1, #1
 8000266:	5499      	strb	r1, [r3, r2]
  hadc.Init.DiscontinuousConvMode = DISABLE;
 8000268:	4b1d      	ldr	r3, [pc, #116]	; (80002e0 <MX_ADC_Init+0xc0>)
 800026a:	2221      	movs	r2, #33	; 0x21
 800026c:	2100      	movs	r1, #0
 800026e:	5499      	strb	r1, [r3, r2]
  hadc.Init.ExternalTrigConvEdge = ADC_EXTERNALTRIGCONVEDGE_NONE;
 8000270:	4b1b      	ldr	r3, [pc, #108]	; (80002e0 <MX_ADC_Init+0xc0>)
 8000272:	2200      	movs	r2, #0
 8000274:	629a      	str	r2, [r3, #40]	; 0x28
  hadc.Init.ExternalTrigConv = ADC_SOFTWARE_START;
 8000276:	4b1a      	ldr	r3, [pc, #104]	; (80002e0 <MX_ADC_Init+0xc0>)
 8000278:	22c2      	movs	r2, #194	; 0xc2
 800027a:	32ff      	adds	r2, #255	; 0xff
 800027c:	625a      	str	r2, [r3, #36]	; 0x24
  hadc.Init.DMAContinuousRequests = ENABLE;
 800027e:	4b18      	ldr	r3, [pc, #96]	; (80002e0 <MX_ADC_Init+0xc0>)
 8000280:	222c      	movs	r2, #44	; 0x2c
 8000282:	2101      	movs	r1, #1
 8000284:	5499      	strb	r1, [r3, r2]
  hadc.Init.EOCSelection = ADC_EOC_SINGLE_CONV;
 8000286:	4b16      	ldr	r3, [pc, #88]	; (80002e0 <MX_ADC_Init+0xc0>)
 8000288:	2204      	movs	r2, #4
 800028a:	615a      	str	r2, [r3, #20]
  hadc.Init.Overrun = ADC_OVR_DATA_OVERWRITTEN;
 800028c:	4b14      	ldr	r3, [pc, #80]	; (80002e0 <MX_ADC_Init+0xc0>)
 800028e:	2280      	movs	r2, #128	; 0x80
 8000290:	0152      	lsls	r2, r2, #5
 8000292:	631a      	str	r2, [r3, #48]	; 0x30
  hadc.Init.LowPowerAutoWait = DISABLE;
 8000294:	4b12      	ldr	r3, [pc, #72]	; (80002e0 <MX_ADC_Init+0xc0>)
 8000296:	2200      	movs	r2, #0
 8000298:	619a      	str	r2, [r3, #24]
  hadc.Init.LowPowerFrequencyMode = DISABLE;
 800029a:	4b11      	ldr	r3, [pc, #68]	; (80002e0 <MX_ADC_Init+0xc0>)
 800029c:	2200      	movs	r2, #0
 800029e:	635a      	str	r2, [r3, #52]	; 0x34
  hadc.Init.LowPowerAutoPowerOff = DISABLE;
 80002a0:	4b0f      	ldr	r3, [pc, #60]	; (80002e0 <MX_ADC_Init+0xc0>)
 80002a2:	2200      	movs	r2, #0
 80002a4:	61da      	str	r2, [r3, #28]
  if (HAL_ADC_Init(&hadc) != HAL_OK)
 80002a6:	4b0e      	ldr	r3, [pc, #56]	; (80002e0 <MX_ADC_Init+0xc0>)
 80002a8:	0018      	movs	r0, r3
 80002aa:	f000 fd21 	bl	8000cf0 <HAL_ADC_Init>
 80002ae:	1e03      	subs	r3, r0, #0
 80002b0:	d001      	beq.n	80002b6 <MX_ADC_Init+0x96>
  {
    Error_Handler();
 80002b2:	f000 fa2b 	bl	800070c <Error_Handler>
  }
  /** Configure for the selected ADC regular channel to be converted. 
  */
  sConfig.Channel = ADC_CHANNEL_7;
 80002b6:	003b      	movs	r3, r7
 80002b8:	4a0b      	ldr	r2, [pc, #44]	; (80002e8 <MX_ADC_Init+0xc8>)
 80002ba:	601a      	str	r2, [r3, #0]
  sConfig.Rank = ADC_RANK_CHANNEL_NUMBER;
 80002bc:	003b      	movs	r3, r7
 80002be:	2280      	movs	r2, #128	; 0x80
 80002c0:	0152      	lsls	r2, r2, #5
 80002c2:	605a      	str	r2, [r3, #4]
  if (HAL_ADC_ConfigChannel(&hadc, &sConfig) != HAL_OK)
 80002c4:	003a      	movs	r2, r7
 80002c6:	4b06      	ldr	r3, [pc, #24]	; (80002e0 <MX_ADC_Init+0xc0>)
 80002c8:	0011      	movs	r1, r2
 80002ca:	0018      	movs	r0, r3
 80002cc:	f000 ff1e 	bl	800110c <HAL_ADC_ConfigChannel>
 80002d0:	1e03      	subs	r3, r0, #0
 80002d2:	d001      	beq.n	80002d8 <MX_ADC_Init+0xb8>
  {
    Error_Handler();
 80002d4:	f000 fa1a 	bl	800070c <Error_Handler>
  }

}
 80002d8:	46c0      	nop			; (mov r8, r8)
 80002da:	46bd      	mov	sp, r7
 80002dc:	b002      	add	sp, #8
 80002de:	bd80      	pop	{r7, pc}
 80002e0:	20000070 	.word	0x20000070
 80002e4:	40012400 	.word	0x40012400
 80002e8:	1c000080 	.word	0x1c000080

080002ec <HAL_ADC_MspInit>:

void HAL_ADC_MspInit(ADC_HandleTypeDef* adcHandle)
{
 80002ec:	b580      	push	{r7, lr}
 80002ee:	b088      	sub	sp, #32
 80002f0:	af00      	add	r7, sp, #0
 80002f2:	6078      	str	r0, [r7, #4]

  GPIO_InitTypeDef GPIO_InitStruct = {0};
 80002f4:	230c      	movs	r3, #12
 80002f6:	18fb      	adds	r3, r7, r3
 80002f8:	0018      	movs	r0, r3
 80002fa:	2314      	movs	r3, #20
 80002fc:	001a      	movs	r2, r3
 80002fe:	2100      	movs	r1, #0
 8000300:	f003 fa6e 	bl	80037e0 <memset>
  if(adcHandle->Instance==ADC1)
 8000304:	687b      	ldr	r3, [r7, #4]
 8000306:	681b      	ldr	r3, [r3, #0]
 8000308:	4a29      	ldr	r2, [pc, #164]	; (80003b0 <HAL_ADC_MspInit+0xc4>)
 800030a:	4293      	cmp	r3, r2
 800030c:	d14c      	bne.n	80003a8 <HAL_ADC_MspInit+0xbc>
  {
  /* USER CODE BEGIN ADC1_MspInit 0 */

  /* USER CODE END ADC1_MspInit 0 */
    /* ADC1 clock enable */
    __HAL_RCC_ADC1_CLK_ENABLE();
 800030e:	4b29      	ldr	r3, [pc, #164]	; (80003b4 <HAL_ADC_MspInit+0xc8>)
 8000310:	6b5a      	ldr	r2, [r3, #52]	; 0x34
 8000312:	4b28      	ldr	r3, [pc, #160]	; (80003b4 <HAL_ADC_MspInit+0xc8>)
 8000314:	2180      	movs	r1, #128	; 0x80
 8000316:	0089      	lsls	r1, r1, #2
 8000318:	430a      	orrs	r2, r1
 800031a:	635a      	str	r2, [r3, #52]	; 0x34
  
    __HAL_RCC_GPIOA_CLK_ENABLE();
 800031c:	4b25      	ldr	r3, [pc, #148]	; (80003b4 <HAL_ADC_MspInit+0xc8>)
 800031e:	6ada      	ldr	r2, [r3, #44]	; 0x2c
 8000320:	4b24      	ldr	r3, [pc, #144]	; (80003b4 <HAL_ADC_MspInit+0xc8>)
 8000322:	2101      	movs	r1, #1
 8000324:	430a      	orrs	r2, r1
 8000326:	62da      	str	r2, [r3, #44]	; 0x2c
 8000328:	4b22      	ldr	r3, [pc, #136]	; (80003b4 <HAL_ADC_MspInit+0xc8>)
 800032a:	6adb      	ldr	r3, [r3, #44]	; 0x2c
 800032c:	2201      	movs	r2, #1
 800032e:	4013      	ands	r3, r2
 8000330:	60bb      	str	r3, [r7, #8]
 8000332:	68bb      	ldr	r3, [r7, #8]
    /**ADC GPIO Configuration    
    PA7     ------> ADC_IN7 
    */
    GPIO_InitStruct.Pin = GPIO_PIN_7;
 8000334:	210c      	movs	r1, #12
 8000336:	187b      	adds	r3, r7, r1
 8000338:	2280      	movs	r2, #128	; 0x80
 800033a:	601a      	str	r2, [r3, #0]
    GPIO_InitStruct.Mode = GPIO_MODE_ANALOG;
 800033c:	187b      	adds	r3, r7, r1
 800033e:	2203      	movs	r2, #3
 8000340:	605a      	str	r2, [r3, #4]
    GPIO_InitStruct.Pull = GPIO_NOPULL;
 8000342:	187b      	adds	r3, r7, r1
 8000344:	2200      	movs	r2, #0
 8000346:	609a      	str	r2, [r3, #8]
    HAL_GPIO_Init(GPIOA, &GPIO_InitStruct);
 8000348:	187a      	adds	r2, r7, r1
 800034a:	23a0      	movs	r3, #160	; 0xa0
 800034c:	05db      	lsls	r3, r3, #23
 800034e:	0011      	movs	r1, r2
 8000350:	0018      	movs	r0, r3
 8000352:	f001 faf7 	bl	8001944 <HAL_GPIO_Init>

    /* ADC1 DMA Init */
    /* ADC Init */
    hdma_adc.Instance = DMA1_Channel1;
 8000356:	4b18      	ldr	r3, [pc, #96]	; (80003b8 <HAL_ADC_MspInit+0xcc>)
 8000358:	4a18      	ldr	r2, [pc, #96]	; (80003bc <HAL_ADC_MspInit+0xd0>)
 800035a:	601a      	str	r2, [r3, #0]
    hdma_adc.Init.Request = DMA_REQUEST_0;
 800035c:	4b16      	ldr	r3, [pc, #88]	; (80003b8 <HAL_ADC_MspInit+0xcc>)
 800035e:	2200      	movs	r2, #0
 8000360:	605a      	str	r2, [r3, #4]
    hdma_adc.Init.Direction = DMA_PERIPH_TO_MEMORY;
 8000362:	4b15      	ldr	r3, [pc, #84]	; (80003b8 <HAL_ADC_MspInit+0xcc>)
 8000364:	2200      	movs	r2, #0
 8000366:	609a      	str	r2, [r3, #8]
    hdma_adc.Init.PeriphInc = DMA_PINC_DISABLE;
 8000368:	4b13      	ldr	r3, [pc, #76]	; (80003b8 <HAL_ADC_MspInit+0xcc>)
 800036a:	2200      	movs	r2, #0
 800036c:	60da      	str	r2, [r3, #12]
    hdma_adc.Init.MemInc = DMA_MINC_ENABLE;
 800036e:	4b12      	ldr	r3, [pc, #72]	; (80003b8 <HAL_ADC_MspInit+0xcc>)
 8000370:	2280      	movs	r2, #128	; 0x80
 8000372:	611a      	str	r2, [r3, #16]
    hdma_adc.Init.PeriphDataAlignment = DMA_PDATAALIGN_BYTE;
 8000374:	4b10      	ldr	r3, [pc, #64]	; (80003b8 <HAL_ADC_MspInit+0xcc>)
 8000376:	2200      	movs	r2, #0
 8000378:	615a      	str	r2, [r3, #20]
    hdma_adc.Init.MemDataAlignment = DMA_MDATAALIGN_BYTE;
 800037a:	4b0f      	ldr	r3, [pc, #60]	; (80003b8 <HAL_ADC_MspInit+0xcc>)
 800037c:	2200      	movs	r2, #0
 800037e:	619a      	str	r2, [r3, #24]
    hdma_adc.Init.Mode = DMA_CIRCULAR;
 8000380:	4b0d      	ldr	r3, [pc, #52]	; (80003b8 <HAL_ADC_MspInit+0xcc>)
 8000382:	2220      	movs	r2, #32
 8000384:	61da      	str	r2, [r3, #28]
    hdma_adc.Init.Priority = DMA_PRIORITY_LOW;
 8000386:	4b0c      	ldr	r3, [pc, #48]	; (80003b8 <HAL_ADC_MspInit+0xcc>)
 8000388:	2200      	movs	r2, #0
 800038a:	621a      	str	r2, [r3, #32]
    if (HAL_DMA_Init(&hdma_adc) != HAL_OK)
 800038c:	4b0a      	ldr	r3, [pc, #40]	; (80003b8 <HAL_ADC_MspInit+0xcc>)
 800038e:	0018      	movs	r0, r3
 8000390:	f001 f91e 	bl	80015d0 <HAL_DMA_Init>
 8000394:	1e03      	subs	r3, r0, #0
 8000396:	d001      	beq.n	800039c <HAL_ADC_MspInit+0xb0>
    {
      Error_Handler();
 8000398:	f000 f9b8 	bl	800070c <Error_Handler>
    }

    __HAL_LINKDMA(adcHandle,DMA_Handle,hdma_adc);
 800039c:	687b      	ldr	r3, [r7, #4]
 800039e:	4a06      	ldr	r2, [pc, #24]	; (80003b8 <HAL_ADC_MspInit+0xcc>)
 80003a0:	64da      	str	r2, [r3, #76]	; 0x4c
 80003a2:	4b05      	ldr	r3, [pc, #20]	; (80003b8 <HAL_ADC_MspInit+0xcc>)
 80003a4:	687a      	ldr	r2, [r7, #4]
 80003a6:	629a      	str	r2, [r3, #40]	; 0x28

  /* USER CODE BEGIN ADC1_MspInit 1 */

  /* USER CODE END ADC1_MspInit 1 */
  }
}
 80003a8:	46c0      	nop			; (mov r8, r8)
 80003aa:	46bd      	mov	sp, r7
 80003ac:	b008      	add	sp, #32
 80003ae:	bd80      	pop	{r7, pc}
 80003b0:	40012400 	.word	0x40012400
 80003b4:	40021000 	.word	0x40021000
 80003b8:	20000028 	.word	0x20000028
 80003bc:	40020008 	.word	0x40020008

080003c0 <MX_DMA_Init>:

/** 
  * Enable DMA controller clock
  */
void MX_DMA_Init(void) 
{
 80003c0:	b580      	push	{r7, lr}
 80003c2:	b082      	sub	sp, #8
 80003c4:	af00      	add	r7, sp, #0

  /* DMA controller clock enable */
  __HAL_RCC_DMA1_CLK_ENABLE();
 80003c6:	4b0c      	ldr	r3, [pc, #48]	; (80003f8 <MX_DMA_Init+0x38>)
 80003c8:	6b1a      	ldr	r2, [r3, #48]	; 0x30
 80003ca:	4b0b      	ldr	r3, [pc, #44]	; (80003f8 <MX_DMA_Init+0x38>)
 80003cc:	2101      	movs	r1, #1
 80003ce:	430a      	orrs	r2, r1
 80003d0:	631a      	str	r2, [r3, #48]	; 0x30
 80003d2:	4b09      	ldr	r3, [pc, #36]	; (80003f8 <MX_DMA_Init+0x38>)
 80003d4:	6b1b      	ldr	r3, [r3, #48]	; 0x30
 80003d6:	2201      	movs	r2, #1
 80003d8:	4013      	ands	r3, r2
 80003da:	607b      	str	r3, [r7, #4]
 80003dc:	687b      	ldr	r3, [r7, #4]

  /* DMA interrupt init */
  /* DMA1_Channel1_IRQn interrupt configuration */
  HAL_NVIC_SetPriority(DMA1_Channel1_IRQn, 1, 0);
 80003de:	2200      	movs	r2, #0
 80003e0:	2101      	movs	r1, #1
 80003e2:	2009      	movs	r0, #9
 80003e4:	f001 f8c2 	bl	800156c <HAL_NVIC_SetPriority>
  HAL_NVIC_EnableIRQ(DMA1_Channel1_IRQn);
 80003e8:	2009      	movs	r0, #9
 80003ea:	f001 f8d4 	bl	8001596 <HAL_NVIC_EnableIRQ>

}
 80003ee:	46c0      	nop			; (mov r8, r8)
 80003f0:	46bd      	mov	sp, r7
 80003f2:	b002      	add	sp, #8
 80003f4:	bd80      	pop	{r7, pc}
 80003f6:	46c0      	nop			; (mov r8, r8)
 80003f8:	40021000 	.word	0x40021000

080003fc <MX_GPIO_Init>:
        * Output
        * EVENT_OUT
        * EXTI
*/
void MX_GPIO_Init(void)
{
 80003fc:	b590      	push	{r4, r7, lr}
 80003fe:	b089      	sub	sp, #36	; 0x24
 8000400:	af00      	add	r7, sp, #0

  GPIO_InitTypeDef GPIO_InitStruct = {0};
 8000402:	240c      	movs	r4, #12
 8000404:	193b      	adds	r3, r7, r4
 8000406:	0018      	movs	r0, r3
 8000408:	2314      	movs	r3, #20
 800040a:	001a      	movs	r2, r3
 800040c:	2100      	movs	r1, #0
 800040e:	f003 f9e7 	bl	80037e0 <memset>

  /* GPIO Ports Clock Enable */
  __HAL_RCC_GPIOC_CLK_ENABLE();
 8000412:	4b28      	ldr	r3, [pc, #160]	; (80004b4 <MX_GPIO_Init+0xb8>)
 8000414:	6ada      	ldr	r2, [r3, #44]	; 0x2c
 8000416:	4b27      	ldr	r3, [pc, #156]	; (80004b4 <MX_GPIO_Init+0xb8>)
 8000418:	2104      	movs	r1, #4
 800041a:	430a      	orrs	r2, r1
 800041c:	62da      	str	r2, [r3, #44]	; 0x2c
 800041e:	4b25      	ldr	r3, [pc, #148]	; (80004b4 <MX_GPIO_Init+0xb8>)
 8000420:	6adb      	ldr	r3, [r3, #44]	; 0x2c
 8000422:	2204      	movs	r2, #4
 8000424:	4013      	ands	r3, r2
 8000426:	60bb      	str	r3, [r7, #8]
 8000428:	68bb      	ldr	r3, [r7, #8]
  __HAL_RCC_GPIOA_CLK_ENABLE();
 800042a:	4b22      	ldr	r3, [pc, #136]	; (80004b4 <MX_GPIO_Init+0xb8>)
 800042c:	6ada      	ldr	r2, [r3, #44]	; 0x2c
 800042e:	4b21      	ldr	r3, [pc, #132]	; (80004b4 <MX_GPIO_Init+0xb8>)
 8000430:	2101      	movs	r1, #1
 8000432:	430a      	orrs	r2, r1
 8000434:	62da      	str	r2, [r3, #44]	; 0x2c
 8000436:	4b1f      	ldr	r3, [pc, #124]	; (80004b4 <MX_GPIO_Init+0xb8>)
 8000438:	6adb      	ldr	r3, [r3, #44]	; 0x2c
 800043a:	2201      	movs	r2, #1
 800043c:	4013      	ands	r3, r2
 800043e:	607b      	str	r3, [r7, #4]
 8000440:	687b      	ldr	r3, [r7, #4]

  /*Configure GPIO pin Output Level */
  HAL_GPIO_WritePin(GPIOC, CLEAN_ENABLE_Pin|FX_ENABLE_Pin, GPIO_PIN_RESET);
 8000442:	23c0      	movs	r3, #192	; 0xc0
 8000444:	021b      	lsls	r3, r3, #8
 8000446:	481c      	ldr	r0, [pc, #112]	; (80004b8 <MX_GPIO_Init+0xbc>)
 8000448:	2200      	movs	r2, #0
 800044a:	0019      	movs	r1, r3
 800044c:	f001 fbe0 	bl	8001c10 <HAL_GPIO_WritePin>

  /*Configure GPIO pins : PCPin PCPin */
  GPIO_InitStruct.Pin = CLEAN_ENABLE_Pin|FX_ENABLE_Pin;
 8000450:	193b      	adds	r3, r7, r4
 8000452:	22c0      	movs	r2, #192	; 0xc0
 8000454:	0212      	lsls	r2, r2, #8
 8000456:	601a      	str	r2, [r3, #0]
  GPIO_InitStruct.Mode = GPIO_MODE_OUTPUT_PP;
 8000458:	193b      	adds	r3, r7, r4
 800045a:	2201      	movs	r2, #1
 800045c:	605a      	str	r2, [r3, #4]
  GPIO_InitStruct.Pull = GPIO_PULLUP;
 800045e:	193b      	adds	r3, r7, r4
 8000460:	2201      	movs	r2, #1
 8000462:	609a      	str	r2, [r3, #8]
  GPIO_InitStruct.Speed = GPIO_SPEED_FREQ_LOW;
 8000464:	0021      	movs	r1, r4
 8000466:	193b      	adds	r3, r7, r4
 8000468:	2200      	movs	r2, #0
 800046a:	60da      	str	r2, [r3, #12]
  HAL_GPIO_Init(GPIOC, &GPIO_InitStruct);
 800046c:	000c      	movs	r4, r1
 800046e:	187b      	adds	r3, r7, r1
 8000470:	4a11      	ldr	r2, [pc, #68]	; (80004b8 <MX_GPIO_Init+0xbc>)
 8000472:	0019      	movs	r1, r3
 8000474:	0010      	movs	r0, r2
 8000476:	f001 fa65 	bl	8001944 <HAL_GPIO_Init>

  /*Configure GPIO pin : PtPin */
  GPIO_InitStruct.Pin = FOOTSW_EXTI4_Pin;
 800047a:	0021      	movs	r1, r4
 800047c:	187b      	adds	r3, r7, r1
 800047e:	2210      	movs	r2, #16
 8000480:	601a      	str	r2, [r3, #0]
  GPIO_InitStruct.Mode = GPIO_MODE_IT_FALLING;
 8000482:	187b      	adds	r3, r7, r1
 8000484:	4a0d      	ldr	r2, [pc, #52]	; (80004bc <MX_GPIO_Init+0xc0>)
 8000486:	605a      	str	r2, [r3, #4]
  GPIO_InitStruct.Pull = GPIO_PULLUP;
 8000488:	187b      	adds	r3, r7, r1
 800048a:	2201      	movs	r2, #1
 800048c:	609a      	str	r2, [r3, #8]
  HAL_GPIO_Init(FOOTSW_EXTI4_GPIO_Port, &GPIO_InitStruct);
 800048e:	187a      	adds	r2, r7, r1
 8000490:	23a0      	movs	r3, #160	; 0xa0
 8000492:	05db      	lsls	r3, r3, #23
 8000494:	0011      	movs	r1, r2
 8000496:	0018      	movs	r0, r3
 8000498:	f001 fa54 	bl	8001944 <HAL_GPIO_Init>

  /* EXTI interrupt init*/
  HAL_NVIC_SetPriority(EXTI4_15_IRQn, 0, 0);
 800049c:	2200      	movs	r2, #0
 800049e:	2100      	movs	r1, #0
 80004a0:	2007      	movs	r0, #7
 80004a2:	f001 f863 	bl	800156c <HAL_NVIC_SetPriority>
  HAL_NVIC_EnableIRQ(EXTI4_15_IRQn);
 80004a6:	2007      	movs	r0, #7
 80004a8:	f001 f875 	bl	8001596 <HAL_NVIC_EnableIRQ>

}
 80004ac:	46c0      	nop			; (mov r8, r8)
 80004ae:	46bd      	mov	sp, r7
 80004b0:	b009      	add	sp, #36	; 0x24
 80004b2:	bd90      	pop	{r4, r7, pc}
 80004b4:	40021000 	.word	0x40021000
 80004b8:	50000800 	.word	0x50000800
 80004bc:	10210000 	.word	0x10210000

080004c0 <MX_LPTIM1_Init>:

LPTIM_HandleTypeDef hlptim1;

/* LPTIM1 init function */
void MX_LPTIM1_Init(void)
{
 80004c0:	b580      	push	{r7, lr}
 80004c2:	af00      	add	r7, sp, #0

  hlptim1.Instance = LPTIM1;
 80004c4:	4b0f      	ldr	r3, [pc, #60]	; (8000504 <MX_LPTIM1_Init+0x44>)
 80004c6:	4a10      	ldr	r2, [pc, #64]	; (8000508 <MX_LPTIM1_Init+0x48>)
 80004c8:	601a      	str	r2, [r3, #0]
  hlptim1.Init.Clock.Source = LPTIM_CLOCKSOURCE_APBCLOCK_LPOSC;
 80004ca:	4b0e      	ldr	r3, [pc, #56]	; (8000504 <MX_LPTIM1_Init+0x44>)
 80004cc:	2200      	movs	r2, #0
 80004ce:	605a      	str	r2, [r3, #4]
  hlptim1.Init.Clock.Prescaler = LPTIM_PRESCALER_DIV1;
 80004d0:	4b0c      	ldr	r3, [pc, #48]	; (8000504 <MX_LPTIM1_Init+0x44>)
 80004d2:	2200      	movs	r2, #0
 80004d4:	609a      	str	r2, [r3, #8]
  hlptim1.Init.Trigger.Source = LPTIM_TRIGSOURCE_SOFTWARE;
 80004d6:	4b0b      	ldr	r3, [pc, #44]	; (8000504 <MX_LPTIM1_Init+0x44>)
 80004d8:	4a0c      	ldr	r2, [pc, #48]	; (800050c <MX_LPTIM1_Init+0x4c>)
 80004da:	615a      	str	r2, [r3, #20]
  hlptim1.Init.OutputPolarity = LPTIM_OUTPUTPOLARITY_HIGH;
 80004dc:	4b09      	ldr	r3, [pc, #36]	; (8000504 <MX_LPTIM1_Init+0x44>)
 80004de:	2200      	movs	r2, #0
 80004e0:	621a      	str	r2, [r3, #32]
  hlptim1.Init.UpdateMode = LPTIM_UPDATE_IMMEDIATE;
 80004e2:	4b08      	ldr	r3, [pc, #32]	; (8000504 <MX_LPTIM1_Init+0x44>)
 80004e4:	2200      	movs	r2, #0
 80004e6:	625a      	str	r2, [r3, #36]	; 0x24
  hlptim1.Init.CounterSource = LPTIM_COUNTERSOURCE_INTERNAL;
 80004e8:	4b06      	ldr	r3, [pc, #24]	; (8000504 <MX_LPTIM1_Init+0x44>)
 80004ea:	2200      	movs	r2, #0
 80004ec:	629a      	str	r2, [r3, #40]	; 0x28
  if (HAL_LPTIM_Init(&hlptim1) != HAL_OK)
 80004ee:	4b05      	ldr	r3, [pc, #20]	; (8000504 <MX_LPTIM1_Init+0x44>)
 80004f0:	0018      	movs	r0, r3
 80004f2:	f001 fbe3 	bl	8001cbc <HAL_LPTIM_Init>
 80004f6:	1e03      	subs	r3, r0, #0
 80004f8:	d001      	beq.n	80004fe <MX_LPTIM1_Init+0x3e>
  {
    Error_Handler();
 80004fa:	f000 f907 	bl	800070c <Error_Handler>
  }

}
 80004fe:	46c0      	nop			; (mov r8, r8)
 8000500:	46bd      	mov	sp, r7
 8000502:	bd80      	pop	{r7, pc}
 8000504:	200000cc 	.word	0x200000cc
 8000508:	40007c00 	.word	0x40007c00
 800050c:	0000ffff 	.word	0x0000ffff

08000510 <HAL_LPTIM_MspInit>:

void HAL_LPTIM_MspInit(LPTIM_HandleTypeDef* lptimHandle)
{
 8000510:	b580      	push	{r7, lr}
 8000512:	b082      	sub	sp, #8
 8000514:	af00      	add	r7, sp, #0
 8000516:	6078      	str	r0, [r7, #4]

  if(lptimHandle->Instance==LPTIM1)
 8000518:	687b      	ldr	r3, [r7, #4]
 800051a:	681b      	ldr	r3, [r3, #0]
 800051c:	4a0a      	ldr	r2, [pc, #40]	; (8000548 <HAL_LPTIM_MspInit+0x38>)
 800051e:	4293      	cmp	r3, r2
 8000520:	d10e      	bne.n	8000540 <HAL_LPTIM_MspInit+0x30>
  {
  /* USER CODE BEGIN LPTIM1_MspInit 0 */

  /* USER CODE END LPTIM1_MspInit 0 */
    /* LPTIM1 clock enable */
    __HAL_RCC_LPTIM1_CLK_ENABLE();
 8000522:	4b0a      	ldr	r3, [pc, #40]	; (800054c <HAL_LPTIM_MspInit+0x3c>)
 8000524:	6b9a      	ldr	r2, [r3, #56]	; 0x38
 8000526:	4b09      	ldr	r3, [pc, #36]	; (800054c <HAL_LPTIM_MspInit+0x3c>)
 8000528:	2180      	movs	r1, #128	; 0x80
 800052a:	0609      	lsls	r1, r1, #24
 800052c:	430a      	orrs	r2, r1
 800052e:	639a      	str	r2, [r3, #56]	; 0x38

    /* LPTIM1 interrupt Init */
    HAL_NVIC_SetPriority(LPTIM1_IRQn, 0, 0);
 8000530:	2200      	movs	r2, #0
 8000532:	2100      	movs	r1, #0
 8000534:	200d      	movs	r0, #13
 8000536:	f001 f819 	bl	800156c <HAL_NVIC_SetPriority>
    HAL_NVIC_EnableIRQ(LPTIM1_IRQn);
 800053a:	200d      	movs	r0, #13
 800053c:	f001 f82b 	bl	8001596 <HAL_NVIC_EnableIRQ>
  /* USER CODE BEGIN LPTIM1_MspInit 1 */

  /* USER CODE END LPTIM1_MspInit 1 */
  }
}
 8000540:	46c0      	nop			; (mov r8, r8)
 8000542:	46bd      	mov	sp, r7
 8000544:	b002      	add	sp, #8
 8000546:	bd80      	pop	{r7, pc}
 8000548:	40007c00 	.word	0x40007c00
 800054c:	40021000 	.word	0x40021000

08000550 <main>:
/**
  * @brief  The application entry point.
  * @retval int
  */
int main(void)
{
 8000550:	b580      	push	{r7, lr}
 8000552:	af00      	add	r7, sp, #0
  /* USER CODE END 1 */

  /* MCU Configuration--------------------------------------------------------*/

  /* Reset of all peripherals, Initializes the Flash interface and the Systick. */
  HAL_Init();
 8000554:	f000 fb6c 	bl	8000c30 <HAL_Init>
  /* USER CODE BEGIN Init */

  /* USER CODE END Init */

  /* Configure the system clock */
  SystemClock_Config();
 8000558:	f000 f866 	bl	8000628 <SystemClock_Config>
  /* USER CODE BEGIN SysInit */

  /* USER CODE END SysInit */

  /* Initialize all configured peripherals */
  MX_GPIO_Init();
 800055c:	f7ff ff4e 	bl	80003fc <MX_GPIO_Init>
  MX_DMA_Init();
 8000560:	f7ff ff2e 	bl	80003c0 <MX_DMA_Init>
  MX_TIM2_Init();
 8000564:	f000 f9d0 	bl	8000908 <MX_TIM2_Init>
  MX_TIM21_Init();
 8000568:	f000 fa40 	bl	80009ec <MX_TIM21_Init>
  MX_ADC_Init();
 800056c:	f7ff fe58 	bl	8000220 <MX_ADC_Init>
  MX_LPTIM1_Init();
 8000570:	f7ff ffa6 	bl	80004c0 <MX_LPTIM1_Init>
  /* USER CODE BEGIN 2 */

  // start PWM outputs
  HAL_TIM_PWM_Start(&htim2, TIM_CHANNEL_1);
 8000574:	4b24      	ldr	r3, [pc, #144]	; (8000608 <main+0xb8>)
 8000576:	2100      	movs	r1, #0
 8000578:	0018      	movs	r0, r3
 800057a:	f002 fc17 	bl	8002dac <HAL_TIM_PWM_Start>
  HAL_TIM_PWM_Start(&htim2, TIM_CHANNEL_2);
 800057e:	4b22      	ldr	r3, [pc, #136]	; (8000608 <main+0xb8>)
 8000580:	2104      	movs	r1, #4
 8000582:	0018      	movs	r0, r3
 8000584:	f002 fc12 	bl	8002dac <HAL_TIM_PWM_Start>
  HAL_TIM_PWM_Start(&htim2, TIM_CHANNEL_3);
 8000588:	4b1f      	ldr	r3, [pc, #124]	; (8000608 <main+0xb8>)
 800058a:	2108      	movs	r1, #8
 800058c:	0018      	movs	r0, r3
 800058e:	f002 fc0d 	bl	8002dac <HAL_TIM_PWM_Start>

  // init PWM to 50% duty
  TIM2->ARR = 8191;
 8000592:	2380      	movs	r3, #128	; 0x80
 8000594:	05db      	lsls	r3, r3, #23
 8000596:	4a1d      	ldr	r2, [pc, #116]	; (800060c <main+0xbc>)
 8000598:	62da      	str	r2, [r3, #44]	; 0x2c
  TIM2->CCR1 = 0;
 800059a:	2380      	movs	r3, #128	; 0x80
 800059c:	05db      	lsls	r3, r3, #23
 800059e:	2200      	movs	r2, #0
 80005a0:	635a      	str	r2, [r3, #52]	; 0x34
  TIM2->CCR2 = 0;
 80005a2:	2380      	movs	r3, #128	; 0x80
 80005a4:	05db      	lsls	r3, r3, #23
 80005a6:	2200      	movs	r2, #0
 80005a8:	639a      	str	r2, [r3, #56]	; 0x38
  TIM2->CCR3 = 0;
 80005aa:	2380      	movs	r3, #128	; 0x80
 80005ac:	05db      	lsls	r3, r3, #23
 80005ae:	2200      	movs	r2, #0
 80005b0:	63da      	str	r2, [r3, #60]	; 0x3c

  // debounce timer
  HAL_TIM_Base_Start_IT(&htim21);
 80005b2:	4b17      	ldr	r3, [pc, #92]	; (8000610 <main+0xc0>)
 80005b4:	0018      	movs	r0, r3
 80005b6:	f002 fbab 	bl	8002d10 <HAL_TIM_Base_Start_IT>

  HAL_LPTIM_Counter_Start_IT(&hlptim1, LED_PERIOD_LIMIT);
 80005ba:	2380      	movs	r3, #128	; 0x80
 80005bc:	005a      	lsls	r2, r3, #1
 80005be:	4b15      	ldr	r3, [pc, #84]	; (8000614 <main+0xc4>)
 80005c0:	0011      	movs	r1, r2
 80005c2:	0018      	movs	r0, r3
 80005c4:	f001 fbfa 	bl	8001dbc <HAL_LPTIM_Counter_Start_IT>
  LPTIM1->CFGR |= LPTIM_CFGR_PRESC_0 | LPTIM_CFGR_PRESC_1 | LPTIM_CFGR_PRESC_2;
 80005c8:	4b13      	ldr	r3, [pc, #76]	; (8000618 <main+0xc8>)
 80005ca:	68da      	ldr	r2, [r3, #12]
 80005cc:	4b12      	ldr	r3, [pc, #72]	; (8000618 <main+0xc8>)
 80005ce:	21e0      	movs	r1, #224	; 0xe0
 80005d0:	0109      	lsls	r1, r1, #4
 80005d2:	430a      	orrs	r2, r1
 80005d4:	60da      	str	r2, [r3, #12]
  LPTIM1->ARR = 1536;
 80005d6:	4b10      	ldr	r3, [pc, #64]	; (8000618 <main+0xc8>)
 80005d8:	22c0      	movs	r2, #192	; 0xc0
 80005da:	00d2      	lsls	r2, r2, #3
 80005dc:	619a      	str	r2, [r3, #24]

  // init bypass switch (clean signal default)
  HAL_GPIO_WritePin(CLEAN_ENABLE_GPIO_Port, CLEAN_ENABLE_Pin, 1);
 80005de:	2380      	movs	r3, #128	; 0x80
 80005e0:	01db      	lsls	r3, r3, #7
 80005e2:	480e      	ldr	r0, [pc, #56]	; (800061c <main+0xcc>)
 80005e4:	2201      	movs	r2, #1
 80005e6:	0019      	movs	r1, r3
 80005e8:	f001 fb12 	bl	8001c10 <HAL_GPIO_WritePin>
  HAL_GPIO_WritePin(FX_ENABLE_GPIO_Port, FX_ENABLE_Pin, 0);
 80005ec:	2380      	movs	r3, #128	; 0x80
 80005ee:	021b      	lsls	r3, r3, #8
 80005f0:	480a      	ldr	r0, [pc, #40]	; (800061c <main+0xcc>)
 80005f2:	2200      	movs	r2, #0
 80005f4:	0019      	movs	r1, r3
 80005f6:	f001 fb0b 	bl	8001c10 <HAL_GPIO_WritePin>


  HAL_ADC_Start_DMA(&hadc, adc_data, ADC_DATA_MAX);
 80005fa:	4909      	ldr	r1, [pc, #36]	; (8000620 <main+0xd0>)
 80005fc:	4b09      	ldr	r3, [pc, #36]	; (8000624 <main+0xd4>)
 80005fe:	2201      	movs	r2, #1
 8000600:	0018      	movs	r0, r3
 8000602:	f000 fce9 	bl	8000fd8 <HAL_ADC_Start_DMA>
  /* USER CODE END 2 */

  /* Infinite loop */
  /* USER CODE BEGIN WHILE */
  while (1)
 8000606:	e7fe      	b.n	8000606 <main+0xb6>
 8000608:	20000100 	.word	0x20000100
 800060c:	00001fff 	.word	0x00001fff
 8000610:	2000013c 	.word	0x2000013c
 8000614:	200000cc 	.word	0x200000cc
 8000618:	40007c00 	.word	0x40007c00
 800061c:	50000800 	.word	0x50000800
 8000620:	200000fc 	.word	0x200000fc
 8000624:	20000070 	.word	0x20000070

08000628 <SystemClock_Config>:
/**
  * @brief System Clock Configuration
  * @retval None
  */
void SystemClock_Config(void)
{
 8000628:	b590      	push	{r4, r7, lr}
 800062a:	b099      	sub	sp, #100	; 0x64
 800062c:	af00      	add	r7, sp, #0
  RCC_OscInitTypeDef RCC_OscInitStruct = {0};
 800062e:	242c      	movs	r4, #44	; 0x2c
 8000630:	193b      	adds	r3, r7, r4
 8000632:	0018      	movs	r0, r3
 8000634:	2334      	movs	r3, #52	; 0x34
 8000636:	001a      	movs	r2, r3
 8000638:	2100      	movs	r1, #0
 800063a:	f003 f8d1 	bl	80037e0 <memset>
  RCC_ClkInitTypeDef RCC_ClkInitStruct = {0};
 800063e:	2318      	movs	r3, #24
 8000640:	18fb      	adds	r3, r7, r3
 8000642:	0018      	movs	r0, r3
 8000644:	2314      	movs	r3, #20
 8000646:	001a      	movs	r2, r3
 8000648:	2100      	movs	r1, #0
 800064a:	f003 f8c9 	bl	80037e0 <memset>
  RCC_PeriphCLKInitTypeDef PeriphClkInit = {0};
 800064e:	003b      	movs	r3, r7
 8000650:	0018      	movs	r0, r3
 8000652:	2318      	movs	r3, #24
 8000654:	001a      	movs	r2, r3
 8000656:	2100      	movs	r1, #0
 8000658:	f003 f8c2 	bl	80037e0 <memset>

  /** Configure the main internal regulator output voltage 
  */
  __HAL_PWR_VOLTAGESCALING_CONFIG(PWR_REGULATOR_VOLTAGE_SCALE1);
 800065c:	4b29      	ldr	r3, [pc, #164]	; (8000704 <SystemClock_Config+0xdc>)
 800065e:	681b      	ldr	r3, [r3, #0]
 8000660:	4a29      	ldr	r2, [pc, #164]	; (8000708 <SystemClock_Config+0xe0>)
 8000662:	401a      	ands	r2, r3
 8000664:	4b27      	ldr	r3, [pc, #156]	; (8000704 <SystemClock_Config+0xdc>)
 8000666:	2180      	movs	r1, #128	; 0x80
 8000668:	0109      	lsls	r1, r1, #4
 800066a:	430a      	orrs	r2, r1
 800066c:	601a      	str	r2, [r3, #0]
  /** Initializes the CPU, AHB and APB busses clocks 
  */
  RCC_OscInitStruct.OscillatorType = RCC_OSCILLATORTYPE_HSI;
 800066e:	0021      	movs	r1, r4
 8000670:	187b      	adds	r3, r7, r1
 8000672:	2202      	movs	r2, #2
 8000674:	601a      	str	r2, [r3, #0]
  RCC_OscInitStruct.HSIState = RCC_HSI_ON;
 8000676:	187b      	adds	r3, r7, r1
 8000678:	2201      	movs	r2, #1
 800067a:	60da      	str	r2, [r3, #12]
  RCC_OscInitStruct.HSICalibrationValue = RCC_HSICALIBRATION_DEFAULT;
 800067c:	187b      	adds	r3, r7, r1
 800067e:	2210      	movs	r2, #16
 8000680:	611a      	str	r2, [r3, #16]
  RCC_OscInitStruct.PLL.PLLState = RCC_PLL_ON;
 8000682:	187b      	adds	r3, r7, r1
 8000684:	2202      	movs	r2, #2
 8000686:	625a      	str	r2, [r3, #36]	; 0x24
  RCC_OscInitStruct.PLL.PLLSource = RCC_PLLSOURCE_HSI;
 8000688:	187b      	adds	r3, r7, r1
 800068a:	2200      	movs	r2, #0
 800068c:	629a      	str	r2, [r3, #40]	; 0x28
  RCC_OscInitStruct.PLL.PLLMUL = RCC_PLLMUL_4;
 800068e:	187b      	adds	r3, r7, r1
 8000690:	2280      	movs	r2, #128	; 0x80
 8000692:	02d2      	lsls	r2, r2, #11
 8000694:	62da      	str	r2, [r3, #44]	; 0x2c
  RCC_OscInitStruct.PLL.PLLDIV = RCC_PLLDIV_2;
 8000696:	187b      	adds	r3, r7, r1
 8000698:	2280      	movs	r2, #128	; 0x80
 800069a:	03d2      	lsls	r2, r2, #15
 800069c:	631a      	str	r2, [r3, #48]	; 0x30
  if (HAL_RCC_OscConfig(&RCC_OscInitStruct) != HAL_OK)
 800069e:	187b      	adds	r3, r7, r1
 80006a0:	0018      	movs	r0, r3
 80006a2:	f001 fcb9 	bl	8002018 <HAL_RCC_OscConfig>
 80006a6:	1e03      	subs	r3, r0, #0
 80006a8:	d001      	beq.n	80006ae <SystemClock_Config+0x86>
  {
    Error_Handler();
 80006aa:	f000 f82f 	bl	800070c <Error_Handler>
  }
  /** Initializes the CPU, AHB and APB busses clocks 
  */
  RCC_ClkInitStruct.ClockType = RCC_CLOCKTYPE_HCLK|RCC_CLOCKTYPE_SYSCLK
 80006ae:	2118      	movs	r1, #24
 80006b0:	187b      	adds	r3, r7, r1
 80006b2:	220f      	movs	r2, #15
 80006b4:	601a      	str	r2, [r3, #0]
                              |RCC_CLOCKTYPE_PCLK1|RCC_CLOCKTYPE_PCLK2;
  RCC_ClkInitStruct.SYSCLKSource = RCC_SYSCLKSOURCE_PLLCLK;
 80006b6:	187b      	adds	r3, r7, r1
 80006b8:	2203      	movs	r2, #3
 80006ba:	605a      	str	r2, [r3, #4]
  RCC_ClkInitStruct.AHBCLKDivider = RCC_SYSCLK_DIV1;
 80006bc:	187b      	adds	r3, r7, r1
 80006be:	2200      	movs	r2, #0
 80006c0:	609a      	str	r2, [r3, #8]
  RCC_ClkInitStruct.APB1CLKDivider = RCC_HCLK_DIV1;
 80006c2:	187b      	adds	r3, r7, r1
 80006c4:	2200      	movs	r2, #0
 80006c6:	60da      	str	r2, [r3, #12]
  RCC_ClkInitStruct.APB2CLKDivider = RCC_HCLK_DIV1;
 80006c8:	187b      	adds	r3, r7, r1
 80006ca:	2200      	movs	r2, #0
 80006cc:	611a      	str	r2, [r3, #16]

  if (HAL_RCC_ClockConfig(&RCC_ClkInitStruct, FLASH_LATENCY_1) != HAL_OK)
 80006ce:	187b      	adds	r3, r7, r1
 80006d0:	2101      	movs	r1, #1
 80006d2:	0018      	movs	r0, r3
 80006d4:	f002 f81a 	bl	800270c <HAL_RCC_ClockConfig>
 80006d8:	1e03      	subs	r3, r0, #0
 80006da:	d001      	beq.n	80006e0 <SystemClock_Config+0xb8>
  {
    Error_Handler();
 80006dc:	f000 f816 	bl	800070c <Error_Handler>
  }
  PeriphClkInit.PeriphClockSelection = RCC_PERIPHCLK_LPTIM1;
 80006e0:	003b      	movs	r3, r7
 80006e2:	2280      	movs	r2, #128	; 0x80
 80006e4:	601a      	str	r2, [r3, #0]
  PeriphClkInit.LptimClockSelection = RCC_LPTIM1CLKSOURCE_PCLK;
 80006e6:	003b      	movs	r3, r7
 80006e8:	2200      	movs	r2, #0
 80006ea:	615a      	str	r2, [r3, #20]

  if (HAL_RCCEx_PeriphCLKConfig(&PeriphClkInit) != HAL_OK)
 80006ec:	003b      	movs	r3, r7
 80006ee:	0018      	movs	r0, r3
 80006f0:	f002 f9ba 	bl	8002a68 <HAL_RCCEx_PeriphCLKConfig>
 80006f4:	1e03      	subs	r3, r0, #0
 80006f6:	d001      	beq.n	80006fc <SystemClock_Config+0xd4>
  {
    Error_Handler();
 80006f8:	f000 f808 	bl	800070c <Error_Handler>
  }
}
 80006fc:	46c0      	nop			; (mov r8, r8)
 80006fe:	46bd      	mov	sp, r7
 8000700:	b019      	add	sp, #100	; 0x64
 8000702:	bd90      	pop	{r4, r7, pc}
 8000704:	40007000 	.word	0x40007000
 8000708:	ffffe7ff 	.word	0xffffe7ff

0800070c <Error_Handler>:
/**
  * @brief  This function is executed in case of error occurrence.
  * @retval None
  */
void Error_Handler(void)
{
 800070c:	b580      	push	{r7, lr}
 800070e:	af00      	add	r7, sp, #0
  /* USER CODE BEGIN Error_Handler_Debug */
  /* User can add his own implementation to report the HAL error return state */

  /* USER CODE END Error_Handler_Debug */
}
 8000710:	46c0      	nop			; (mov r8, r8)
 8000712:	46bd      	mov	sp, r7
 8000714:	bd80      	pop	{r7, pc}
	...

08000718 <HAL_MspInit>:
/* USER CODE END 0 */
/**
  * Initializes the Global MSP.
  */
void HAL_MspInit(void)
{
 8000718:	b580      	push	{r7, lr}
 800071a:	af00      	add	r7, sp, #0
  /* USER CODE BEGIN MspInit 0 */

  /* USER CODE END MspInit 0 */

  __HAL_RCC_SYSCFG_CLK_ENABLE();
 800071c:	4b07      	ldr	r3, [pc, #28]	; (800073c <HAL_MspInit+0x24>)
 800071e:	6b5a      	ldr	r2, [r3, #52]	; 0x34
 8000720:	4b06      	ldr	r3, [pc, #24]	; (800073c <HAL_MspInit+0x24>)
 8000722:	2101      	movs	r1, #1
 8000724:	430a      	orrs	r2, r1
 8000726:	635a      	str	r2, [r3, #52]	; 0x34
  __HAL_RCC_PWR_CLK_ENABLE();
 8000728:	4b04      	ldr	r3, [pc, #16]	; (800073c <HAL_MspInit+0x24>)
 800072a:	6b9a      	ldr	r2, [r3, #56]	; 0x38
 800072c:	4b03      	ldr	r3, [pc, #12]	; (800073c <HAL_MspInit+0x24>)
 800072e:	2180      	movs	r1, #128	; 0x80
 8000730:	0549      	lsls	r1, r1, #21
 8000732:	430a      	orrs	r2, r1
 8000734:	639a      	str	r2, [r3, #56]	; 0x38
  /* System interrupt init*/

  /* USER CODE BEGIN MspInit 1 */

  /* USER CODE END MspInit 1 */
}
 8000736:	46c0      	nop			; (mov r8, r8)
 8000738:	46bd      	mov	sp, r7
 800073a:	bd80      	pop	{r7, pc}
 800073c:	40021000 	.word	0x40021000

08000740 <NMI_Handler>:
/******************************************************************************/
/**
  * @brief This function handles Non maskable interrupt.
  */
void NMI_Handler(void)
{
 8000740:	b580      	push	{r7, lr}
 8000742:	af00      	add	r7, sp, #0

  /* USER CODE END NonMaskableInt_IRQn 0 */
  /* USER CODE BEGIN NonMaskableInt_IRQn 1 */

  /* USER CODE END NonMaskableInt_IRQn 1 */
}
 8000744:	46c0      	nop			; (mov r8, r8)
 8000746:	46bd      	mov	sp, r7
 8000748:	bd80      	pop	{r7, pc}

0800074a <HardFault_Handler>:

/**
  * @brief This function handles Hard fault interrupt.
  */
void HardFault_Handler(void)
{
 800074a:	b580      	push	{r7, lr}
 800074c:	af00      	add	r7, sp, #0
  /* USER CODE BEGIN HardFault_IRQn 0 */

  /* USER CODE END HardFault_IRQn 0 */
  while (1)
 800074e:	e7fe      	b.n	800074e <HardFault_Handler+0x4>

08000750 <SVC_Handler>:

/**
  * @brief This function handles System service call via SWI instruction.
  */
void SVC_Handler(void)
{
 8000750:	b580      	push	{r7, lr}
 8000752:	af00      	add	r7, sp, #0

  /* USER CODE END SVC_IRQn 0 */
  /* USER CODE BEGIN SVC_IRQn 1 */

  /* USER CODE END SVC_IRQn 1 */
}
 8000754:	46c0      	nop			; (mov r8, r8)
 8000756:	46bd      	mov	sp, r7
 8000758:	bd80      	pop	{r7, pc}

0800075a <PendSV_Handler>:

/**
  * @brief This function handles Pendable request for system service.
  */
void PendSV_Handler(void)
{
 800075a:	b580      	push	{r7, lr}
 800075c:	af00      	add	r7, sp, #0

  /* USER CODE END PendSV_IRQn 0 */
  /* USER CODE BEGIN PendSV_IRQn 1 */

  /* USER CODE END PendSV_IRQn 1 */
}
 800075e:	46c0      	nop			; (mov r8, r8)
 8000760:	46bd      	mov	sp, r7
 8000762:	bd80      	pop	{r7, pc}

08000764 <SysTick_Handler>:

/**
  * @brief This function handles System tick timer.
  */
void SysTick_Handler(void)
{
 8000764:	b580      	push	{r7, lr}
 8000766:	af00      	add	r7, sp, #0
  /* USER CODE BEGIN SysTick_IRQn 0 */

  /* USER CODE END SysTick_IRQn 0 */
  HAL_IncTick();
 8000768:	f000 faac 	bl	8000cc4 <HAL_IncTick>
  /* USER CODE BEGIN SysTick_IRQn 1 */

  /* USER CODE END SysTick_IRQn 1 */
}
 800076c:	46c0      	nop			; (mov r8, r8)
 800076e:	46bd      	mov	sp, r7
 8000770:	bd80      	pop	{r7, pc}
	...

08000774 <EXTI4_15_IRQHandler>:

/**
  * @brief This function handles EXTI line 4 to 15 interrupts.
  */
void EXTI4_15_IRQHandler(void)
{
 8000774:	b580      	push	{r7, lr}
 8000776:	b082      	sub	sp, #8
 8000778:	af00      	add	r7, sp, #0
  /* USER CODE BEGIN EXTI4_15_IRQn 0 */

	uint16_t interrupt_time = TIM21->CNT;
 800077a:	4b14      	ldr	r3, [pc, #80]	; (80007cc <EXTI4_15_IRQHandler+0x58>)
 800077c:	6a5a      	ldr	r2, [r3, #36]	; 0x24
 800077e:	1dbb      	adds	r3, r7, #6
 8000780:	801a      	strh	r2, [r3, #0]
	if (interrupt_time - last_interrupt_time > (adc_data[0]*2))
 8000782:	1dbb      	adds	r3, r7, #6
 8000784:	881b      	ldrh	r3, [r3, #0]
 8000786:	4a12      	ldr	r2, [pc, #72]	; (80007d0 <EXTI4_15_IRQHandler+0x5c>)
 8000788:	8812      	ldrh	r2, [r2, #0]
 800078a:	1a9b      	subs	r3, r3, r2
 800078c:	001a      	movs	r2, r3
 800078e:	4b11      	ldr	r3, [pc, #68]	; (80007d4 <EXTI4_15_IRQHandler+0x60>)
 8000790:	681b      	ldr	r3, [r3, #0]
 8000792:	005b      	lsls	r3, r3, #1
 8000794:	429a      	cmp	r2, r3
 8000796:	d90d      	bls.n	80007b4 <EXTI4_15_IRQHandler+0x40>
	{
		HAL_GPIO_TogglePin(CLEAN_ENABLE_GPIO_Port, CLEAN_ENABLE_Pin);
 8000798:	2380      	movs	r3, #128	; 0x80
 800079a:	01db      	lsls	r3, r3, #7
 800079c:	4a0e      	ldr	r2, [pc, #56]	; (80007d8 <EXTI4_15_IRQHandler+0x64>)
 800079e:	0019      	movs	r1, r3
 80007a0:	0010      	movs	r0, r2
 80007a2:	f001 fa52 	bl	8001c4a <HAL_GPIO_TogglePin>
		HAL_GPIO_TogglePin(FX_ENABLE_GPIO_Port, FX_ENABLE_Pin);
 80007a6:	2380      	movs	r3, #128	; 0x80
 80007a8:	021b      	lsls	r3, r3, #8
 80007aa:	4a0b      	ldr	r2, [pc, #44]	; (80007d8 <EXTI4_15_IRQHandler+0x64>)
 80007ac:	0019      	movs	r1, r3
 80007ae:	0010      	movs	r0, r2
 80007b0:	f001 fa4b 	bl	8001c4a <HAL_GPIO_TogglePin>
	}
	last_interrupt_time = interrupt_time;
 80007b4:	4b06      	ldr	r3, [pc, #24]	; (80007d0 <EXTI4_15_IRQHandler+0x5c>)
 80007b6:	1dba      	adds	r2, r7, #6
 80007b8:	8812      	ldrh	r2, [r2, #0]
 80007ba:	801a      	strh	r2, [r3, #0]

  /* USER CODE END EXTI4_15_IRQn 0 */
  HAL_GPIO_EXTI_IRQHandler(GPIO_PIN_4);
 80007bc:	2010      	movs	r0, #16
 80007be:	f001 fa57 	bl	8001c70 <HAL_GPIO_EXTI_IRQHandler>
  /* USER CODE BEGIN EXTI4_15_IRQn 1 */

  /* USER CODE END EXTI4_15_IRQn 1 */
}
 80007c2:	46c0      	nop			; (mov r8, r8)
 80007c4:	46bd      	mov	sp, r7
 80007c6:	b002      	add	sp, #8
 80007c8:	bd80      	pop	{r7, pc}
 80007ca:	46c0      	nop			; (mov r8, r8)
 80007cc:	40010800 	.word	0x40010800
 80007d0:	20000024 	.word	0x20000024
 80007d4:	200000fc 	.word	0x200000fc
 80007d8:	50000800 	.word	0x50000800

080007dc <DMA1_Channel1_IRQHandler>:

/**
  * @brief This function handles DMA1 channel 1 interrupt.
  */
void DMA1_Channel1_IRQHandler(void)
{
 80007dc:	b580      	push	{r7, lr}
 80007de:	af00      	add	r7, sp, #0
  /* USER CODE BEGIN DMA1_Channel1_IRQn 0 */

  /* USER CODE END DMA1_Channel1_IRQn 0 */
  HAL_DMA_IRQHandler(&hdma_adc);
 80007e0:	4b03      	ldr	r3, [pc, #12]	; (80007f0 <DMA1_Channel1_IRQHandler+0x14>)
 80007e2:	0018      	movs	r0, r3
 80007e4:	f000 ffd2 	bl	800178c <HAL_DMA_IRQHandler>
  /* USER CODE BEGIN DMA1_Channel1_IRQn 1 */

  /* USER CODE END DMA1_Channel1_IRQn 1 */
}
 80007e8:	46c0      	nop			; (mov r8, r8)
 80007ea:	46bd      	mov	sp, r7
 80007ec:	bd80      	pop	{r7, pc}
 80007ee:	46c0      	nop			; (mov r8, r8)
 80007f0:	20000028 	.word	0x20000028

080007f4 <LPTIM1_IRQHandler>:

/**
  * @brief This function handles LPTIM1 global interrupt / LPTIM1 wake-up interrupt through EXTI line 29.
  */
void LPTIM1_IRQHandler(void)
{
 80007f4:	b580      	push	{r7, lr}
 80007f6:	af00      	add	r7, sp, #0
  /* USER CODE BEGIN LPTIM1_IRQn 0 */
	if(led_value < 1)
 80007f8:	4b1b      	ldr	r3, [pc, #108]	; (8000868 <LPTIM1_IRQHandler+0x74>)
 80007fa:	881b      	ldrh	r3, [r3, #0]
 80007fc:	2b00      	cmp	r3, #0
 80007fe:	d102      	bne.n	8000806 <LPTIM1_IRQHandler+0x12>
	{
		led_fade_up = 1;
 8000800:	4b1a      	ldr	r3, [pc, #104]	; (800086c <LPTIM1_IRQHandler+0x78>)
 8000802:	2201      	movs	r2, #1
 8000804:	701a      	strb	r2, [r3, #0]
	}
	if(led_value > LED_PERIOD_LIMIT) {
 8000806:	4b18      	ldr	r3, [pc, #96]	; (8000868 <LPTIM1_IRQHandler+0x74>)
 8000808:	881a      	ldrh	r2, [r3, #0]
 800080a:	2380      	movs	r3, #128	; 0x80
 800080c:	005b      	lsls	r3, r3, #1
 800080e:	429a      	cmp	r2, r3
 8000810:	d902      	bls.n	8000818 <LPTIM1_IRQHandler+0x24>
		led_fade_up = 0;
 8000812:	4b16      	ldr	r3, [pc, #88]	; (800086c <LPTIM1_IRQHandler+0x78>)
 8000814:	2200      	movs	r2, #0
 8000816:	701a      	strb	r2, [r3, #0]
	}

	if(led_fade_up)
 8000818:	4b14      	ldr	r3, [pc, #80]	; (800086c <LPTIM1_IRQHandler+0x78>)
 800081a:	781b      	ldrb	r3, [r3, #0]
 800081c:	2b00      	cmp	r3, #0
 800081e:	d006      	beq.n	800082e <LPTIM1_IRQHandler+0x3a>
		led_value++;
 8000820:	4b11      	ldr	r3, [pc, #68]	; (8000868 <LPTIM1_IRQHandler+0x74>)
 8000822:	881b      	ldrh	r3, [r3, #0]
 8000824:	3301      	adds	r3, #1
 8000826:	b29a      	uxth	r2, r3
 8000828:	4b0f      	ldr	r3, [pc, #60]	; (8000868 <LPTIM1_IRQHandler+0x74>)
 800082a:	801a      	strh	r2, [r3, #0]
 800082c:	e005      	b.n	800083a <LPTIM1_IRQHandler+0x46>
	else
		led_value--;
 800082e:	4b0e      	ldr	r3, [pc, #56]	; (8000868 <LPTIM1_IRQHandler+0x74>)
 8000830:	881b      	ldrh	r3, [r3, #0]
 8000832:	3b01      	subs	r3, #1
 8000834:	b29a      	uxth	r2, r3
 8000836:	4b0c      	ldr	r3, [pc, #48]	; (8000868 <LPTIM1_IRQHandler+0x74>)
 8000838:	801a      	strh	r2, [r3, #0]

	TIM2->CCR1 = led_value;
 800083a:	4b0b      	ldr	r3, [pc, #44]	; (8000868 <LPTIM1_IRQHandler+0x74>)
 800083c:	881a      	ldrh	r2, [r3, #0]
 800083e:	2380      	movs	r3, #128	; 0x80
 8000840:	05db      	lsls	r3, r3, #23
 8000842:	635a      	str	r2, [r3, #52]	; 0x34
	TIM2->CCR2 = led_value;
 8000844:	4b08      	ldr	r3, [pc, #32]	; (8000868 <LPTIM1_IRQHandler+0x74>)
 8000846:	881a      	ldrh	r2, [r3, #0]
 8000848:	2380      	movs	r3, #128	; 0x80
 800084a:	05db      	lsls	r3, r3, #23
 800084c:	639a      	str	r2, [r3, #56]	; 0x38
	TIM2->CCR3 = led_value;
 800084e:	4b06      	ldr	r3, [pc, #24]	; (8000868 <LPTIM1_IRQHandler+0x74>)
 8000850:	881a      	ldrh	r2, [r3, #0]
 8000852:	2380      	movs	r3, #128	; 0x80
 8000854:	05db      	lsls	r3, r3, #23
 8000856:	63da      	str	r2, [r3, #60]	; 0x3c
  /* USER CODE END LPTIM1_IRQn 0 */
  HAL_LPTIM_IRQHandler(&hlptim1);
 8000858:	4b05      	ldr	r3, [pc, #20]	; (8000870 <LPTIM1_IRQHandler+0x7c>)
 800085a:	0018      	movs	r0, r3
 800085c:	f001 fb02 	bl	8001e64 <HAL_LPTIM_IRQHandler>
  /* USER CODE BEGIN LPTIM1_IRQn 1 */

  /* USER CODE END LPTIM1_IRQn 1 */
}
 8000860:	46c0      	nop			; (mov r8, r8)
 8000862:	46bd      	mov	sp, r7
 8000864:	bd80      	pop	{r7, pc}
 8000866:	46c0      	nop			; (mov r8, r8)
 8000868:	20000026 	.word	0x20000026
 800086c:	20000000 	.word	0x20000000
 8000870:	200000cc 	.word	0x200000cc

08000874 <TIM21_IRQHandler>:

/**
  * @brief This function handles TIM21 global interrupt.
  */
void TIM21_IRQHandler(void)
{
 8000874:	b580      	push	{r7, lr}
 8000876:	af00      	add	r7, sp, #0
  /* USER CODE BEGIN TIM21_IRQn 0 */

  /* USER CODE END TIM21_IRQn 0 */
  HAL_TIM_IRQHandler(&htim21);
 8000878:	4b03      	ldr	r3, [pc, #12]	; (8000888 <TIM21_IRQHandler+0x14>)
 800087a:	0018      	movs	r0, r3
 800087c:	f002 fab8 	bl	8002df0 <HAL_TIM_IRQHandler>
  /* USER CODE BEGIN TIM21_IRQn 1 */

  /* USER CODE END TIM21_IRQn 1 */
}
 8000880:	46c0      	nop			; (mov r8, r8)
 8000882:	46bd      	mov	sp, r7
 8000884:	bd80      	pop	{r7, pc}
 8000886:	46c0      	nop			; (mov r8, r8)
 8000888:	2000013c 	.word	0x2000013c

0800088c <SystemInit>:
  * @brief  Setup the microcontroller system.
  * @param  None
  * @retval None
  */
void SystemInit (void)
{
 800088c:	b580      	push	{r7, lr}
 800088e:	af00      	add	r7, sp, #0
/*!< Set MSION bit */
  RCC->CR |= (uint32_t)0x00000100U;
 8000890:	4b17      	ldr	r3, [pc, #92]	; (80008f0 <SystemInit+0x64>)
 8000892:	681a      	ldr	r2, [r3, #0]
 8000894:	4b16      	ldr	r3, [pc, #88]	; (80008f0 <SystemInit+0x64>)
 8000896:	2180      	movs	r1, #128	; 0x80
 8000898:	0049      	lsls	r1, r1, #1
 800089a:	430a      	orrs	r2, r1
 800089c:	601a      	str	r2, [r3, #0]

  /*!< Reset SW[1:0], HPRE[3:0], PPRE1[2:0], PPRE2[2:0], MCOSEL[2:0] and MCOPRE[2:0] bits */
  RCC->CFGR &= (uint32_t) 0x88FF400CU;
 800089e:	4b14      	ldr	r3, [pc, #80]	; (80008f0 <SystemInit+0x64>)
 80008a0:	68da      	ldr	r2, [r3, #12]
 80008a2:	4b13      	ldr	r3, [pc, #76]	; (80008f0 <SystemInit+0x64>)
 80008a4:	4913      	ldr	r1, [pc, #76]	; (80008f4 <SystemInit+0x68>)
 80008a6:	400a      	ands	r2, r1
 80008a8:	60da      	str	r2, [r3, #12]

  /*!< Reset HSION, HSIDIVEN, HSEON, CSSON and PLLON bits */
  RCC->CR &= (uint32_t)0xFEF6FFF6U;
 80008aa:	4b11      	ldr	r3, [pc, #68]	; (80008f0 <SystemInit+0x64>)
 80008ac:	681a      	ldr	r2, [r3, #0]
 80008ae:	4b10      	ldr	r3, [pc, #64]	; (80008f0 <SystemInit+0x64>)
 80008b0:	4911      	ldr	r1, [pc, #68]	; (80008f8 <SystemInit+0x6c>)
 80008b2:	400a      	ands	r2, r1
 80008b4:	601a      	str	r2, [r3, #0]

  /*!< Reset HSI48ON  bit */
  RCC->CRRCR &= (uint32_t)0xFFFFFFFEU;
 80008b6:	4b0e      	ldr	r3, [pc, #56]	; (80008f0 <SystemInit+0x64>)
 80008b8:	689a      	ldr	r2, [r3, #8]
 80008ba:	4b0d      	ldr	r3, [pc, #52]	; (80008f0 <SystemInit+0x64>)
 80008bc:	2101      	movs	r1, #1
 80008be:	438a      	bics	r2, r1
 80008c0:	609a      	str	r2, [r3, #8]

  /*!< Reset HSEBYP bit */
  RCC->CR &= (uint32_t)0xFFFBFFFFU;
 80008c2:	4b0b      	ldr	r3, [pc, #44]	; (80008f0 <SystemInit+0x64>)
 80008c4:	681a      	ldr	r2, [r3, #0]
 80008c6:	4b0a      	ldr	r3, [pc, #40]	; (80008f0 <SystemInit+0x64>)
 80008c8:	490c      	ldr	r1, [pc, #48]	; (80008fc <SystemInit+0x70>)
 80008ca:	400a      	ands	r2, r1
 80008cc:	601a      	str	r2, [r3, #0]

  /*!< Reset PLLSRC, PLLMUL[3:0] and PLLDIV[1:0] bits */
  RCC->CFGR &= (uint32_t)0xFF02FFFFU;
 80008ce:	4b08      	ldr	r3, [pc, #32]	; (80008f0 <SystemInit+0x64>)
 80008d0:	68da      	ldr	r2, [r3, #12]
 80008d2:	4b07      	ldr	r3, [pc, #28]	; (80008f0 <SystemInit+0x64>)
 80008d4:	490a      	ldr	r1, [pc, #40]	; (8000900 <SystemInit+0x74>)
 80008d6:	400a      	ands	r2, r1
 80008d8:	60da      	str	r2, [r3, #12]

  /*!< Disable all interrupts */
  RCC->CIER = 0x00000000U;
 80008da:	4b05      	ldr	r3, [pc, #20]	; (80008f0 <SystemInit+0x64>)
 80008dc:	2200      	movs	r2, #0
 80008de:	611a      	str	r2, [r3, #16]

  /* Configure the Vector Table location add offset address ------------------*/
#ifdef VECT_TAB_SRAM
  SCB->VTOR = SRAM_BASE | VECT_TAB_OFFSET; /* Vector Table Relocation in Internal SRAM */
#else
  SCB->VTOR = FLASH_BASE | VECT_TAB_OFFSET; /* Vector Table Relocation in Internal FLASH */
 80008e0:	4b08      	ldr	r3, [pc, #32]	; (8000904 <SystemInit+0x78>)
 80008e2:	2280      	movs	r2, #128	; 0x80
 80008e4:	0512      	lsls	r2, r2, #20
 80008e6:	609a      	str	r2, [r3, #8]
#endif
}
 80008e8:	46c0      	nop			; (mov r8, r8)
 80008ea:	46bd      	mov	sp, r7
 80008ec:	bd80      	pop	{r7, pc}
 80008ee:	46c0      	nop			; (mov r8, r8)
 80008f0:	40021000 	.word	0x40021000
 80008f4:	88ff400c 	.word	0x88ff400c
 80008f8:	fef6fff6 	.word	0xfef6fff6
 80008fc:	fffbffff 	.word	0xfffbffff
 8000900:	ff02ffff 	.word	0xff02ffff
 8000904:	e000ed00 	.word	0xe000ed00

08000908 <MX_TIM2_Init>:
TIM_HandleTypeDef htim2;
TIM_HandleTypeDef htim21;

/* TIM2 init function */
void MX_TIM2_Init(void)
{
 8000908:	b580      	push	{r7, lr}
 800090a:	b086      	sub	sp, #24
 800090c:	af00      	add	r7, sp, #0
  TIM_MasterConfigTypeDef sMasterConfig = {0};
 800090e:	2310      	movs	r3, #16
 8000910:	18fb      	adds	r3, r7, r3
 8000912:	0018      	movs	r0, r3
 8000914:	2308      	movs	r3, #8
 8000916:	001a      	movs	r2, r3
 8000918:	2100      	movs	r1, #0
 800091a:	f002 ff61 	bl	80037e0 <memset>
  TIM_OC_InitTypeDef sConfigOC = {0};
 800091e:	003b      	movs	r3, r7
 8000920:	0018      	movs	r0, r3
 8000922:	2310      	movs	r3, #16
 8000924:	001a      	movs	r2, r3
 8000926:	2100      	movs	r1, #0
 8000928:	f002 ff5a 	bl	80037e0 <memset>

  htim2.Instance = TIM2;
 800092c:	4b2e      	ldr	r3, [pc, #184]	; (80009e8 <MX_TIM2_Init+0xe0>)
 800092e:	2280      	movs	r2, #128	; 0x80
 8000930:	05d2      	lsls	r2, r2, #23
 8000932:	601a      	str	r2, [r3, #0]
  htim2.Init.Prescaler = 0;
 8000934:	4b2c      	ldr	r3, [pc, #176]	; (80009e8 <MX_TIM2_Init+0xe0>)
 8000936:	2200      	movs	r2, #0
 8000938:	605a      	str	r2, [r3, #4]
  htim2.Init.CounterMode = TIM_COUNTERMODE_UP;
 800093a:	4b2b      	ldr	r3, [pc, #172]	; (80009e8 <MX_TIM2_Init+0xe0>)
 800093c:	2200      	movs	r2, #0
 800093e:	609a      	str	r2, [r3, #8]
  htim2.Init.Period = 64;
 8000940:	4b29      	ldr	r3, [pc, #164]	; (80009e8 <MX_TIM2_Init+0xe0>)
 8000942:	2240      	movs	r2, #64	; 0x40
 8000944:	60da      	str	r2, [r3, #12]
  htim2.Init.ClockDivision = TIM_CLOCKDIVISION_DIV1;
 8000946:	4b28      	ldr	r3, [pc, #160]	; (80009e8 <MX_TIM2_Init+0xe0>)
 8000948:	2200      	movs	r2, #0
 800094a:	611a      	str	r2, [r3, #16]
  htim2.Init.AutoReloadPreload = TIM_AUTORELOAD_PRELOAD_DISABLE;
 800094c:	4b26      	ldr	r3, [pc, #152]	; (80009e8 <MX_TIM2_Init+0xe0>)
 800094e:	2200      	movs	r2, #0
 8000950:	615a      	str	r2, [r3, #20]
  if (HAL_TIM_PWM_Init(&htim2) != HAL_OK)
 8000952:	4b25      	ldr	r3, [pc, #148]	; (80009e8 <MX_TIM2_Init+0xe0>)
 8000954:	0018      	movs	r0, r3
 8000956:	f002 f9fd 	bl	8002d54 <HAL_TIM_PWM_Init>
 800095a:	1e03      	subs	r3, r0, #0
 800095c:	d001      	beq.n	8000962 <MX_TIM2_Init+0x5a>
  {
    Error_Handler();
 800095e:	f7ff fed5 	bl	800070c <Error_Handler>
  }
  sMasterConfig.MasterOutputTrigger = TIM_TRGO_RESET;
 8000962:	2110      	movs	r1, #16
 8000964:	187b      	adds	r3, r7, r1
 8000966:	2200      	movs	r2, #0
 8000968:	601a      	str	r2, [r3, #0]
  sMasterConfig.MasterSlaveMode = TIM_MASTERSLAVEMODE_DISABLE;
 800096a:	187b      	adds	r3, r7, r1
 800096c:	2200      	movs	r2, #0
 800096e:	605a      	str	r2, [r3, #4]
  if (HAL_TIMEx_MasterConfigSynchronization(&htim2, &sMasterConfig) != HAL_OK)
 8000970:	187a      	adds	r2, r7, r1
 8000972:	4b1d      	ldr	r3, [pc, #116]	; (80009e8 <MX_TIM2_Init+0xe0>)
 8000974:	0011      	movs	r1, r2
 8000976:	0018      	movs	r0, r3
 8000978:	f002 fecb 	bl	8003712 <HAL_TIMEx_MasterConfigSynchronization>
 800097c:	1e03      	subs	r3, r0, #0
 800097e:	d001      	beq.n	8000984 <MX_TIM2_Init+0x7c>
  {
    Error_Handler();
 8000980:	f7ff fec4 	bl	800070c <Error_Handler>
  }
  sConfigOC.OCMode = TIM_OCMODE_PWM1;
 8000984:	003b      	movs	r3, r7
 8000986:	2260      	movs	r2, #96	; 0x60
 8000988:	601a      	str	r2, [r3, #0]
  sConfigOC.Pulse = 0;
 800098a:	003b      	movs	r3, r7
 800098c:	2200      	movs	r2, #0
 800098e:	605a      	str	r2, [r3, #4]
  sConfigOC.OCPolarity = TIM_OCPOLARITY_HIGH;
 8000990:	003b      	movs	r3, r7
 8000992:	2200      	movs	r2, #0
 8000994:	609a      	str	r2, [r3, #8]
  sConfigOC.OCFastMode = TIM_OCFAST_DISABLE;
 8000996:	003b      	movs	r3, r7
 8000998:	2200      	movs	r2, #0
 800099a:	60da      	str	r2, [r3, #12]
  if (HAL_TIM_PWM_ConfigChannel(&htim2, &sConfigOC, TIM_CHANNEL_1) != HAL_OK)
 800099c:	0039      	movs	r1, r7
 800099e:	4b12      	ldr	r3, [pc, #72]	; (80009e8 <MX_TIM2_Init+0xe0>)
 80009a0:	2200      	movs	r2, #0
 80009a2:	0018      	movs	r0, r3
 80009a4:	f002 fb0c 	bl	8002fc0 <HAL_TIM_PWM_ConfigChannel>
 80009a8:	1e03      	subs	r3, r0, #0
 80009aa:	d001      	beq.n	80009b0 <MX_TIM2_Init+0xa8>
  {
    Error_Handler();
 80009ac:	f7ff feae 	bl	800070c <Error_Handler>
  }
  if (HAL_TIM_PWM_ConfigChannel(&htim2, &sConfigOC, TIM_CHANNEL_2) != HAL_OK)
 80009b0:	0039      	movs	r1, r7
 80009b2:	4b0d      	ldr	r3, [pc, #52]	; (80009e8 <MX_TIM2_Init+0xe0>)
 80009b4:	2204      	movs	r2, #4
 80009b6:	0018      	movs	r0, r3
 80009b8:	f002 fb02 	bl	8002fc0 <HAL_TIM_PWM_ConfigChannel>
 80009bc:	1e03      	subs	r3, r0, #0
 80009be:	d001      	beq.n	80009c4 <MX_TIM2_Init+0xbc>
  {
    Error_Handler();
 80009c0:	f7ff fea4 	bl	800070c <Error_Handler>
  }
  if (HAL_TIM_PWM_ConfigChannel(&htim2, &sConfigOC, TIM_CHANNEL_3) != HAL_OK)
 80009c4:	0039      	movs	r1, r7
 80009c6:	4b08      	ldr	r3, [pc, #32]	; (80009e8 <MX_TIM2_Init+0xe0>)
 80009c8:	2208      	movs	r2, #8
 80009ca:	0018      	movs	r0, r3
 80009cc:	f002 faf8 	bl	8002fc0 <HAL_TIM_PWM_ConfigChannel>
 80009d0:	1e03      	subs	r3, r0, #0
 80009d2:	d001      	beq.n	80009d8 <MX_TIM2_Init+0xd0>
  {
    Error_Handler();
 80009d4:	f7ff fe9a 	bl	800070c <Error_Handler>
  }
  HAL_TIM_MspPostInit(&htim2);
 80009d8:	4b03      	ldr	r3, [pc, #12]	; (80009e8 <MX_TIM2_Init+0xe0>)
 80009da:	0018      	movs	r0, r3
 80009dc:	f000 f892 	bl	8000b04 <HAL_TIM_MspPostInit>

}
 80009e0:	46c0      	nop			; (mov r8, r8)
 80009e2:	46bd      	mov	sp, r7
 80009e4:	b006      	add	sp, #24
 80009e6:	bd80      	pop	{r7, pc}
 80009e8:	20000100 	.word	0x20000100

080009ec <MX_TIM21_Init>:
/* TIM21 init function */
void MX_TIM21_Init(void)
{
 80009ec:	b580      	push	{r7, lr}
 80009ee:	b086      	sub	sp, #24
 80009f0:	af00      	add	r7, sp, #0
  TIM_ClockConfigTypeDef sClockSourceConfig = {0};
 80009f2:	2308      	movs	r3, #8
 80009f4:	18fb      	adds	r3, r7, r3
 80009f6:	0018      	movs	r0, r3
 80009f8:	2310      	movs	r3, #16
 80009fa:	001a      	movs	r2, r3
 80009fc:	2100      	movs	r1, #0
 80009fe:	f002 feef 	bl	80037e0 <memset>
  TIM_MasterConfigTypeDef sMasterConfig = {0};
 8000a02:	003b      	movs	r3, r7
 8000a04:	0018      	movs	r0, r3
 8000a06:	2308      	movs	r3, #8
 8000a08:	001a      	movs	r2, r3
 8000a0a:	2100      	movs	r1, #0
 8000a0c:	f002 fee8 	bl	80037e0 <memset>

  htim21.Instance = TIM21;
 8000a10:	4b1e      	ldr	r3, [pc, #120]	; (8000a8c <MX_TIM21_Init+0xa0>)
 8000a12:	4a1f      	ldr	r2, [pc, #124]	; (8000a90 <MX_TIM21_Init+0xa4>)
 8000a14:	601a      	str	r2, [r3, #0]
  htim21.Init.Prescaler = 65535;
 8000a16:	4b1d      	ldr	r3, [pc, #116]	; (8000a8c <MX_TIM21_Init+0xa0>)
 8000a18:	4a1e      	ldr	r2, [pc, #120]	; (8000a94 <MX_TIM21_Init+0xa8>)
 8000a1a:	605a      	str	r2, [r3, #4]
  htim21.Init.CounterMode = TIM_COUNTERMODE_UP;
 8000a1c:	4b1b      	ldr	r3, [pc, #108]	; (8000a8c <MX_TIM21_Init+0xa0>)
 8000a1e:	2200      	movs	r2, #0
 8000a20:	609a      	str	r2, [r3, #8]
  htim21.Init.Period = 65535;
 8000a22:	4b1a      	ldr	r3, [pc, #104]	; (8000a8c <MX_TIM21_Init+0xa0>)
 8000a24:	4a1b      	ldr	r2, [pc, #108]	; (8000a94 <MX_TIM21_Init+0xa8>)
 8000a26:	60da      	str	r2, [r3, #12]
  htim21.Init.ClockDivision = TIM_CLOCKDIVISION_DIV1;
 8000a28:	4b18      	ldr	r3, [pc, #96]	; (8000a8c <MX_TIM21_Init+0xa0>)
 8000a2a:	2200      	movs	r2, #0
 8000a2c:	611a      	str	r2, [r3, #16]
  htim21.Init.AutoReloadPreload = TIM_AUTORELOAD_PRELOAD_DISABLE;
 8000a2e:	4b17      	ldr	r3, [pc, #92]	; (8000a8c <MX_TIM21_Init+0xa0>)
 8000a30:	2200      	movs	r2, #0
 8000a32:	615a      	str	r2, [r3, #20]
  if (HAL_TIM_Base_Init(&htim21) != HAL_OK)
 8000a34:	4b15      	ldr	r3, [pc, #84]	; (8000a8c <MX_TIM21_Init+0xa0>)
 8000a36:	0018      	movs	r0, r3
 8000a38:	f002 f93e 	bl	8002cb8 <HAL_TIM_Base_Init>
 8000a3c:	1e03      	subs	r3, r0, #0
 8000a3e:	d001      	beq.n	8000a44 <MX_TIM21_Init+0x58>
  {
    Error_Handler();
 8000a40:	f7ff fe64 	bl	800070c <Error_Handler>
  }
  sClockSourceConfig.ClockSource = TIM_CLOCKSOURCE_INTERNAL;
 8000a44:	2108      	movs	r1, #8
 8000a46:	187b      	adds	r3, r7, r1
 8000a48:	2280      	movs	r2, #128	; 0x80
 8000a4a:	0152      	lsls	r2, r2, #5
 8000a4c:	601a      	str	r2, [r3, #0]
  if (HAL_TIM_ConfigClockSource(&htim21, &sClockSourceConfig) != HAL_OK)
 8000a4e:	187a      	adds	r2, r7, r1
 8000a50:	4b0e      	ldr	r3, [pc, #56]	; (8000a8c <MX_TIM21_Init+0xa0>)
 8000a52:	0011      	movs	r1, r2
 8000a54:	0018      	movs	r0, r3
 8000a56:	f002 fb6b 	bl	8003130 <HAL_TIM_ConfigClockSource>
 8000a5a:	1e03      	subs	r3, r0, #0
 8000a5c:	d001      	beq.n	8000a62 <MX_TIM21_Init+0x76>
  {
    Error_Handler();
 8000a5e:	f7ff fe55 	bl	800070c <Error_Handler>
  }
  sMasterConfig.MasterOutputTrigger = TIM_TRGO_RESET;
 8000a62:	003b      	movs	r3, r7
 8000a64:	2200      	movs	r2, #0
 8000a66:	601a      	str	r2, [r3, #0]
  sMasterConfig.MasterSlaveMode = TIM_MASTERSLAVEMODE_DISABLE;
 8000a68:	003b      	movs	r3, r7
 8000a6a:	2200      	movs	r2, #0
 8000a6c:	605a      	str	r2, [r3, #4]
  if (HAL_TIMEx_MasterConfigSynchronization(&htim21, &sMasterConfig) != HAL_OK)
 8000a6e:	003a      	movs	r2, r7
 8000a70:	4b06      	ldr	r3, [pc, #24]	; (8000a8c <MX_TIM21_Init+0xa0>)
 8000a72:	0011      	movs	r1, r2
 8000a74:	0018      	movs	r0, r3
 8000a76:	f002 fe4c 	bl	8003712 <HAL_TIMEx_MasterConfigSynchronization>
 8000a7a:	1e03      	subs	r3, r0, #0
 8000a7c:	d001      	beq.n	8000a82 <MX_TIM21_Init+0x96>
  {
    Error_Handler();
 8000a7e:	f7ff fe45 	bl	800070c <Error_Handler>
  }

}
 8000a82:	46c0      	nop			; (mov r8, r8)
 8000a84:	46bd      	mov	sp, r7
 8000a86:	b006      	add	sp, #24
 8000a88:	bd80      	pop	{r7, pc}
 8000a8a:	46c0      	nop			; (mov r8, r8)
 8000a8c:	2000013c 	.word	0x2000013c
 8000a90:	40010800 	.word	0x40010800
 8000a94:	0000ffff 	.word	0x0000ffff

08000a98 <HAL_TIM_PWM_MspInit>:

void HAL_TIM_PWM_MspInit(TIM_HandleTypeDef* tim_pwmHandle)
{
 8000a98:	b580      	push	{r7, lr}
 8000a9a:	b082      	sub	sp, #8
 8000a9c:	af00      	add	r7, sp, #0
 8000a9e:	6078      	str	r0, [r7, #4]

  if(tim_pwmHandle->Instance==TIM2)
 8000aa0:	687b      	ldr	r3, [r7, #4]
 8000aa2:	681a      	ldr	r2, [r3, #0]
 8000aa4:	2380      	movs	r3, #128	; 0x80
 8000aa6:	05db      	lsls	r3, r3, #23
 8000aa8:	429a      	cmp	r2, r3
 8000aaa:	d105      	bne.n	8000ab8 <HAL_TIM_PWM_MspInit+0x20>
  {
  /* USER CODE BEGIN TIM2_MspInit 0 */

  /* USER CODE END TIM2_MspInit 0 */
    /* TIM2 clock enable */
    __HAL_RCC_TIM2_CLK_ENABLE();
 8000aac:	4b04      	ldr	r3, [pc, #16]	; (8000ac0 <HAL_TIM_PWM_MspInit+0x28>)
 8000aae:	6b9a      	ldr	r2, [r3, #56]	; 0x38
 8000ab0:	4b03      	ldr	r3, [pc, #12]	; (8000ac0 <HAL_TIM_PWM_MspInit+0x28>)
 8000ab2:	2101      	movs	r1, #1
 8000ab4:	430a      	orrs	r2, r1
 8000ab6:	639a      	str	r2, [r3, #56]	; 0x38
  /* USER CODE BEGIN TIM2_MspInit 1 */

  /* USER CODE END TIM2_MspInit 1 */
  }
}
 8000ab8:	46c0      	nop			; (mov r8, r8)
 8000aba:	46bd      	mov	sp, r7
 8000abc:	b002      	add	sp, #8
 8000abe:	bd80      	pop	{r7, pc}
 8000ac0:	40021000 	.word	0x40021000

08000ac4 <HAL_TIM_Base_MspInit>:

void HAL_TIM_Base_MspInit(TIM_HandleTypeDef* tim_baseHandle)
{
 8000ac4:	b580      	push	{r7, lr}
 8000ac6:	b082      	sub	sp, #8
 8000ac8:	af00      	add	r7, sp, #0
 8000aca:	6078      	str	r0, [r7, #4]

  if(tim_baseHandle->Instance==TIM21)
 8000acc:	687b      	ldr	r3, [r7, #4]
 8000ace:	681b      	ldr	r3, [r3, #0]
 8000ad0:	4a0a      	ldr	r2, [pc, #40]	; (8000afc <HAL_TIM_Base_MspInit+0x38>)
 8000ad2:	4293      	cmp	r3, r2
 8000ad4:	d10d      	bne.n	8000af2 <HAL_TIM_Base_MspInit+0x2e>
  {
  /* USER CODE BEGIN TIM21_MspInit 0 */

  /* USER CODE END TIM21_MspInit 0 */
    /* TIM21 clock enable */
    __HAL_RCC_TIM21_CLK_ENABLE();
 8000ad6:	4b0a      	ldr	r3, [pc, #40]	; (8000b00 <HAL_TIM_Base_MspInit+0x3c>)
 8000ad8:	6b5a      	ldr	r2, [r3, #52]	; 0x34
 8000ada:	4b09      	ldr	r3, [pc, #36]	; (8000b00 <HAL_TIM_Base_MspInit+0x3c>)
 8000adc:	2104      	movs	r1, #4
 8000ade:	430a      	orrs	r2, r1
 8000ae0:	635a      	str	r2, [r3, #52]	; 0x34

    /* TIM21 interrupt Init */
    HAL_NVIC_SetPriority(TIM21_IRQn, 0, 0);
 8000ae2:	2200      	movs	r2, #0
 8000ae4:	2100      	movs	r1, #0
 8000ae6:	2014      	movs	r0, #20
 8000ae8:	f000 fd40 	bl	800156c <HAL_NVIC_SetPriority>
    HAL_NVIC_EnableIRQ(TIM21_IRQn);
 8000aec:	2014      	movs	r0, #20
 8000aee:	f000 fd52 	bl	8001596 <HAL_NVIC_EnableIRQ>
  /* USER CODE BEGIN TIM21_MspInit 1 */

  /* USER CODE END TIM21_MspInit 1 */
  }
}
 8000af2:	46c0      	nop			; (mov r8, r8)
 8000af4:	46bd      	mov	sp, r7
 8000af6:	b002      	add	sp, #8
 8000af8:	bd80      	pop	{r7, pc}
 8000afa:	46c0      	nop			; (mov r8, r8)
 8000afc:	40010800 	.word	0x40010800
 8000b00:	40021000 	.word	0x40021000

08000b04 <HAL_TIM_MspPostInit>:
void HAL_TIM_MspPostInit(TIM_HandleTypeDef* timHandle)
{
 8000b04:	b590      	push	{r4, r7, lr}
 8000b06:	b089      	sub	sp, #36	; 0x24
 8000b08:	af00      	add	r7, sp, #0
 8000b0a:	6078      	str	r0, [r7, #4]

  GPIO_InitTypeDef GPIO_InitStruct = {0};
 8000b0c:	230c      	movs	r3, #12
 8000b0e:	18fb      	adds	r3, r7, r3
 8000b10:	0018      	movs	r0, r3
 8000b12:	2314      	movs	r3, #20
 8000b14:	001a      	movs	r2, r3
 8000b16:	2100      	movs	r1, #0
 8000b18:	f002 fe62 	bl	80037e0 <memset>
  if(timHandle->Instance==TIM2)
 8000b1c:	687b      	ldr	r3, [r7, #4]
 8000b1e:	681a      	ldr	r2, [r3, #0]
 8000b20:	2380      	movs	r3, #128	; 0x80
 8000b22:	05db      	lsls	r3, r3, #23
 8000b24:	429a      	cmp	r2, r3
 8000b26:	d13b      	bne.n	8000ba0 <HAL_TIM_MspPostInit+0x9c>
  {
  /* USER CODE BEGIN TIM2_MspPostInit 0 */

  /* USER CODE END TIM2_MspPostInit 0 */
  
    __HAL_RCC_GPIOA_CLK_ENABLE();
 8000b28:	4b1f      	ldr	r3, [pc, #124]	; (8000ba8 <HAL_TIM_MspPostInit+0xa4>)
 8000b2a:	6ada      	ldr	r2, [r3, #44]	; 0x2c
 8000b2c:	4b1e      	ldr	r3, [pc, #120]	; (8000ba8 <HAL_TIM_MspPostInit+0xa4>)
 8000b2e:	2101      	movs	r1, #1
 8000b30:	430a      	orrs	r2, r1
 8000b32:	62da      	str	r2, [r3, #44]	; 0x2c
 8000b34:	4b1c      	ldr	r3, [pc, #112]	; (8000ba8 <HAL_TIM_MspPostInit+0xa4>)
 8000b36:	6adb      	ldr	r3, [r3, #44]	; 0x2c
 8000b38:	2201      	movs	r2, #1
 8000b3a:	4013      	ands	r3, r2
 8000b3c:	60bb      	str	r3, [r7, #8]
 8000b3e:	68bb      	ldr	r3, [r7, #8]
    /**TIM2 GPIO Configuration    
    PA0-CK_IN     ------> TIM2_CH1
    PA1     ------> TIM2_CH2
    PA10     ------> TIM2_CH3 
    */
    GPIO_InitStruct.Pin = GPIO_PIN_0|GPIO_PIN_1;
 8000b40:	210c      	movs	r1, #12
 8000b42:	187b      	adds	r3, r7, r1
 8000b44:	2203      	movs	r2, #3
 8000b46:	601a      	str	r2, [r3, #0]
    GPIO_InitStruct.Mode = GPIO_MODE_AF_PP;
 8000b48:	187b      	adds	r3, r7, r1
 8000b4a:	2202      	movs	r2, #2
 8000b4c:	605a      	str	r2, [r3, #4]
    GPIO_InitStruct.Pull = GPIO_NOPULL;
 8000b4e:	187b      	adds	r3, r7, r1
 8000b50:	2200      	movs	r2, #0
 8000b52:	609a      	str	r2, [r3, #8]
    GPIO_InitStruct.Speed = GPIO_SPEED_FREQ_LOW;
 8000b54:	187b      	adds	r3, r7, r1
 8000b56:	2200      	movs	r2, #0
 8000b58:	60da      	str	r2, [r3, #12]
    GPIO_InitStruct.Alternate = GPIO_AF2_TIM2;
 8000b5a:	187b      	adds	r3, r7, r1
 8000b5c:	2202      	movs	r2, #2
 8000b5e:	611a      	str	r2, [r3, #16]
    HAL_GPIO_Init(GPIOA, &GPIO_InitStruct);
 8000b60:	000c      	movs	r4, r1
 8000b62:	187a      	adds	r2, r7, r1
 8000b64:	23a0      	movs	r3, #160	; 0xa0
 8000b66:	05db      	lsls	r3, r3, #23
 8000b68:	0011      	movs	r1, r2
 8000b6a:	0018      	movs	r0, r3
 8000b6c:	f000 feea 	bl	8001944 <HAL_GPIO_Init>

    GPIO_InitStruct.Pin = GPIO_PIN_10;
 8000b70:	0021      	movs	r1, r4
 8000b72:	187b      	adds	r3, r7, r1
 8000b74:	2280      	movs	r2, #128	; 0x80
 8000b76:	00d2      	lsls	r2, r2, #3
 8000b78:	601a      	str	r2, [r3, #0]
    GPIO_InitStruct.Mode = GPIO_MODE_AF_PP;
 8000b7a:	187b      	adds	r3, r7, r1
 8000b7c:	2202      	movs	r2, #2
 8000b7e:	605a      	str	r2, [r3, #4]
    GPIO_InitStruct.Pull = GPIO_NOPULL;
 8000b80:	187b      	adds	r3, r7, r1
 8000b82:	2200      	movs	r2, #0
 8000b84:	609a      	str	r2, [r3, #8]
    GPIO_InitStruct.Speed = GPIO_SPEED_FREQ_LOW;
 8000b86:	187b      	adds	r3, r7, r1
 8000b88:	2200      	movs	r2, #0
 8000b8a:	60da      	str	r2, [r3, #12]
    GPIO_InitStruct.Alternate = GPIO_AF5_TIM2;
 8000b8c:	187b      	adds	r3, r7, r1
 8000b8e:	2205      	movs	r2, #5
 8000b90:	611a      	str	r2, [r3, #16]
    HAL_GPIO_Init(GPIOA, &GPIO_InitStruct);
 8000b92:	187a      	adds	r2, r7, r1
 8000b94:	23a0      	movs	r3, #160	; 0xa0
 8000b96:	05db      	lsls	r3, r3, #23
 8000b98:	0011      	movs	r1, r2
 8000b9a:	0018      	movs	r0, r3
 8000b9c:	f000 fed2 	bl	8001944 <HAL_GPIO_Init>
  /* USER CODE BEGIN TIM2_MspPostInit 1 */

  /* USER CODE END TIM2_MspPostInit 1 */
  }

}
 8000ba0:	46c0      	nop			; (mov r8, r8)
 8000ba2:	46bd      	mov	sp, r7
 8000ba4:	b009      	add	sp, #36	; 0x24
 8000ba6:	bd90      	pop	{r4, r7, pc}
 8000ba8:	40021000 	.word	0x40021000

08000bac <Reset_Handler>:

    .section  .text.Reset_Handler
  .weak  Reset_Handler
  .type  Reset_Handler, %function
Reset_Handler:  
   ldr   r0, =_estack
 8000bac:	4813      	ldr	r0, [pc, #76]	; (8000bfc <LoopForever+0x2>)
   mov   sp, r0          /* set stack pointer */
 8000bae:	4685      	mov	sp, r0

/*Check if boot space corresponds to system memory*/

    LDR R0,=0x00000004
 8000bb0:	4813      	ldr	r0, [pc, #76]	; (8000c00 <LoopForever+0x6>)
    LDR R1, [R0]
 8000bb2:	6801      	ldr	r1, [r0, #0]
    LSRS R1, R1, #24
 8000bb4:	0e09      	lsrs	r1, r1, #24
    LDR R2,=0x1F
 8000bb6:	4a13      	ldr	r2, [pc, #76]	; (8000c04 <LoopForever+0xa>)
    CMP R1, R2
 8000bb8:	4291      	cmp	r1, r2
    BNE ApplicationStart
 8000bba:	d105      	bne.n	8000bc8 <ApplicationStart>

 /*SYSCFG clock enable*/
    LDR R0,=0x40021034
 8000bbc:	4812      	ldr	r0, [pc, #72]	; (8000c08 <LoopForever+0xe>)
    LDR R1,=0x00000001
 8000bbe:	4913      	ldr	r1, [pc, #76]	; (8000c0c <LoopForever+0x12>)
    STR R1, [R0]
 8000bc0:	6001      	str	r1, [r0, #0]

/*Set CFGR1 register with flash memory remap at address 0*/
    LDR R0,=0x40010000
 8000bc2:	4813      	ldr	r0, [pc, #76]	; (8000c10 <LoopForever+0x16>)
    LDR R1,=0x00000000
 8000bc4:	4913      	ldr	r1, [pc, #76]	; (8000c14 <LoopForever+0x1a>)
    STR R1, [R0]
 8000bc6:	6001      	str	r1, [r0, #0]

08000bc8 <ApplicationStart>:

ApplicationStart:
/* Copy the data segment initializers from flash to SRAM */
  movs  r1, #0
 8000bc8:	2100      	movs	r1, #0
  b  LoopCopyDataInit
 8000bca:	e003      	b.n	8000bd4 <LoopCopyDataInit>

08000bcc <CopyDataInit>:

CopyDataInit:
  ldr  r3, =_sidata
 8000bcc:	4b12      	ldr	r3, [pc, #72]	; (8000c18 <LoopForever+0x1e>)
  ldr  r3, [r3, r1]
 8000bce:	585b      	ldr	r3, [r3, r1]
  str  r3, [r0, r1]
 8000bd0:	5043      	str	r3, [r0, r1]
  adds  r1, r1, #4
 8000bd2:	3104      	adds	r1, #4

08000bd4 <LoopCopyDataInit>:

LoopCopyDataInit:
  ldr  r0, =_sdata
 8000bd4:	4811      	ldr	r0, [pc, #68]	; (8000c1c <LoopForever+0x22>)
  ldr  r3, =_edata
 8000bd6:	4b12      	ldr	r3, [pc, #72]	; (8000c20 <LoopForever+0x26>)
  adds  r2, r0, r1
 8000bd8:	1842      	adds	r2, r0, r1
  cmp  r2, r3
 8000bda:	429a      	cmp	r2, r3
  bcc  CopyDataInit
 8000bdc:	d3f6      	bcc.n	8000bcc <CopyDataInit>
  ldr  r2, =_sbss
 8000bde:	4a11      	ldr	r2, [pc, #68]	; (8000c24 <LoopForever+0x2a>)
  b  LoopFillZerobss
 8000be0:	e002      	b.n	8000be8 <LoopFillZerobss>

08000be2 <FillZerobss>:
/* Zero fill the bss segment. */
FillZerobss:
  movs  r3, #0
 8000be2:	2300      	movs	r3, #0
  str  r3, [r2]
 8000be4:	6013      	str	r3, [r2, #0]
  adds r2, r2, #4
 8000be6:	3204      	adds	r2, #4

08000be8 <LoopFillZerobss>:


LoopFillZerobss:
  ldr  r3, = _ebss
 8000be8:	4b0f      	ldr	r3, [pc, #60]	; (8000c28 <LoopForever+0x2e>)
  cmp  r2, r3
 8000bea:	429a      	cmp	r2, r3
  bcc  FillZerobss
 8000bec:	d3f9      	bcc.n	8000be2 <FillZerobss>

/* Call the clock system intitialization function.*/
  bl  SystemInit
 8000bee:	f7ff fe4d 	bl	800088c <SystemInit>
/* Call static constructors */
    bl __libc_init_array
 8000bf2:	f002 fdd1 	bl	8003798 <__libc_init_array>
/* Call the application's entry point.*/
  bl  main
 8000bf6:	f7ff fcab 	bl	8000550 <main>

08000bfa <LoopForever>:

LoopForever:
    b LoopForever
 8000bfa:	e7fe      	b.n	8000bfa <LoopForever>
   ldr   r0, =_estack
 8000bfc:	20000800 	.word	0x20000800
    LDR R0,=0x00000004
 8000c00:	00000004 	.word	0x00000004
    LDR R2,=0x1F
 8000c04:	0000001f 	.word	0x0000001f
    LDR R0,=0x40021034
 8000c08:	40021034 	.word	0x40021034
    LDR R1,=0x00000001
 8000c0c:	00000001 	.word	0x00000001
    LDR R0,=0x40010000
 8000c10:	40010000 	.word	0x40010000
    LDR R1,=0x00000000
 8000c14:	00000000 	.word	0x00000000
  ldr  r3, =_sidata
 8000c18:	0800382c 	.word	0x0800382c
  ldr  r0, =_sdata
 8000c1c:	20000000 	.word	0x20000000
  ldr  r3, =_edata
 8000c20:	20000008 	.word	0x20000008
  ldr  r2, =_sbss
 8000c24:	20000008 	.word	0x20000008
  ldr  r3, = _ebss
 8000c28:	2000017c 	.word	0x2000017c

08000c2c <ADC1_COMP_IRQHandler>:
 * @retval : None
*/
    .section  .text.Default_Handler,"ax",%progbits
Default_Handler:
Infinite_Loop:
  b  Infinite_Loop
 8000c2c:	e7fe      	b.n	8000c2c <ADC1_COMP_IRQHandler>
	...

08000c30 <HAL_Init>:
  *        In the default implementation,Systick is used as source of time base.
  *        the tick variable is incremented each 1ms in its ISR.
  * @retval HAL status
  */
HAL_StatusTypeDef HAL_Init(void)
{
 8000c30:	b580      	push	{r7, lr}
 8000c32:	b082      	sub	sp, #8
 8000c34:	af00      	add	r7, sp, #0
  HAL_StatusTypeDef  status = HAL_OK;
 8000c36:	1dfb      	adds	r3, r7, #7
 8000c38:	2200      	movs	r2, #0
 8000c3a:	701a      	strb	r2, [r3, #0]
#if (BUFFER_CACHE_DISABLE != 0)
  __HAL_FLASH_BUFFER_CACHE_DISABLE();
#endif /* BUFFER_CACHE_DISABLE */

#if (PREREAD_ENABLE != 0)
  __HAL_FLASH_PREREAD_BUFFER_ENABLE();
 8000c3c:	4b0b      	ldr	r3, [pc, #44]	; (8000c6c <HAL_Init+0x3c>)
 8000c3e:	681a      	ldr	r2, [r3, #0]
 8000c40:	4b0a      	ldr	r3, [pc, #40]	; (8000c6c <HAL_Init+0x3c>)
 8000c42:	2140      	movs	r1, #64	; 0x40
 8000c44:	430a      	orrs	r2, r1
 8000c46:	601a      	str	r2, [r3, #0]
#if (PREFETCH_ENABLE != 0)
  __HAL_FLASH_PREFETCH_BUFFER_ENABLE();
#endif /* PREFETCH_ENABLE */

  /* Use SysTick as time base source and configure 1ms tick (default clock after Reset is MSI) */
  if (HAL_InitTick(TICK_INT_PRIORITY) != HAL_OK)
 8000c48:	2000      	movs	r0, #0
 8000c4a:	f000 f811 	bl	8000c70 <HAL_InitTick>
 8000c4e:	1e03      	subs	r3, r0, #0
 8000c50:	d003      	beq.n	8000c5a <HAL_Init+0x2a>
  {
    status = HAL_ERROR;
 8000c52:	1dfb      	adds	r3, r7, #7
 8000c54:	2201      	movs	r2, #1
 8000c56:	701a      	strb	r2, [r3, #0]
 8000c58:	e001      	b.n	8000c5e <HAL_Init+0x2e>
  }
  else
  {
    /* Init the low level hardware */
    HAL_MspInit();
 8000c5a:	f7ff fd5d 	bl	8000718 <HAL_MspInit>
  }

  /* Return function status */
  return status;
 8000c5e:	1dfb      	adds	r3, r7, #7
 8000c60:	781b      	ldrb	r3, [r3, #0]
}
 8000c62:	0018      	movs	r0, r3
 8000c64:	46bd      	mov	sp, r7
 8000c66:	b002      	add	sp, #8
 8000c68:	bd80      	pop	{r7, pc}
 8000c6a:	46c0      	nop			; (mov r8, r8)
 8000c6c:	40022000 	.word	0x40022000

08000c70 <HAL_InitTick>:
  *       implementation  in user file.
  * @param TickPriority Tick interrupt priority.
  * @retval HAL status
  */
__weak HAL_StatusTypeDef HAL_InitTick(uint32_t TickPriority)
{
 8000c70:	b580      	push	{r7, lr}
 8000c72:	b084      	sub	sp, #16
 8000c74:	af00      	add	r7, sp, #0
 8000c76:	6078      	str	r0, [r7, #4]
  HAL_StatusTypeDef  status = HAL_OK;
 8000c78:	230f      	movs	r3, #15
 8000c7a:	18fb      	adds	r3, r7, r3
 8000c7c:	2200      	movs	r2, #0
 8000c7e:	701a      	strb	r2, [r3, #0]

  /*Configure the SysTick to have interrupt in 1ms time basis*/
  if (HAL_SYSTICK_Config(SystemCoreClock/1000UL) != 0U)
 8000c80:	4b0f      	ldr	r3, [pc, #60]	; (8000cc0 <HAL_InitTick+0x50>)
 8000c82:	681a      	ldr	r2, [r3, #0]
 8000c84:	23fa      	movs	r3, #250	; 0xfa
 8000c86:	0099      	lsls	r1, r3, #2
 8000c88:	0010      	movs	r0, r2
 8000c8a:	f7ff fa3d 	bl	8000108 <__udivsi3>
 8000c8e:	0003      	movs	r3, r0
 8000c90:	0018      	movs	r0, r3
 8000c92:	f000 fc90 	bl	80015b6 <HAL_SYSTICK_Config>
 8000c96:	1e03      	subs	r3, r0, #0
 8000c98:	d004      	beq.n	8000ca4 <HAL_InitTick+0x34>
  {
    status = HAL_ERROR;
 8000c9a:	230f      	movs	r3, #15
 8000c9c:	18fb      	adds	r3, r7, r3
 8000c9e:	2201      	movs	r2, #1
 8000ca0:	701a      	strb	r2, [r3, #0]
 8000ca2:	e006      	b.n	8000cb2 <HAL_InitTick+0x42>
  }
  else
  {
    /*Configure the SysTick IRQ priority */
    HAL_NVIC_SetPriority(SysTick_IRQn, TickPriority, 0);
 8000ca4:	6879      	ldr	r1, [r7, #4]
 8000ca6:	2301      	movs	r3, #1
 8000ca8:	425b      	negs	r3, r3
 8000caa:	2200      	movs	r2, #0
 8000cac:	0018      	movs	r0, r3
 8000cae:	f000 fc5d 	bl	800156c <HAL_NVIC_SetPriority>
  }

  /* Return function status */
  return status;
 8000cb2:	230f      	movs	r3, #15
 8000cb4:	18fb      	adds	r3, r7, r3
 8000cb6:	781b      	ldrb	r3, [r3, #0]
}
 8000cb8:	0018      	movs	r0, r3
 8000cba:	46bd      	mov	sp, r7
 8000cbc:	b004      	add	sp, #16
 8000cbe:	bd80      	pop	{r7, pc}
 8000cc0:	20000004 	.word	0x20000004

08000cc4 <HAL_IncTick>:
 * @note This function is declared as __weak to be overwritten in case of other
  *      implementations in user file.
  * @retval None
  */
__weak void HAL_IncTick(void)
{
 8000cc4:	b580      	push	{r7, lr}
 8000cc6:	af00      	add	r7, sp, #0
  uwTick++;
 8000cc8:	4b03      	ldr	r3, [pc, #12]	; (8000cd8 <HAL_IncTick+0x14>)
 8000cca:	681b      	ldr	r3, [r3, #0]
 8000ccc:	1c5a      	adds	r2, r3, #1
 8000cce:	4b02      	ldr	r3, [pc, #8]	; (8000cd8 <HAL_IncTick+0x14>)
 8000cd0:	601a      	str	r2, [r3, #0]
}
 8000cd2:	46c0      	nop			; (mov r8, r8)
 8000cd4:	46bd      	mov	sp, r7
 8000cd6:	bd80      	pop	{r7, pc}
 8000cd8:	20000178 	.word	0x20000178

08000cdc <HAL_GetTick>:
  * @note This function is declared as __weak to be overwritten in case of other
  *       implementations in user file.
  * @retval tick value
  */
__weak uint32_t HAL_GetTick(void)
{
 8000cdc:	b580      	push	{r7, lr}
 8000cde:	af00      	add	r7, sp, #0
  return uwTick;
 8000ce0:	4b02      	ldr	r3, [pc, #8]	; (8000cec <HAL_GetTick+0x10>)
 8000ce2:	681b      	ldr	r3, [r3, #0]
}
 8000ce4:	0018      	movs	r0, r3
 8000ce6:	46bd      	mov	sp, r7
 8000ce8:	bd80      	pop	{r7, pc}
 8000cea:	46c0      	nop			; (mov r8, r8)
 8000cec:	20000178 	.word	0x20000178

08000cf0 <HAL_ADC_Init>:
  *         function "HAL_ADCEx_EnableVREFINTTempSensor()" must be called similarilly.  
  * @param  hadc ADC handle
  * @retval HAL status
  */
HAL_StatusTypeDef HAL_ADC_Init(ADC_HandleTypeDef* hadc)
{
 8000cf0:	b580      	push	{r7, lr}
 8000cf2:	b082      	sub	sp, #8
 8000cf4:	af00      	add	r7, sp, #0
 8000cf6:	6078      	str	r0, [r7, #4]
 
  /* Check ADC handle */
  if(hadc == NULL)
 8000cf8:	687b      	ldr	r3, [r7, #4]
 8000cfa:	2b00      	cmp	r3, #0
 8000cfc:	d101      	bne.n	8000d02 <HAL_ADC_Init+0x12>
  {
    return HAL_ERROR;
 8000cfe:	2301      	movs	r3, #1
 8000d00:	e159      	b.n	8000fb6 <HAL_ADC_Init+0x2c6>
  /* Refer to header of this file for more details on clock enabling procedure*/
  
  /* Actions performed only if ADC is coming from state reset:                */
  /* - Initialization of ADC MSP                                              */
  /* - ADC voltage regulator enable                                           */
  if(hadc->State == HAL_ADC_STATE_RESET)
 8000d02:	687b      	ldr	r3, [r7, #4]
 8000d04:	6d5b      	ldr	r3, [r3, #84]	; 0x54
 8000d06:	2b00      	cmp	r3, #0
 8000d08:	d10a      	bne.n	8000d20 <HAL_ADC_Init+0x30>
  {
    /* Initialize ADC error code */
    ADC_CLEAR_ERRORCODE(hadc);
 8000d0a:	687b      	ldr	r3, [r7, #4]
 8000d0c:	2200      	movs	r2, #0
 8000d0e:	659a      	str	r2, [r3, #88]	; 0x58
    
    /* Allocate lock resource and initialize it */
    hadc->Lock = HAL_UNLOCKED;
 8000d10:	687b      	ldr	r3, [r7, #4]
 8000d12:	2250      	movs	r2, #80	; 0x50
 8000d14:	2100      	movs	r1, #0
 8000d16:	5499      	strb	r1, [r3, r2]
    
    /* Init the low level hardware */
    hadc->MspInitCallback(hadc);
#else
    /* Init the low level hardware */
    HAL_ADC_MspInit(hadc);
 8000d18:	687b      	ldr	r3, [r7, #4]
 8000d1a:	0018      	movs	r0, r3
 8000d1c:	f7ff fae6 	bl	80002ec <HAL_ADC_MspInit>
  /* Configuration of ADC parameters if previous preliminary actions are      */ 
  /* correctly completed.                                                     */
  /* and if there is no conversion on going on regular group (ADC can be      */
  /* enabled anyway, in case of call of this function to update a parameter   */
  /* on the fly).                                                             */
  if (HAL_IS_BIT_SET(hadc->State, HAL_ADC_STATE_ERROR_INTERNAL) ||
 8000d20:	687b      	ldr	r3, [r7, #4]
 8000d22:	6d5b      	ldr	r3, [r3, #84]	; 0x54
 8000d24:	2210      	movs	r2, #16
 8000d26:	4013      	ands	r3, r2
 8000d28:	2b10      	cmp	r3, #16
 8000d2a:	d005      	beq.n	8000d38 <HAL_ADC_Init+0x48>
     (ADC_IS_CONVERSION_ONGOING_REGULAR(hadc) != RESET)  )
 8000d2c:	687b      	ldr	r3, [r7, #4]
 8000d2e:	681b      	ldr	r3, [r3, #0]
 8000d30:	689b      	ldr	r3, [r3, #8]
 8000d32:	2204      	movs	r2, #4
 8000d34:	4013      	ands	r3, r2
  if (HAL_IS_BIT_SET(hadc->State, HAL_ADC_STATE_ERROR_INTERNAL) ||
 8000d36:	d00b      	beq.n	8000d50 <HAL_ADC_Init+0x60>
  {
    /* Update ADC state machine to error */
    SET_BIT(hadc->State, HAL_ADC_STATE_ERROR_INTERNAL);
 8000d38:	687b      	ldr	r3, [r7, #4]
 8000d3a:	6d5b      	ldr	r3, [r3, #84]	; 0x54
 8000d3c:	2210      	movs	r2, #16
 8000d3e:	431a      	orrs	r2, r3
 8000d40:	687b      	ldr	r3, [r7, #4]
 8000d42:	655a      	str	r2, [r3, #84]	; 0x54
        
    /* Process unlocked */
    __HAL_UNLOCK(hadc);
 8000d44:	687b      	ldr	r3, [r7, #4]
 8000d46:	2250      	movs	r2, #80	; 0x50
 8000d48:	2100      	movs	r1, #0
 8000d4a:	5499      	strb	r1, [r3, r2]
    return HAL_ERROR;
 8000d4c:	2301      	movs	r3, #1
 8000d4e:	e132      	b.n	8000fb6 <HAL_ADC_Init+0x2c6>
  }

  /* Set ADC state */
  ADC_STATE_CLR_SET(hadc->State,
 8000d50:	687b      	ldr	r3, [r7, #4]
 8000d52:	6d5b      	ldr	r3, [r3, #84]	; 0x54
 8000d54:	4a9a      	ldr	r2, [pc, #616]	; (8000fc0 <HAL_ADC_Init+0x2d0>)
 8000d56:	4013      	ands	r3, r2
 8000d58:	2202      	movs	r2, #2
 8000d5a:	431a      	orrs	r2, r3
 8000d5c:	687b      	ldr	r3, [r7, #4]
 8000d5e:	655a      	str	r2, [r3, #84]	; 0x54
  /* Parameters update conditioned to ADC state:                            */
  /* Parameters that can be updated only when ADC is disabled:              */
  /*  - ADC clock mode                                                      */
  /*  - ADC clock prescaler                                                 */
  /*  - ADC Resolution                                                      */
  if (ADC_IS_ENABLE(hadc) == RESET)
 8000d60:	687b      	ldr	r3, [r7, #4]
 8000d62:	681b      	ldr	r3, [r3, #0]
 8000d64:	689b      	ldr	r3, [r3, #8]
 8000d66:	2203      	movs	r2, #3
 8000d68:	4013      	ands	r3, r2
 8000d6a:	2b01      	cmp	r3, #1
 8000d6c:	d108      	bne.n	8000d80 <HAL_ADC_Init+0x90>
 8000d6e:	687b      	ldr	r3, [r7, #4]
 8000d70:	681b      	ldr	r3, [r3, #0]
 8000d72:	681b      	ldr	r3, [r3, #0]
 8000d74:	2201      	movs	r2, #1
 8000d76:	4013      	ands	r3, r2
 8000d78:	2b01      	cmp	r3, #1
 8000d7a:	d101      	bne.n	8000d80 <HAL_ADC_Init+0x90>
 8000d7c:	2301      	movs	r3, #1
 8000d7e:	e000      	b.n	8000d82 <HAL_ADC_Init+0x92>
 8000d80:	2300      	movs	r3, #0
 8000d82:	2b00      	cmp	r3, #0
 8000d84:	d149      	bne.n	8000e1a <HAL_ADC_Init+0x12a>
    /*   - internal measurement paths: Vbat, temperature sensor, Vref       */
    /*     (set into HAL_ADC_ConfigChannel() )                              */
   
    /* Configuration of ADC clock: clock source PCLK or asynchronous with 
    selectable prescaler */
    __HAL_ADC_CLOCK_PRESCALER(hadc);
 8000d86:	687b      	ldr	r3, [r7, #4]
 8000d88:	685a      	ldr	r2, [r3, #4]
 8000d8a:	23c0      	movs	r3, #192	; 0xc0
 8000d8c:	061b      	lsls	r3, r3, #24
 8000d8e:	429a      	cmp	r2, r3
 8000d90:	d00b      	beq.n	8000daa <HAL_ADC_Init+0xba>
 8000d92:	687b      	ldr	r3, [r7, #4]
 8000d94:	685a      	ldr	r2, [r3, #4]
 8000d96:	2380      	movs	r3, #128	; 0x80
 8000d98:	05db      	lsls	r3, r3, #23
 8000d9a:	429a      	cmp	r2, r3
 8000d9c:	d005      	beq.n	8000daa <HAL_ADC_Init+0xba>
 8000d9e:	687b      	ldr	r3, [r7, #4]
 8000da0:	685a      	ldr	r2, [r3, #4]
 8000da2:	2380      	movs	r3, #128	; 0x80
 8000da4:	061b      	lsls	r3, r3, #24
 8000da6:	429a      	cmp	r2, r3
 8000da8:	d111      	bne.n	8000dce <HAL_ADC_Init+0xde>
 8000daa:	687b      	ldr	r3, [r7, #4]
 8000dac:	681b      	ldr	r3, [r3, #0]
 8000dae:	691a      	ldr	r2, [r3, #16]
 8000db0:	687b      	ldr	r3, [r7, #4]
 8000db2:	681b      	ldr	r3, [r3, #0]
 8000db4:	0092      	lsls	r2, r2, #2
 8000db6:	0892      	lsrs	r2, r2, #2
 8000db8:	611a      	str	r2, [r3, #16]
 8000dba:	687b      	ldr	r3, [r7, #4]
 8000dbc:	681b      	ldr	r3, [r3, #0]
 8000dbe:	6919      	ldr	r1, [r3, #16]
 8000dc0:	687b      	ldr	r3, [r7, #4]
 8000dc2:	685a      	ldr	r2, [r3, #4]
 8000dc4:	687b      	ldr	r3, [r7, #4]
 8000dc6:	681b      	ldr	r3, [r3, #0]
 8000dc8:	430a      	orrs	r2, r1
 8000dca:	611a      	str	r2, [r3, #16]
 8000dcc:	e014      	b.n	8000df8 <HAL_ADC_Init+0x108>
 8000dce:	687b      	ldr	r3, [r7, #4]
 8000dd0:	681b      	ldr	r3, [r3, #0]
 8000dd2:	691a      	ldr	r2, [r3, #16]
 8000dd4:	687b      	ldr	r3, [r7, #4]
 8000dd6:	681b      	ldr	r3, [r3, #0]
 8000dd8:	0092      	lsls	r2, r2, #2
 8000dda:	0892      	lsrs	r2, r2, #2
 8000ddc:	611a      	str	r2, [r3, #16]
 8000dde:	4b79      	ldr	r3, [pc, #484]	; (8000fc4 <HAL_ADC_Init+0x2d4>)
 8000de0:	681a      	ldr	r2, [r3, #0]
 8000de2:	4b78      	ldr	r3, [pc, #480]	; (8000fc4 <HAL_ADC_Init+0x2d4>)
 8000de4:	4978      	ldr	r1, [pc, #480]	; (8000fc8 <HAL_ADC_Init+0x2d8>)
 8000de6:	400a      	ands	r2, r1
 8000de8:	601a      	str	r2, [r3, #0]
 8000dea:	4b76      	ldr	r3, [pc, #472]	; (8000fc4 <HAL_ADC_Init+0x2d4>)
 8000dec:	6819      	ldr	r1, [r3, #0]
 8000dee:	687b      	ldr	r3, [r7, #4]
 8000df0:	685a      	ldr	r2, [r3, #4]
 8000df2:	4b74      	ldr	r3, [pc, #464]	; (8000fc4 <HAL_ADC_Init+0x2d4>)
 8000df4:	430a      	orrs	r2, r1
 8000df6:	601a      	str	r2, [r3, #0]
    
    /* Configuration of ADC:                                                */
    /*  - Resolution                                                        */
    hadc->Instance->CFGR1 &= ~( ADC_CFGR1_RES);
 8000df8:	687b      	ldr	r3, [r7, #4]
 8000dfa:	681b      	ldr	r3, [r3, #0]
 8000dfc:	68da      	ldr	r2, [r3, #12]
 8000dfe:	687b      	ldr	r3, [r7, #4]
 8000e00:	681b      	ldr	r3, [r3, #0]
 8000e02:	2118      	movs	r1, #24
 8000e04:	438a      	bics	r2, r1
 8000e06:	60da      	str	r2, [r3, #12]
    hadc->Instance->CFGR1 |= hadc->Init.Resolution;    
 8000e08:	687b      	ldr	r3, [r7, #4]
 8000e0a:	681b      	ldr	r3, [r3, #0]
 8000e0c:	68d9      	ldr	r1, [r3, #12]
 8000e0e:	687b      	ldr	r3, [r7, #4]
 8000e10:	689a      	ldr	r2, [r3, #8]
 8000e12:	687b      	ldr	r3, [r7, #4]
 8000e14:	681b      	ldr	r3, [r3, #0]
 8000e16:	430a      	orrs	r2, r1
 8000e18:	60da      	str	r2, [r3, #12]
  }
  
  /* Set the Low Frequency mode */
  ADC->CCR &= (uint32_t)~ADC_CCR_LFMEN;
 8000e1a:	4b6a      	ldr	r3, [pc, #424]	; (8000fc4 <HAL_ADC_Init+0x2d4>)
 8000e1c:	681a      	ldr	r2, [r3, #0]
 8000e1e:	4b69      	ldr	r3, [pc, #420]	; (8000fc4 <HAL_ADC_Init+0x2d4>)
 8000e20:	496a      	ldr	r1, [pc, #424]	; (8000fcc <HAL_ADC_Init+0x2dc>)
 8000e22:	400a      	ands	r2, r1
 8000e24:	601a      	str	r2, [r3, #0]
  ADC->CCR |=__HAL_ADC_CCR_LOWFREQUENCY(hadc->Init.LowPowerFrequencyMode);  
 8000e26:	4b67      	ldr	r3, [pc, #412]	; (8000fc4 <HAL_ADC_Init+0x2d4>)
 8000e28:	6819      	ldr	r1, [r3, #0]
 8000e2a:	687b      	ldr	r3, [r7, #4]
 8000e2c:	6b5b      	ldr	r3, [r3, #52]	; 0x34
 8000e2e:	065a      	lsls	r2, r3, #25
 8000e30:	4b64      	ldr	r3, [pc, #400]	; (8000fc4 <HAL_ADC_Init+0x2d4>)
 8000e32:	430a      	orrs	r2, r1
 8000e34:	601a      	str	r2, [r3, #0]
   
  /* Enable voltage regulator (if disabled at this step) */
  if (HAL_IS_BIT_CLR(hadc->Instance->CR, ADC_CR_ADVREGEN))
 8000e36:	687b      	ldr	r3, [r7, #4]
 8000e38:	681b      	ldr	r3, [r3, #0]
 8000e3a:	689a      	ldr	r2, [r3, #8]
 8000e3c:	2380      	movs	r3, #128	; 0x80
 8000e3e:	055b      	lsls	r3, r3, #21
 8000e40:	4013      	ands	r3, r2
 8000e42:	d108      	bne.n	8000e56 <HAL_ADC_Init+0x166>
  {
    /* Set ADVREGEN bit */
    hadc->Instance->CR |= ADC_CR_ADVREGEN;
 8000e44:	687b      	ldr	r3, [r7, #4]
 8000e46:	681b      	ldr	r3, [r3, #0]
 8000e48:	689a      	ldr	r2, [r3, #8]
 8000e4a:	687b      	ldr	r3, [r7, #4]
 8000e4c:	681b      	ldr	r3, [r3, #0]
 8000e4e:	2180      	movs	r1, #128	; 0x80
 8000e50:	0549      	lsls	r1, r1, #21
 8000e52:	430a      	orrs	r2, r1
 8000e54:	609a      	str	r2, [r3, #8]
  /*  - Continuous conversion mode                                            */
  /*  - DMA continuous request                                                */
  /*  - Overrun                                                               */
  /*  - AutoDelay feature                                                     */
  /*  - Discontinuous mode                                                    */
  hadc->Instance->CFGR1 &= ~(ADC_CFGR1_ALIGN   |
 8000e56:	687b      	ldr	r3, [r7, #4]
 8000e58:	681b      	ldr	r3, [r3, #0]
 8000e5a:	68da      	ldr	r2, [r3, #12]
 8000e5c:	687b      	ldr	r3, [r7, #4]
 8000e5e:	681b      	ldr	r3, [r3, #0]
 8000e60:	495b      	ldr	r1, [pc, #364]	; (8000fd0 <HAL_ADC_Init+0x2e0>)
 8000e62:	400a      	ands	r2, r1
 8000e64:	60da      	str	r2, [r3, #12]
                             ADC_CFGR1_OVRMOD  |
                             ADC_CFGR1_AUTDLY  |
                             ADC_CFGR1_AUTOFF  |
                             ADC_CFGR1_DISCEN   );
  
  hadc->Instance->CFGR1 |= (hadc->Init.DataAlign                             |
 8000e66:	687b      	ldr	r3, [r7, #4]
 8000e68:	681b      	ldr	r3, [r3, #0]
 8000e6a:	68d9      	ldr	r1, [r3, #12]
 8000e6c:	687b      	ldr	r3, [r7, #4]
 8000e6e:	68da      	ldr	r2, [r3, #12]
                            ADC_SCANDIR(hadc->Init.ScanConvMode)             |
 8000e70:	687b      	ldr	r3, [r7, #4]
 8000e72:	691b      	ldr	r3, [r3, #16]
 8000e74:	2b02      	cmp	r3, #2
 8000e76:	d101      	bne.n	8000e7c <HAL_ADC_Init+0x18c>
 8000e78:	2304      	movs	r3, #4
 8000e7a:	e000      	b.n	8000e7e <HAL_ADC_Init+0x18e>
 8000e7c:	2300      	movs	r3, #0
  hadc->Instance->CFGR1 |= (hadc->Init.DataAlign                             |
 8000e7e:	431a      	orrs	r2, r3
                            ADC_CONTINUOUS((uint32_t)hadc->Init.ContinuousConvMode)    |
 8000e80:	687b      	ldr	r3, [r7, #4]
 8000e82:	2020      	movs	r0, #32
 8000e84:	5c1b      	ldrb	r3, [r3, r0]
 8000e86:	035b      	lsls	r3, r3, #13
                            ADC_SCANDIR(hadc->Init.ScanConvMode)             |
 8000e88:	431a      	orrs	r2, r3
                            ADC_DMACONTREQ((uint32_t)hadc->Init.DMAContinuousRequests) |
 8000e8a:	687b      	ldr	r3, [r7, #4]
 8000e8c:	202c      	movs	r0, #44	; 0x2c
 8000e8e:	5c1b      	ldrb	r3, [r3, r0]
 8000e90:	005b      	lsls	r3, r3, #1
                            ADC_CONTINUOUS((uint32_t)hadc->Init.ContinuousConvMode)    |
 8000e92:	431a      	orrs	r2, r3
                            hadc->Init.Overrun                               |
 8000e94:	687b      	ldr	r3, [r7, #4]
 8000e96:	6b1b      	ldr	r3, [r3, #48]	; 0x30
                            ADC_DMACONTREQ((uint32_t)hadc->Init.DMAContinuousRequests) |
 8000e98:	431a      	orrs	r2, r3
                            __HAL_ADC_CFGR1_AutoDelay(hadc->Init.LowPowerAutoWait) |
 8000e9a:	687b      	ldr	r3, [r7, #4]
 8000e9c:	699b      	ldr	r3, [r3, #24]
 8000e9e:	039b      	lsls	r3, r3, #14
                            hadc->Init.Overrun                               |
 8000ea0:	431a      	orrs	r2, r3
                            __HAL_ADC_CFGR1_AUTOFF(hadc->Init.LowPowerAutoPowerOff));
 8000ea2:	687b      	ldr	r3, [r7, #4]
 8000ea4:	69db      	ldr	r3, [r3, #28]
 8000ea6:	03db      	lsls	r3, r3, #15
                            __HAL_ADC_CFGR1_AutoDelay(hadc->Init.LowPowerAutoWait) |
 8000ea8:	431a      	orrs	r2, r3
  hadc->Instance->CFGR1 |= (hadc->Init.DataAlign                             |
 8000eaa:	687b      	ldr	r3, [r7, #4]
 8000eac:	681b      	ldr	r3, [r3, #0]
 8000eae:	430a      	orrs	r2, r1
 8000eb0:	60da      	str	r2, [r3, #12]
  /* Enable external trigger if trigger selection is different of software  */
  /* start.                                                                 */
  /* Note: This configuration keeps the hardware feature of parameter       */
  /*       ExternalTrigConvEdge "trigger edge none" equivalent to           */
  /*       software start.                                                  */
  if (hadc->Init.ExternalTrigConv != ADC_SOFTWARE_START)
 8000eb2:	687b      	ldr	r3, [r7, #4]
 8000eb4:	6a5a      	ldr	r2, [r3, #36]	; 0x24
 8000eb6:	23c2      	movs	r3, #194	; 0xc2
 8000eb8:	33ff      	adds	r3, #255	; 0xff
 8000eba:	429a      	cmp	r2, r3
 8000ebc:	d00b      	beq.n	8000ed6 <HAL_ADC_Init+0x1e6>
  {
    hadc->Instance->CFGR1 |= hadc->Init.ExternalTrigConv |
 8000ebe:	687b      	ldr	r3, [r7, #4]
 8000ec0:	681b      	ldr	r3, [r3, #0]
 8000ec2:	68d9      	ldr	r1, [r3, #12]
 8000ec4:	687b      	ldr	r3, [r7, #4]
 8000ec6:	6a5a      	ldr	r2, [r3, #36]	; 0x24
                             hadc->Init.ExternalTrigConvEdge;
 8000ec8:	687b      	ldr	r3, [r7, #4]
 8000eca:	6a9b      	ldr	r3, [r3, #40]	; 0x28
    hadc->Instance->CFGR1 |= hadc->Init.ExternalTrigConv |
 8000ecc:	431a      	orrs	r2, r3
 8000ece:	687b      	ldr	r3, [r7, #4]
 8000ed0:	681b      	ldr	r3, [r3, #0]
 8000ed2:	430a      	orrs	r2, r1
 8000ed4:	60da      	str	r2, [r3, #12]
  }
  
  /* Enable discontinuous mode only if continuous mode is disabled */
  if (hadc->Init.DiscontinuousConvMode == ENABLE)
 8000ed6:	687b      	ldr	r3, [r7, #4]
 8000ed8:	2221      	movs	r2, #33	; 0x21
 8000eda:	5c9b      	ldrb	r3, [r3, r2]
 8000edc:	2b01      	cmp	r3, #1
 8000ede:	d11a      	bne.n	8000f16 <HAL_ADC_Init+0x226>
  {
    if (hadc->Init.ContinuousConvMode == DISABLE)
 8000ee0:	687b      	ldr	r3, [r7, #4]
 8000ee2:	2220      	movs	r2, #32
 8000ee4:	5c9b      	ldrb	r3, [r3, r2]
 8000ee6:	2b00      	cmp	r3, #0
 8000ee8:	d109      	bne.n	8000efe <HAL_ADC_Init+0x20e>
    {
      /* Enable the selected ADC group regular discontinuous mode */
      hadc->Instance->CFGR1 |= (ADC_CFGR1_DISCEN);
 8000eea:	687b      	ldr	r3, [r7, #4]
 8000eec:	681b      	ldr	r3, [r3, #0]
 8000eee:	68da      	ldr	r2, [r3, #12]
 8000ef0:	687b      	ldr	r3, [r7, #4]
 8000ef2:	681b      	ldr	r3, [r3, #0]
 8000ef4:	2180      	movs	r1, #128	; 0x80
 8000ef6:	0249      	lsls	r1, r1, #9
 8000ef8:	430a      	orrs	r2, r1
 8000efa:	60da      	str	r2, [r3, #12]
 8000efc:	e00b      	b.n	8000f16 <HAL_ADC_Init+0x226>
      /* ADC regular group discontinuous was intended to be enabled,        */
      /* but ADC regular group modes continuous and sequencer discontinuous */
      /* cannot be enabled simultaneously.                                  */
      
      /* Update ADC state machine to error */
      SET_BIT(hadc->State, HAL_ADC_STATE_ERROR_CONFIG);
 8000efe:	687b      	ldr	r3, [r7, #4]
 8000f00:	6d5b      	ldr	r3, [r3, #84]	; 0x54
 8000f02:	2220      	movs	r2, #32
 8000f04:	431a      	orrs	r2, r3
 8000f06:	687b      	ldr	r3, [r7, #4]
 8000f08:	655a      	str	r2, [r3, #84]	; 0x54
      
      /* Set ADC error code to ADC peripheral internal error */
      SET_BIT(hadc->ErrorCode, HAL_ADC_ERROR_INTERNAL);
 8000f0a:	687b      	ldr	r3, [r7, #4]
 8000f0c:	6d9b      	ldr	r3, [r3, #88]	; 0x58
 8000f0e:	2201      	movs	r2, #1
 8000f10:	431a      	orrs	r2, r3
 8000f12:	687b      	ldr	r3, [r7, #4]
 8000f14:	659a      	str	r2, [r3, #88]	; 0x58
    }
  }
  
  if (hadc->Init.OversamplingMode == ENABLE)
 8000f16:	687b      	ldr	r3, [r7, #4]
 8000f18:	6bdb      	ldr	r3, [r3, #60]	; 0x3c
 8000f1a:	2b01      	cmp	r3, #1
 8000f1c:	d11f      	bne.n	8000f5e <HAL_ADC_Init+0x26e>
    /* Configuration of Oversampler:                                          */
    /*  - Oversampling Ratio                                                  */
    /*  - Right bit shift                                                     */
    /*  - Triggered mode                                                      */
    
    hadc->Instance->CFGR2 &= ~( ADC_CFGR2_OVSR |
 8000f1e:	687b      	ldr	r3, [r7, #4]
 8000f20:	681b      	ldr	r3, [r3, #0]
 8000f22:	691a      	ldr	r2, [r3, #16]
 8000f24:	687b      	ldr	r3, [r7, #4]
 8000f26:	681b      	ldr	r3, [r3, #0]
 8000f28:	492a      	ldr	r1, [pc, #168]	; (8000fd4 <HAL_ADC_Init+0x2e4>)
 8000f2a:	400a      	ands	r2, r1
 8000f2c:	611a      	str	r2, [r3, #16]
                                ADC_CFGR2_OVSS |
                                ADC_CFGR2_TOVS );
    
    hadc->Instance->CFGR2 |= ( hadc->Init.Oversample.Ratio         |
 8000f2e:	687b      	ldr	r3, [r7, #4]
 8000f30:	681b      	ldr	r3, [r3, #0]
 8000f32:	6919      	ldr	r1, [r3, #16]
 8000f34:	687b      	ldr	r3, [r7, #4]
 8000f36:	6c1a      	ldr	r2, [r3, #64]	; 0x40
                               hadc->Init.Oversample.RightBitShift             |
 8000f38:	687b      	ldr	r3, [r7, #4]
 8000f3a:	6c5b      	ldr	r3, [r3, #68]	; 0x44
    hadc->Instance->CFGR2 |= ( hadc->Init.Oversample.Ratio         |
 8000f3c:	431a      	orrs	r2, r3
                               hadc->Init.Oversample.TriggeredMode );
 8000f3e:	687b      	ldr	r3, [r7, #4]
 8000f40:	6c9b      	ldr	r3, [r3, #72]	; 0x48
                               hadc->Init.Oversample.RightBitShift             |
 8000f42:	431a      	orrs	r2, r3
    hadc->Instance->CFGR2 |= ( hadc->Init.Oversample.Ratio         |
 8000f44:	687b      	ldr	r3, [r7, #4]
 8000f46:	681b      	ldr	r3, [r3, #0]
 8000f48:	430a      	orrs	r2, r1
 8000f4a:	611a      	str	r2, [r3, #16]
    
    /* Enable OverSampling mode */
     hadc->Instance->CFGR2 |= ADC_CFGR2_OVSE;
 8000f4c:	687b      	ldr	r3, [r7, #4]
 8000f4e:	681b      	ldr	r3, [r3, #0]
 8000f50:	691a      	ldr	r2, [r3, #16]
 8000f52:	687b      	ldr	r3, [r7, #4]
 8000f54:	681b      	ldr	r3, [r3, #0]
 8000f56:	2101      	movs	r1, #1
 8000f58:	430a      	orrs	r2, r1
 8000f5a:	611a      	str	r2, [r3, #16]
 8000f5c:	e00e      	b.n	8000f7c <HAL_ADC_Init+0x28c>
  }
  else
  {
    if(HAL_IS_BIT_SET(hadc->Instance->CFGR2, ADC_CFGR2_OVSE))
 8000f5e:	687b      	ldr	r3, [r7, #4]
 8000f60:	681b      	ldr	r3, [r3, #0]
 8000f62:	691b      	ldr	r3, [r3, #16]
 8000f64:	2201      	movs	r2, #1
 8000f66:	4013      	ands	r3, r2
 8000f68:	2b01      	cmp	r3, #1
 8000f6a:	d107      	bne.n	8000f7c <HAL_ADC_Init+0x28c>
    {
      /* Disable OverSampling mode if needed */
      hadc->Instance->CFGR2 &= ~ADC_CFGR2_OVSE;
 8000f6c:	687b      	ldr	r3, [r7, #4]
 8000f6e:	681b      	ldr	r3, [r3, #0]
 8000f70:	691a      	ldr	r2, [r3, #16]
 8000f72:	687b      	ldr	r3, [r7, #4]
 8000f74:	681b      	ldr	r3, [r3, #0]
 8000f76:	2101      	movs	r1, #1
 8000f78:	438a      	bics	r2, r1
 8000f7a:	611a      	str	r2, [r3, #16]
    }
  }    
  
  /* Clear the old sampling time */
  hadc->Instance->SMPR &= (uint32_t)(~ADC_SMPR_SMPR);
 8000f7c:	687b      	ldr	r3, [r7, #4]
 8000f7e:	681b      	ldr	r3, [r3, #0]
 8000f80:	695a      	ldr	r2, [r3, #20]
 8000f82:	687b      	ldr	r3, [r7, #4]
 8000f84:	681b      	ldr	r3, [r3, #0]
 8000f86:	2107      	movs	r1, #7
 8000f88:	438a      	bics	r2, r1
 8000f8a:	615a      	str	r2, [r3, #20]
  
  /* Set the new sample time */
  hadc->Instance->SMPR |= hadc->Init.SamplingTime;
 8000f8c:	687b      	ldr	r3, [r7, #4]
 8000f8e:	681b      	ldr	r3, [r3, #0]
 8000f90:	6959      	ldr	r1, [r3, #20]
 8000f92:	687b      	ldr	r3, [r7, #4]
 8000f94:	6b9a      	ldr	r2, [r3, #56]	; 0x38
 8000f96:	687b      	ldr	r3, [r7, #4]
 8000f98:	681b      	ldr	r3, [r3, #0]
 8000f9a:	430a      	orrs	r2, r1
 8000f9c:	615a      	str	r2, [r3, #20]
  
  /* Clear ADC error code */
  ADC_CLEAR_ERRORCODE(hadc);
 8000f9e:	687b      	ldr	r3, [r7, #4]
 8000fa0:	2200      	movs	r2, #0
 8000fa2:	659a      	str	r2, [r3, #88]	; 0x58

  /* Set the ADC state */
  ADC_STATE_CLR_SET(hadc->State,
 8000fa4:	687b      	ldr	r3, [r7, #4]
 8000fa6:	6d5b      	ldr	r3, [r3, #84]	; 0x54
 8000fa8:	2203      	movs	r2, #3
 8000faa:	4393      	bics	r3, r2
 8000fac:	2201      	movs	r2, #1
 8000fae:	431a      	orrs	r2, r3
 8000fb0:	687b      	ldr	r3, [r7, #4]
 8000fb2:	655a      	str	r2, [r3, #84]	; 0x54
                    HAL_ADC_STATE_BUSY_INTERNAL,
                    HAL_ADC_STATE_READY);


  /* Return function status */
  return HAL_OK;
 8000fb4:	2300      	movs	r3, #0
}
 8000fb6:	0018      	movs	r0, r3
 8000fb8:	46bd      	mov	sp, r7
 8000fba:	b002      	add	sp, #8
 8000fbc:	bd80      	pop	{r7, pc}
 8000fbe:	46c0      	nop			; (mov r8, r8)
 8000fc0:	fffffefd 	.word	0xfffffefd
 8000fc4:	40012708 	.word	0x40012708
 8000fc8:	ffc3ffff 	.word	0xffc3ffff
 8000fcc:	fdffffff 	.word	0xfdffffff
 8000fd0:	fffe0219 	.word	0xfffe0219
 8000fd4:	fffffc03 	.word	0xfffffc03

08000fd8 <HAL_ADC_Start_DMA>:
  * @param  pData Destination Buffer address.
  * @param  Length Length of data to be transferred from ADC peripheral to memory (in bytes)
  * @retval HAL status.
  */
HAL_StatusTypeDef HAL_ADC_Start_DMA(ADC_HandleTypeDef* hadc, uint32_t* pData, uint32_t Length)
{
 8000fd8:	b590      	push	{r4, r7, lr}
 8000fda:	b087      	sub	sp, #28
 8000fdc:	af00      	add	r7, sp, #0
 8000fde:	60f8      	str	r0, [r7, #12]
 8000fe0:	60b9      	str	r1, [r7, #8]
 8000fe2:	607a      	str	r2, [r7, #4]
  HAL_StatusTypeDef tmp_hal_status = HAL_OK;
 8000fe4:	2317      	movs	r3, #23
 8000fe6:	18fb      	adds	r3, r7, r3
 8000fe8:	2200      	movs	r2, #0
 8000fea:	701a      	strb	r2, [r3, #0]
  
  /* Check the parameters */
  assert_param(IS_ADC_ALL_INSTANCE(hadc->Instance));
  
  /* Perform ADC enable and conversion start if no conversion is on going */
  if (ADC_IS_CONVERSION_ONGOING_REGULAR(hadc) == RESET)
 8000fec:	68fb      	ldr	r3, [r7, #12]
 8000fee:	681b      	ldr	r3, [r3, #0]
 8000ff0:	689b      	ldr	r3, [r3, #8]
 8000ff2:	2204      	movs	r2, #4
 8000ff4:	4013      	ands	r3, r2
 8000ff6:	d15e      	bne.n	80010b6 <HAL_ADC_Start_DMA+0xde>
  {
    /* Process locked */
    __HAL_LOCK(hadc);
 8000ff8:	68fb      	ldr	r3, [r7, #12]
 8000ffa:	2250      	movs	r2, #80	; 0x50
 8000ffc:	5c9b      	ldrb	r3, [r3, r2]
 8000ffe:	2b01      	cmp	r3, #1
 8001000:	d101      	bne.n	8001006 <HAL_ADC_Start_DMA+0x2e>
 8001002:	2302      	movs	r3, #2
 8001004:	e05e      	b.n	80010c4 <HAL_ADC_Start_DMA+0xec>
 8001006:	68fb      	ldr	r3, [r7, #12]
 8001008:	2250      	movs	r2, #80	; 0x50
 800100a:	2101      	movs	r1, #1
 800100c:	5499      	strb	r1, [r3, r2]

    /* Enable the ADC peripheral */
    /* If low power mode AutoPowerOff is enabled, power-on/off phases are       */
    /* performed automatically by hardware.                                     */
    if (hadc->Init.LowPowerAutoPowerOff != ENABLE)
 800100e:	68fb      	ldr	r3, [r7, #12]
 8001010:	69db      	ldr	r3, [r3, #28]
 8001012:	2b01      	cmp	r3, #1
 8001014:	d007      	beq.n	8001026 <HAL_ADC_Start_DMA+0x4e>
    {
      tmp_hal_status = ADC_Enable(hadc);
 8001016:	2317      	movs	r3, #23
 8001018:	18fc      	adds	r4, r7, r3
 800101a:	68fb      	ldr	r3, [r7, #12]
 800101c:	0018      	movs	r0, r3
 800101e:	f000 f8fb 	bl	8001218 <ADC_Enable>
 8001022:	0003      	movs	r3, r0
 8001024:	7023      	strb	r3, [r4, #0]
    }
    
    /* Start conversion if ADC is effectively enabled */
    if (tmp_hal_status == HAL_OK)
 8001026:	2317      	movs	r3, #23
 8001028:	18fb      	adds	r3, r7, r3
 800102a:	781b      	ldrb	r3, [r3, #0]
 800102c:	2b00      	cmp	r3, #0
 800102e:	d146      	bne.n	80010be <HAL_ADC_Start_DMA+0xe6>
    {
      /* Set ADC state                                                        */
      /* - Clear state bitfield related to regular group conversion results   */
      /* - Set state bitfield related to regular operation                    */
      ADC_STATE_CLR_SET(hadc->State,
 8001030:	68fb      	ldr	r3, [r7, #12]
 8001032:	6d5b      	ldr	r3, [r3, #84]	; 0x54
 8001034:	4a25      	ldr	r2, [pc, #148]	; (80010cc <HAL_ADC_Start_DMA+0xf4>)
 8001036:	4013      	ands	r3, r2
 8001038:	2280      	movs	r2, #128	; 0x80
 800103a:	0052      	lsls	r2, r2, #1
 800103c:	431a      	orrs	r2, r3
 800103e:	68fb      	ldr	r3, [r7, #12]
 8001040:	655a      	str	r2, [r3, #84]	; 0x54
                        HAL_ADC_STATE_READY | HAL_ADC_STATE_REG_EOC | HAL_ADC_STATE_REG_OVR | HAL_ADC_STATE_REG_EOSMP,
                        HAL_ADC_STATE_REG_BUSY);
      
      /* Reset ADC all error code fields */
      ADC_CLEAR_ERRORCODE(hadc);
 8001042:	68fb      	ldr	r3, [r7, #12]
 8001044:	2200      	movs	r2, #0
 8001046:	659a      	str	r2, [r3, #88]	; 0x58
      
      /* Process unlocked */
      /* Unlock before starting ADC conversions: in case of potential         */
      /* interruption, to let the process to ADC IRQ Handler.                 */
      __HAL_UNLOCK(hadc);
 8001048:	68fb      	ldr	r3, [r7, #12]
 800104a:	2250      	movs	r2, #80	; 0x50
 800104c:	2100      	movs	r1, #0
 800104e:	5499      	strb	r1, [r3, r2]

      /* Set the DMA transfer complete callback */
      hadc->DMA_Handle->XferCpltCallback = ADC_DMAConvCplt;
 8001050:	68fb      	ldr	r3, [r7, #12]
 8001052:	6cdb      	ldr	r3, [r3, #76]	; 0x4c
 8001054:	4a1e      	ldr	r2, [pc, #120]	; (80010d0 <HAL_ADC_Start_DMA+0xf8>)
 8001056:	62da      	str	r2, [r3, #44]	; 0x2c
      
      /* Set the DMA half transfer complete callback */
      hadc->DMA_Handle->XferHalfCpltCallback = ADC_DMAHalfConvCplt;
 8001058:	68fb      	ldr	r3, [r7, #12]
 800105a:	6cdb      	ldr	r3, [r3, #76]	; 0x4c
 800105c:	4a1d      	ldr	r2, [pc, #116]	; (80010d4 <HAL_ADC_Start_DMA+0xfc>)
 800105e:	631a      	str	r2, [r3, #48]	; 0x30
      
      /* Set the DMA error callback */
      hadc->DMA_Handle->XferErrorCallback = ADC_DMAError;
 8001060:	68fb      	ldr	r3, [r7, #12]
 8001062:	6cdb      	ldr	r3, [r3, #76]	; 0x4c
 8001064:	4a1c      	ldr	r2, [pc, #112]	; (80010d8 <HAL_ADC_Start_DMA+0x100>)
 8001066:	635a      	str	r2, [r3, #52]	; 0x34
      /* start (in case of SW start):                                         */
      
      /* Clear regular group conversion flag and overrun flag */
      /* (To ensure of no unknown state from potential previous ADC           */
      /* operations)                                                          */
      __HAL_ADC_CLEAR_FLAG(hadc, (ADC_FLAG_EOC | ADC_FLAG_EOS | ADC_FLAG_OVR));
 8001068:	68fb      	ldr	r3, [r7, #12]
 800106a:	681b      	ldr	r3, [r3, #0]
 800106c:	221c      	movs	r2, #28
 800106e:	601a      	str	r2, [r3, #0]
      
      /* Enable ADC overrun interrupt */
      __HAL_ADC_ENABLE_IT(hadc, ADC_IT_OVR);
 8001070:	68fb      	ldr	r3, [r7, #12]
 8001072:	681b      	ldr	r3, [r3, #0]
 8001074:	685a      	ldr	r2, [r3, #4]
 8001076:	68fb      	ldr	r3, [r7, #12]
 8001078:	681b      	ldr	r3, [r3, #0]
 800107a:	2110      	movs	r1, #16
 800107c:	430a      	orrs	r2, r1
 800107e:	605a      	str	r2, [r3, #4]
      
      /* Enable ADC DMA mode */
      hadc->Instance->CFGR1 |= ADC_CFGR1_DMAEN;
 8001080:	68fb      	ldr	r3, [r7, #12]
 8001082:	681b      	ldr	r3, [r3, #0]
 8001084:	68da      	ldr	r2, [r3, #12]
 8001086:	68fb      	ldr	r3, [r7, #12]
 8001088:	681b      	ldr	r3, [r3, #0]
 800108a:	2101      	movs	r1, #1
 800108c:	430a      	orrs	r2, r1
 800108e:	60da      	str	r2, [r3, #12]
      
      /* Start the DMA channel */
      HAL_DMA_Start_IT(hadc->DMA_Handle, (uint32_t)&hadc->Instance->DR, (uint32_t)pData, Length);
 8001090:	68fb      	ldr	r3, [r7, #12]
 8001092:	6cd8      	ldr	r0, [r3, #76]	; 0x4c
 8001094:	68fb      	ldr	r3, [r7, #12]
 8001096:	681b      	ldr	r3, [r3, #0]
 8001098:	3340      	adds	r3, #64	; 0x40
 800109a:	0019      	movs	r1, r3
 800109c:	68ba      	ldr	r2, [r7, #8]
 800109e:	687b      	ldr	r3, [r7, #4]
 80010a0:	f000 fb0e 	bl	80016c0 <HAL_DMA_Start_IT>
      
      /* Enable conversion of regular group.                                  */
      /* If software start has been selected, conversion starts immediately.  */
      /* If external trigger has been selected, conversion will start at next */
      /* trigger event.                                                       */
      hadc->Instance->CR |= ADC_CR_ADSTART;
 80010a4:	68fb      	ldr	r3, [r7, #12]
 80010a6:	681b      	ldr	r3, [r3, #0]
 80010a8:	689a      	ldr	r2, [r3, #8]
 80010aa:	68fb      	ldr	r3, [r7, #12]
 80010ac:	681b      	ldr	r3, [r3, #0]
 80010ae:	2104      	movs	r1, #4
 80010b0:	430a      	orrs	r2, r1
 80010b2:	609a      	str	r2, [r3, #8]
 80010b4:	e003      	b.n	80010be <HAL_ADC_Start_DMA+0xe6>
    }
  }
  else
  {
    tmp_hal_status = HAL_BUSY;
 80010b6:	2317      	movs	r3, #23
 80010b8:	18fb      	adds	r3, r7, r3
 80010ba:	2202      	movs	r2, #2
 80010bc:	701a      	strb	r2, [r3, #0]
  }
  
  /* Return function status */
  return tmp_hal_status;
 80010be:	2317      	movs	r3, #23
 80010c0:	18fb      	adds	r3, r7, r3
 80010c2:	781b      	ldrb	r3, [r3, #0]
}
 80010c4:	0018      	movs	r0, r3
 80010c6:	46bd      	mov	sp, r7
 80010c8:	b007      	add	sp, #28
 80010ca:	bd90      	pop	{r4, r7, pc}
 80010cc:	fffff0fe 	.word	0xfffff0fe
 80010d0:	080012d9 	.word	0x080012d9
 80010d4:	0800138d 	.word	0x0800138d
 80010d8:	080013ab 	.word	0x080013ab

080010dc <HAL_ADC_ConvCpltCallback>:
  * @brief  Conversion complete callback in non-blocking mode.
  * @param  hadc ADC handle
  * @retval None
  */
__weak void HAL_ADC_ConvCpltCallback(ADC_HandleTypeDef* hadc)
{
 80010dc:	b580      	push	{r7, lr}
 80010de:	b082      	sub	sp, #8
 80010e0:	af00      	add	r7, sp, #0
 80010e2:	6078      	str	r0, [r7, #4]
  UNUSED(hadc);

  /* NOTE : This function should not be modified. When the callback is needed,
            function HAL_ADC_ConvCpltCallback must be implemented in the user file.
   */
}
 80010e4:	46c0      	nop			; (mov r8, r8)
 80010e6:	46bd      	mov	sp, r7
 80010e8:	b002      	add	sp, #8
 80010ea:	bd80      	pop	{r7, pc}

080010ec <HAL_ADC_ConvHalfCpltCallback>:
  * @brief  Conversion DMA half-transfer callback in non-blocking mode.
  * @param  hadc ADC handle
  * @retval None
  */
__weak void HAL_ADC_ConvHalfCpltCallback(ADC_HandleTypeDef* hadc)
{
 80010ec:	b580      	push	{r7, lr}
 80010ee:	b082      	sub	sp, #8
 80010f0:	af00      	add	r7, sp, #0
 80010f2:	6078      	str	r0, [r7, #4]
  UNUSED(hadc);

  /* NOTE : This function should not be modified. When the callback is needed,
            function HAL_ADC_ConvHalfCpltCallback must be implemented in the user file.
  */
}
 80010f4:	46c0      	nop			; (mov r8, r8)
 80010f6:	46bd      	mov	sp, r7
 80010f8:	b002      	add	sp, #8
 80010fa:	bd80      	pop	{r7, pc}

080010fc <HAL_ADC_ErrorCallback>:
  *           (this function is also clearing overrun flag)
  * @param  hadc ADC handle
  * @retval None
  */
__weak void HAL_ADC_ErrorCallback(ADC_HandleTypeDef *hadc)
{
 80010fc:	b580      	push	{r7, lr}
 80010fe:	b082      	sub	sp, #8
 8001100:	af00      	add	r7, sp, #0
 8001102:	6078      	str	r0, [r7, #4]
  UNUSED(hadc);

  /* NOTE : This function should not be modified. When the callback is needed,
            function HAL_ADC_ErrorCallback must be implemented in the user file.
  */
}
 8001104:	46c0      	nop			; (mov r8, r8)
 8001106:	46bd      	mov	sp, r7
 8001108:	b002      	add	sp, #8
 800110a:	bd80      	pop	{r7, pc}

0800110c <HAL_ADC_ConfigChannel>:
  * @param  hadc ADC handle
  * @param  sConfig Structure of ADC channel assigned to ADC group regular.
  * @retval HAL status
  */
HAL_StatusTypeDef HAL_ADC_ConfigChannel(ADC_HandleTypeDef* hadc, ADC_ChannelConfTypeDef* sConfig)
{
 800110c:	b580      	push	{r7, lr}
 800110e:	b082      	sub	sp, #8
 8001110:	af00      	add	r7, sp, #0
 8001112:	6078      	str	r0, [r7, #4]
 8001114:	6039      	str	r1, [r7, #0]
  assert_param(IS_ADC_ALL_INSTANCE(hadc->Instance));
  assert_param(IS_ADC_CHANNEL(sConfig->Channel));
  assert_param(IS_ADC_RANK(sConfig->Rank));
  
  /* Process locked */
  __HAL_LOCK(hadc);
 8001116:	687b      	ldr	r3, [r7, #4]
 8001118:	2250      	movs	r2, #80	; 0x50
 800111a:	5c9b      	ldrb	r3, [r3, r2]
 800111c:	2b01      	cmp	r3, #1
 800111e:	d101      	bne.n	8001124 <HAL_ADC_ConfigChannel+0x18>
 8001120:	2302      	movs	r3, #2
 8001122:	e06c      	b.n	80011fe <HAL_ADC_ConfigChannel+0xf2>
 8001124:	687b      	ldr	r3, [r7, #4]
 8001126:	2250      	movs	r2, #80	; 0x50
 8001128:	2101      	movs	r1, #1
 800112a:	5499      	strb	r1, [r3, r2]
  /* Parameters update conditioned to ADC state:                              */
  /* Parameters that can be updated when ADC is disabled or enabled without   */
  /* conversion on going on regular group:                                    */
  /*  - Channel number                                                        */
  /*  - Management of internal measurement channels: Vbat/VrefInt/TempSensor  */
  if (ADC_IS_CONVERSION_ONGOING_REGULAR(hadc) != RESET)
 800112c:	687b      	ldr	r3, [r7, #4]
 800112e:	681b      	ldr	r3, [r3, #0]
 8001130:	689b      	ldr	r3, [r3, #8]
 8001132:	2204      	movs	r2, #4
 8001134:	4013      	ands	r3, r2
 8001136:	d00b      	beq.n	8001150 <HAL_ADC_ConfigChannel+0x44>
  {
    /* Update ADC state machine to error */
    SET_BIT(hadc->State, HAL_ADC_STATE_ERROR_CONFIG);
 8001138:	687b      	ldr	r3, [r7, #4]
 800113a:	6d5b      	ldr	r3, [r3, #84]	; 0x54
 800113c:	2220      	movs	r2, #32
 800113e:	431a      	orrs	r2, r3
 8001140:	687b      	ldr	r3, [r7, #4]
 8001142:	655a      	str	r2, [r3, #84]	; 0x54
    /* Process unlocked */
    __HAL_UNLOCK(hadc);
 8001144:	687b      	ldr	r3, [r7, #4]
 8001146:	2250      	movs	r2, #80	; 0x50
 8001148:	2100      	movs	r1, #0
 800114a:	5499      	strb	r1, [r3, r2]
    return HAL_ERROR;
 800114c:	2301      	movs	r3, #1
 800114e:	e056      	b.n	80011fe <HAL_ADC_ConfigChannel+0xf2>
  }
  
  if (sConfig->Rank != ADC_RANK_NONE)
 8001150:	683b      	ldr	r3, [r7, #0]
 8001152:	685b      	ldr	r3, [r3, #4]
 8001154:	4a2c      	ldr	r2, [pc, #176]	; (8001208 <HAL_ADC_ConfigChannel+0xfc>)
 8001156:	4293      	cmp	r3, r2
 8001158:	d028      	beq.n	80011ac <HAL_ADC_ConfigChannel+0xa0>
  {
    /* Enable selected channels */
    hadc->Instance->CHSELR |= (uint32_t)(sConfig->Channel & ADC_CHANNEL_MASK);
 800115a:	687b      	ldr	r3, [r7, #4]
 800115c:	681b      	ldr	r3, [r3, #0]
 800115e:	6a99      	ldr	r1, [r3, #40]	; 0x28
 8001160:	683b      	ldr	r3, [r7, #0]
 8001162:	681b      	ldr	r3, [r3, #0]
 8001164:	035b      	lsls	r3, r3, #13
 8001166:	0b5a      	lsrs	r2, r3, #13
 8001168:	687b      	ldr	r3, [r7, #4]
 800116a:	681b      	ldr	r3, [r3, #0]
 800116c:	430a      	orrs	r2, r1
 800116e:	629a      	str	r2, [r3, #40]	; 0x28
    /* dedicated internal buffers and path.                                     */
    
    #if defined(ADC_CCR_TSEN)
    /* If Temperature sensor channel is selected, then enable the internal      */
    /* buffers and path  */
    if (((sConfig->Channel & ADC_CHANNEL_MASK) & ADC_CHANNEL_TEMPSENSOR ) == (ADC_CHANNEL_TEMPSENSOR & ADC_CHANNEL_MASK))
 8001170:	683b      	ldr	r3, [r7, #0]
 8001172:	681a      	ldr	r2, [r3, #0]
 8001174:	2380      	movs	r3, #128	; 0x80
 8001176:	02db      	lsls	r3, r3, #11
 8001178:	4013      	ands	r3, r2
 800117a:	d009      	beq.n	8001190 <HAL_ADC_ConfigChannel+0x84>
    {
      ADC->CCR |= ADC_CCR_TSEN;   
 800117c:	4b23      	ldr	r3, [pc, #140]	; (800120c <HAL_ADC_ConfigChannel+0x100>)
 800117e:	681a      	ldr	r2, [r3, #0]
 8001180:	4b22      	ldr	r3, [pc, #136]	; (800120c <HAL_ADC_ConfigChannel+0x100>)
 8001182:	2180      	movs	r1, #128	; 0x80
 8001184:	0409      	lsls	r1, r1, #16
 8001186:	430a      	orrs	r2, r1
 8001188:	601a      	str	r2, [r3, #0]
      
      /* Delay for temperature sensor stabilization time */
      ADC_DelayMicroSecond(ADC_TEMPSENSOR_DELAY_US);
 800118a:	200a      	movs	r0, #10
 800118c:	f000 f928 	bl	80013e0 <ADC_DelayMicroSecond>
    }
    #endif
    
    /* If VRefInt channel is selected, then enable the internal buffers and path   */
    if (((sConfig->Channel & ADC_CHANNEL_MASK) & ADC_CHANNEL_VREFINT) == (ADC_CHANNEL_VREFINT & ADC_CHANNEL_MASK))
 8001190:	683b      	ldr	r3, [r7, #0]
 8001192:	681a      	ldr	r2, [r3, #0]
 8001194:	2380      	movs	r3, #128	; 0x80
 8001196:	029b      	lsls	r3, r3, #10
 8001198:	4013      	ands	r3, r2
 800119a:	d02b      	beq.n	80011f4 <HAL_ADC_ConfigChannel+0xe8>
    {
      ADC->CCR |= ADC_CCR_VREFEN;   
 800119c:	4b1b      	ldr	r3, [pc, #108]	; (800120c <HAL_ADC_ConfigChannel+0x100>)
 800119e:	681a      	ldr	r2, [r3, #0]
 80011a0:	4b1a      	ldr	r3, [pc, #104]	; (800120c <HAL_ADC_ConfigChannel+0x100>)
 80011a2:	2180      	movs	r1, #128	; 0x80
 80011a4:	03c9      	lsls	r1, r1, #15
 80011a6:	430a      	orrs	r2, r1
 80011a8:	601a      	str	r2, [r3, #0]
 80011aa:	e023      	b.n	80011f4 <HAL_ADC_ConfigChannel+0xe8>
  }
  else
  {
    /* Regular sequence configuration */
    /* Reset the channel selection register from the selected channel */
    hadc->Instance->CHSELR &= ~((uint32_t)(sConfig->Channel & ADC_CHANNEL_MASK));
 80011ac:	687b      	ldr	r3, [r7, #4]
 80011ae:	681b      	ldr	r3, [r3, #0]
 80011b0:	6a9a      	ldr	r2, [r3, #40]	; 0x28
 80011b2:	683b      	ldr	r3, [r7, #0]
 80011b4:	681b      	ldr	r3, [r3, #0]
 80011b6:	035b      	lsls	r3, r3, #13
 80011b8:	0b5b      	lsrs	r3, r3, #13
 80011ba:	43d9      	mvns	r1, r3
 80011bc:	687b      	ldr	r3, [r7, #4]
 80011be:	681b      	ldr	r3, [r3, #0]
 80011c0:	400a      	ands	r2, r1
 80011c2:	629a      	str	r2, [r3, #40]	; 0x28
    
    /* Management of internal measurement channels: VrefInt/TempSensor/Vbat */
    /* internal measurement paths disable: If internal channel selected,    */
    /* disable dedicated internal buffers and path.                         */
    #if defined(ADC_CCR_TSEN)
    if (((sConfig->Channel & ADC_CHANNEL_MASK) & ADC_CHANNEL_TEMPSENSOR ) == (ADC_CHANNEL_TEMPSENSOR & ADC_CHANNEL_MASK))
 80011c4:	683b      	ldr	r3, [r7, #0]
 80011c6:	681a      	ldr	r2, [r3, #0]
 80011c8:	2380      	movs	r3, #128	; 0x80
 80011ca:	02db      	lsls	r3, r3, #11
 80011cc:	4013      	ands	r3, r2
 80011ce:	d005      	beq.n	80011dc <HAL_ADC_ConfigChannel+0xd0>
    {
      ADC->CCR &= ~ADC_CCR_TSEN;   
 80011d0:	4b0e      	ldr	r3, [pc, #56]	; (800120c <HAL_ADC_ConfigChannel+0x100>)
 80011d2:	681a      	ldr	r2, [r3, #0]
 80011d4:	4b0d      	ldr	r3, [pc, #52]	; (800120c <HAL_ADC_ConfigChannel+0x100>)
 80011d6:	490e      	ldr	r1, [pc, #56]	; (8001210 <HAL_ADC_ConfigChannel+0x104>)
 80011d8:	400a      	ands	r2, r1
 80011da:	601a      	str	r2, [r3, #0]
    }
    #endif
    
    /* If VRefInt channel is selected, then enable the internal buffers and path   */
    if (((sConfig->Channel & ADC_CHANNEL_MASK) & ADC_CHANNEL_VREFINT) == (ADC_CHANNEL_VREFINT & ADC_CHANNEL_MASK))
 80011dc:	683b      	ldr	r3, [r7, #0]
 80011de:	681a      	ldr	r2, [r3, #0]
 80011e0:	2380      	movs	r3, #128	; 0x80
 80011e2:	029b      	lsls	r3, r3, #10
 80011e4:	4013      	ands	r3, r2
 80011e6:	d005      	beq.n	80011f4 <HAL_ADC_ConfigChannel+0xe8>
    {
      ADC->CCR &= ~ADC_CCR_VREFEN;   
 80011e8:	4b08      	ldr	r3, [pc, #32]	; (800120c <HAL_ADC_ConfigChannel+0x100>)
 80011ea:	681a      	ldr	r2, [r3, #0]
 80011ec:	4b07      	ldr	r3, [pc, #28]	; (800120c <HAL_ADC_ConfigChannel+0x100>)
 80011ee:	4909      	ldr	r1, [pc, #36]	; (8001214 <HAL_ADC_ConfigChannel+0x108>)
 80011f0:	400a      	ands	r2, r1
 80011f2:	601a      	str	r2, [r3, #0]
    }
#endif
  }
  
  /* Process unlocked */
  __HAL_UNLOCK(hadc);
 80011f4:	687b      	ldr	r3, [r7, #4]
 80011f6:	2250      	movs	r2, #80	; 0x50
 80011f8:	2100      	movs	r1, #0
 80011fa:	5499      	strb	r1, [r3, r2]
  
  /* Return function status */
  return HAL_OK;
 80011fc:	2300      	movs	r3, #0
}
 80011fe:	0018      	movs	r0, r3
 8001200:	46bd      	mov	sp, r7
 8001202:	b002      	add	sp, #8
 8001204:	bd80      	pop	{r7, pc}
 8001206:	46c0      	nop			; (mov r8, r8)
 8001208:	00001001 	.word	0x00001001
 800120c:	40012708 	.word	0x40012708
 8001210:	ff7fffff 	.word	0xff7fffff
 8001214:	ffbfffff 	.word	0xffbfffff

08001218 <ADC_Enable>:
  *         "if (hadc->Init.LowPowerAutoPowerOff != ENABLE)".
  * @param  hadc ADC handle
  * @retval HAL status.
  */
static HAL_StatusTypeDef ADC_Enable(ADC_HandleTypeDef* hadc)
{
 8001218:	b580      	push	{r7, lr}
 800121a:	b084      	sub	sp, #16
 800121c:	af00      	add	r7, sp, #0
 800121e:	6078      	str	r0, [r7, #4]
  uint32_t tickstart = 0U;
 8001220:	2300      	movs	r3, #0
 8001222:	60fb      	str	r3, [r7, #12]

  /* ADC enable and wait for ADC ready (in case of ADC is disabled or         */
  /* enabling phase not yet completed: flag ADC ready not yet set).           */
  /* Timeout implemented to not be stuck if ADC cannot be enabled (possible   */
  /* causes: ADC clock not running, ...).                                     */
  if (ADC_IS_ENABLE(hadc) == RESET)
 8001224:	687b      	ldr	r3, [r7, #4]
 8001226:	681b      	ldr	r3, [r3, #0]
 8001228:	689b      	ldr	r3, [r3, #8]
 800122a:	2203      	movs	r2, #3
 800122c:	4013      	ands	r3, r2
 800122e:	2b01      	cmp	r3, #1
 8001230:	d108      	bne.n	8001244 <ADC_Enable+0x2c>
 8001232:	687b      	ldr	r3, [r7, #4]
 8001234:	681b      	ldr	r3, [r3, #0]
 8001236:	681b      	ldr	r3, [r3, #0]
 8001238:	2201      	movs	r2, #1
 800123a:	4013      	ands	r3, r2
 800123c:	2b01      	cmp	r3, #1
 800123e:	d101      	bne.n	8001244 <ADC_Enable+0x2c>
 8001240:	2301      	movs	r3, #1
 8001242:	e000      	b.n	8001246 <ADC_Enable+0x2e>
 8001244:	2300      	movs	r3, #0
 8001246:	2b00      	cmp	r3, #0
 8001248:	d13f      	bne.n	80012ca <ADC_Enable+0xb2>
  {
    /* Check if conditions to enable the ADC are fulfilled */
    if (ADC_ENABLING_CONDITIONS(hadc) == RESET)
 800124a:	687b      	ldr	r3, [r7, #4]
 800124c:	681b      	ldr	r3, [r3, #0]
 800124e:	689b      	ldr	r3, [r3, #8]
 8001250:	4a20      	ldr	r2, [pc, #128]	; (80012d4 <ADC_Enable+0xbc>)
 8001252:	4013      	ands	r3, r2
 8001254:	d00d      	beq.n	8001272 <ADC_Enable+0x5a>
    {
      /* Update ADC state machine to error */
      SET_BIT(hadc->State, HAL_ADC_STATE_ERROR_INTERNAL);
 8001256:	687b      	ldr	r3, [r7, #4]
 8001258:	6d5b      	ldr	r3, [r3, #84]	; 0x54
 800125a:	2210      	movs	r2, #16
 800125c:	431a      	orrs	r2, r3
 800125e:	687b      	ldr	r3, [r7, #4]
 8001260:	655a      	str	r2, [r3, #84]	; 0x54
      
      /* Set ADC error code to ADC peripheral internal error */
      SET_BIT(hadc->ErrorCode, HAL_ADC_ERROR_INTERNAL);
 8001262:	687b      	ldr	r3, [r7, #4]
 8001264:	6d9b      	ldr	r3, [r3, #88]	; 0x58
 8001266:	2201      	movs	r2, #1
 8001268:	431a      	orrs	r2, r3
 800126a:	687b      	ldr	r3, [r7, #4]
 800126c:	659a      	str	r2, [r3, #88]	; 0x58
      
      return HAL_ERROR;
 800126e:	2301      	movs	r3, #1
 8001270:	e02c      	b.n	80012cc <ADC_Enable+0xb4>
    }
    
    /* Enable the ADC peripheral */
    __HAL_ADC_ENABLE(hadc);
 8001272:	687b      	ldr	r3, [r7, #4]
 8001274:	681b      	ldr	r3, [r3, #0]
 8001276:	689a      	ldr	r2, [r3, #8]
 8001278:	687b      	ldr	r3, [r7, #4]
 800127a:	681b      	ldr	r3, [r3, #0]
 800127c:	2101      	movs	r1, #1
 800127e:	430a      	orrs	r2, r1
 8001280:	609a      	str	r2, [r3, #8]
    
    /* Delay for ADC stabilization time. */
    ADC_DelayMicroSecond(ADC_STAB_DELAY_US);
 8001282:	2001      	movs	r0, #1
 8001284:	f000 f8ac 	bl	80013e0 <ADC_DelayMicroSecond>

    /* Get tick count */
    tickstart = HAL_GetTick();
 8001288:	f7ff fd28 	bl	8000cdc <HAL_GetTick>
 800128c:	0003      	movs	r3, r0
 800128e:	60fb      	str	r3, [r7, #12]
    
    /* Wait for ADC effectively enabled */
    while(__HAL_ADC_GET_FLAG(hadc, ADC_FLAG_RDY) == RESET)
 8001290:	e014      	b.n	80012bc <ADC_Enable+0xa4>
    {
      if((HAL_GetTick() - tickstart) > ADC_ENABLE_TIMEOUT)
 8001292:	f7ff fd23 	bl	8000cdc <HAL_GetTick>
 8001296:	0002      	movs	r2, r0
 8001298:	68fb      	ldr	r3, [r7, #12]
 800129a:	1ad3      	subs	r3, r2, r3
 800129c:	2b0a      	cmp	r3, #10
 800129e:	d90d      	bls.n	80012bc <ADC_Enable+0xa4>
      {
        /* Update ADC state machine to error */
        SET_BIT(hadc->State, HAL_ADC_STATE_ERROR_INTERNAL);
 80012a0:	687b      	ldr	r3, [r7, #4]
 80012a2:	6d5b      	ldr	r3, [r3, #84]	; 0x54
 80012a4:	2210      	movs	r2, #16
 80012a6:	431a      	orrs	r2, r3
 80012a8:	687b      	ldr	r3, [r7, #4]
 80012aa:	655a      	str	r2, [r3, #84]	; 0x54
        
        /* Set ADC error code to ADC peripheral internal error */
        SET_BIT(hadc->ErrorCode, HAL_ADC_ERROR_INTERNAL);
 80012ac:	687b      	ldr	r3, [r7, #4]
 80012ae:	6d9b      	ldr	r3, [r3, #88]	; 0x58
 80012b0:	2201      	movs	r2, #1
 80012b2:	431a      	orrs	r2, r3
 80012b4:	687b      	ldr	r3, [r7, #4]
 80012b6:	659a      	str	r2, [r3, #88]	; 0x58
        
        return HAL_ERROR;
 80012b8:	2301      	movs	r3, #1
 80012ba:	e007      	b.n	80012cc <ADC_Enable+0xb4>
    while(__HAL_ADC_GET_FLAG(hadc, ADC_FLAG_RDY) == RESET)
 80012bc:	687b      	ldr	r3, [r7, #4]
 80012be:	681b      	ldr	r3, [r3, #0]
 80012c0:	681b      	ldr	r3, [r3, #0]
 80012c2:	2201      	movs	r2, #1
 80012c4:	4013      	ands	r3, r2
 80012c6:	2b01      	cmp	r3, #1
 80012c8:	d1e3      	bne.n	8001292 <ADC_Enable+0x7a>
      }
    }
  }
   
  /* Return HAL status */
  return HAL_OK;
 80012ca:	2300      	movs	r3, #0
}
 80012cc:	0018      	movs	r0, r3
 80012ce:	46bd      	mov	sp, r7
 80012d0:	b004      	add	sp, #16
 80012d2:	bd80      	pop	{r7, pc}
 80012d4:	80000017 	.word	0x80000017

080012d8 <ADC_DMAConvCplt>:
  * @brief  DMA transfer complete callback. 
  * @param  hdma pointer to DMA handle.
  * @retval None
  */
static void ADC_DMAConvCplt(DMA_HandleTypeDef *hdma)
{
 80012d8:	b580      	push	{r7, lr}
 80012da:	b084      	sub	sp, #16
 80012dc:	af00      	add	r7, sp, #0
 80012de:	6078      	str	r0, [r7, #4]
  /* Retrieve ADC handle corresponding to current DMA handle */
  ADC_HandleTypeDef* hadc = ( ADC_HandleTypeDef* )((DMA_HandleTypeDef* )hdma)->Parent;
 80012e0:	687b      	ldr	r3, [r7, #4]
 80012e2:	6a9b      	ldr	r3, [r3, #40]	; 0x28
 80012e4:	60fb      	str	r3, [r7, #12]
  
  /* Update state machine on conversion status if not in error state */
  if (HAL_IS_BIT_CLR(hadc->State, HAL_ADC_STATE_ERROR_INTERNAL | HAL_ADC_STATE_ERROR_DMA))
 80012e6:	68fb      	ldr	r3, [r7, #12]
 80012e8:	6d5b      	ldr	r3, [r3, #84]	; 0x54
 80012ea:	2250      	movs	r2, #80	; 0x50
 80012ec:	4013      	ands	r3, r2
 80012ee:	d141      	bne.n	8001374 <ADC_DMAConvCplt+0x9c>
  {
    /* Set ADC state */
    SET_BIT(hadc->State, HAL_ADC_STATE_REG_EOC);
 80012f0:	68fb      	ldr	r3, [r7, #12]
 80012f2:	6d5b      	ldr	r3, [r3, #84]	; 0x54
 80012f4:	2280      	movs	r2, #128	; 0x80
 80012f6:	0092      	lsls	r2, r2, #2
 80012f8:	431a      	orrs	r2, r3
 80012fa:	68fb      	ldr	r3, [r7, #12]
 80012fc:	655a      	str	r2, [r3, #84]	; 0x54
    
    /* Determine whether any further conversion upcoming on group regular     */
    /* by external trigger, continuous mode or scan sequence on going.        */
    if(ADC_IS_SOFTWARE_START_REGULAR(hadc)        && 
 80012fe:	68fb      	ldr	r3, [r7, #12]
 8001300:	681b      	ldr	r3, [r3, #0]
 8001302:	68da      	ldr	r2, [r3, #12]
 8001304:	23c0      	movs	r3, #192	; 0xc0
 8001306:	011b      	lsls	r3, r3, #4
 8001308:	4013      	ands	r3, r2
 800130a:	d12e      	bne.n	800136a <ADC_DMAConvCplt+0x92>
       (hadc->Init.ContinuousConvMode == DISABLE)   )
 800130c:	68fb      	ldr	r3, [r7, #12]
 800130e:	2220      	movs	r2, #32
 8001310:	5c9b      	ldrb	r3, [r3, r2]
    if(ADC_IS_SOFTWARE_START_REGULAR(hadc)        && 
 8001312:	2b00      	cmp	r3, #0
 8001314:	d129      	bne.n	800136a <ADC_DMAConvCplt+0x92>
    {
      /* If End of Sequence is reached, disable interrupts */
      if( __HAL_ADC_GET_FLAG(hadc, ADC_FLAG_EOS) )
 8001316:	68fb      	ldr	r3, [r7, #12]
 8001318:	681b      	ldr	r3, [r3, #0]
 800131a:	681b      	ldr	r3, [r3, #0]
 800131c:	2208      	movs	r2, #8
 800131e:	4013      	ands	r3, r2
 8001320:	2b08      	cmp	r3, #8
 8001322:	d122      	bne.n	800136a <ADC_DMAConvCplt+0x92>
      {
        /* Allowed to modify bits ADC_IT_EOC/ADC_IT_EOS only if bit           */
        /* ADSTART==0 (no conversion on going)                                */
        if (ADC_IS_CONVERSION_ONGOING_REGULAR(hadc) == RESET)
 8001324:	68fb      	ldr	r3, [r7, #12]
 8001326:	681b      	ldr	r3, [r3, #0]
 8001328:	689b      	ldr	r3, [r3, #8]
 800132a:	2204      	movs	r2, #4
 800132c:	4013      	ands	r3, r2
 800132e:	d110      	bne.n	8001352 <ADC_DMAConvCplt+0x7a>
        {
          /* Disable ADC end of single conversion interrupt on group regular */
          /* Note: Overrun interrupt was enabled with EOC interrupt in        */
          /* HAL_Start_IT(), but is not disabled here because can be used     */
          /* by overrun IRQ process below.                                    */
          __HAL_ADC_DISABLE_IT(hadc, ADC_IT_EOC | ADC_IT_EOS);
 8001330:	68fb      	ldr	r3, [r7, #12]
 8001332:	681b      	ldr	r3, [r3, #0]
 8001334:	685a      	ldr	r2, [r3, #4]
 8001336:	68fb      	ldr	r3, [r7, #12]
 8001338:	681b      	ldr	r3, [r3, #0]
 800133a:	210c      	movs	r1, #12
 800133c:	438a      	bics	r2, r1
 800133e:	605a      	str	r2, [r3, #4]
          
          /* Set ADC state */
          ADC_STATE_CLR_SET(hadc->State,
 8001340:	68fb      	ldr	r3, [r7, #12]
 8001342:	6d5b      	ldr	r3, [r3, #84]	; 0x54
 8001344:	4a10      	ldr	r2, [pc, #64]	; (8001388 <ADC_DMAConvCplt+0xb0>)
 8001346:	4013      	ands	r3, r2
 8001348:	2201      	movs	r2, #1
 800134a:	431a      	orrs	r2, r3
 800134c:	68fb      	ldr	r3, [r7, #12]
 800134e:	655a      	str	r2, [r3, #84]	; 0x54
 8001350:	e00b      	b.n	800136a <ADC_DMAConvCplt+0x92>
                            HAL_ADC_STATE_READY);
        }
        else
        {
          /* Change ADC state to error state */
          SET_BIT(hadc->State, HAL_ADC_STATE_ERROR_CONFIG);
 8001352:	68fb      	ldr	r3, [r7, #12]
 8001354:	6d5b      	ldr	r3, [r3, #84]	; 0x54
 8001356:	2220      	movs	r2, #32
 8001358:	431a      	orrs	r2, r3
 800135a:	68fb      	ldr	r3, [r7, #12]
 800135c:	655a      	str	r2, [r3, #84]	; 0x54
          
          /* Set ADC error code to ADC peripheral internal error */
          SET_BIT(hadc->ErrorCode, HAL_ADC_ERROR_INTERNAL);
 800135e:	68fb      	ldr	r3, [r7, #12]
 8001360:	6d9b      	ldr	r3, [r3, #88]	; 0x58
 8001362:	2201      	movs	r2, #1
 8001364:	431a      	orrs	r2, r3
 8001366:	68fb      	ldr	r3, [r7, #12]
 8001368:	659a      	str	r2, [r3, #88]	; 0x58

    /* Conversion complete callback */
#if (USE_HAL_ADC_REGISTER_CALLBACKS == 1)
    hadc->ConvCpltCallback(hadc);
#else
    HAL_ADC_ConvCpltCallback(hadc);
 800136a:	68fb      	ldr	r3, [r7, #12]
 800136c:	0018      	movs	r0, r3
 800136e:	f7ff feb5 	bl	80010dc <HAL_ADC_ConvCpltCallback>
  else
  {
    /* Call DMA error callback */
    hadc->DMA_Handle->XferErrorCallback(hdma);
  }
}
 8001372:	e005      	b.n	8001380 <ADC_DMAConvCplt+0xa8>
    hadc->DMA_Handle->XferErrorCallback(hdma);
 8001374:	68fb      	ldr	r3, [r7, #12]
 8001376:	6cdb      	ldr	r3, [r3, #76]	; 0x4c
 8001378:	6b5b      	ldr	r3, [r3, #52]	; 0x34
 800137a:	687a      	ldr	r2, [r7, #4]
 800137c:	0010      	movs	r0, r2
 800137e:	4798      	blx	r3
}
 8001380:	46c0      	nop			; (mov r8, r8)
 8001382:	46bd      	mov	sp, r7
 8001384:	b004      	add	sp, #16
 8001386:	bd80      	pop	{r7, pc}
 8001388:	fffffefe 	.word	0xfffffefe

0800138c <ADC_DMAHalfConvCplt>:
  * @brief  DMA half transfer complete callback. 
  * @param  hdma pointer to DMA handle.
  * @retval None
  */
static void ADC_DMAHalfConvCplt(DMA_HandleTypeDef *hdma)
{
 800138c:	b580      	push	{r7, lr}
 800138e:	b084      	sub	sp, #16
 8001390:	af00      	add	r7, sp, #0
 8001392:	6078      	str	r0, [r7, #4]
  /* Retrieve ADC handle corresponding to current DMA handle */
  ADC_HandleTypeDef* hadc = ( ADC_HandleTypeDef* )((DMA_HandleTypeDef* )hdma)->Parent;
 8001394:	687b      	ldr	r3, [r7, #4]
 8001396:	6a9b      	ldr	r3, [r3, #40]	; 0x28
 8001398:	60fb      	str	r3, [r7, #12]
  
  /* Half conversion callback */
#if (USE_HAL_ADC_REGISTER_CALLBACKS == 1)
    hadc->ConvHalfCpltCallback(hadc);
#else
  HAL_ADC_ConvHalfCpltCallback(hadc); 
 800139a:	68fb      	ldr	r3, [r7, #12]
 800139c:	0018      	movs	r0, r3
 800139e:	f7ff fea5 	bl	80010ec <HAL_ADC_ConvHalfCpltCallback>
#endif /* USE_HAL_ADC_REGISTER_CALLBACKS */
}
 80013a2:	46c0      	nop			; (mov r8, r8)
 80013a4:	46bd      	mov	sp, r7
 80013a6:	b004      	add	sp, #16
 80013a8:	bd80      	pop	{r7, pc}

080013aa <ADC_DMAError>:
  * @brief  DMA error callback.
  * @param  hdma pointer to DMA handle.
  * @retval None
  */
static void ADC_DMAError(DMA_HandleTypeDef *hdma)
{
 80013aa:	b580      	push	{r7, lr}
 80013ac:	b084      	sub	sp, #16
 80013ae:	af00      	add	r7, sp, #0
 80013b0:	6078      	str	r0, [r7, #4]
  /* Retrieve ADC handle corresponding to current DMA handle */
  ADC_HandleTypeDef* hadc = ( ADC_HandleTypeDef* )((DMA_HandleTypeDef* )hdma)->Parent;
 80013b2:	687b      	ldr	r3, [r7, #4]
 80013b4:	6a9b      	ldr	r3, [r3, #40]	; 0x28
 80013b6:	60fb      	str	r3, [r7, #12]
  
  /* Set ADC state */
  SET_BIT(hadc->State, HAL_ADC_STATE_ERROR_DMA);
 80013b8:	68fb      	ldr	r3, [r7, #12]
 80013ba:	6d5b      	ldr	r3, [r3, #84]	; 0x54
 80013bc:	2240      	movs	r2, #64	; 0x40
 80013be:	431a      	orrs	r2, r3
 80013c0:	68fb      	ldr	r3, [r7, #12]
 80013c2:	655a      	str	r2, [r3, #84]	; 0x54
  
  /* Set ADC error code to DMA error */
  SET_BIT(hadc->ErrorCode, HAL_ADC_ERROR_DMA);
 80013c4:	68fb      	ldr	r3, [r7, #12]
 80013c6:	6d9b      	ldr	r3, [r3, #88]	; 0x58
 80013c8:	2204      	movs	r2, #4
 80013ca:	431a      	orrs	r2, r3
 80013cc:	68fb      	ldr	r3, [r7, #12]
 80013ce:	659a      	str	r2, [r3, #88]	; 0x58
  
  /* Error callback */
#if (USE_HAL_ADC_REGISTER_CALLBACKS == 1)
  hadc->ErrorCallback(hadc);
#else
  HAL_ADC_ErrorCallback(hadc); 
 80013d0:	68fb      	ldr	r3, [r7, #12]
 80013d2:	0018      	movs	r0, r3
 80013d4:	f7ff fe92 	bl	80010fc <HAL_ADC_ErrorCallback>
#endif /* USE_HAL_ADC_REGISTER_CALLBACKS */
}
 80013d8:	46c0      	nop			; (mov r8, r8)
 80013da:	46bd      	mov	sp, r7
 80013dc:	b004      	add	sp, #16
 80013de:	bd80      	pop	{r7, pc}

080013e0 <ADC_DelayMicroSecond>:
  * @brief  Delay micro seconds 
  * @param  microSecond  delay
  * @retval None
  */
static void ADC_DelayMicroSecond(uint32_t microSecond)
{
 80013e0:	b580      	push	{r7, lr}
 80013e2:	b084      	sub	sp, #16
 80013e4:	af00      	add	r7, sp, #0
 80013e6:	6078      	str	r0, [r7, #4]
  /* Compute number of CPU cycles to wait for */
  __IO uint32_t waitLoopIndex = (microSecond * (SystemCoreClock / 1000000U));
 80013e8:	4b0a      	ldr	r3, [pc, #40]	; (8001414 <ADC_DelayMicroSecond+0x34>)
 80013ea:	681b      	ldr	r3, [r3, #0]
 80013ec:	490a      	ldr	r1, [pc, #40]	; (8001418 <ADC_DelayMicroSecond+0x38>)
 80013ee:	0018      	movs	r0, r3
 80013f0:	f7fe fe8a 	bl	8000108 <__udivsi3>
 80013f4:	0003      	movs	r3, r0
 80013f6:	001a      	movs	r2, r3
 80013f8:	687b      	ldr	r3, [r7, #4]
 80013fa:	4353      	muls	r3, r2
 80013fc:	60fb      	str	r3, [r7, #12]

  while(waitLoopIndex != 0U)
 80013fe:	e002      	b.n	8001406 <ADC_DelayMicroSecond+0x26>
  {
    waitLoopIndex--;
 8001400:	68fb      	ldr	r3, [r7, #12]
 8001402:	3b01      	subs	r3, #1
 8001404:	60fb      	str	r3, [r7, #12]
  while(waitLoopIndex != 0U)
 8001406:	68fb      	ldr	r3, [r7, #12]
 8001408:	2b00      	cmp	r3, #0
 800140a:	d1f9      	bne.n	8001400 <ADC_DelayMicroSecond+0x20>
  } 
}
 800140c:	46c0      	nop			; (mov r8, r8)
 800140e:	46bd      	mov	sp, r7
 8001410:	b004      	add	sp, #16
 8001412:	bd80      	pop	{r7, pc}
 8001414:	20000004 	.word	0x20000004
 8001418:	000f4240 	.word	0x000f4240

0800141c <NVIC_EnableIRQ>:
  \brief   Enable External Interrupt
  \details Enables a device-specific interrupt in the NVIC interrupt controller.
  \param [in]      IRQn  External interrupt number. Value cannot be negative.
 */
__STATIC_INLINE void NVIC_EnableIRQ(IRQn_Type IRQn)
{
 800141c:	b580      	push	{r7, lr}
 800141e:	b082      	sub	sp, #8
 8001420:	af00      	add	r7, sp, #0
 8001422:	0002      	movs	r2, r0
 8001424:	1dfb      	adds	r3, r7, #7
 8001426:	701a      	strb	r2, [r3, #0]
  NVIC->ISER[0U] = (uint32_t)(1UL << (((uint32_t)(int32_t)IRQn) & 0x1FUL));
 8001428:	1dfb      	adds	r3, r7, #7
 800142a:	781b      	ldrb	r3, [r3, #0]
 800142c:	001a      	movs	r2, r3
 800142e:	231f      	movs	r3, #31
 8001430:	401a      	ands	r2, r3
 8001432:	4b04      	ldr	r3, [pc, #16]	; (8001444 <NVIC_EnableIRQ+0x28>)
 8001434:	2101      	movs	r1, #1
 8001436:	4091      	lsls	r1, r2
 8001438:	000a      	movs	r2, r1
 800143a:	601a      	str	r2, [r3, #0]
}
 800143c:	46c0      	nop			; (mov r8, r8)
 800143e:	46bd      	mov	sp, r7
 8001440:	b002      	add	sp, #8
 8001442:	bd80      	pop	{r7, pc}
 8001444:	e000e100 	.word	0xe000e100

08001448 <NVIC_SetPriority>:
  \note    The priority cannot be set for every core interrupt.
  \param [in]      IRQn  Interrupt number.
  \param [in]  priority  Priority to set.
 */
__STATIC_INLINE void NVIC_SetPriority(IRQn_Type IRQn, uint32_t priority)
{
 8001448:	b590      	push	{r4, r7, lr}
 800144a:	b083      	sub	sp, #12
 800144c:	af00      	add	r7, sp, #0
 800144e:	0002      	movs	r2, r0
 8001450:	6039      	str	r1, [r7, #0]
 8001452:	1dfb      	adds	r3, r7, #7
 8001454:	701a      	strb	r2, [r3, #0]
  if ((int32_t)(IRQn) < 0)
 8001456:	1dfb      	adds	r3, r7, #7
 8001458:	781b      	ldrb	r3, [r3, #0]
 800145a:	2b7f      	cmp	r3, #127	; 0x7f
 800145c:	d932      	bls.n	80014c4 <NVIC_SetPriority+0x7c>
  {
    SCB->SHP[_SHP_IDX(IRQn)] = ((uint32_t)(SCB->SHP[_SHP_IDX(IRQn)] & ~(0xFFUL << _BIT_SHIFT(IRQn))) |
 800145e:	4a2f      	ldr	r2, [pc, #188]	; (800151c <NVIC_SetPriority+0xd4>)
 8001460:	1dfb      	adds	r3, r7, #7
 8001462:	781b      	ldrb	r3, [r3, #0]
 8001464:	0019      	movs	r1, r3
 8001466:	230f      	movs	r3, #15
 8001468:	400b      	ands	r3, r1
 800146a:	3b08      	subs	r3, #8
 800146c:	089b      	lsrs	r3, r3, #2
 800146e:	3306      	adds	r3, #6
 8001470:	009b      	lsls	r3, r3, #2
 8001472:	18d3      	adds	r3, r2, r3
 8001474:	3304      	adds	r3, #4
 8001476:	681b      	ldr	r3, [r3, #0]
 8001478:	1dfa      	adds	r2, r7, #7
 800147a:	7812      	ldrb	r2, [r2, #0]
 800147c:	0011      	movs	r1, r2
 800147e:	2203      	movs	r2, #3
 8001480:	400a      	ands	r2, r1
 8001482:	00d2      	lsls	r2, r2, #3
 8001484:	21ff      	movs	r1, #255	; 0xff
 8001486:	4091      	lsls	r1, r2
 8001488:	000a      	movs	r2, r1
 800148a:	43d2      	mvns	r2, r2
 800148c:	401a      	ands	r2, r3
 800148e:	0011      	movs	r1, r2
       (((priority << (8U - __NVIC_PRIO_BITS)) & (uint32_t)0xFFUL) << _BIT_SHIFT(IRQn)));
 8001490:	683b      	ldr	r3, [r7, #0]
 8001492:	019b      	lsls	r3, r3, #6
 8001494:	22ff      	movs	r2, #255	; 0xff
 8001496:	401a      	ands	r2, r3
 8001498:	1dfb      	adds	r3, r7, #7
 800149a:	781b      	ldrb	r3, [r3, #0]
 800149c:	0018      	movs	r0, r3
 800149e:	2303      	movs	r3, #3
 80014a0:	4003      	ands	r3, r0
 80014a2:	00db      	lsls	r3, r3, #3
 80014a4:	409a      	lsls	r2, r3
    SCB->SHP[_SHP_IDX(IRQn)] = ((uint32_t)(SCB->SHP[_SHP_IDX(IRQn)] & ~(0xFFUL << _BIT_SHIFT(IRQn))) |
 80014a6:	481d      	ldr	r0, [pc, #116]	; (800151c <NVIC_SetPriority+0xd4>)
 80014a8:	1dfb      	adds	r3, r7, #7
 80014aa:	781b      	ldrb	r3, [r3, #0]
 80014ac:	001c      	movs	r4, r3
 80014ae:	230f      	movs	r3, #15
 80014b0:	4023      	ands	r3, r4
 80014b2:	3b08      	subs	r3, #8
 80014b4:	089b      	lsrs	r3, r3, #2
 80014b6:	430a      	orrs	r2, r1
 80014b8:	3306      	adds	r3, #6
 80014ba:	009b      	lsls	r3, r3, #2
 80014bc:	18c3      	adds	r3, r0, r3
 80014be:	3304      	adds	r3, #4
 80014c0:	601a      	str	r2, [r3, #0]
  else
  {
    NVIC->IP[_IP_IDX(IRQn)]  = ((uint32_t)(NVIC->IP[_IP_IDX(IRQn)]  & ~(0xFFUL << _BIT_SHIFT(IRQn))) |
       (((priority << (8U - __NVIC_PRIO_BITS)) & (uint32_t)0xFFUL) << _BIT_SHIFT(IRQn)));
  }
}
 80014c2:	e027      	b.n	8001514 <NVIC_SetPriority+0xcc>
    NVIC->IP[_IP_IDX(IRQn)]  = ((uint32_t)(NVIC->IP[_IP_IDX(IRQn)]  & ~(0xFFUL << _BIT_SHIFT(IRQn))) |
 80014c4:	4a16      	ldr	r2, [pc, #88]	; (8001520 <NVIC_SetPriority+0xd8>)
 80014c6:	1dfb      	adds	r3, r7, #7
 80014c8:	781b      	ldrb	r3, [r3, #0]
 80014ca:	b25b      	sxtb	r3, r3
 80014cc:	089b      	lsrs	r3, r3, #2
 80014ce:	33c0      	adds	r3, #192	; 0xc0
 80014d0:	009b      	lsls	r3, r3, #2
 80014d2:	589b      	ldr	r3, [r3, r2]
 80014d4:	1dfa      	adds	r2, r7, #7
 80014d6:	7812      	ldrb	r2, [r2, #0]
 80014d8:	0011      	movs	r1, r2
 80014da:	2203      	movs	r2, #3
 80014dc:	400a      	ands	r2, r1
 80014de:	00d2      	lsls	r2, r2, #3
 80014e0:	21ff      	movs	r1, #255	; 0xff
 80014e2:	4091      	lsls	r1, r2
 80014e4:	000a      	movs	r2, r1
 80014e6:	43d2      	mvns	r2, r2
 80014e8:	401a      	ands	r2, r3
 80014ea:	0011      	movs	r1, r2
       (((priority << (8U - __NVIC_PRIO_BITS)) & (uint32_t)0xFFUL) << _BIT_SHIFT(IRQn)));
 80014ec:	683b      	ldr	r3, [r7, #0]
 80014ee:	019b      	lsls	r3, r3, #6
 80014f0:	22ff      	movs	r2, #255	; 0xff
 80014f2:	401a      	ands	r2, r3
 80014f4:	1dfb      	adds	r3, r7, #7
 80014f6:	781b      	ldrb	r3, [r3, #0]
 80014f8:	0018      	movs	r0, r3
 80014fa:	2303      	movs	r3, #3
 80014fc:	4003      	ands	r3, r0
 80014fe:	00db      	lsls	r3, r3, #3
 8001500:	409a      	lsls	r2, r3
    NVIC->IP[_IP_IDX(IRQn)]  = ((uint32_t)(NVIC->IP[_IP_IDX(IRQn)]  & ~(0xFFUL << _BIT_SHIFT(IRQn))) |
 8001502:	4807      	ldr	r0, [pc, #28]	; (8001520 <NVIC_SetPriority+0xd8>)
 8001504:	1dfb      	adds	r3, r7, #7
 8001506:	781b      	ldrb	r3, [r3, #0]
 8001508:	b25b      	sxtb	r3, r3
 800150a:	089b      	lsrs	r3, r3, #2
 800150c:	430a      	orrs	r2, r1
 800150e:	33c0      	adds	r3, #192	; 0xc0
 8001510:	009b      	lsls	r3, r3, #2
 8001512:	501a      	str	r2, [r3, r0]
}
 8001514:	46c0      	nop			; (mov r8, r8)
 8001516:	46bd      	mov	sp, r7
 8001518:	b003      	add	sp, #12
 800151a:	bd90      	pop	{r4, r7, pc}
 800151c:	e000ed00 	.word	0xe000ed00
 8001520:	e000e100 	.word	0xe000e100

08001524 <SysTick_Config>:
  \note    When the variable <b>__Vendor_SysTickConfig</b> is set to 1, then the
           function <b>SysTick_Config</b> is not included. In this case, the file <b><i>device</i>.h</b>
           must contain a vendor-specific implementation of this function.
 */
__STATIC_INLINE uint32_t SysTick_Config(uint32_t ticks)
{
 8001524:	b580      	push	{r7, lr}
 8001526:	b082      	sub	sp, #8
 8001528:	af00      	add	r7, sp, #0
 800152a:	6078      	str	r0, [r7, #4]
  if ((ticks - 1UL) > SysTick_LOAD_RELOAD_Msk)
 800152c:	687b      	ldr	r3, [r7, #4]
 800152e:	3b01      	subs	r3, #1
 8001530:	4a0c      	ldr	r2, [pc, #48]	; (8001564 <SysTick_Config+0x40>)
 8001532:	4293      	cmp	r3, r2
 8001534:	d901      	bls.n	800153a <SysTick_Config+0x16>
  {
    return (1UL);                                                   /* Reload value impossible */
 8001536:	2301      	movs	r3, #1
 8001538:	e010      	b.n	800155c <SysTick_Config+0x38>
  }

  SysTick->LOAD  = (uint32_t)(ticks - 1UL);                         /* set reload register */
 800153a:	4b0b      	ldr	r3, [pc, #44]	; (8001568 <SysTick_Config+0x44>)
 800153c:	687a      	ldr	r2, [r7, #4]
 800153e:	3a01      	subs	r2, #1
 8001540:	605a      	str	r2, [r3, #4]
  NVIC_SetPriority (SysTick_IRQn, (1UL << __NVIC_PRIO_BITS) - 1UL); /* set Priority for Systick Interrupt */
 8001542:	2301      	movs	r3, #1
 8001544:	425b      	negs	r3, r3
 8001546:	2103      	movs	r1, #3
 8001548:	0018      	movs	r0, r3
 800154a:	f7ff ff7d 	bl	8001448 <NVIC_SetPriority>
  SysTick->VAL   = 0UL;                                             /* Load the SysTick Counter Value */
 800154e:	4b06      	ldr	r3, [pc, #24]	; (8001568 <SysTick_Config+0x44>)
 8001550:	2200      	movs	r2, #0
 8001552:	609a      	str	r2, [r3, #8]
  SysTick->CTRL  = SysTick_CTRL_CLKSOURCE_Msk |
 8001554:	4b04      	ldr	r3, [pc, #16]	; (8001568 <SysTick_Config+0x44>)
 8001556:	2207      	movs	r2, #7
 8001558:	601a      	str	r2, [r3, #0]
                   SysTick_CTRL_TICKINT_Msk   |
                   SysTick_CTRL_ENABLE_Msk;                         /* Enable SysTick IRQ and SysTick Timer */
  return (0UL);                                                     /* Function successful */
 800155a:	2300      	movs	r3, #0
}
 800155c:	0018      	movs	r0, r3
 800155e:	46bd      	mov	sp, r7
 8001560:	b002      	add	sp, #8
 8001562:	bd80      	pop	{r7, pc}
 8001564:	00ffffff 	.word	0x00ffffff
 8001568:	e000e010 	.word	0xe000e010

0800156c <HAL_NVIC_SetPriority>:
  *         with stm32l0xx devices, this parameter is a dummy value and it is ignored, because 
  *         no subpriority supported in Cortex M0+ based products.   
  * @retval None
  */
void HAL_NVIC_SetPriority(IRQn_Type IRQn, uint32_t PreemptPriority, uint32_t SubPriority)
{ 
 800156c:	b580      	push	{r7, lr}
 800156e:	b084      	sub	sp, #16
 8001570:	af00      	add	r7, sp, #0
 8001572:	60b9      	str	r1, [r7, #8]
 8001574:	607a      	str	r2, [r7, #4]
 8001576:	210f      	movs	r1, #15
 8001578:	187b      	adds	r3, r7, r1
 800157a:	1c02      	adds	r2, r0, #0
 800157c:	701a      	strb	r2, [r3, #0]
    /* Check the parameters */
  assert_param(IS_NVIC_PREEMPTION_PRIORITY(PreemptPriority));
  NVIC_SetPriority(IRQn,PreemptPriority);
 800157e:	68ba      	ldr	r2, [r7, #8]
 8001580:	187b      	adds	r3, r7, r1
 8001582:	781b      	ldrb	r3, [r3, #0]
 8001584:	b25b      	sxtb	r3, r3
 8001586:	0011      	movs	r1, r2
 8001588:	0018      	movs	r0, r3
 800158a:	f7ff ff5d 	bl	8001448 <NVIC_SetPriority>
}
 800158e:	46c0      	nop			; (mov r8, r8)
 8001590:	46bd      	mov	sp, r7
 8001592:	b004      	add	sp, #16
 8001594:	bd80      	pop	{r7, pc}

08001596 <HAL_NVIC_EnableIRQ>:
  *         This parameter can be an enumerator of  IRQn_Type enumeration
  *         (For the complete STM32 Devices IRQ Channels list, please refer to stm32l0xx.h file)  
  * @retval None
  */
void HAL_NVIC_EnableIRQ(IRQn_Type IRQn)
{
 8001596:	b580      	push	{r7, lr}
 8001598:	b082      	sub	sp, #8
 800159a:	af00      	add	r7, sp, #0
 800159c:	0002      	movs	r2, r0
 800159e:	1dfb      	adds	r3, r7, #7
 80015a0:	701a      	strb	r2, [r3, #0]
  /* Check the parameters */
  assert_param(IS_NVIC_DEVICE_IRQ(IRQn));
  
  /* Enable interrupt */
  NVIC_EnableIRQ(IRQn);
 80015a2:	1dfb      	adds	r3, r7, #7
 80015a4:	781b      	ldrb	r3, [r3, #0]
 80015a6:	b25b      	sxtb	r3, r3
 80015a8:	0018      	movs	r0, r3
 80015aa:	f7ff ff37 	bl	800141c <NVIC_EnableIRQ>
}
 80015ae:	46c0      	nop			; (mov r8, r8)
 80015b0:	46bd      	mov	sp, r7
 80015b2:	b002      	add	sp, #8
 80015b4:	bd80      	pop	{r7, pc}

080015b6 <HAL_SYSTICK_Config>:
  * @param  TicksNumb Specifies the ticks Number of ticks between two interrupts.
  * @retval status:  - 0  Function succeeded.
  *                  - 1  Function failed.
  */
uint32_t HAL_SYSTICK_Config(uint32_t TicksNumb)
{
 80015b6:	b580      	push	{r7, lr}
 80015b8:	b082      	sub	sp, #8
 80015ba:	af00      	add	r7, sp, #0
 80015bc:	6078      	str	r0, [r7, #4]
   return SysTick_Config(TicksNumb);
 80015be:	687b      	ldr	r3, [r7, #4]
 80015c0:	0018      	movs	r0, r3
 80015c2:	f7ff ffaf 	bl	8001524 <SysTick_Config>
 80015c6:	0003      	movs	r3, r0
}
 80015c8:	0018      	movs	r0, r3
 80015ca:	46bd      	mov	sp, r7
 80015cc:	b002      	add	sp, #8
 80015ce:	bd80      	pop	{r7, pc}

080015d0 <HAL_DMA_Init>:
  * @param  hdma Pointer to a DMA_HandleTypeDef structure that contains
  *               the configuration information for the specified DMA Channel.
  * @retval HAL status
  */
HAL_StatusTypeDef HAL_DMA_Init(DMA_HandleTypeDef *hdma)
{
 80015d0:	b580      	push	{r7, lr}
 80015d2:	b084      	sub	sp, #16
 80015d4:	af00      	add	r7, sp, #0
 80015d6:	6078      	str	r0, [r7, #4]
  uint32_t tmp;

  /* Check the DMA handle allocation */
  if(hdma == NULL)
 80015d8:	687b      	ldr	r3, [r7, #4]
 80015da:	2b00      	cmp	r3, #0
 80015dc:	d101      	bne.n	80015e2 <HAL_DMA_Init+0x12>
  {
    return HAL_ERROR;
 80015de:	2301      	movs	r3, #1
 80015e0:	e061      	b.n	80016a6 <HAL_DMA_Init+0xd6>
  assert_param(IS_DMA_MODE(hdma->Init.Mode));
  assert_param(IS_DMA_PRIORITY(hdma->Init.Priority));

  /* Compute the channel index */
  /* Only one DMA: DMA1 */
  hdma->ChannelIndex = (((uint32_t)hdma->Instance - (uint32_t)DMA1_Channel1) / ((uint32_t)DMA1_Channel2 - (uint32_t)DMA1_Channel1)) << 2;
 80015e2:	687b      	ldr	r3, [r7, #4]
 80015e4:	681b      	ldr	r3, [r3, #0]
 80015e6:	4a32      	ldr	r2, [pc, #200]	; (80016b0 <HAL_DMA_Init+0xe0>)
 80015e8:	4694      	mov	ip, r2
 80015ea:	4463      	add	r3, ip
 80015ec:	2114      	movs	r1, #20
 80015ee:	0018      	movs	r0, r3
 80015f0:	f7fe fd8a 	bl	8000108 <__udivsi3>
 80015f4:	0003      	movs	r3, r0
 80015f6:	009a      	lsls	r2, r3, #2
 80015f8:	687b      	ldr	r3, [r7, #4]
 80015fa:	645a      	str	r2, [r3, #68]	; 0x44
  hdma->DmaBaseAddress = DMA1;
 80015fc:	687b      	ldr	r3, [r7, #4]
 80015fe:	4a2d      	ldr	r2, [pc, #180]	; (80016b4 <HAL_DMA_Init+0xe4>)
 8001600:	641a      	str	r2, [r3, #64]	; 0x40

  /* Change DMA peripheral state */
  hdma->State = HAL_DMA_STATE_BUSY;
 8001602:	687b      	ldr	r3, [r7, #4]
 8001604:	2225      	movs	r2, #37	; 0x25
 8001606:	2102      	movs	r1, #2
 8001608:	5499      	strb	r1, [r3, r2]

  /* Get the CR register value */
  tmp = hdma->Instance->CCR;
 800160a:	687b      	ldr	r3, [r7, #4]
 800160c:	681b      	ldr	r3, [r3, #0]
 800160e:	681b      	ldr	r3, [r3, #0]
 8001610:	60fb      	str	r3, [r7, #12]

  /* Clear PL, MSIZE, PSIZE, MINC, PINC, CIRC, DIR and MEM2MEM bits */
  tmp &= ((uint32_t)~(DMA_CCR_PL    | DMA_CCR_MSIZE  | DMA_CCR_PSIZE  |
 8001612:	68fb      	ldr	r3, [r7, #12]
 8001614:	4a28      	ldr	r2, [pc, #160]	; (80016b8 <HAL_DMA_Init+0xe8>)
 8001616:	4013      	ands	r3, r2
 8001618:	60fb      	str	r3, [r7, #12]
                      DMA_CCR_MINC  | DMA_CCR_PINC   | DMA_CCR_CIRC   |
                      DMA_CCR_DIR   | DMA_CCR_MEM2MEM));

  /* Prepare the DMA Channel configuration */
  tmp |=  hdma->Init.Direction        |
 800161a:	687b      	ldr	r3, [r7, #4]
 800161c:	689a      	ldr	r2, [r3, #8]
          hdma->Init.PeriphInc           | hdma->Init.MemInc           |
 800161e:	687b      	ldr	r3, [r7, #4]
 8001620:	68db      	ldr	r3, [r3, #12]
  tmp |=  hdma->Init.Direction        |
 8001622:	431a      	orrs	r2, r3
          hdma->Init.PeriphInc           | hdma->Init.MemInc           |
 8001624:	687b      	ldr	r3, [r7, #4]
 8001626:	691b      	ldr	r3, [r3, #16]
 8001628:	431a      	orrs	r2, r3
          hdma->Init.PeriphDataAlignment | hdma->Init.MemDataAlignment |
 800162a:	687b      	ldr	r3, [r7, #4]
 800162c:	695b      	ldr	r3, [r3, #20]
          hdma->Init.PeriphInc           | hdma->Init.MemInc           |
 800162e:	431a      	orrs	r2, r3
          hdma->Init.PeriphDataAlignment | hdma->Init.MemDataAlignment |
 8001630:	687b      	ldr	r3, [r7, #4]
 8001632:	699b      	ldr	r3, [r3, #24]
 8001634:	431a      	orrs	r2, r3
          hdma->Init.Mode                | hdma->Init.Priority;
 8001636:	687b      	ldr	r3, [r7, #4]
 8001638:	69db      	ldr	r3, [r3, #28]
          hdma->Init.PeriphDataAlignment | hdma->Init.MemDataAlignment |
 800163a:	431a      	orrs	r2, r3
          hdma->Init.Mode                | hdma->Init.Priority;
 800163c:	687b      	ldr	r3, [r7, #4]
 800163e:	6a1b      	ldr	r3, [r3, #32]
 8001640:	4313      	orrs	r3, r2
  tmp |=  hdma->Init.Direction        |
 8001642:	68fa      	ldr	r2, [r7, #12]
 8001644:	4313      	orrs	r3, r2
 8001646:	60fb      	str	r3, [r7, #12]

  /* Write to DMA Channel CR register */
  hdma->Instance->CCR = tmp;
 8001648:	687b      	ldr	r3, [r7, #4]
 800164a:	681b      	ldr	r3, [r3, #0]
 800164c:	68fa      	ldr	r2, [r7, #12]
 800164e:	601a      	str	r2, [r3, #0]

  /* Set request selection */
  if(hdma->Init.Direction != DMA_MEMORY_TO_MEMORY)
 8001650:	687b      	ldr	r3, [r7, #4]
 8001652:	689a      	ldr	r2, [r3, #8]
 8001654:	2380      	movs	r3, #128	; 0x80
 8001656:	01db      	lsls	r3, r3, #7
 8001658:	429a      	cmp	r2, r3
 800165a:	d018      	beq.n	800168e <HAL_DMA_Init+0xbe>
  {
    /* Write to DMA channel selection register */
    /* Reset request selection for DMA1 Channelx */
    DMA1_CSELR->CSELR &= ~(DMA_CSELR_C1S << (hdma->ChannelIndex & 0x1cU));
 800165c:	4b17      	ldr	r3, [pc, #92]	; (80016bc <HAL_DMA_Init+0xec>)
 800165e:	681a      	ldr	r2, [r3, #0]
 8001660:	687b      	ldr	r3, [r7, #4]
 8001662:	6c5b      	ldr	r3, [r3, #68]	; 0x44
 8001664:	211c      	movs	r1, #28
 8001666:	400b      	ands	r3, r1
 8001668:	210f      	movs	r1, #15
 800166a:	4099      	lsls	r1, r3
 800166c:	000b      	movs	r3, r1
 800166e:	43d9      	mvns	r1, r3
 8001670:	4b12      	ldr	r3, [pc, #72]	; (80016bc <HAL_DMA_Init+0xec>)
 8001672:	400a      	ands	r2, r1
 8001674:	601a      	str	r2, [r3, #0]

    /* Configure request selection for DMA1 Channelx */
    DMA1_CSELR->CSELR |= (uint32_t) (hdma->Init.Request << (hdma->ChannelIndex & 0x1cU));
 8001676:	4b11      	ldr	r3, [pc, #68]	; (80016bc <HAL_DMA_Init+0xec>)
 8001678:	6819      	ldr	r1, [r3, #0]
 800167a:	687b      	ldr	r3, [r7, #4]
 800167c:	685a      	ldr	r2, [r3, #4]
 800167e:	687b      	ldr	r3, [r7, #4]
 8001680:	6c5b      	ldr	r3, [r3, #68]	; 0x44
 8001682:	201c      	movs	r0, #28
 8001684:	4003      	ands	r3, r0
 8001686:	409a      	lsls	r2, r3
 8001688:	4b0c      	ldr	r3, [pc, #48]	; (80016bc <HAL_DMA_Init+0xec>)
 800168a:	430a      	orrs	r2, r1
 800168c:	601a      	str	r2, [r3, #0]
  }

  /* Initialise the error code */
  hdma->ErrorCode = HAL_DMA_ERROR_NONE;
 800168e:	687b      	ldr	r3, [r7, #4]
 8001690:	2200      	movs	r2, #0
 8001692:	63da      	str	r2, [r3, #60]	; 0x3c

  /* Initialize the DMA state*/
  hdma->State  = HAL_DMA_STATE_READY;
 8001694:	687b      	ldr	r3, [r7, #4]
 8001696:	2225      	movs	r2, #37	; 0x25
 8001698:	2101      	movs	r1, #1
 800169a:	5499      	strb	r1, [r3, r2]

  /* Allocate lock resource and initialize it */
  hdma->Lock = HAL_UNLOCKED;
 800169c:	687b      	ldr	r3, [r7, #4]
 800169e:	2224      	movs	r2, #36	; 0x24
 80016a0:	2100      	movs	r1, #0
 80016a2:	5499      	strb	r1, [r3, r2]

  return HAL_OK;
 80016a4:	2300      	movs	r3, #0
}
 80016a6:	0018      	movs	r0, r3
 80016a8:	46bd      	mov	sp, r7
 80016aa:	b004      	add	sp, #16
 80016ac:	bd80      	pop	{r7, pc}
 80016ae:	46c0      	nop			; (mov r8, r8)
 80016b0:	bffdfff8 	.word	0xbffdfff8
 80016b4:	40020000 	.word	0x40020000
 80016b8:	ffff800f 	.word	0xffff800f
 80016bc:	400200a8 	.word	0x400200a8

080016c0 <HAL_DMA_Start_IT>:
  * @param  DstAddress The destination memory Buffer address
  * @param  DataLength The length of data to be transferred from source to destination
  * @retval HAL status
  */
HAL_StatusTypeDef HAL_DMA_Start_IT(DMA_HandleTypeDef *hdma, uint32_t SrcAddress, uint32_t DstAddress, uint32_t DataLength)
{
 80016c0:	b580      	push	{r7, lr}
 80016c2:	b086      	sub	sp, #24
 80016c4:	af00      	add	r7, sp, #0
 80016c6:	60f8      	str	r0, [r7, #12]
 80016c8:	60b9      	str	r1, [r7, #8]
 80016ca:	607a      	str	r2, [r7, #4]
 80016cc:	603b      	str	r3, [r7, #0]
  HAL_StatusTypeDef status = HAL_OK;
 80016ce:	2317      	movs	r3, #23
 80016d0:	18fb      	adds	r3, r7, r3
 80016d2:	2200      	movs	r2, #0
 80016d4:	701a      	strb	r2, [r3, #0]

  /* Check the parameters */
  assert_param(IS_DMA_BUFFER_SIZE(DataLength));

  /* Process locked */
  __HAL_LOCK(hdma);
 80016d6:	68fb      	ldr	r3, [r7, #12]
 80016d8:	2224      	movs	r2, #36	; 0x24
 80016da:	5c9b      	ldrb	r3, [r3, r2]
 80016dc:	2b01      	cmp	r3, #1
 80016de:	d101      	bne.n	80016e4 <HAL_DMA_Start_IT+0x24>
 80016e0:	2302      	movs	r3, #2
 80016e2:	e04f      	b.n	8001784 <HAL_DMA_Start_IT+0xc4>
 80016e4:	68fb      	ldr	r3, [r7, #12]
 80016e6:	2224      	movs	r2, #36	; 0x24
 80016e8:	2101      	movs	r1, #1
 80016ea:	5499      	strb	r1, [r3, r2]

  if(HAL_DMA_STATE_READY == hdma->State)
 80016ec:	68fb      	ldr	r3, [r7, #12]
 80016ee:	2225      	movs	r2, #37	; 0x25
 80016f0:	5c9b      	ldrb	r3, [r3, r2]
 80016f2:	b2db      	uxtb	r3, r3
 80016f4:	2b01      	cmp	r3, #1
 80016f6:	d13a      	bne.n	800176e <HAL_DMA_Start_IT+0xae>
  {
    /* Change DMA peripheral state */
    hdma->State = HAL_DMA_STATE_BUSY;
 80016f8:	68fb      	ldr	r3, [r7, #12]
 80016fa:	2225      	movs	r2, #37	; 0x25
 80016fc:	2102      	movs	r1, #2
 80016fe:	5499      	strb	r1, [r3, r2]
    hdma->ErrorCode = HAL_DMA_ERROR_NONE;
 8001700:	68fb      	ldr	r3, [r7, #12]
 8001702:	2200      	movs	r2, #0
 8001704:	63da      	str	r2, [r3, #60]	; 0x3c

    /* Disable the peripheral */
    __HAL_DMA_DISABLE(hdma);
 8001706:	68fb      	ldr	r3, [r7, #12]
 8001708:	681b      	ldr	r3, [r3, #0]
 800170a:	681a      	ldr	r2, [r3, #0]
 800170c:	68fb      	ldr	r3, [r7, #12]
 800170e:	681b      	ldr	r3, [r3, #0]
 8001710:	2101      	movs	r1, #1
 8001712:	438a      	bics	r2, r1
 8001714:	601a      	str	r2, [r3, #0]

    /* Configure the source, destination address and the data length & clear flags*/
    DMA_SetConfig(hdma, SrcAddress, DstAddress, DataLength);
 8001716:	683b      	ldr	r3, [r7, #0]
 8001718:	687a      	ldr	r2, [r7, #4]
 800171a:	68b9      	ldr	r1, [r7, #8]
 800171c:	68f8      	ldr	r0, [r7, #12]
 800171e:	f000 f8e3 	bl	80018e8 <DMA_SetConfig>

    /* Enable the transfer complete interrupt */
    /* Enable the transfer Error interrupt */
    if(NULL != hdma->XferHalfCpltCallback )
 8001722:	68fb      	ldr	r3, [r7, #12]
 8001724:	6b1b      	ldr	r3, [r3, #48]	; 0x30
 8001726:	2b00      	cmp	r3, #0
 8001728:	d008      	beq.n	800173c <HAL_DMA_Start_IT+0x7c>
    {
      /* Enable the Half transfer complete interrupt as well */
      __HAL_DMA_ENABLE_IT(hdma, (DMA_IT_TC | DMA_IT_HT | DMA_IT_TE));
 800172a:	68fb      	ldr	r3, [r7, #12]
 800172c:	681b      	ldr	r3, [r3, #0]
 800172e:	681a      	ldr	r2, [r3, #0]
 8001730:	68fb      	ldr	r3, [r7, #12]
 8001732:	681b      	ldr	r3, [r3, #0]
 8001734:	210e      	movs	r1, #14
 8001736:	430a      	orrs	r2, r1
 8001738:	601a      	str	r2, [r3, #0]
 800173a:	e00f      	b.n	800175c <HAL_DMA_Start_IT+0x9c>
    }
    else
    {
      __HAL_DMA_DISABLE_IT(hdma, DMA_IT_HT);
 800173c:	68fb      	ldr	r3, [r7, #12]
 800173e:	681b      	ldr	r3, [r3, #0]
 8001740:	681a      	ldr	r2, [r3, #0]
 8001742:	68fb      	ldr	r3, [r7, #12]
 8001744:	681b      	ldr	r3, [r3, #0]
 8001746:	2104      	movs	r1, #4
 8001748:	438a      	bics	r2, r1
 800174a:	601a      	str	r2, [r3, #0]
      __HAL_DMA_ENABLE_IT(hdma, (DMA_IT_TC | DMA_IT_TE));
 800174c:	68fb      	ldr	r3, [r7, #12]
 800174e:	681b      	ldr	r3, [r3, #0]
 8001750:	681a      	ldr	r2, [r3, #0]
 8001752:	68fb      	ldr	r3, [r7, #12]
 8001754:	681b      	ldr	r3, [r3, #0]
 8001756:	210a      	movs	r1, #10
 8001758:	430a      	orrs	r2, r1
 800175a:	601a      	str	r2, [r3, #0]
    }

    /* Enable the Peripheral */
    __HAL_DMA_ENABLE(hdma);
 800175c:	68fb      	ldr	r3, [r7, #12]
 800175e:	681b      	ldr	r3, [r3, #0]
 8001760:	681a      	ldr	r2, [r3, #0]
 8001762:	68fb      	ldr	r3, [r7, #12]
 8001764:	681b      	ldr	r3, [r3, #0]
 8001766:	2101      	movs	r1, #1
 8001768:	430a      	orrs	r2, r1
 800176a:	601a      	str	r2, [r3, #0]
 800176c:	e007      	b.n	800177e <HAL_DMA_Start_IT+0xbe>
  }
  else
  {
    /* Process Unlocked */
    __HAL_UNLOCK(hdma);
 800176e:	68fb      	ldr	r3, [r7, #12]
 8001770:	2224      	movs	r2, #36	; 0x24
 8001772:	2100      	movs	r1, #0
 8001774:	5499      	strb	r1, [r3, r2]

    /* Remain BUSY */
    status = HAL_BUSY;
 8001776:	2317      	movs	r3, #23
 8001778:	18fb      	adds	r3, r7, r3
 800177a:	2202      	movs	r2, #2
 800177c:	701a      	strb	r2, [r3, #0]
  }
  return status;
 800177e:	2317      	movs	r3, #23
 8001780:	18fb      	adds	r3, r7, r3
 8001782:	781b      	ldrb	r3, [r3, #0]
}
 8001784:	0018      	movs	r0, r3
 8001786:	46bd      	mov	sp, r7
 8001788:	b006      	add	sp, #24
 800178a:	bd80      	pop	{r7, pc}

0800178c <HAL_DMA_IRQHandler>:
  * @param  hdma pointer to a DMA_HandleTypeDef structure that contains
  *               the configuration information for the specified DMA Channel.
  * @retval None
  */
void HAL_DMA_IRQHandler(DMA_HandleTypeDef *hdma)
{
 800178c:	b580      	push	{r7, lr}
 800178e:	b084      	sub	sp, #16
 8001790:	af00      	add	r7, sp, #0
 8001792:	6078      	str	r0, [r7, #4]
  uint32_t flag_it = hdma->DmaBaseAddress->ISR;
 8001794:	687b      	ldr	r3, [r7, #4]
 8001796:	6c1b      	ldr	r3, [r3, #64]	; 0x40
 8001798:	681b      	ldr	r3, [r3, #0]
 800179a:	60fb      	str	r3, [r7, #12]
  uint32_t source_it = hdma->Instance->CCR;
 800179c:	687b      	ldr	r3, [r7, #4]
 800179e:	681b      	ldr	r3, [r3, #0]
 80017a0:	681b      	ldr	r3, [r3, #0]
 80017a2:	60bb      	str	r3, [r7, #8]

  /* Half Transfer Complete Interrupt management ******************************/
  if ((0U != (flag_it & (DMA_FLAG_HT1 << (hdma->ChannelIndex & 0x1cU)))) && (0U != (source_it & DMA_IT_HT)))
 80017a4:	687b      	ldr	r3, [r7, #4]
 80017a6:	6c5b      	ldr	r3, [r3, #68]	; 0x44
 80017a8:	221c      	movs	r2, #28
 80017aa:	4013      	ands	r3, r2
 80017ac:	2204      	movs	r2, #4
 80017ae:	409a      	lsls	r2, r3
 80017b0:	0013      	movs	r3, r2
 80017b2:	68fa      	ldr	r2, [r7, #12]
 80017b4:	4013      	ands	r3, r2
 80017b6:	d026      	beq.n	8001806 <HAL_DMA_IRQHandler+0x7a>
 80017b8:	68bb      	ldr	r3, [r7, #8]
 80017ba:	2204      	movs	r2, #4
 80017bc:	4013      	ands	r3, r2
 80017be:	d022      	beq.n	8001806 <HAL_DMA_IRQHandler+0x7a>
  {
      /* Disable the half transfer interrupt if the DMA mode is not CIRCULAR */
      if((hdma->Instance->CCR & DMA_CCR_CIRC) == 0U)
 80017c0:	687b      	ldr	r3, [r7, #4]
 80017c2:	681b      	ldr	r3, [r3, #0]
 80017c4:	681b      	ldr	r3, [r3, #0]
 80017c6:	2220      	movs	r2, #32
 80017c8:	4013      	ands	r3, r2
 80017ca:	d107      	bne.n	80017dc <HAL_DMA_IRQHandler+0x50>
      {
        /* Disable the half transfer interrupt */
        __HAL_DMA_DISABLE_IT(hdma, DMA_IT_HT);
 80017cc:	687b      	ldr	r3, [r7, #4]
 80017ce:	681b      	ldr	r3, [r3, #0]
 80017d0:	681a      	ldr	r2, [r3, #0]
 80017d2:	687b      	ldr	r3, [r7, #4]
 80017d4:	681b      	ldr	r3, [r3, #0]
 80017d6:	2104      	movs	r1, #4
 80017d8:	438a      	bics	r2, r1
 80017da:	601a      	str	r2, [r3, #0]
      }
      /* Clear the half transfer complete flag */
      hdma->DmaBaseAddress->IFCR = DMA_ISR_HTIF1 << (hdma->ChannelIndex & 0x1cU);
 80017dc:	687b      	ldr	r3, [r7, #4]
 80017de:	6c5b      	ldr	r3, [r3, #68]	; 0x44
 80017e0:	221c      	movs	r2, #28
 80017e2:	401a      	ands	r2, r3
 80017e4:	687b      	ldr	r3, [r7, #4]
 80017e6:	6c1b      	ldr	r3, [r3, #64]	; 0x40
 80017e8:	2104      	movs	r1, #4
 80017ea:	4091      	lsls	r1, r2
 80017ec:	000a      	movs	r2, r1
 80017ee:	605a      	str	r2, [r3, #4]

      /* DMA peripheral state is not updated in Half Transfer */
      /* but in Transfer Complete case */

     if(hdma->XferHalfCpltCallback != NULL)
 80017f0:	687b      	ldr	r3, [r7, #4]
 80017f2:	6b1b      	ldr	r3, [r3, #48]	; 0x30
 80017f4:	2b00      	cmp	r3, #0
 80017f6:	d100      	bne.n	80017fa <HAL_DMA_IRQHandler+0x6e>
 80017f8:	e071      	b.n	80018de <HAL_DMA_IRQHandler+0x152>
      {
        /* Half transfer callback */
        hdma->XferHalfCpltCallback(hdma);
 80017fa:	687b      	ldr	r3, [r7, #4]
 80017fc:	6b1b      	ldr	r3, [r3, #48]	; 0x30
 80017fe:	687a      	ldr	r2, [r7, #4]
 8001800:	0010      	movs	r0, r2
 8001802:	4798      	blx	r3
     if(hdma->XferHalfCpltCallback != NULL)
 8001804:	e06b      	b.n	80018de <HAL_DMA_IRQHandler+0x152>
      }
  }

  /* Transfer Complete Interrupt management ***********************************/
  else if ((0U != (flag_it & (DMA_FLAG_TC1 << (hdma->ChannelIndex & 0x1cU)))) && (0U != (source_it & DMA_IT_TC)))
 8001806:	687b      	ldr	r3, [r7, #4]
 8001808:	6c5b      	ldr	r3, [r3, #68]	; 0x44
 800180a:	221c      	movs	r2, #28
 800180c:	4013      	ands	r3, r2
 800180e:	2202      	movs	r2, #2
 8001810:	409a      	lsls	r2, r3
 8001812:	0013      	movs	r3, r2
 8001814:	68fa      	ldr	r2, [r7, #12]
 8001816:	4013      	ands	r3, r2
 8001818:	d02d      	beq.n	8001876 <HAL_DMA_IRQHandler+0xea>
 800181a:	68bb      	ldr	r3, [r7, #8]
 800181c:	2202      	movs	r2, #2
 800181e:	4013      	ands	r3, r2
 8001820:	d029      	beq.n	8001876 <HAL_DMA_IRQHandler+0xea>
  {
    if((hdma->Instance->CCR & DMA_CCR_CIRC) == 0U)
 8001822:	687b      	ldr	r3, [r7, #4]
 8001824:	681b      	ldr	r3, [r3, #0]
 8001826:	681b      	ldr	r3, [r3, #0]
 8001828:	2220      	movs	r2, #32
 800182a:	4013      	ands	r3, r2
 800182c:	d10b      	bne.n	8001846 <HAL_DMA_IRQHandler+0xba>
    {
      /* Disable the transfer complete and error interrupt */
      __HAL_DMA_DISABLE_IT(hdma, DMA_IT_TE | DMA_IT_TC);
 800182e:	687b      	ldr	r3, [r7, #4]
 8001830:	681b      	ldr	r3, [r3, #0]
 8001832:	681a      	ldr	r2, [r3, #0]
 8001834:	687b      	ldr	r3, [r7, #4]
 8001836:	681b      	ldr	r3, [r3, #0]
 8001838:	210a      	movs	r1, #10
 800183a:	438a      	bics	r2, r1
 800183c:	601a      	str	r2, [r3, #0]

      /* Change the DMA state */
      hdma->State = HAL_DMA_STATE_READY;
 800183e:	687b      	ldr	r3, [r7, #4]
 8001840:	2225      	movs	r2, #37	; 0x25
 8001842:	2101      	movs	r1, #1
 8001844:	5499      	strb	r1, [r3, r2]
    }
    /* Clear the transfer complete flag */
    hdma->DmaBaseAddress->IFCR = (DMA_ISR_TCIF1 << (hdma->ChannelIndex & 0x1cU));
 8001846:	687b      	ldr	r3, [r7, #4]
 8001848:	6c5b      	ldr	r3, [r3, #68]	; 0x44
 800184a:	221c      	movs	r2, #28
 800184c:	401a      	ands	r2, r3
 800184e:	687b      	ldr	r3, [r7, #4]
 8001850:	6c1b      	ldr	r3, [r3, #64]	; 0x40
 8001852:	2102      	movs	r1, #2
 8001854:	4091      	lsls	r1, r2
 8001856:	000a      	movs	r2, r1
 8001858:	605a      	str	r2, [r3, #4]

    /* Process Unlocked */
    __HAL_UNLOCK(hdma);
 800185a:	687b      	ldr	r3, [r7, #4]
 800185c:	2224      	movs	r2, #36	; 0x24
 800185e:	2100      	movs	r1, #0
 8001860:	5499      	strb	r1, [r3, r2]

    if(hdma->XferCpltCallback != NULL)
 8001862:	687b      	ldr	r3, [r7, #4]
 8001864:	6adb      	ldr	r3, [r3, #44]	; 0x2c
 8001866:	2b00      	cmp	r3, #0
 8001868:	d039      	beq.n	80018de <HAL_DMA_IRQHandler+0x152>
    {
      /* Transfer complete callback */
      hdma->XferCpltCallback(hdma);
 800186a:	687b      	ldr	r3, [r7, #4]
 800186c:	6adb      	ldr	r3, [r3, #44]	; 0x2c
 800186e:	687a      	ldr	r2, [r7, #4]
 8001870:	0010      	movs	r0, r2
 8001872:	4798      	blx	r3
    if(hdma->XferCpltCallback != NULL)
 8001874:	e033      	b.n	80018de <HAL_DMA_IRQHandler+0x152>
    }
  }

  /* Transfer Error Interrupt management **************************************/
  else if ((0U != (flag_it & (DMA_FLAG_TE1 << (hdma->ChannelIndex & 0x1cU)))) && (0U != (source_it & DMA_IT_TE)))
 8001876:	687b      	ldr	r3, [r7, #4]
 8001878:	6c5b      	ldr	r3, [r3, #68]	; 0x44
 800187a:	221c      	movs	r2, #28
 800187c:	4013      	ands	r3, r2
 800187e:	2208      	movs	r2, #8
 8001880:	409a      	lsls	r2, r3
 8001882:	0013      	movs	r3, r2
 8001884:	68fa      	ldr	r2, [r7, #12]
 8001886:	4013      	ands	r3, r2
 8001888:	d02a      	beq.n	80018e0 <HAL_DMA_IRQHandler+0x154>
 800188a:	68bb      	ldr	r3, [r7, #8]
 800188c:	2208      	movs	r2, #8
 800188e:	4013      	ands	r3, r2
 8001890:	d026      	beq.n	80018e0 <HAL_DMA_IRQHandler+0x154>
  {
    /* When a DMA transfer error occurs */
    /* A hardware clear of its EN bits is performed */
    /* Disable ALL DMA IT */
    __HAL_DMA_DISABLE_IT(hdma, (DMA_IT_TC | DMA_IT_HT | DMA_IT_TE));
 8001892:	687b      	ldr	r3, [r7, #4]
 8001894:	681b      	ldr	r3, [r3, #0]
 8001896:	681a      	ldr	r2, [r3, #0]
 8001898:	687b      	ldr	r3, [r7, #4]
 800189a:	681b      	ldr	r3, [r3, #0]
 800189c:	210e      	movs	r1, #14
 800189e:	438a      	bics	r2, r1
 80018a0:	601a      	str	r2, [r3, #0]

    /* Clear all flags */
    hdma->DmaBaseAddress->IFCR = (DMA_ISR_GIF1 << (hdma->ChannelIndex & 0x1cU));
 80018a2:	687b      	ldr	r3, [r7, #4]
 80018a4:	6c5b      	ldr	r3, [r3, #68]	; 0x44
 80018a6:	221c      	movs	r2, #28
 80018a8:	401a      	ands	r2, r3
 80018aa:	687b      	ldr	r3, [r7, #4]
 80018ac:	6c1b      	ldr	r3, [r3, #64]	; 0x40
 80018ae:	2101      	movs	r1, #1
 80018b0:	4091      	lsls	r1, r2
 80018b2:	000a      	movs	r2, r1
 80018b4:	605a      	str	r2, [r3, #4]

    /* Update error code */
    hdma->ErrorCode = HAL_DMA_ERROR_TE;
 80018b6:	687b      	ldr	r3, [r7, #4]
 80018b8:	2201      	movs	r2, #1
 80018ba:	63da      	str	r2, [r3, #60]	; 0x3c

    /* Change the DMA state */
    hdma->State = HAL_DMA_STATE_READY;
 80018bc:	687b      	ldr	r3, [r7, #4]
 80018be:	2225      	movs	r2, #37	; 0x25
 80018c0:	2101      	movs	r1, #1
 80018c2:	5499      	strb	r1, [r3, r2]

    /* Process Unlocked */
    __HAL_UNLOCK(hdma);
 80018c4:	687b      	ldr	r3, [r7, #4]
 80018c6:	2224      	movs	r2, #36	; 0x24
 80018c8:	2100      	movs	r1, #0
 80018ca:	5499      	strb	r1, [r3, r2]

    if (hdma->XferErrorCallback != NULL)
 80018cc:	687b      	ldr	r3, [r7, #4]
 80018ce:	6b5b      	ldr	r3, [r3, #52]	; 0x34
 80018d0:	2b00      	cmp	r3, #0
 80018d2:	d005      	beq.n	80018e0 <HAL_DMA_IRQHandler+0x154>
    {
      /* Transfer error callback */
      hdma->XferErrorCallback(hdma);
 80018d4:	687b      	ldr	r3, [r7, #4]
 80018d6:	6b5b      	ldr	r3, [r3, #52]	; 0x34
 80018d8:	687a      	ldr	r2, [r7, #4]
 80018da:	0010      	movs	r0, r2
 80018dc:	4798      	blx	r3
  }
  else
  {
    /* Nothing To Do */
  }
  return;
 80018de:	46c0      	nop			; (mov r8, r8)
 80018e0:	46c0      	nop			; (mov r8, r8)
}
 80018e2:	46bd      	mov	sp, r7
 80018e4:	b004      	add	sp, #16
 80018e6:	bd80      	pop	{r7, pc}

080018e8 <DMA_SetConfig>:
  * @param  DstAddress The destination memory Buffer address
  * @param  DataLength The length of data to be transferred from source to destination
  * @retval HAL status
  */
static void DMA_SetConfig(DMA_HandleTypeDef *hdma, uint32_t SrcAddress, uint32_t DstAddress, uint32_t DataLength)
{
 80018e8:	b580      	push	{r7, lr}
 80018ea:	b084      	sub	sp, #16
 80018ec:	af00      	add	r7, sp, #0
 80018ee:	60f8      	str	r0, [r7, #12]
 80018f0:	60b9      	str	r1, [r7, #8]
 80018f2:	607a      	str	r2, [r7, #4]
 80018f4:	603b      	str	r3, [r7, #0]
  /* Clear all flags */
  hdma->DmaBaseAddress->IFCR = (DMA_ISR_GIF1 << (hdma->ChannelIndex & 0x1cU));
 80018f6:	68fb      	ldr	r3, [r7, #12]
 80018f8:	6c5b      	ldr	r3, [r3, #68]	; 0x44
 80018fa:	221c      	movs	r2, #28
 80018fc:	401a      	ands	r2, r3
 80018fe:	68fb      	ldr	r3, [r7, #12]
 8001900:	6c1b      	ldr	r3, [r3, #64]	; 0x40
 8001902:	2101      	movs	r1, #1
 8001904:	4091      	lsls	r1, r2
 8001906:	000a      	movs	r2, r1
 8001908:	605a      	str	r2, [r3, #4]

  /* Configure DMA Channel data length */
  hdma->Instance->CNDTR = DataLength;
 800190a:	68fb      	ldr	r3, [r7, #12]
 800190c:	681b      	ldr	r3, [r3, #0]
 800190e:	683a      	ldr	r2, [r7, #0]
 8001910:	605a      	str	r2, [r3, #4]

  /* Memory to Peripheral */
  if((hdma->Init.Direction) == DMA_MEMORY_TO_PERIPH)
 8001912:	68fb      	ldr	r3, [r7, #12]
 8001914:	689b      	ldr	r3, [r3, #8]
 8001916:	2b10      	cmp	r3, #16
 8001918:	d108      	bne.n	800192c <DMA_SetConfig+0x44>
  {
    /* Configure DMA Channel destination address */
    hdma->Instance->CPAR = DstAddress;
 800191a:	68fb      	ldr	r3, [r7, #12]
 800191c:	681b      	ldr	r3, [r3, #0]
 800191e:	687a      	ldr	r2, [r7, #4]
 8001920:	609a      	str	r2, [r3, #8]

    /* Configure DMA Channel source address */
    hdma->Instance->CMAR = SrcAddress;
 8001922:	68fb      	ldr	r3, [r7, #12]
 8001924:	681b      	ldr	r3, [r3, #0]
 8001926:	68ba      	ldr	r2, [r7, #8]
 8001928:	60da      	str	r2, [r3, #12]
    hdma->Instance->CPAR = SrcAddress;

    /* Configure DMA Channel destination address */
    hdma->Instance->CMAR = DstAddress;
  }
}
 800192a:	e007      	b.n	800193c <DMA_SetConfig+0x54>
    hdma->Instance->CPAR = SrcAddress;
 800192c:	68fb      	ldr	r3, [r7, #12]
 800192e:	681b      	ldr	r3, [r3, #0]
 8001930:	68ba      	ldr	r2, [r7, #8]
 8001932:	609a      	str	r2, [r3, #8]
    hdma->Instance->CMAR = DstAddress;
 8001934:	68fb      	ldr	r3, [r7, #12]
 8001936:	681b      	ldr	r3, [r3, #0]
 8001938:	687a      	ldr	r2, [r7, #4]
 800193a:	60da      	str	r2, [r3, #12]
}
 800193c:	46c0      	nop			; (mov r8, r8)
 800193e:	46bd      	mov	sp, r7
 8001940:	b004      	add	sp, #16
 8001942:	bd80      	pop	{r7, pc}

08001944 <HAL_GPIO_Init>:
  * @param  GPIO_Init pointer to a GPIO_InitTypeDef structure that contains
  *                    the configuration information for the specified GPIO peripheral.
  * @retval None
  */
void HAL_GPIO_Init(GPIO_TypeDef  *GPIOx, GPIO_InitTypeDef *GPIO_Init)
{
 8001944:	b580      	push	{r7, lr}
 8001946:	b086      	sub	sp, #24
 8001948:	af00      	add	r7, sp, #0
 800194a:	6078      	str	r0, [r7, #4]
 800194c:	6039      	str	r1, [r7, #0]
  uint32_t position = 0x00U;
 800194e:	2300      	movs	r3, #0
 8001950:	617b      	str	r3, [r7, #20]
  uint32_t iocurrent = 0x00U;
 8001952:	2300      	movs	r3, #0
 8001954:	60fb      	str	r3, [r7, #12]
  uint32_t temp = 0x00U;
 8001956:	2300      	movs	r3, #0
 8001958:	613b      	str	r3, [r7, #16]
  assert_param(IS_GPIO_MODE(GPIO_Init->Mode));
  assert_param(IS_GPIO_PULL(GPIO_Init->Pull));
  assert_param(IS_GPIO_PIN_AVAILABLE(GPIOx,(GPIO_Init->Pin)));

  /* Configure the port pins */
  while (((GPIO_Init->Pin) >> position) != 0)
 800195a:	e143      	b.n	8001be4 <HAL_GPIO_Init+0x2a0>
  {
    /* Get the IO position */
    iocurrent = (GPIO_Init->Pin) & (1U << position);
 800195c:	683b      	ldr	r3, [r7, #0]
 800195e:	681b      	ldr	r3, [r3, #0]
 8001960:	2101      	movs	r1, #1
 8001962:	697a      	ldr	r2, [r7, #20]
 8001964:	4091      	lsls	r1, r2
 8001966:	000a      	movs	r2, r1
 8001968:	4013      	ands	r3, r2
 800196a:	60fb      	str	r3, [r7, #12]
    
    if(iocurrent)
 800196c:	68fb      	ldr	r3, [r7, #12]
 800196e:	2b00      	cmp	r3, #0
 8001970:	d100      	bne.n	8001974 <HAL_GPIO_Init+0x30>
 8001972:	e134      	b.n	8001bde <HAL_GPIO_Init+0x29a>
    {
      /*--------------------- GPIO Mode Configuration ------------------------*/
      /* In case of Alternate function mode selection */
      if((GPIO_Init->Mode == GPIO_MODE_AF_PP) || (GPIO_Init->Mode == GPIO_MODE_AF_OD)) 
 8001974:	683b      	ldr	r3, [r7, #0]
 8001976:	685b      	ldr	r3, [r3, #4]
 8001978:	2b02      	cmp	r3, #2
 800197a:	d003      	beq.n	8001984 <HAL_GPIO_Init+0x40>
 800197c:	683b      	ldr	r3, [r7, #0]
 800197e:	685b      	ldr	r3, [r3, #4]
 8001980:	2b12      	cmp	r3, #18
 8001982:	d123      	bne.n	80019cc <HAL_GPIO_Init+0x88>
        /* Check the Alternate function parameters */
        assert_param(IS_GPIO_AF_INSTANCE(GPIOx));
        assert_param(IS_GPIO_AF(GPIO_Init->Alternate));

        /* Configure Alternate function mapped with the current IO */ 
        temp = GPIOx->AFR[position >> 3U];
 8001984:	697b      	ldr	r3, [r7, #20]
 8001986:	08da      	lsrs	r2, r3, #3
 8001988:	687b      	ldr	r3, [r7, #4]
 800198a:	3208      	adds	r2, #8
 800198c:	0092      	lsls	r2, r2, #2
 800198e:	58d3      	ldr	r3, [r2, r3]
 8001990:	613b      	str	r3, [r7, #16]
        temp &= ~((uint32_t)0xFU << ((uint32_t)(position & (uint32_t)0x07U) * 4U)) ;
 8001992:	697b      	ldr	r3, [r7, #20]
 8001994:	2207      	movs	r2, #7
 8001996:	4013      	ands	r3, r2
 8001998:	009b      	lsls	r3, r3, #2
 800199a:	220f      	movs	r2, #15
 800199c:	409a      	lsls	r2, r3
 800199e:	0013      	movs	r3, r2
 80019a0:	43da      	mvns	r2, r3
 80019a2:	693b      	ldr	r3, [r7, #16]
 80019a4:	4013      	ands	r3, r2
 80019a6:	613b      	str	r3, [r7, #16]
        temp |= ((uint32_t)(GPIO_Init->Alternate) << (((uint32_t)position & (uint32_t)0x07U) * 4U)) ;
 80019a8:	683b      	ldr	r3, [r7, #0]
 80019aa:	691a      	ldr	r2, [r3, #16]
 80019ac:	697b      	ldr	r3, [r7, #20]
 80019ae:	2107      	movs	r1, #7
 80019b0:	400b      	ands	r3, r1
 80019b2:	009b      	lsls	r3, r3, #2
 80019b4:	409a      	lsls	r2, r3
 80019b6:	0013      	movs	r3, r2
 80019b8:	693a      	ldr	r2, [r7, #16]
 80019ba:	4313      	orrs	r3, r2
 80019bc:	613b      	str	r3, [r7, #16]
        GPIOx->AFR[position >> 3U] = temp;
 80019be:	697b      	ldr	r3, [r7, #20]
 80019c0:	08da      	lsrs	r2, r3, #3
 80019c2:	687b      	ldr	r3, [r7, #4]
 80019c4:	3208      	adds	r2, #8
 80019c6:	0092      	lsls	r2, r2, #2
 80019c8:	6939      	ldr	r1, [r7, #16]
 80019ca:	50d1      	str	r1, [r2, r3]
      } 

      /* In case of Output or Alternate function mode selection */
      if((GPIO_Init->Mode == GPIO_MODE_OUTPUT_PP) || (GPIO_Init->Mode == GPIO_MODE_AF_PP) ||
 80019cc:	683b      	ldr	r3, [r7, #0]
 80019ce:	685b      	ldr	r3, [r3, #4]
 80019d0:	2b01      	cmp	r3, #1
 80019d2:	d00b      	beq.n	80019ec <HAL_GPIO_Init+0xa8>
 80019d4:	683b      	ldr	r3, [r7, #0]
 80019d6:	685b      	ldr	r3, [r3, #4]
 80019d8:	2b02      	cmp	r3, #2
 80019da:	d007      	beq.n	80019ec <HAL_GPIO_Init+0xa8>
         (GPIO_Init->Mode == GPIO_MODE_OUTPUT_OD) || (GPIO_Init->Mode == GPIO_MODE_AF_OD))
 80019dc:	683b      	ldr	r3, [r7, #0]
 80019de:	685b      	ldr	r3, [r3, #4]
      if((GPIO_Init->Mode == GPIO_MODE_OUTPUT_PP) || (GPIO_Init->Mode == GPIO_MODE_AF_PP) ||
 80019e0:	2b11      	cmp	r3, #17
 80019e2:	d003      	beq.n	80019ec <HAL_GPIO_Init+0xa8>
         (GPIO_Init->Mode == GPIO_MODE_OUTPUT_OD) || (GPIO_Init->Mode == GPIO_MODE_AF_OD))
 80019e4:	683b      	ldr	r3, [r7, #0]
 80019e6:	685b      	ldr	r3, [r3, #4]
 80019e8:	2b12      	cmp	r3, #18
 80019ea:	d130      	bne.n	8001a4e <HAL_GPIO_Init+0x10a>
      {
        /* Check the Speed parameter */
        assert_param(IS_GPIO_SPEED(GPIO_Init->Speed));
        /* Configure the IO Speed */
        temp = GPIOx->OSPEEDR;
 80019ec:	687b      	ldr	r3, [r7, #4]
 80019ee:	689b      	ldr	r3, [r3, #8]
 80019f0:	613b      	str	r3, [r7, #16]
        temp &= ~(GPIO_OSPEEDER_OSPEED0 << (position * 2U));
 80019f2:	697b      	ldr	r3, [r7, #20]
 80019f4:	005b      	lsls	r3, r3, #1
 80019f6:	2203      	movs	r2, #3
 80019f8:	409a      	lsls	r2, r3
 80019fa:	0013      	movs	r3, r2
 80019fc:	43da      	mvns	r2, r3
 80019fe:	693b      	ldr	r3, [r7, #16]
 8001a00:	4013      	ands	r3, r2
 8001a02:	613b      	str	r3, [r7, #16]
        temp |= (GPIO_Init->Speed << (position * 2U));
 8001a04:	683b      	ldr	r3, [r7, #0]
 8001a06:	68da      	ldr	r2, [r3, #12]
 8001a08:	697b      	ldr	r3, [r7, #20]
 8001a0a:	005b      	lsls	r3, r3, #1
 8001a0c:	409a      	lsls	r2, r3
 8001a0e:	0013      	movs	r3, r2
 8001a10:	693a      	ldr	r2, [r7, #16]
 8001a12:	4313      	orrs	r3, r2
 8001a14:	613b      	str	r3, [r7, #16]
        GPIOx->OSPEEDR = temp;
 8001a16:	687b      	ldr	r3, [r7, #4]
 8001a18:	693a      	ldr	r2, [r7, #16]
 8001a1a:	609a      	str	r2, [r3, #8]

        /* Configure the IO Output Type */
        temp= GPIOx->OTYPER;
 8001a1c:	687b      	ldr	r3, [r7, #4]
 8001a1e:	685b      	ldr	r3, [r3, #4]
 8001a20:	613b      	str	r3, [r7, #16]
        temp &= ~(GPIO_OTYPER_OT_0 << position) ;
 8001a22:	2201      	movs	r2, #1
 8001a24:	697b      	ldr	r3, [r7, #20]
 8001a26:	409a      	lsls	r2, r3
 8001a28:	0013      	movs	r3, r2
 8001a2a:	43da      	mvns	r2, r3
 8001a2c:	693b      	ldr	r3, [r7, #16]
 8001a2e:	4013      	ands	r3, r2
 8001a30:	613b      	str	r3, [r7, #16]
        temp |= (((GPIO_Init->Mode & GPIO_OUTPUT_TYPE) >> 4U) << position);
 8001a32:	683b      	ldr	r3, [r7, #0]
 8001a34:	685b      	ldr	r3, [r3, #4]
 8001a36:	091b      	lsrs	r3, r3, #4
 8001a38:	2201      	movs	r2, #1
 8001a3a:	401a      	ands	r2, r3
 8001a3c:	697b      	ldr	r3, [r7, #20]
 8001a3e:	409a      	lsls	r2, r3
 8001a40:	0013      	movs	r3, r2
 8001a42:	693a      	ldr	r2, [r7, #16]
 8001a44:	4313      	orrs	r3, r2
 8001a46:	613b      	str	r3, [r7, #16]
        GPIOx->OTYPER = temp;
 8001a48:	687b      	ldr	r3, [r7, #4]
 8001a4a:	693a      	ldr	r2, [r7, #16]
 8001a4c:	605a      	str	r2, [r3, #4]
      }

      /* Configure IO Direction mode (Input, Output, Alternate or Analog) */
      temp = GPIOx->MODER;
 8001a4e:	687b      	ldr	r3, [r7, #4]
 8001a50:	681b      	ldr	r3, [r3, #0]
 8001a52:	613b      	str	r3, [r7, #16]
      temp &= ~(GPIO_MODER_MODE0 << (position * 2U));
 8001a54:	697b      	ldr	r3, [r7, #20]
 8001a56:	005b      	lsls	r3, r3, #1
 8001a58:	2203      	movs	r2, #3
 8001a5a:	409a      	lsls	r2, r3
 8001a5c:	0013      	movs	r3, r2
 8001a5e:	43da      	mvns	r2, r3
 8001a60:	693b      	ldr	r3, [r7, #16]
 8001a62:	4013      	ands	r3, r2
 8001a64:	613b      	str	r3, [r7, #16]
      temp |= ((GPIO_Init->Mode & GPIO_MODE) << (position * 2U));
 8001a66:	683b      	ldr	r3, [r7, #0]
 8001a68:	685b      	ldr	r3, [r3, #4]
 8001a6a:	2203      	movs	r2, #3
 8001a6c:	401a      	ands	r2, r3
 8001a6e:	697b      	ldr	r3, [r7, #20]
 8001a70:	005b      	lsls	r3, r3, #1
 8001a72:	409a      	lsls	r2, r3
 8001a74:	0013      	movs	r3, r2
 8001a76:	693a      	ldr	r2, [r7, #16]
 8001a78:	4313      	orrs	r3, r2
 8001a7a:	613b      	str	r3, [r7, #16]
      GPIOx->MODER = temp;
 8001a7c:	687b      	ldr	r3, [r7, #4]
 8001a7e:	693a      	ldr	r2, [r7, #16]
 8001a80:	601a      	str	r2, [r3, #0]

      /* Activate the Pull-up or Pull down resistor for the current IO */
      temp = GPIOx->PUPDR;
 8001a82:	687b      	ldr	r3, [r7, #4]
 8001a84:	68db      	ldr	r3, [r3, #12]
 8001a86:	613b      	str	r3, [r7, #16]
      temp &= ~(GPIO_PUPDR_PUPD0 << (position * 2U));
 8001a88:	697b      	ldr	r3, [r7, #20]
 8001a8a:	005b      	lsls	r3, r3, #1
 8001a8c:	2203      	movs	r2, #3
 8001a8e:	409a      	lsls	r2, r3
 8001a90:	0013      	movs	r3, r2
 8001a92:	43da      	mvns	r2, r3
 8001a94:	693b      	ldr	r3, [r7, #16]
 8001a96:	4013      	ands	r3, r2
 8001a98:	613b      	str	r3, [r7, #16]
      temp |= ((GPIO_Init->Pull) << (position * 2U)); 
 8001a9a:	683b      	ldr	r3, [r7, #0]
 8001a9c:	689a      	ldr	r2, [r3, #8]
 8001a9e:	697b      	ldr	r3, [r7, #20]
 8001aa0:	005b      	lsls	r3, r3, #1
 8001aa2:	409a      	lsls	r2, r3
 8001aa4:	0013      	movs	r3, r2
 8001aa6:	693a      	ldr	r2, [r7, #16]
 8001aa8:	4313      	orrs	r3, r2
 8001aaa:	613b      	str	r3, [r7, #16]
      GPIOx->PUPDR = temp;
 8001aac:	687b      	ldr	r3, [r7, #4]
 8001aae:	693a      	ldr	r2, [r7, #16]
 8001ab0:	60da      	str	r2, [r3, #12]

      /*--------------------- EXTI Mode Configuration ------------------------*/
      /* Configure the External Interrupt or event for the current IO */
      if((GPIO_Init->Mode & EXTI_MODE) == EXTI_MODE) 
 8001ab2:	683b      	ldr	r3, [r7, #0]
 8001ab4:	685a      	ldr	r2, [r3, #4]
 8001ab6:	2380      	movs	r3, #128	; 0x80
 8001ab8:	055b      	lsls	r3, r3, #21
 8001aba:	4013      	ands	r3, r2
 8001abc:	d100      	bne.n	8001ac0 <HAL_GPIO_Init+0x17c>
 8001abe:	e08e      	b.n	8001bde <HAL_GPIO_Init+0x29a>
      {
        /* Enable SYSCFG Clock */
        __HAL_RCC_SYSCFG_CLK_ENABLE();
 8001ac0:	4b4e      	ldr	r3, [pc, #312]	; (8001bfc <HAL_GPIO_Init+0x2b8>)
 8001ac2:	6b5a      	ldr	r2, [r3, #52]	; 0x34
 8001ac4:	4b4d      	ldr	r3, [pc, #308]	; (8001bfc <HAL_GPIO_Init+0x2b8>)
 8001ac6:	2101      	movs	r1, #1
 8001ac8:	430a      	orrs	r2, r1
 8001aca:	635a      	str	r2, [r3, #52]	; 0x34
        
        temp = SYSCFG->EXTICR[position >> 2U];
 8001acc:	4a4c      	ldr	r2, [pc, #304]	; (8001c00 <HAL_GPIO_Init+0x2bc>)
 8001ace:	697b      	ldr	r3, [r7, #20]
 8001ad0:	089b      	lsrs	r3, r3, #2
 8001ad2:	3302      	adds	r3, #2
 8001ad4:	009b      	lsls	r3, r3, #2
 8001ad6:	589b      	ldr	r3, [r3, r2]
 8001ad8:	613b      	str	r3, [r7, #16]
        CLEAR_BIT(temp, ((uint32_t)0x0FU) << (4U * (position & 0x03U)));
 8001ada:	697b      	ldr	r3, [r7, #20]
 8001adc:	2203      	movs	r2, #3
 8001ade:	4013      	ands	r3, r2
 8001ae0:	009b      	lsls	r3, r3, #2
 8001ae2:	220f      	movs	r2, #15
 8001ae4:	409a      	lsls	r2, r3
 8001ae6:	0013      	movs	r3, r2
 8001ae8:	43da      	mvns	r2, r3
 8001aea:	693b      	ldr	r3, [r7, #16]
 8001aec:	4013      	ands	r3, r2
 8001aee:	613b      	str	r3, [r7, #16]
        SET_BIT(temp, (GPIO_GET_INDEX(GPIOx)) << (4 * (position & 0x03U)));
 8001af0:	687a      	ldr	r2, [r7, #4]
 8001af2:	23a0      	movs	r3, #160	; 0xa0
 8001af4:	05db      	lsls	r3, r3, #23
 8001af6:	429a      	cmp	r2, r3
 8001af8:	d00d      	beq.n	8001b16 <HAL_GPIO_Init+0x1d2>
 8001afa:	687b      	ldr	r3, [r7, #4]
 8001afc:	4a41      	ldr	r2, [pc, #260]	; (8001c04 <HAL_GPIO_Init+0x2c0>)
 8001afe:	4293      	cmp	r3, r2
 8001b00:	d007      	beq.n	8001b12 <HAL_GPIO_Init+0x1ce>
 8001b02:	687b      	ldr	r3, [r7, #4]
 8001b04:	4a40      	ldr	r2, [pc, #256]	; (8001c08 <HAL_GPIO_Init+0x2c4>)
 8001b06:	4293      	cmp	r3, r2
 8001b08:	d101      	bne.n	8001b0e <HAL_GPIO_Init+0x1ca>
 8001b0a:	2302      	movs	r3, #2
 8001b0c:	e004      	b.n	8001b18 <HAL_GPIO_Init+0x1d4>
 8001b0e:	2306      	movs	r3, #6
 8001b10:	e002      	b.n	8001b18 <HAL_GPIO_Init+0x1d4>
 8001b12:	2301      	movs	r3, #1
 8001b14:	e000      	b.n	8001b18 <HAL_GPIO_Init+0x1d4>
 8001b16:	2300      	movs	r3, #0
 8001b18:	697a      	ldr	r2, [r7, #20]
 8001b1a:	2103      	movs	r1, #3
 8001b1c:	400a      	ands	r2, r1
 8001b1e:	0092      	lsls	r2, r2, #2
 8001b20:	4093      	lsls	r3, r2
 8001b22:	693a      	ldr	r2, [r7, #16]
 8001b24:	4313      	orrs	r3, r2
 8001b26:	613b      	str	r3, [r7, #16]
        SYSCFG->EXTICR[position >> 2U] = temp;
 8001b28:	4935      	ldr	r1, [pc, #212]	; (8001c00 <HAL_GPIO_Init+0x2bc>)
 8001b2a:	697b      	ldr	r3, [r7, #20]
 8001b2c:	089b      	lsrs	r3, r3, #2
 8001b2e:	3302      	adds	r3, #2
 8001b30:	009b      	lsls	r3, r3, #2
 8001b32:	693a      	ldr	r2, [r7, #16]
 8001b34:	505a      	str	r2, [r3, r1]
                  
        /* Clear EXTI line configuration */
        temp = EXTI->IMR;
 8001b36:	4b35      	ldr	r3, [pc, #212]	; (8001c0c <HAL_GPIO_Init+0x2c8>)
 8001b38:	681b      	ldr	r3, [r3, #0]
 8001b3a:	613b      	str	r3, [r7, #16]
        temp &= ~((uint32_t)iocurrent);
 8001b3c:	68fb      	ldr	r3, [r7, #12]
 8001b3e:	43da      	mvns	r2, r3
 8001b40:	693b      	ldr	r3, [r7, #16]
 8001b42:	4013      	ands	r3, r2
 8001b44:	613b      	str	r3, [r7, #16]
        if((GPIO_Init->Mode & GPIO_MODE_IT) == GPIO_MODE_IT)
 8001b46:	683b      	ldr	r3, [r7, #0]
 8001b48:	685a      	ldr	r2, [r3, #4]
 8001b4a:	2380      	movs	r3, #128	; 0x80
 8001b4c:	025b      	lsls	r3, r3, #9
 8001b4e:	4013      	ands	r3, r2
 8001b50:	d003      	beq.n	8001b5a <HAL_GPIO_Init+0x216>
        {
          temp |= iocurrent;
 8001b52:	693a      	ldr	r2, [r7, #16]
 8001b54:	68fb      	ldr	r3, [r7, #12]
 8001b56:	4313      	orrs	r3, r2
 8001b58:	613b      	str	r3, [r7, #16]
        }
        EXTI->IMR = temp;
 8001b5a:	4b2c      	ldr	r3, [pc, #176]	; (8001c0c <HAL_GPIO_Init+0x2c8>)
 8001b5c:	693a      	ldr	r2, [r7, #16]
 8001b5e:	601a      	str	r2, [r3, #0]

        temp = EXTI->EMR;
 8001b60:	4b2a      	ldr	r3, [pc, #168]	; (8001c0c <HAL_GPIO_Init+0x2c8>)
 8001b62:	685b      	ldr	r3, [r3, #4]
 8001b64:	613b      	str	r3, [r7, #16]
        temp &= ~((uint32_t)iocurrent);
 8001b66:	68fb      	ldr	r3, [r7, #12]
 8001b68:	43da      	mvns	r2, r3
 8001b6a:	693b      	ldr	r3, [r7, #16]
 8001b6c:	4013      	ands	r3, r2
 8001b6e:	613b      	str	r3, [r7, #16]
        if((GPIO_Init->Mode & GPIO_MODE_EVT) == GPIO_MODE_EVT)
 8001b70:	683b      	ldr	r3, [r7, #0]
 8001b72:	685a      	ldr	r2, [r3, #4]
 8001b74:	2380      	movs	r3, #128	; 0x80
 8001b76:	029b      	lsls	r3, r3, #10
 8001b78:	4013      	ands	r3, r2
 8001b7a:	d003      	beq.n	8001b84 <HAL_GPIO_Init+0x240>
        {
          temp |= iocurrent;
 8001b7c:	693a      	ldr	r2, [r7, #16]
 8001b7e:	68fb      	ldr	r3, [r7, #12]
 8001b80:	4313      	orrs	r3, r2
 8001b82:	613b      	str	r3, [r7, #16]
        }
        EXTI->EMR = temp;
 8001b84:	4b21      	ldr	r3, [pc, #132]	; (8001c0c <HAL_GPIO_Init+0x2c8>)
 8001b86:	693a      	ldr	r2, [r7, #16]
 8001b88:	605a      	str	r2, [r3, #4]

        /* Clear Rising Falling edge configuration */
        temp = EXTI->RTSR;
 8001b8a:	4b20      	ldr	r3, [pc, #128]	; (8001c0c <HAL_GPIO_Init+0x2c8>)
 8001b8c:	689b      	ldr	r3, [r3, #8]
 8001b8e:	613b      	str	r3, [r7, #16]
        temp &= ~((uint32_t)iocurrent);
 8001b90:	68fb      	ldr	r3, [r7, #12]
 8001b92:	43da      	mvns	r2, r3
 8001b94:	693b      	ldr	r3, [r7, #16]
 8001b96:	4013      	ands	r3, r2
 8001b98:	613b      	str	r3, [r7, #16]
        if((GPIO_Init->Mode & RISING_EDGE) == RISING_EDGE)
 8001b9a:	683b      	ldr	r3, [r7, #0]
 8001b9c:	685a      	ldr	r2, [r3, #4]
 8001b9e:	2380      	movs	r3, #128	; 0x80
 8001ba0:	035b      	lsls	r3, r3, #13
 8001ba2:	4013      	ands	r3, r2
 8001ba4:	d003      	beq.n	8001bae <HAL_GPIO_Init+0x26a>
        {
          temp |= iocurrent;
 8001ba6:	693a      	ldr	r2, [r7, #16]
 8001ba8:	68fb      	ldr	r3, [r7, #12]
 8001baa:	4313      	orrs	r3, r2
 8001bac:	613b      	str	r3, [r7, #16]
        }
        EXTI->RTSR = temp;
 8001bae:	4b17      	ldr	r3, [pc, #92]	; (8001c0c <HAL_GPIO_Init+0x2c8>)
 8001bb0:	693a      	ldr	r2, [r7, #16]
 8001bb2:	609a      	str	r2, [r3, #8]

        temp = EXTI->FTSR;
 8001bb4:	4b15      	ldr	r3, [pc, #84]	; (8001c0c <HAL_GPIO_Init+0x2c8>)
 8001bb6:	68db      	ldr	r3, [r3, #12]
 8001bb8:	613b      	str	r3, [r7, #16]
        temp &= ~((uint32_t)iocurrent);
 8001bba:	68fb      	ldr	r3, [r7, #12]
 8001bbc:	43da      	mvns	r2, r3
 8001bbe:	693b      	ldr	r3, [r7, #16]
 8001bc0:	4013      	ands	r3, r2
 8001bc2:	613b      	str	r3, [r7, #16]
        if((GPIO_Init->Mode & FALLING_EDGE) == FALLING_EDGE)
 8001bc4:	683b      	ldr	r3, [r7, #0]
 8001bc6:	685a      	ldr	r2, [r3, #4]
 8001bc8:	2380      	movs	r3, #128	; 0x80
 8001bca:	039b      	lsls	r3, r3, #14
 8001bcc:	4013      	ands	r3, r2
 8001bce:	d003      	beq.n	8001bd8 <HAL_GPIO_Init+0x294>
        {
          temp |= iocurrent;
 8001bd0:	693a      	ldr	r2, [r7, #16]
 8001bd2:	68fb      	ldr	r3, [r7, #12]
 8001bd4:	4313      	orrs	r3, r2
 8001bd6:	613b      	str	r3, [r7, #16]
        }
        EXTI->FTSR = temp;
 8001bd8:	4b0c      	ldr	r3, [pc, #48]	; (8001c0c <HAL_GPIO_Init+0x2c8>)
 8001bda:	693a      	ldr	r2, [r7, #16]
 8001bdc:	60da      	str	r2, [r3, #12]
      }
    }
    position++;
 8001bde:	697b      	ldr	r3, [r7, #20]
 8001be0:	3301      	adds	r3, #1
 8001be2:	617b      	str	r3, [r7, #20]
  while (((GPIO_Init->Pin) >> position) != 0)
 8001be4:	683b      	ldr	r3, [r7, #0]
 8001be6:	681a      	ldr	r2, [r3, #0]
 8001be8:	697b      	ldr	r3, [r7, #20]
 8001bea:	40da      	lsrs	r2, r3
 8001bec:	1e13      	subs	r3, r2, #0
 8001bee:	d000      	beq.n	8001bf2 <HAL_GPIO_Init+0x2ae>
 8001bf0:	e6b4      	b.n	800195c <HAL_GPIO_Init+0x18>
  }
}
 8001bf2:	46c0      	nop			; (mov r8, r8)
 8001bf4:	46bd      	mov	sp, r7
 8001bf6:	b006      	add	sp, #24
 8001bf8:	bd80      	pop	{r7, pc}
 8001bfa:	46c0      	nop			; (mov r8, r8)
 8001bfc:	40021000 	.word	0x40021000
 8001c00:	40010000 	.word	0x40010000
 8001c04:	50000400 	.word	0x50000400
 8001c08:	50000800 	.word	0x50000800
 8001c0c:	40010400 	.word	0x40010400

08001c10 <HAL_GPIO_WritePin>:
  *                        GPIO_PIN_RESET: to clear the port pin
  *                        GPIO_PIN_SET: to set the port pin
  * @retval None
  */
void HAL_GPIO_WritePin(GPIO_TypeDef* GPIOx, uint16_t GPIO_Pin, GPIO_PinState PinState)
{
 8001c10:	b580      	push	{r7, lr}
 8001c12:	b082      	sub	sp, #8
 8001c14:	af00      	add	r7, sp, #0
 8001c16:	6078      	str	r0, [r7, #4]
 8001c18:	0008      	movs	r0, r1
 8001c1a:	0011      	movs	r1, r2
 8001c1c:	1cbb      	adds	r3, r7, #2
 8001c1e:	1c02      	adds	r2, r0, #0
 8001c20:	801a      	strh	r2, [r3, #0]
 8001c22:	1c7b      	adds	r3, r7, #1
 8001c24:	1c0a      	adds	r2, r1, #0
 8001c26:	701a      	strb	r2, [r3, #0]
  /* Check the parameters */
  assert_param(IS_GPIO_PIN_AVAILABLE(GPIOx,GPIO_Pin));
  assert_param(IS_GPIO_PIN_ACTION(PinState));
  
  if(PinState != GPIO_PIN_RESET)
 8001c28:	1c7b      	adds	r3, r7, #1
 8001c2a:	781b      	ldrb	r3, [r3, #0]
 8001c2c:	2b00      	cmp	r3, #0
 8001c2e:	d004      	beq.n	8001c3a <HAL_GPIO_WritePin+0x2a>
  {
    GPIOx->BSRR = GPIO_Pin;
 8001c30:	1cbb      	adds	r3, r7, #2
 8001c32:	881a      	ldrh	r2, [r3, #0]
 8001c34:	687b      	ldr	r3, [r7, #4]
 8001c36:	619a      	str	r2, [r3, #24]
  }
  else
  {
    GPIOx->BRR = GPIO_Pin ;
  }
}
 8001c38:	e003      	b.n	8001c42 <HAL_GPIO_WritePin+0x32>
    GPIOx->BRR = GPIO_Pin ;
 8001c3a:	1cbb      	adds	r3, r7, #2
 8001c3c:	881a      	ldrh	r2, [r3, #0]
 8001c3e:	687b      	ldr	r3, [r7, #4]
 8001c40:	629a      	str	r2, [r3, #40]	; 0x28
}
 8001c42:	46c0      	nop			; (mov r8, r8)
 8001c44:	46bd      	mov	sp, r7
 8001c46:	b002      	add	sp, #8
 8001c48:	bd80      	pop	{r7, pc}

08001c4a <HAL_GPIO_TogglePin>:
  *                All port bits are not necessarily available on all GPIOs.
  * @param  GPIO_Pin Specifies the pins to be toggled.
  * @retval None
  */
void HAL_GPIO_TogglePin(GPIO_TypeDef* GPIOx, uint16_t GPIO_Pin)
{
 8001c4a:	b580      	push	{r7, lr}
 8001c4c:	b082      	sub	sp, #8
 8001c4e:	af00      	add	r7, sp, #0
 8001c50:	6078      	str	r0, [r7, #4]
 8001c52:	000a      	movs	r2, r1
 8001c54:	1cbb      	adds	r3, r7, #2
 8001c56:	801a      	strh	r2, [r3, #0]
  /* Check the parameters */
  assert_param(IS_GPIO_PIN_AVAILABLE(GPIOx,GPIO_Pin));

  GPIOx->ODR ^= GPIO_Pin;
 8001c58:	687b      	ldr	r3, [r7, #4]
 8001c5a:	695a      	ldr	r2, [r3, #20]
 8001c5c:	1cbb      	adds	r3, r7, #2
 8001c5e:	881b      	ldrh	r3, [r3, #0]
 8001c60:	405a      	eors	r2, r3
 8001c62:	687b      	ldr	r3, [r7, #4]
 8001c64:	615a      	str	r2, [r3, #20]
}
 8001c66:	46c0      	nop			; (mov r8, r8)
 8001c68:	46bd      	mov	sp, r7
 8001c6a:	b002      	add	sp, #8
 8001c6c:	bd80      	pop	{r7, pc}
	...

08001c70 <HAL_GPIO_EXTI_IRQHandler>:
  * @brief  This function handles EXTI interrupt request.
  * @param  GPIO_Pin Specifies the pins connected to the EXTI line.
  * @retval None
  */
void HAL_GPIO_EXTI_IRQHandler(uint16_t GPIO_Pin)
{
 8001c70:	b580      	push	{r7, lr}
 8001c72:	b082      	sub	sp, #8
 8001c74:	af00      	add	r7, sp, #0
 8001c76:	0002      	movs	r2, r0
 8001c78:	1dbb      	adds	r3, r7, #6
 8001c7a:	801a      	strh	r2, [r3, #0]
  /* EXTI line interrupt detected */
  if(__HAL_GPIO_EXTI_GET_IT(GPIO_Pin) != RESET) 
 8001c7c:	4b09      	ldr	r3, [pc, #36]	; (8001ca4 <HAL_GPIO_EXTI_IRQHandler+0x34>)
 8001c7e:	695b      	ldr	r3, [r3, #20]
 8001c80:	1dba      	adds	r2, r7, #6
 8001c82:	8812      	ldrh	r2, [r2, #0]
 8001c84:	4013      	ands	r3, r2
 8001c86:	d008      	beq.n	8001c9a <HAL_GPIO_EXTI_IRQHandler+0x2a>
  { 
    __HAL_GPIO_EXTI_CLEAR_IT(GPIO_Pin);
 8001c88:	4b06      	ldr	r3, [pc, #24]	; (8001ca4 <HAL_GPIO_EXTI_IRQHandler+0x34>)
 8001c8a:	1dba      	adds	r2, r7, #6
 8001c8c:	8812      	ldrh	r2, [r2, #0]
 8001c8e:	615a      	str	r2, [r3, #20]
    HAL_GPIO_EXTI_Callback(GPIO_Pin);
 8001c90:	1dbb      	adds	r3, r7, #6
 8001c92:	881b      	ldrh	r3, [r3, #0]
 8001c94:	0018      	movs	r0, r3
 8001c96:	f000 f807 	bl	8001ca8 <HAL_GPIO_EXTI_Callback>
  }
}
 8001c9a:	46c0      	nop			; (mov r8, r8)
 8001c9c:	46bd      	mov	sp, r7
 8001c9e:	b002      	add	sp, #8
 8001ca0:	bd80      	pop	{r7, pc}
 8001ca2:	46c0      	nop			; (mov r8, r8)
 8001ca4:	40010400 	.word	0x40010400

08001ca8 <HAL_GPIO_EXTI_Callback>:
  * @brief  EXTI line detection callbacks.
  * @param  GPIO_Pin Specifies the pins connected to the EXTI line.
  * @retval None
  */
__weak void HAL_GPIO_EXTI_Callback(uint16_t GPIO_Pin)
{
 8001ca8:	b580      	push	{r7, lr}
 8001caa:	b082      	sub	sp, #8
 8001cac:	af00      	add	r7, sp, #0
 8001cae:	0002      	movs	r2, r0
 8001cb0:	1dbb      	adds	r3, r7, #6
 8001cb2:	801a      	strh	r2, [r3, #0]
  UNUSED(GPIO_Pin);

  /* NOTE: This function Should not be modified, when the callback is needed,
           the HAL_GPIO_EXTI_Callback could be implemented in the user file
   */ 
}
 8001cb4:	46c0      	nop			; (mov r8, r8)
 8001cb6:	46bd      	mov	sp, r7
 8001cb8:	b002      	add	sp, #8
 8001cba:	bd80      	pop	{r7, pc}

08001cbc <HAL_LPTIM_Init>:
  *         LPTIM_InitTypeDef and initialize the associated handle.
  * @param  hlptim LPTIM handle
  * @retval HAL status
  */
HAL_StatusTypeDef HAL_LPTIM_Init(LPTIM_HandleTypeDef *hlptim)
{
 8001cbc:	b580      	push	{r7, lr}
 8001cbe:	b084      	sub	sp, #16
 8001cc0:	af00      	add	r7, sp, #0
 8001cc2:	6078      	str	r0, [r7, #4]
  uint32_t tmpcfgr;

  /* Check the LPTIM handle allocation */
  if (hlptim == NULL)
 8001cc4:	687b      	ldr	r3, [r7, #4]
 8001cc6:	2b00      	cmp	r3, #0
 8001cc8:	d101      	bne.n	8001cce <HAL_LPTIM_Init+0x12>
  {
    return HAL_ERROR;
 8001cca:	2301      	movs	r3, #1
 8001ccc:	e06c      	b.n	8001da8 <HAL_LPTIM_Init+0xec>
  }
  assert_param(IS_LPTIM_OUTPUT_POLARITY(hlptim->Init.OutputPolarity));
  assert_param(IS_LPTIM_UPDATE_MODE(hlptim->Init.UpdateMode));
  assert_param(IS_LPTIM_COUNTER_SOURCE(hlptim->Init.CounterSource));

  if (hlptim->State == HAL_LPTIM_STATE_RESET)
 8001cce:	687b      	ldr	r3, [r7, #4]
 8001cd0:	222e      	movs	r2, #46	; 0x2e
 8001cd2:	5c9b      	ldrb	r3, [r3, r2]
 8001cd4:	b2db      	uxtb	r3, r3
 8001cd6:	2b00      	cmp	r3, #0
 8001cd8:	d107      	bne.n	8001cea <HAL_LPTIM_Init+0x2e>
  {
    /* Allocate lock resource and initialize it */
    hlptim->Lock = HAL_UNLOCKED;
 8001cda:	687b      	ldr	r3, [r7, #4]
 8001cdc:	222d      	movs	r2, #45	; 0x2d
 8001cde:	2100      	movs	r1, #0
 8001ce0:	5499      	strb	r1, [r3, r2]

    /* Init the low level hardware : GPIO, CLOCK, NVIC */
    hlptim->MspInitCallback(hlptim);
#else
    /* Init the low level hardware : GPIO, CLOCK, NVIC */
    HAL_LPTIM_MspInit(hlptim);
 8001ce2:	687b      	ldr	r3, [r7, #4]
 8001ce4:	0018      	movs	r0, r3
 8001ce6:	f7fe fc13 	bl	8000510 <HAL_LPTIM_MspInit>
#endif /* USE_HAL_LPTIM_REGISTER_CALLBACKS */
  }

  /* Change the LPTIM state */
  hlptim->State = HAL_LPTIM_STATE_BUSY;
 8001cea:	687b      	ldr	r3, [r7, #4]
 8001cec:	222e      	movs	r2, #46	; 0x2e
 8001cee:	2102      	movs	r1, #2
 8001cf0:	5499      	strb	r1, [r3, r2]

  /* Get the LPTIMx CFGR value */
  tmpcfgr = hlptim->Instance->CFGR;
 8001cf2:	687b      	ldr	r3, [r7, #4]
 8001cf4:	681b      	ldr	r3, [r3, #0]
 8001cf6:	68db      	ldr	r3, [r3, #12]
 8001cf8:	60fb      	str	r3, [r7, #12]

  if (((hlptim->Init.Clock.Source) == LPTIM_CLOCKSOURCE_ULPTIM) || ((hlptim->Init.CounterSource) == LPTIM_COUNTERSOURCE_EXTERNAL))
 8001cfa:	687b      	ldr	r3, [r7, #4]
 8001cfc:	685b      	ldr	r3, [r3, #4]
 8001cfe:	2b01      	cmp	r3, #1
 8001d00:	d005      	beq.n	8001d0e <HAL_LPTIM_Init+0x52>
 8001d02:	687b      	ldr	r3, [r7, #4]
 8001d04:	6a9a      	ldr	r2, [r3, #40]	; 0x28
 8001d06:	2380      	movs	r3, #128	; 0x80
 8001d08:	041b      	lsls	r3, r3, #16
 8001d0a:	429a      	cmp	r2, r3
 8001d0c:	d103      	bne.n	8001d16 <HAL_LPTIM_Init+0x5a>
  {
    tmpcfgr &= (uint32_t)(~(LPTIM_CFGR_CKPOL | LPTIM_CFGR_CKFLT));
 8001d0e:	68fb      	ldr	r3, [r7, #12]
 8001d10:	221e      	movs	r2, #30
 8001d12:	4393      	bics	r3, r2
 8001d14:	60fb      	str	r3, [r7, #12]
  }
  if ((hlptim->Init.Trigger.Source) != LPTIM_TRIGSOURCE_SOFTWARE)
 8001d16:	687b      	ldr	r3, [r7, #4]
 8001d18:	695b      	ldr	r3, [r3, #20]
 8001d1a:	4a25      	ldr	r2, [pc, #148]	; (8001db0 <HAL_LPTIM_Init+0xf4>)
 8001d1c:	4293      	cmp	r3, r2
 8001d1e:	d003      	beq.n	8001d28 <HAL_LPTIM_Init+0x6c>
  {
    tmpcfgr &= (uint32_t)(~(LPTIM_CFGR_TRGFLT | LPTIM_CFGR_TRIGSEL));
 8001d20:	68fb      	ldr	r3, [r7, #12]
 8001d22:	4a24      	ldr	r2, [pc, #144]	; (8001db4 <HAL_LPTIM_Init+0xf8>)
 8001d24:	4013      	ands	r3, r2
 8001d26:	60fb      	str	r3, [r7, #12]
  }

  /* Clear CKSEL, CKPOL, PRESC, TRIGEN, TRGFLT, WAVPOL, PRELOAD & COUNTMODE bits */
  tmpcfgr &= (uint32_t)(~(LPTIM_CFGR_CKSEL | LPTIM_CFGR_CKPOL | LPTIM_CFGR_TRIGEN | LPTIM_CFGR_PRELOAD |
 8001d28:	68fb      	ldr	r3, [r7, #12]
 8001d2a:	4a23      	ldr	r2, [pc, #140]	; (8001db8 <HAL_LPTIM_Init+0xfc>)
 8001d2c:	4013      	ands	r3, r2
 8001d2e:	60fb      	str	r3, [r7, #12]
                          LPTIM_CFGR_WAVPOL | LPTIM_CFGR_PRESC | LPTIM_CFGR_COUNTMODE));

  /* Set initialization parameters */
  tmpcfgr |= (hlptim->Init.Clock.Source    |
 8001d30:	687b      	ldr	r3, [r7, #4]
 8001d32:	685a      	ldr	r2, [r3, #4]
              hlptim->Init.Clock.Prescaler |
 8001d34:	687b      	ldr	r3, [r7, #4]
 8001d36:	689b      	ldr	r3, [r3, #8]
  tmpcfgr |= (hlptim->Init.Clock.Source    |
 8001d38:	431a      	orrs	r2, r3
              hlptim->Init.OutputPolarity  |
 8001d3a:	687b      	ldr	r3, [r7, #4]
 8001d3c:	6a1b      	ldr	r3, [r3, #32]
              hlptim->Init.Clock.Prescaler |
 8001d3e:	431a      	orrs	r2, r3
              hlptim->Init.UpdateMode      |
 8001d40:	687b      	ldr	r3, [r7, #4]
 8001d42:	6a5b      	ldr	r3, [r3, #36]	; 0x24
              hlptim->Init.OutputPolarity  |
 8001d44:	431a      	orrs	r2, r3
              hlptim->Init.CounterSource);
 8001d46:	687b      	ldr	r3, [r7, #4]
 8001d48:	6a9b      	ldr	r3, [r3, #40]	; 0x28
              hlptim->Init.UpdateMode      |
 8001d4a:	4313      	orrs	r3, r2
  tmpcfgr |= (hlptim->Init.Clock.Source    |
 8001d4c:	68fa      	ldr	r2, [r7, #12]
 8001d4e:	4313      	orrs	r3, r2
 8001d50:	60fb      	str	r3, [r7, #12]

  if (((hlptim->Init.Clock.Source) == LPTIM_CLOCKSOURCE_ULPTIM) || ((hlptim->Init.CounterSource) == LPTIM_COUNTERSOURCE_EXTERNAL))
 8001d52:	687b      	ldr	r3, [r7, #4]
 8001d54:	685b      	ldr	r3, [r3, #4]
 8001d56:	2b01      	cmp	r3, #1
 8001d58:	d005      	beq.n	8001d66 <HAL_LPTIM_Init+0xaa>
 8001d5a:	687b      	ldr	r3, [r7, #4]
 8001d5c:	6a9a      	ldr	r2, [r3, #40]	; 0x28
 8001d5e:	2380      	movs	r3, #128	; 0x80
 8001d60:	041b      	lsls	r3, r3, #16
 8001d62:	429a      	cmp	r2, r3
 8001d64:	d107      	bne.n	8001d76 <HAL_LPTIM_Init+0xba>
  {
    tmpcfgr |= (hlptim->Init.UltraLowPowerClock.Polarity |
 8001d66:	687b      	ldr	r3, [r7, #4]
 8001d68:	68da      	ldr	r2, [r3, #12]
                hlptim->Init.UltraLowPowerClock.SampleTime);
 8001d6a:	687b      	ldr	r3, [r7, #4]
 8001d6c:	691b      	ldr	r3, [r3, #16]
    tmpcfgr |= (hlptim->Init.UltraLowPowerClock.Polarity |
 8001d6e:	4313      	orrs	r3, r2
 8001d70:	68fa      	ldr	r2, [r7, #12]
 8001d72:	4313      	orrs	r3, r2
 8001d74:	60fb      	str	r3, [r7, #12]
  }

  if ((hlptim->Init.Trigger.Source) != LPTIM_TRIGSOURCE_SOFTWARE)
 8001d76:	687b      	ldr	r3, [r7, #4]
 8001d78:	695b      	ldr	r3, [r3, #20]
 8001d7a:	4a0d      	ldr	r2, [pc, #52]	; (8001db0 <HAL_LPTIM_Init+0xf4>)
 8001d7c:	4293      	cmp	r3, r2
 8001d7e:	d00a      	beq.n	8001d96 <HAL_LPTIM_Init+0xda>
  {
    /* Enable External trigger and set the trigger source */
    tmpcfgr |= (hlptim->Init.Trigger.Source     |
 8001d80:	687b      	ldr	r3, [r7, #4]
 8001d82:	695a      	ldr	r2, [r3, #20]
                hlptim->Init.Trigger.ActiveEdge |
 8001d84:	687b      	ldr	r3, [r7, #4]
 8001d86:	699b      	ldr	r3, [r3, #24]
    tmpcfgr |= (hlptim->Init.Trigger.Source     |
 8001d88:	431a      	orrs	r2, r3
                hlptim->Init.Trigger.SampleTime);
 8001d8a:	687b      	ldr	r3, [r7, #4]
 8001d8c:	69db      	ldr	r3, [r3, #28]
                hlptim->Init.Trigger.ActiveEdge |
 8001d8e:	4313      	orrs	r3, r2
    tmpcfgr |= (hlptim->Init.Trigger.Source     |
 8001d90:	68fa      	ldr	r2, [r7, #12]
 8001d92:	4313      	orrs	r3, r2
 8001d94:	60fb      	str	r3, [r7, #12]
  }

  /* Write to LPTIMx CFGR */
  hlptim->Instance->CFGR = tmpcfgr;
 8001d96:	687b      	ldr	r3, [r7, #4]
 8001d98:	681b      	ldr	r3, [r3, #0]
 8001d9a:	68fa      	ldr	r2, [r7, #12]
 8001d9c:	60da      	str	r2, [r3, #12]

  /* Change the LPTIM state */
  hlptim->State = HAL_LPTIM_STATE_READY;
 8001d9e:	687b      	ldr	r3, [r7, #4]
 8001da0:	222e      	movs	r2, #46	; 0x2e
 8001da2:	2101      	movs	r1, #1
 8001da4:	5499      	strb	r1, [r3, r2]

  /* Return function status */
  return HAL_OK;
 8001da6:	2300      	movs	r3, #0
}
 8001da8:	0018      	movs	r0, r3
 8001daa:	46bd      	mov	sp, r7
 8001dac:	b004      	add	sp, #16
 8001dae:	bd80      	pop	{r7, pc}
 8001db0:	0000ffff 	.word	0x0000ffff
 8001db4:	ffff1f3f 	.word	0xffff1f3f
 8001db8:	ff19f1f8 	.word	0xff19f1f8

08001dbc <HAL_LPTIM_Counter_Start_IT>:
  * @param  Period Specifies the Autoreload value.
  *         This parameter must be a value between 0x0000 and 0xFFFF.
  * @retval HAL status
  */
HAL_StatusTypeDef HAL_LPTIM_Counter_Start_IT(LPTIM_HandleTypeDef *hlptim, uint32_t Period)
{
 8001dbc:	b580      	push	{r7, lr}
 8001dbe:	b082      	sub	sp, #8
 8001dc0:	af00      	add	r7, sp, #0
 8001dc2:	6078      	str	r0, [r7, #4]
 8001dc4:	6039      	str	r1, [r7, #0]
  /* Check the parameters */
  assert_param(IS_LPTIM_INSTANCE(hlptim->Instance));
  assert_param(IS_LPTIM_PERIOD(Period));

  /* Set the LPTIM state */
  hlptim->State = HAL_LPTIM_STATE_BUSY;
 8001dc6:	687b      	ldr	r3, [r7, #4]
 8001dc8:	222e      	movs	r2, #46	; 0x2e
 8001dca:	2102      	movs	r1, #2
 8001dcc:	5499      	strb	r1, [r3, r2]

  /* Enable EXTI Line interrupt on the LPTIM Wake-up Timer */
  __HAL_LPTIM_WAKEUPTIMER_EXTI_ENABLE_IT();
 8001dce:	4b23      	ldr	r3, [pc, #140]	; (8001e5c <HAL_LPTIM_Counter_Start_IT+0xa0>)
 8001dd0:	681a      	ldr	r2, [r3, #0]
 8001dd2:	4b22      	ldr	r3, [pc, #136]	; (8001e5c <HAL_LPTIM_Counter_Start_IT+0xa0>)
 8001dd4:	2180      	movs	r1, #128	; 0x80
 8001dd6:	0589      	lsls	r1, r1, #22
 8001dd8:	430a      	orrs	r2, r1
 8001dda:	601a      	str	r2, [r3, #0]

  /* If clock source is not ULPTIM clock and counter source is external, then it must not be prescaled */
  if ((hlptim->Init.Clock.Source != LPTIM_CLOCKSOURCE_ULPTIM) && (hlptim->Init.CounterSource == LPTIM_COUNTERSOURCE_EXTERNAL))
 8001ddc:	687b      	ldr	r3, [r7, #4]
 8001dde:	685b      	ldr	r3, [r3, #4]
 8001de0:	2b01      	cmp	r3, #1
 8001de2:	d00d      	beq.n	8001e00 <HAL_LPTIM_Counter_Start_IT+0x44>
 8001de4:	687b      	ldr	r3, [r7, #4]
 8001de6:	6a9a      	ldr	r2, [r3, #40]	; 0x28
 8001de8:	2380      	movs	r3, #128	; 0x80
 8001dea:	041b      	lsls	r3, r3, #16
 8001dec:	429a      	cmp	r2, r3
 8001dee:	d107      	bne.n	8001e00 <HAL_LPTIM_Counter_Start_IT+0x44>
  {
    /* Check if clock is prescaled */
    assert_param(IS_LPTIM_CLOCK_PRESCALERDIV1(hlptim->Init.Clock.Prescaler));
    /* Set clock prescaler to 0 */
    hlptim->Instance->CFGR &= ~LPTIM_CFGR_PRESC;
 8001df0:	687b      	ldr	r3, [r7, #4]
 8001df2:	681b      	ldr	r3, [r3, #0]
 8001df4:	68da      	ldr	r2, [r3, #12]
 8001df6:	687b      	ldr	r3, [r7, #4]
 8001df8:	681b      	ldr	r3, [r3, #0]
 8001dfa:	4919      	ldr	r1, [pc, #100]	; (8001e60 <HAL_LPTIM_Counter_Start_IT+0xa4>)
 8001dfc:	400a      	ands	r2, r1
 8001dfe:	60da      	str	r2, [r3, #12]
  }

  /* Enable Autoreload write complete interrupt */
  __HAL_LPTIM_ENABLE_IT(hlptim, LPTIM_IT_ARROK);
 8001e00:	687b      	ldr	r3, [r7, #4]
 8001e02:	681b      	ldr	r3, [r3, #0]
 8001e04:	689a      	ldr	r2, [r3, #8]
 8001e06:	687b      	ldr	r3, [r7, #4]
 8001e08:	681b      	ldr	r3, [r3, #0]
 8001e0a:	2110      	movs	r1, #16
 8001e0c:	430a      	orrs	r2, r1
 8001e0e:	609a      	str	r2, [r3, #8]

  /* Enable Autoreload match interrupt */
  __HAL_LPTIM_ENABLE_IT(hlptim, LPTIM_IT_ARRM);
 8001e10:	687b      	ldr	r3, [r7, #4]
 8001e12:	681b      	ldr	r3, [r3, #0]
 8001e14:	689a      	ldr	r2, [r3, #8]
 8001e16:	687b      	ldr	r3, [r7, #4]
 8001e18:	681b      	ldr	r3, [r3, #0]
 8001e1a:	2102      	movs	r1, #2
 8001e1c:	430a      	orrs	r2, r1
 8001e1e:	609a      	str	r2, [r3, #8]

  /* Enable the Peripheral */
  __HAL_LPTIM_ENABLE(hlptim);
 8001e20:	687b      	ldr	r3, [r7, #4]
 8001e22:	681b      	ldr	r3, [r3, #0]
 8001e24:	691a      	ldr	r2, [r3, #16]
 8001e26:	687b      	ldr	r3, [r7, #4]
 8001e28:	681b      	ldr	r3, [r3, #0]
 8001e2a:	2101      	movs	r1, #1
 8001e2c:	430a      	orrs	r2, r1
 8001e2e:	611a      	str	r2, [r3, #16]

  /* Load the period value in the autoreload register */
  __HAL_LPTIM_AUTORELOAD_SET(hlptim, Period);
 8001e30:	687b      	ldr	r3, [r7, #4]
 8001e32:	681b      	ldr	r3, [r3, #0]
 8001e34:	683a      	ldr	r2, [r7, #0]
 8001e36:	619a      	str	r2, [r3, #24]

  /* Start timer in continuous mode */
  __HAL_LPTIM_START_CONTINUOUS(hlptim);
 8001e38:	687b      	ldr	r3, [r7, #4]
 8001e3a:	681b      	ldr	r3, [r3, #0]
 8001e3c:	691a      	ldr	r2, [r3, #16]
 8001e3e:	687b      	ldr	r3, [r7, #4]
 8001e40:	681b      	ldr	r3, [r3, #0]
 8001e42:	2104      	movs	r1, #4
 8001e44:	430a      	orrs	r2, r1
 8001e46:	611a      	str	r2, [r3, #16]

  /* Change the TIM state*/
  hlptim->State = HAL_LPTIM_STATE_READY;
 8001e48:	687b      	ldr	r3, [r7, #4]
 8001e4a:	222e      	movs	r2, #46	; 0x2e
 8001e4c:	2101      	movs	r1, #1
 8001e4e:	5499      	strb	r1, [r3, r2]

  /* Return function status */
  return HAL_OK;
 8001e50:	2300      	movs	r3, #0
}
 8001e52:	0018      	movs	r0, r3
 8001e54:	46bd      	mov	sp, r7
 8001e56:	b002      	add	sp, #8
 8001e58:	bd80      	pop	{r7, pc}
 8001e5a:	46c0      	nop			; (mov r8, r8)
 8001e5c:	40010400 	.word	0x40010400
 8001e60:	fffff1ff 	.word	0xfffff1ff

08001e64 <HAL_LPTIM_IRQHandler>:
  * @brief  Handle LPTIM interrupt request.
  * @param  hlptim LPTIM handle
  * @retval None
  */
void HAL_LPTIM_IRQHandler(LPTIM_HandleTypeDef *hlptim)
{
 8001e64:	b580      	push	{r7, lr}
 8001e66:	b082      	sub	sp, #8
 8001e68:	af00      	add	r7, sp, #0
 8001e6a:	6078      	str	r0, [r7, #4]
  /* Compare match interrupt */
  if (__HAL_LPTIM_GET_FLAG(hlptim, LPTIM_FLAG_CMPM) != RESET)
 8001e6c:	687b      	ldr	r3, [r7, #4]
 8001e6e:	681b      	ldr	r3, [r3, #0]
 8001e70:	681b      	ldr	r3, [r3, #0]
 8001e72:	2201      	movs	r2, #1
 8001e74:	4013      	ands	r3, r2
 8001e76:	2b01      	cmp	r3, #1
 8001e78:	d10e      	bne.n	8001e98 <HAL_LPTIM_IRQHandler+0x34>
  {
    if (__HAL_LPTIM_GET_IT_SOURCE(hlptim, LPTIM_IT_CMPM) != RESET)
 8001e7a:	687b      	ldr	r3, [r7, #4]
 8001e7c:	681b      	ldr	r3, [r3, #0]
 8001e7e:	689b      	ldr	r3, [r3, #8]
 8001e80:	2201      	movs	r2, #1
 8001e82:	4013      	ands	r3, r2
 8001e84:	2b01      	cmp	r3, #1
 8001e86:	d107      	bne.n	8001e98 <HAL_LPTIM_IRQHandler+0x34>
    {
      /* Clear Compare match flag */
      __HAL_LPTIM_CLEAR_FLAG(hlptim, LPTIM_FLAG_CMPM);
 8001e88:	687b      	ldr	r3, [r7, #4]
 8001e8a:	681b      	ldr	r3, [r3, #0]
 8001e8c:	2201      	movs	r2, #1
 8001e8e:	605a      	str	r2, [r3, #4]

      /* Compare match Callback */
#if (USE_HAL_LPTIM_REGISTER_CALLBACKS == 1)
      hlptim->CompareMatchCallback(hlptim);
#else
      HAL_LPTIM_CompareMatchCallback(hlptim);
 8001e90:	687b      	ldr	r3, [r7, #4]
 8001e92:	0018      	movs	r0, r3
 8001e94:	f000 f888 	bl	8001fa8 <HAL_LPTIM_CompareMatchCallback>
#endif /* USE_HAL_LPTIM_REGISTER_CALLBACKS */
    }
  }

  /* Autoreload match interrupt */
  if (__HAL_LPTIM_GET_FLAG(hlptim, LPTIM_FLAG_ARRM) != RESET)
 8001e98:	687b      	ldr	r3, [r7, #4]
 8001e9a:	681b      	ldr	r3, [r3, #0]
 8001e9c:	681b      	ldr	r3, [r3, #0]
 8001e9e:	2202      	movs	r2, #2
 8001ea0:	4013      	ands	r3, r2
 8001ea2:	2b02      	cmp	r3, #2
 8001ea4:	d10e      	bne.n	8001ec4 <HAL_LPTIM_IRQHandler+0x60>
  {
    if (__HAL_LPTIM_GET_IT_SOURCE(hlptim, LPTIM_IT_ARRM) != RESET)
 8001ea6:	687b      	ldr	r3, [r7, #4]
 8001ea8:	681b      	ldr	r3, [r3, #0]
 8001eaa:	689b      	ldr	r3, [r3, #8]
 8001eac:	2202      	movs	r2, #2
 8001eae:	4013      	ands	r3, r2
 8001eb0:	2b02      	cmp	r3, #2
 8001eb2:	d107      	bne.n	8001ec4 <HAL_LPTIM_IRQHandler+0x60>
    {
      /* Clear Autoreload match flag */
      __HAL_LPTIM_CLEAR_FLAG(hlptim, LPTIM_FLAG_ARRM);
 8001eb4:	687b      	ldr	r3, [r7, #4]
 8001eb6:	681b      	ldr	r3, [r3, #0]
 8001eb8:	2202      	movs	r2, #2
 8001eba:	605a      	str	r2, [r3, #4]

      /* Autoreload match Callback */
#if (USE_HAL_LPTIM_REGISTER_CALLBACKS == 1)
      hlptim->AutoReloadMatchCallback(hlptim);
#else
      HAL_LPTIM_AutoReloadMatchCallback(hlptim);
 8001ebc:	687b      	ldr	r3, [r7, #4]
 8001ebe:	0018      	movs	r0, r3
 8001ec0:	f000 f87a 	bl	8001fb8 <HAL_LPTIM_AutoReloadMatchCallback>
#endif /* USE_HAL_LPTIM_REGISTER_CALLBACKS */
    }
  }

  /* Trigger detected interrupt */
  if (__HAL_LPTIM_GET_FLAG(hlptim, LPTIM_FLAG_EXTTRIG) != RESET)
 8001ec4:	687b      	ldr	r3, [r7, #4]
 8001ec6:	681b      	ldr	r3, [r3, #0]
 8001ec8:	681b      	ldr	r3, [r3, #0]
 8001eca:	2204      	movs	r2, #4
 8001ecc:	4013      	ands	r3, r2
 8001ece:	2b04      	cmp	r3, #4
 8001ed0:	d10e      	bne.n	8001ef0 <HAL_LPTIM_IRQHandler+0x8c>
  {
    if (__HAL_LPTIM_GET_IT_SOURCE(hlptim, LPTIM_IT_EXTTRIG) != RESET)
 8001ed2:	687b      	ldr	r3, [r7, #4]
 8001ed4:	681b      	ldr	r3, [r3, #0]
 8001ed6:	689b      	ldr	r3, [r3, #8]
 8001ed8:	2204      	movs	r2, #4
 8001eda:	4013      	ands	r3, r2
 8001edc:	2b04      	cmp	r3, #4
 8001ede:	d107      	bne.n	8001ef0 <HAL_LPTIM_IRQHandler+0x8c>
    {
      /* Clear Trigger detected flag */
      __HAL_LPTIM_CLEAR_FLAG(hlptim, LPTIM_FLAG_EXTTRIG);
 8001ee0:	687b      	ldr	r3, [r7, #4]
 8001ee2:	681b      	ldr	r3, [r3, #0]
 8001ee4:	2204      	movs	r2, #4
 8001ee6:	605a      	str	r2, [r3, #4]

      /* Trigger detected callback */
#if (USE_HAL_LPTIM_REGISTER_CALLBACKS == 1)
      hlptim->TriggerCallback(hlptim);
#else
      HAL_LPTIM_TriggerCallback(hlptim);
 8001ee8:	687b      	ldr	r3, [r7, #4]
 8001eea:	0018      	movs	r0, r3
 8001eec:	f000 f86c 	bl	8001fc8 <HAL_LPTIM_TriggerCallback>
#endif /* USE_HAL_LPTIM_REGISTER_CALLBACKS */
    }
  }

  /* Compare write interrupt */
  if (__HAL_LPTIM_GET_FLAG(hlptim, LPTIM_FLAG_CMPOK) != RESET)
 8001ef0:	687b      	ldr	r3, [r7, #4]
 8001ef2:	681b      	ldr	r3, [r3, #0]
 8001ef4:	681b      	ldr	r3, [r3, #0]
 8001ef6:	2208      	movs	r2, #8
 8001ef8:	4013      	ands	r3, r2
 8001efa:	2b08      	cmp	r3, #8
 8001efc:	d10e      	bne.n	8001f1c <HAL_LPTIM_IRQHandler+0xb8>
  {
    if (__HAL_LPTIM_GET_IT_SOURCE(hlptim, LPTIM_IT_CMPOK) != RESET)
 8001efe:	687b      	ldr	r3, [r7, #4]
 8001f00:	681b      	ldr	r3, [r3, #0]
 8001f02:	689b      	ldr	r3, [r3, #8]
 8001f04:	2208      	movs	r2, #8
 8001f06:	4013      	ands	r3, r2
 8001f08:	2b08      	cmp	r3, #8
 8001f0a:	d107      	bne.n	8001f1c <HAL_LPTIM_IRQHandler+0xb8>
    {
      /* Clear Compare write flag */
      __HAL_LPTIM_CLEAR_FLAG(hlptim, LPTIM_FLAG_CMPOK);
 8001f0c:	687b      	ldr	r3, [r7, #4]
 8001f0e:	681b      	ldr	r3, [r3, #0]
 8001f10:	2208      	movs	r2, #8
 8001f12:	605a      	str	r2, [r3, #4]

      /* Compare write Callback */
#if (USE_HAL_LPTIM_REGISTER_CALLBACKS == 1)
      hlptim->CompareWriteCallback(hlptim);
#else
      HAL_LPTIM_CompareWriteCallback(hlptim);
 8001f14:	687b      	ldr	r3, [r7, #4]
 8001f16:	0018      	movs	r0, r3
 8001f18:	f000 f85e 	bl	8001fd8 <HAL_LPTIM_CompareWriteCallback>
#endif /* USE_HAL_LPTIM_REGISTER_CALLBACKS */
    }
  }

  /* Autoreload write interrupt */
  if (__HAL_LPTIM_GET_FLAG(hlptim, LPTIM_FLAG_ARROK) != RESET)
 8001f1c:	687b      	ldr	r3, [r7, #4]
 8001f1e:	681b      	ldr	r3, [r3, #0]
 8001f20:	681b      	ldr	r3, [r3, #0]
 8001f22:	2210      	movs	r2, #16
 8001f24:	4013      	ands	r3, r2
 8001f26:	2b10      	cmp	r3, #16
 8001f28:	d10e      	bne.n	8001f48 <HAL_LPTIM_IRQHandler+0xe4>
  {
    if (__HAL_LPTIM_GET_IT_SOURCE(hlptim, LPTIM_IT_ARROK) != RESET)
 8001f2a:	687b      	ldr	r3, [r7, #4]
 8001f2c:	681b      	ldr	r3, [r3, #0]
 8001f2e:	689b      	ldr	r3, [r3, #8]
 8001f30:	2210      	movs	r2, #16
 8001f32:	4013      	ands	r3, r2
 8001f34:	2b10      	cmp	r3, #16
 8001f36:	d107      	bne.n	8001f48 <HAL_LPTIM_IRQHandler+0xe4>
    {
      /* Clear Autoreload write flag */
      __HAL_LPTIM_CLEAR_FLAG(hlptim, LPTIM_FLAG_ARROK);
 8001f38:	687b      	ldr	r3, [r7, #4]
 8001f3a:	681b      	ldr	r3, [r3, #0]
 8001f3c:	2210      	movs	r2, #16
 8001f3e:	605a      	str	r2, [r3, #4]

      /* Autoreload write Callback */
#if (USE_HAL_LPTIM_REGISTER_CALLBACKS == 1)
      hlptim->AutoReloadWriteCallback(hlptim);
#else
      HAL_LPTIM_AutoReloadWriteCallback(hlptim);
 8001f40:	687b      	ldr	r3, [r7, #4]
 8001f42:	0018      	movs	r0, r3
 8001f44:	f000 f850 	bl	8001fe8 <HAL_LPTIM_AutoReloadWriteCallback>
#endif /* USE_HAL_LPTIM_REGISTER_CALLBACKS */
    }
  }

  /* Direction counter changed from Down to Up interrupt */
  if (__HAL_LPTIM_GET_FLAG(hlptim, LPTIM_FLAG_UP) != RESET)
 8001f48:	687b      	ldr	r3, [r7, #4]
 8001f4a:	681b      	ldr	r3, [r3, #0]
 8001f4c:	681b      	ldr	r3, [r3, #0]
 8001f4e:	2220      	movs	r2, #32
 8001f50:	4013      	ands	r3, r2
 8001f52:	2b20      	cmp	r3, #32
 8001f54:	d10e      	bne.n	8001f74 <HAL_LPTIM_IRQHandler+0x110>
  {
    if (__HAL_LPTIM_GET_IT_SOURCE(hlptim, LPTIM_IT_UP) != RESET)
 8001f56:	687b      	ldr	r3, [r7, #4]
 8001f58:	681b      	ldr	r3, [r3, #0]
 8001f5a:	689b      	ldr	r3, [r3, #8]
 8001f5c:	2220      	movs	r2, #32
 8001f5e:	4013      	ands	r3, r2
 8001f60:	2b20      	cmp	r3, #32
 8001f62:	d107      	bne.n	8001f74 <HAL_LPTIM_IRQHandler+0x110>
    {
      /* Clear Direction counter changed from Down to Up flag */
      __HAL_LPTIM_CLEAR_FLAG(hlptim, LPTIM_FLAG_UP);
 8001f64:	687b      	ldr	r3, [r7, #4]
 8001f66:	681b      	ldr	r3, [r3, #0]
 8001f68:	2220      	movs	r2, #32
 8001f6a:	605a      	str	r2, [r3, #4]

      /* Direction counter changed from Down to Up Callback */
#if (USE_HAL_LPTIM_REGISTER_CALLBACKS == 1)
      hlptim->DirectionUpCallback(hlptim);
#else
      HAL_LPTIM_DirectionUpCallback(hlptim);
 8001f6c:	687b      	ldr	r3, [r7, #4]
 8001f6e:	0018      	movs	r0, r3
 8001f70:	f000 f842 	bl	8001ff8 <HAL_LPTIM_DirectionUpCallback>
#endif /* USE_HAL_LPTIM_REGISTER_CALLBACKS */
    }
  }

  /* Direction counter changed from Up to Down interrupt */
  if (__HAL_LPTIM_GET_FLAG(hlptim, LPTIM_FLAG_DOWN) != RESET)
 8001f74:	687b      	ldr	r3, [r7, #4]
 8001f76:	681b      	ldr	r3, [r3, #0]
 8001f78:	681b      	ldr	r3, [r3, #0]
 8001f7a:	2240      	movs	r2, #64	; 0x40
 8001f7c:	4013      	ands	r3, r2
 8001f7e:	2b40      	cmp	r3, #64	; 0x40
 8001f80:	d10e      	bne.n	8001fa0 <HAL_LPTIM_IRQHandler+0x13c>
  {
    if (__HAL_LPTIM_GET_IT_SOURCE(hlptim, LPTIM_IT_DOWN) != RESET)
 8001f82:	687b      	ldr	r3, [r7, #4]
 8001f84:	681b      	ldr	r3, [r3, #0]
 8001f86:	689b      	ldr	r3, [r3, #8]
 8001f88:	2240      	movs	r2, #64	; 0x40
 8001f8a:	4013      	ands	r3, r2
 8001f8c:	2b40      	cmp	r3, #64	; 0x40
 8001f8e:	d107      	bne.n	8001fa0 <HAL_LPTIM_IRQHandler+0x13c>
    {
      /* Clear Direction counter changed from Up to Down flag */
      __HAL_LPTIM_CLEAR_FLAG(hlptim, LPTIM_FLAG_DOWN);
 8001f90:	687b      	ldr	r3, [r7, #4]
 8001f92:	681b      	ldr	r3, [r3, #0]
 8001f94:	2240      	movs	r2, #64	; 0x40
 8001f96:	605a      	str	r2, [r3, #4]

      /* Direction counter changed from Up to Down Callback */
#if (USE_HAL_LPTIM_REGISTER_CALLBACKS == 1)
      hlptim->DirectionDownCallback(hlptim);
#else
      HAL_LPTIM_DirectionDownCallback(hlptim);
 8001f98:	687b      	ldr	r3, [r7, #4]
 8001f9a:	0018      	movs	r0, r3
 8001f9c:	f000 f834 	bl	8002008 <HAL_LPTIM_DirectionDownCallback>
#endif /* USE_HAL_LPTIM_REGISTER_CALLBACKS */
    }
  }
}
 8001fa0:	46c0      	nop			; (mov r8, r8)
 8001fa2:	46bd      	mov	sp, r7
 8001fa4:	b002      	add	sp, #8
 8001fa6:	bd80      	pop	{r7, pc}

08001fa8 <HAL_LPTIM_CompareMatchCallback>:
  * @brief  Compare match callback in non-blocking mode.
  * @param  hlptim LPTIM handle
  * @retval None
  */
__weak void HAL_LPTIM_CompareMatchCallback(LPTIM_HandleTypeDef *hlptim)
{
 8001fa8:	b580      	push	{r7, lr}
 8001faa:	b082      	sub	sp, #8
 8001fac:	af00      	add	r7, sp, #0
 8001fae:	6078      	str	r0, [r7, #4]
  UNUSED(hlptim);

  /* NOTE : This function should not be modified, when the callback is needed,
            the HAL_LPTIM_CompareMatchCallback could be implemented in the user file
   */
}
 8001fb0:	46c0      	nop			; (mov r8, r8)
 8001fb2:	46bd      	mov	sp, r7
 8001fb4:	b002      	add	sp, #8
 8001fb6:	bd80      	pop	{r7, pc}

08001fb8 <HAL_LPTIM_AutoReloadMatchCallback>:
  * @brief  Autoreload match callback in non-blocking mode.
  * @param  hlptim LPTIM handle
  * @retval None
  */
__weak void HAL_LPTIM_AutoReloadMatchCallback(LPTIM_HandleTypeDef *hlptim)
{
 8001fb8:	b580      	push	{r7, lr}
 8001fba:	b082      	sub	sp, #8
 8001fbc:	af00      	add	r7, sp, #0
 8001fbe:	6078      	str	r0, [r7, #4]
  UNUSED(hlptim);

  /* NOTE : This function should not be modified, when the callback is needed,
            the HAL_LPTIM_AutoReloadMatchCallback could be implemented in the user file
   */
}
 8001fc0:	46c0      	nop			; (mov r8, r8)
 8001fc2:	46bd      	mov	sp, r7
 8001fc4:	b002      	add	sp, #8
 8001fc6:	bd80      	pop	{r7, pc}

08001fc8 <HAL_LPTIM_TriggerCallback>:
  * @brief  Trigger detected callback in non-blocking mode.
  * @param  hlptim LPTIM handle
  * @retval None
  */
__weak void HAL_LPTIM_TriggerCallback(LPTIM_HandleTypeDef *hlptim)
{
 8001fc8:	b580      	push	{r7, lr}
 8001fca:	b082      	sub	sp, #8
 8001fcc:	af00      	add	r7, sp, #0
 8001fce:	6078      	str	r0, [r7, #4]
  UNUSED(hlptim);

  /* NOTE : This function should not be modified, when the callback is needed,
            the HAL_LPTIM_TriggerCallback could be implemented in the user file
   */
}
 8001fd0:	46c0      	nop			; (mov r8, r8)
 8001fd2:	46bd      	mov	sp, r7
 8001fd4:	b002      	add	sp, #8
 8001fd6:	bd80      	pop	{r7, pc}

08001fd8 <HAL_LPTIM_CompareWriteCallback>:
  * @brief  Compare write callback in non-blocking mode.
  * @param  hlptim LPTIM handle
  * @retval None
  */
__weak void HAL_LPTIM_CompareWriteCallback(LPTIM_HandleTypeDef *hlptim)
{
 8001fd8:	b580      	push	{r7, lr}
 8001fda:	b082      	sub	sp, #8
 8001fdc:	af00      	add	r7, sp, #0
 8001fde:	6078      	str	r0, [r7, #4]
  UNUSED(hlptim);

  /* NOTE : This function should not be modified, when the callback is needed,
            the HAL_LPTIM_CompareWriteCallback could be implemented in the user file
   */
}
 8001fe0:	46c0      	nop			; (mov r8, r8)
 8001fe2:	46bd      	mov	sp, r7
 8001fe4:	b002      	add	sp, #8
 8001fe6:	bd80      	pop	{r7, pc}

08001fe8 <HAL_LPTIM_AutoReloadWriteCallback>:
  * @brief  Autoreload write callback in non-blocking mode.
  * @param  hlptim LPTIM handle
  * @retval None
  */
__weak void HAL_LPTIM_AutoReloadWriteCallback(LPTIM_HandleTypeDef *hlptim)
{
 8001fe8:	b580      	push	{r7, lr}
 8001fea:	b082      	sub	sp, #8
 8001fec:	af00      	add	r7, sp, #0
 8001fee:	6078      	str	r0, [r7, #4]
  UNUSED(hlptim);

  /* NOTE : This function should not be modified, when the callback is needed,
            the HAL_LPTIM_AutoReloadWriteCallback could be implemented in the user file
   */
}
 8001ff0:	46c0      	nop			; (mov r8, r8)
 8001ff2:	46bd      	mov	sp, r7
 8001ff4:	b002      	add	sp, #8
 8001ff6:	bd80      	pop	{r7, pc}

08001ff8 <HAL_LPTIM_DirectionUpCallback>:
  * @brief  Direction counter changed from Down to Up callback in non-blocking mode.
  * @param  hlptim LPTIM handle
  * @retval None
  */
__weak void HAL_LPTIM_DirectionUpCallback(LPTIM_HandleTypeDef *hlptim)
{
 8001ff8:	b580      	push	{r7, lr}
 8001ffa:	b082      	sub	sp, #8
 8001ffc:	af00      	add	r7, sp, #0
 8001ffe:	6078      	str	r0, [r7, #4]
  UNUSED(hlptim);

  /* NOTE : This function should not be modified, when the callback is needed,
            the HAL_LPTIM_DirectionUpCallback could be implemented in the user file
   */
}
 8002000:	46c0      	nop			; (mov r8, r8)
 8002002:	46bd      	mov	sp, r7
 8002004:	b002      	add	sp, #8
 8002006:	bd80      	pop	{r7, pc}

08002008 <HAL_LPTIM_DirectionDownCallback>:
  * @brief  Direction counter changed from Up to Down callback in non-blocking mode.
  * @param  hlptim LPTIM handle
  * @retval None
  */
__weak void HAL_LPTIM_DirectionDownCallback(LPTIM_HandleTypeDef *hlptim)
{
 8002008:	b580      	push	{r7, lr}
 800200a:	b082      	sub	sp, #8
 800200c:	af00      	add	r7, sp, #0
 800200e:	6078      	str	r0, [r7, #4]
  UNUSED(hlptim);

  /* NOTE : This function should not be modified, when the callback is needed,
            the HAL_LPTIM_DirectionDownCallback could be implemented in the user file
   */
}
 8002010:	46c0      	nop			; (mov r8, r8)
 8002012:	46bd      	mov	sp, r7
 8002014:	b002      	add	sp, #8
 8002016:	bd80      	pop	{r7, pc}

08002018 <HAL_RCC_OscConfig>:
  *         supported by this macro. User should request a transition to HSE Off
  *         first and then HSE On or HSE Bypass.
  * @retval HAL status
  */
HAL_StatusTypeDef HAL_RCC_OscConfig(RCC_OscInitTypeDef  *RCC_OscInitStruct)
{
 8002018:	b5b0      	push	{r4, r5, r7, lr}
 800201a:	b08a      	sub	sp, #40	; 0x28
 800201c:	af00      	add	r7, sp, #0
 800201e:	6078      	str	r0, [r7, #4]
  uint32_t hsi_state;
  HAL_StatusTypeDef status;
  uint32_t sysclk_source, pll_config;

  /* Check the parameters */
  if(RCC_OscInitStruct == NULL)
 8002020:	687b      	ldr	r3, [r7, #4]
 8002022:	2b00      	cmp	r3, #0
 8002024:	d102      	bne.n	800202c <HAL_RCC_OscConfig+0x14>
  {
    return HAL_ERROR;
 8002026:	2301      	movs	r3, #1
 8002028:	f000 fb6a 	bl	8002700 <HAL_RCC_OscConfig+0x6e8>
  }

  assert_param(IS_RCC_OSCILLATORTYPE(RCC_OscInitStruct->OscillatorType));

  sysclk_source = __HAL_RCC_GET_SYSCLK_SOURCE();
 800202c:	4bc7      	ldr	r3, [pc, #796]	; (800234c <HAL_RCC_OscConfig+0x334>)
 800202e:	68db      	ldr	r3, [r3, #12]
 8002030:	220c      	movs	r2, #12
 8002032:	4013      	ands	r3, r2
 8002034:	61fb      	str	r3, [r7, #28]
  pll_config = __HAL_RCC_GET_PLL_OSCSOURCE();
 8002036:	4bc5      	ldr	r3, [pc, #788]	; (800234c <HAL_RCC_OscConfig+0x334>)
 8002038:	68da      	ldr	r2, [r3, #12]
 800203a:	2380      	movs	r3, #128	; 0x80
 800203c:	025b      	lsls	r3, r3, #9
 800203e:	4013      	ands	r3, r2
 8002040:	61bb      	str	r3, [r7, #24]

  /*------------------------------- HSE Configuration ------------------------*/
  if(((RCC_OscInitStruct->OscillatorType) & RCC_OSCILLATORTYPE_HSE) == RCC_OSCILLATORTYPE_HSE)
 8002042:	687b      	ldr	r3, [r7, #4]
 8002044:	681b      	ldr	r3, [r3, #0]
 8002046:	2201      	movs	r2, #1
 8002048:	4013      	ands	r3, r2
 800204a:	d100      	bne.n	800204e <HAL_RCC_OscConfig+0x36>
 800204c:	e07d      	b.n	800214a <HAL_RCC_OscConfig+0x132>
  {
    /* Check the parameters */
    assert_param(IS_RCC_HSE(RCC_OscInitStruct->HSEState));

    /* When the HSE is used as system clock or clock source for PLL in these cases it is not allowed to be disabled */
    if((sysclk_source == RCC_SYSCLKSOURCE_STATUS_HSE)
 800204e:	69fb      	ldr	r3, [r7, #28]
 8002050:	2b08      	cmp	r3, #8
 8002052:	d007      	beq.n	8002064 <HAL_RCC_OscConfig+0x4c>
       || ((sysclk_source == RCC_SYSCLKSOURCE_STATUS_PLLCLK) && (pll_config == RCC_PLLSOURCE_HSE)))
 8002054:	69fb      	ldr	r3, [r7, #28]
 8002056:	2b0c      	cmp	r3, #12
 8002058:	d112      	bne.n	8002080 <HAL_RCC_OscConfig+0x68>
 800205a:	69ba      	ldr	r2, [r7, #24]
 800205c:	2380      	movs	r3, #128	; 0x80
 800205e:	025b      	lsls	r3, r3, #9
 8002060:	429a      	cmp	r2, r3
 8002062:	d10d      	bne.n	8002080 <HAL_RCC_OscConfig+0x68>
    {
      if((__HAL_RCC_GET_FLAG(RCC_FLAG_HSERDY) != 0U) && (RCC_OscInitStruct->HSEState == RCC_HSE_OFF))
 8002064:	4bb9      	ldr	r3, [pc, #740]	; (800234c <HAL_RCC_OscConfig+0x334>)
 8002066:	681a      	ldr	r2, [r3, #0]
 8002068:	2380      	movs	r3, #128	; 0x80
 800206a:	029b      	lsls	r3, r3, #10
 800206c:	4013      	ands	r3, r2
 800206e:	d100      	bne.n	8002072 <HAL_RCC_OscConfig+0x5a>
 8002070:	e06a      	b.n	8002148 <HAL_RCC_OscConfig+0x130>
 8002072:	687b      	ldr	r3, [r7, #4]
 8002074:	685b      	ldr	r3, [r3, #4]
 8002076:	2b00      	cmp	r3, #0
 8002078:	d166      	bne.n	8002148 <HAL_RCC_OscConfig+0x130>
      {
        return HAL_ERROR;
 800207a:	2301      	movs	r3, #1
 800207c:	f000 fb40 	bl	8002700 <HAL_RCC_OscConfig+0x6e8>
      }
    }
    else
    {
      /* Set the new HSE configuration ---------------------------------------*/
      __HAL_RCC_HSE_CONFIG(RCC_OscInitStruct->HSEState);
 8002080:	687b      	ldr	r3, [r7, #4]
 8002082:	685a      	ldr	r2, [r3, #4]
 8002084:	2380      	movs	r3, #128	; 0x80
 8002086:	025b      	lsls	r3, r3, #9
 8002088:	429a      	cmp	r2, r3
 800208a:	d107      	bne.n	800209c <HAL_RCC_OscConfig+0x84>
 800208c:	4baf      	ldr	r3, [pc, #700]	; (800234c <HAL_RCC_OscConfig+0x334>)
 800208e:	681a      	ldr	r2, [r3, #0]
 8002090:	4bae      	ldr	r3, [pc, #696]	; (800234c <HAL_RCC_OscConfig+0x334>)
 8002092:	2180      	movs	r1, #128	; 0x80
 8002094:	0249      	lsls	r1, r1, #9
 8002096:	430a      	orrs	r2, r1
 8002098:	601a      	str	r2, [r3, #0]
 800209a:	e027      	b.n	80020ec <HAL_RCC_OscConfig+0xd4>
 800209c:	687b      	ldr	r3, [r7, #4]
 800209e:	685a      	ldr	r2, [r3, #4]
 80020a0:	23a0      	movs	r3, #160	; 0xa0
 80020a2:	02db      	lsls	r3, r3, #11
 80020a4:	429a      	cmp	r2, r3
 80020a6:	d10e      	bne.n	80020c6 <HAL_RCC_OscConfig+0xae>
 80020a8:	4ba8      	ldr	r3, [pc, #672]	; (800234c <HAL_RCC_OscConfig+0x334>)
 80020aa:	681a      	ldr	r2, [r3, #0]
 80020ac:	4ba7      	ldr	r3, [pc, #668]	; (800234c <HAL_RCC_OscConfig+0x334>)
 80020ae:	2180      	movs	r1, #128	; 0x80
 80020b0:	02c9      	lsls	r1, r1, #11
 80020b2:	430a      	orrs	r2, r1
 80020b4:	601a      	str	r2, [r3, #0]
 80020b6:	4ba5      	ldr	r3, [pc, #660]	; (800234c <HAL_RCC_OscConfig+0x334>)
 80020b8:	681a      	ldr	r2, [r3, #0]
 80020ba:	4ba4      	ldr	r3, [pc, #656]	; (800234c <HAL_RCC_OscConfig+0x334>)
 80020bc:	2180      	movs	r1, #128	; 0x80
 80020be:	0249      	lsls	r1, r1, #9
 80020c0:	430a      	orrs	r2, r1
 80020c2:	601a      	str	r2, [r3, #0]
 80020c4:	e012      	b.n	80020ec <HAL_RCC_OscConfig+0xd4>
 80020c6:	4ba1      	ldr	r3, [pc, #644]	; (800234c <HAL_RCC_OscConfig+0x334>)
 80020c8:	681a      	ldr	r2, [r3, #0]
 80020ca:	4ba0      	ldr	r3, [pc, #640]	; (800234c <HAL_RCC_OscConfig+0x334>)
 80020cc:	49a0      	ldr	r1, [pc, #640]	; (8002350 <HAL_RCC_OscConfig+0x338>)
 80020ce:	400a      	ands	r2, r1
 80020d0:	601a      	str	r2, [r3, #0]
 80020d2:	4b9e      	ldr	r3, [pc, #632]	; (800234c <HAL_RCC_OscConfig+0x334>)
 80020d4:	681a      	ldr	r2, [r3, #0]
 80020d6:	2380      	movs	r3, #128	; 0x80
 80020d8:	025b      	lsls	r3, r3, #9
 80020da:	4013      	ands	r3, r2
 80020dc:	60fb      	str	r3, [r7, #12]
 80020de:	68fb      	ldr	r3, [r7, #12]
 80020e0:	4b9a      	ldr	r3, [pc, #616]	; (800234c <HAL_RCC_OscConfig+0x334>)
 80020e2:	681a      	ldr	r2, [r3, #0]
 80020e4:	4b99      	ldr	r3, [pc, #612]	; (800234c <HAL_RCC_OscConfig+0x334>)
 80020e6:	499b      	ldr	r1, [pc, #620]	; (8002354 <HAL_RCC_OscConfig+0x33c>)
 80020e8:	400a      	ands	r2, r1
 80020ea:	601a      	str	r2, [r3, #0]

      /* Check the HSE State */
      if(RCC_OscInitStruct->HSEState != RCC_HSE_OFF)
 80020ec:	687b      	ldr	r3, [r7, #4]
 80020ee:	685b      	ldr	r3, [r3, #4]
 80020f0:	2b00      	cmp	r3, #0
 80020f2:	d014      	beq.n	800211e <HAL_RCC_OscConfig+0x106>
      {
        /* Get Start Tick */
        tickstart = HAL_GetTick();
 80020f4:	f7fe fdf2 	bl	8000cdc <HAL_GetTick>
 80020f8:	0003      	movs	r3, r0
 80020fa:	617b      	str	r3, [r7, #20]

        /* Wait till HSE is ready */
        while(__HAL_RCC_GET_FLAG(RCC_FLAG_HSERDY) == 0U)
 80020fc:	e008      	b.n	8002110 <HAL_RCC_OscConfig+0xf8>
        {
          if((HAL_GetTick() - tickstart ) > HSE_TIMEOUT_VALUE)
 80020fe:	f7fe fded 	bl	8000cdc <HAL_GetTick>
 8002102:	0002      	movs	r2, r0
 8002104:	697b      	ldr	r3, [r7, #20]
 8002106:	1ad3      	subs	r3, r2, r3
 8002108:	2b64      	cmp	r3, #100	; 0x64
 800210a:	d901      	bls.n	8002110 <HAL_RCC_OscConfig+0xf8>
          {
            return HAL_TIMEOUT;
 800210c:	2303      	movs	r3, #3
 800210e:	e2f7      	b.n	8002700 <HAL_RCC_OscConfig+0x6e8>
        while(__HAL_RCC_GET_FLAG(RCC_FLAG_HSERDY) == 0U)
 8002110:	4b8e      	ldr	r3, [pc, #568]	; (800234c <HAL_RCC_OscConfig+0x334>)
 8002112:	681a      	ldr	r2, [r3, #0]
 8002114:	2380      	movs	r3, #128	; 0x80
 8002116:	029b      	lsls	r3, r3, #10
 8002118:	4013      	ands	r3, r2
 800211a:	d0f0      	beq.n	80020fe <HAL_RCC_OscConfig+0xe6>
 800211c:	e015      	b.n	800214a <HAL_RCC_OscConfig+0x132>
        }
      }
      else
      {
        /* Get Start Tick */
        tickstart = HAL_GetTick();
 800211e:	f7fe fddd 	bl	8000cdc <HAL_GetTick>
 8002122:	0003      	movs	r3, r0
 8002124:	617b      	str	r3, [r7, #20]

        /* Wait till HSE is disabled */
        while(__HAL_RCC_GET_FLAG(RCC_FLAG_HSERDY) != 0U)
 8002126:	e008      	b.n	800213a <HAL_RCC_OscConfig+0x122>
        {
           if((HAL_GetTick() - tickstart ) > HSE_TIMEOUT_VALUE)
 8002128:	f7fe fdd8 	bl	8000cdc <HAL_GetTick>
 800212c:	0002      	movs	r2, r0
 800212e:	697b      	ldr	r3, [r7, #20]
 8002130:	1ad3      	subs	r3, r2, r3
 8002132:	2b64      	cmp	r3, #100	; 0x64
 8002134:	d901      	bls.n	800213a <HAL_RCC_OscConfig+0x122>
          {
            return HAL_TIMEOUT;
 8002136:	2303      	movs	r3, #3
 8002138:	e2e2      	b.n	8002700 <HAL_RCC_OscConfig+0x6e8>
        while(__HAL_RCC_GET_FLAG(RCC_FLAG_HSERDY) != 0U)
 800213a:	4b84      	ldr	r3, [pc, #528]	; (800234c <HAL_RCC_OscConfig+0x334>)
 800213c:	681a      	ldr	r2, [r3, #0]
 800213e:	2380      	movs	r3, #128	; 0x80
 8002140:	029b      	lsls	r3, r3, #10
 8002142:	4013      	ands	r3, r2
 8002144:	d1f0      	bne.n	8002128 <HAL_RCC_OscConfig+0x110>
 8002146:	e000      	b.n	800214a <HAL_RCC_OscConfig+0x132>
      if((__HAL_RCC_GET_FLAG(RCC_FLAG_HSERDY) != 0U) && (RCC_OscInitStruct->HSEState == RCC_HSE_OFF))
 8002148:	46c0      	nop			; (mov r8, r8)
        }
      }
    }
  }
  /*----------------------------- HSI Configuration --------------------------*/
  if(((RCC_OscInitStruct->OscillatorType) & RCC_OSCILLATORTYPE_HSI) == RCC_OSCILLATORTYPE_HSI)
 800214a:	687b      	ldr	r3, [r7, #4]
 800214c:	681b      	ldr	r3, [r3, #0]
 800214e:	2202      	movs	r2, #2
 8002150:	4013      	ands	r3, r2
 8002152:	d100      	bne.n	8002156 <HAL_RCC_OscConfig+0x13e>
 8002154:	e098      	b.n	8002288 <HAL_RCC_OscConfig+0x270>
  {
    /* Check the parameters */
    assert_param(IS_RCC_HSI(RCC_OscInitStruct->HSIState));
    assert_param(IS_RCC_CALIBRATION_VALUE(RCC_OscInitStruct->HSICalibrationValue));

    hsi_state = RCC_OscInitStruct->HSIState;
 8002156:	687b      	ldr	r3, [r7, #4]
 8002158:	68db      	ldr	r3, [r3, #12]
 800215a:	627b      	str	r3, [r7, #36]	; 0x24

#if defined(RCC_CR_HSIOUTEN)
    if((hsi_state & RCC_HSI_OUTEN) != 0U)
 800215c:	6a7b      	ldr	r3, [r7, #36]	; 0x24
 800215e:	2220      	movs	r2, #32
 8002160:	4013      	ands	r3, r2
 8002162:	d009      	beq.n	8002178 <HAL_RCC_OscConfig+0x160>
    {
      /* HSI Output enable for timer requested */
      SET_BIT(RCC->CR, RCC_CR_HSIOUTEN);
 8002164:	4b79      	ldr	r3, [pc, #484]	; (800234c <HAL_RCC_OscConfig+0x334>)
 8002166:	681a      	ldr	r2, [r3, #0]
 8002168:	4b78      	ldr	r3, [pc, #480]	; (800234c <HAL_RCC_OscConfig+0x334>)
 800216a:	2120      	movs	r1, #32
 800216c:	430a      	orrs	r2, r1
 800216e:	601a      	str	r2, [r3, #0]

      hsi_state &= ~RCC_CR_HSIOUTEN;
 8002170:	6a7b      	ldr	r3, [r7, #36]	; 0x24
 8002172:	2220      	movs	r2, #32
 8002174:	4393      	bics	r3, r2
 8002176:	627b      	str	r3, [r7, #36]	; 0x24
    }
#endif

    /* Check if HSI is used as system clock or as PLL source when PLL is selected as system clock */
    if((sysclk_source == RCC_SYSCLKSOURCE_STATUS_HSI)
 8002178:	69fb      	ldr	r3, [r7, #28]
 800217a:	2b04      	cmp	r3, #4
 800217c:	d005      	beq.n	800218a <HAL_RCC_OscConfig+0x172>
       || ((sysclk_source == RCC_SYSCLKSOURCE_STATUS_PLLCLK) && (pll_config == RCC_PLLSOURCE_HSI)))
 800217e:	69fb      	ldr	r3, [r7, #28]
 8002180:	2b0c      	cmp	r3, #12
 8002182:	d13d      	bne.n	8002200 <HAL_RCC_OscConfig+0x1e8>
 8002184:	69bb      	ldr	r3, [r7, #24]
 8002186:	2b00      	cmp	r3, #0
 8002188:	d13a      	bne.n	8002200 <HAL_RCC_OscConfig+0x1e8>
    {
      /* When HSI is used as system clock it will not disabled */
      if((__HAL_RCC_GET_FLAG(RCC_FLAG_HSIRDY) != 0U) && (hsi_state == RCC_HSI_OFF))
 800218a:	4b70      	ldr	r3, [pc, #448]	; (800234c <HAL_RCC_OscConfig+0x334>)
 800218c:	681b      	ldr	r3, [r3, #0]
 800218e:	2204      	movs	r2, #4
 8002190:	4013      	ands	r3, r2
 8002192:	d004      	beq.n	800219e <HAL_RCC_OscConfig+0x186>
 8002194:	6a7b      	ldr	r3, [r7, #36]	; 0x24
 8002196:	2b00      	cmp	r3, #0
 8002198:	d101      	bne.n	800219e <HAL_RCC_OscConfig+0x186>
      {
        return HAL_ERROR;
 800219a:	2301      	movs	r3, #1
 800219c:	e2b0      	b.n	8002700 <HAL_RCC_OscConfig+0x6e8>
      }
      /* Otherwise, just the calibration and HSI or HSIdiv4 are allowed */
      else
      {
        /* Adjusts the Internal High Speed oscillator (HSI) calibration value.*/
        __HAL_RCC_HSI_CALIBRATIONVALUE_ADJUST(RCC_OscInitStruct->HSICalibrationValue);
 800219e:	4b6b      	ldr	r3, [pc, #428]	; (800234c <HAL_RCC_OscConfig+0x334>)
 80021a0:	685b      	ldr	r3, [r3, #4]
 80021a2:	4a6d      	ldr	r2, [pc, #436]	; (8002358 <HAL_RCC_OscConfig+0x340>)
 80021a4:	4013      	ands	r3, r2
 80021a6:	0019      	movs	r1, r3
 80021a8:	687b      	ldr	r3, [r7, #4]
 80021aa:	691b      	ldr	r3, [r3, #16]
 80021ac:	021a      	lsls	r2, r3, #8
 80021ae:	4b67      	ldr	r3, [pc, #412]	; (800234c <HAL_RCC_OscConfig+0x334>)
 80021b0:	430a      	orrs	r2, r1
 80021b2:	605a      	str	r2, [r3, #4]

        /* Enable the Internal High Speed oscillator (HSI or HSIdiv4) */
        __HAL_RCC_HSI_CONFIG(hsi_state);
 80021b4:	4b65      	ldr	r3, [pc, #404]	; (800234c <HAL_RCC_OscConfig+0x334>)
 80021b6:	681b      	ldr	r3, [r3, #0]
 80021b8:	2209      	movs	r2, #9
 80021ba:	4393      	bics	r3, r2
 80021bc:	0019      	movs	r1, r3
 80021be:	4b63      	ldr	r3, [pc, #396]	; (800234c <HAL_RCC_OscConfig+0x334>)
 80021c0:	6a7a      	ldr	r2, [r7, #36]	; 0x24
 80021c2:	430a      	orrs	r2, r1
 80021c4:	601a      	str	r2, [r3, #0]
      }

      /* Update the SystemCoreClock global variable */
      SystemCoreClock = HAL_RCC_GetSysClockFreq() >> AHBPrescTable[(RCC->CFGR & RCC_CFGR_HPRE)>> RCC_CFGR_HPRE_Pos];
 80021c6:	f000 fbcb 	bl	8002960 <HAL_RCC_GetSysClockFreq>
 80021ca:	0001      	movs	r1, r0
 80021cc:	4b5f      	ldr	r3, [pc, #380]	; (800234c <HAL_RCC_OscConfig+0x334>)
 80021ce:	68db      	ldr	r3, [r3, #12]
 80021d0:	091b      	lsrs	r3, r3, #4
 80021d2:	220f      	movs	r2, #15
 80021d4:	4013      	ands	r3, r2
 80021d6:	4a61      	ldr	r2, [pc, #388]	; (800235c <HAL_RCC_OscConfig+0x344>)
 80021d8:	5cd3      	ldrb	r3, [r2, r3]
 80021da:	000a      	movs	r2, r1
 80021dc:	40da      	lsrs	r2, r3
 80021de:	4b60      	ldr	r3, [pc, #384]	; (8002360 <HAL_RCC_OscConfig+0x348>)
 80021e0:	601a      	str	r2, [r3, #0]

      /* Configure the source of time base considering new system clocks settings*/
      status = HAL_InitTick (TICK_INT_PRIORITY);
 80021e2:	2513      	movs	r5, #19
 80021e4:	197c      	adds	r4, r7, r5
 80021e6:	2000      	movs	r0, #0
 80021e8:	f7fe fd42 	bl	8000c70 <HAL_InitTick>
 80021ec:	0003      	movs	r3, r0
 80021ee:	7023      	strb	r3, [r4, #0]
      if(status != HAL_OK)
 80021f0:	197b      	adds	r3, r7, r5
 80021f2:	781b      	ldrb	r3, [r3, #0]
 80021f4:	2b00      	cmp	r3, #0
 80021f6:	d047      	beq.n	8002288 <HAL_RCC_OscConfig+0x270>
      {
        return status;
 80021f8:	2313      	movs	r3, #19
 80021fa:	18fb      	adds	r3, r7, r3
 80021fc:	781b      	ldrb	r3, [r3, #0]
 80021fe:	e27f      	b.n	8002700 <HAL_RCC_OscConfig+0x6e8>
      }
    }
    else
    {
      /* Check the HSI State */
      if(hsi_state != RCC_HSI_OFF)
 8002200:	6a7b      	ldr	r3, [r7, #36]	; 0x24
 8002202:	2b00      	cmp	r3, #0
 8002204:	d027      	beq.n	8002256 <HAL_RCC_OscConfig+0x23e>
      {
        /* Enable the Internal High Speed oscillator (HSI or HSIdiv4) */
        __HAL_RCC_HSI_CONFIG(hsi_state);
 8002206:	4b51      	ldr	r3, [pc, #324]	; (800234c <HAL_RCC_OscConfig+0x334>)
 8002208:	681b      	ldr	r3, [r3, #0]
 800220a:	2209      	movs	r2, #9
 800220c:	4393      	bics	r3, r2
 800220e:	0019      	movs	r1, r3
 8002210:	4b4e      	ldr	r3, [pc, #312]	; (800234c <HAL_RCC_OscConfig+0x334>)
 8002212:	6a7a      	ldr	r2, [r7, #36]	; 0x24
 8002214:	430a      	orrs	r2, r1
 8002216:	601a      	str	r2, [r3, #0]

        /* Get Start Tick */
        tickstart = HAL_GetTick();
 8002218:	f7fe fd60 	bl	8000cdc <HAL_GetTick>
 800221c:	0003      	movs	r3, r0
 800221e:	617b      	str	r3, [r7, #20]

        /* Wait till HSI is ready */
        while(__HAL_RCC_GET_FLAG(RCC_FLAG_HSIRDY) == 0U)
 8002220:	e008      	b.n	8002234 <HAL_RCC_OscConfig+0x21c>
        {
          if((HAL_GetTick() - tickstart ) > HSI_TIMEOUT_VALUE)
 8002222:	f7fe fd5b 	bl	8000cdc <HAL_GetTick>
 8002226:	0002      	movs	r2, r0
 8002228:	697b      	ldr	r3, [r7, #20]
 800222a:	1ad3      	subs	r3, r2, r3
 800222c:	2b02      	cmp	r3, #2
 800222e:	d901      	bls.n	8002234 <HAL_RCC_OscConfig+0x21c>
          {
            return HAL_TIMEOUT;
 8002230:	2303      	movs	r3, #3
 8002232:	e265      	b.n	8002700 <HAL_RCC_OscConfig+0x6e8>
        while(__HAL_RCC_GET_FLAG(RCC_FLAG_HSIRDY) == 0U)
 8002234:	4b45      	ldr	r3, [pc, #276]	; (800234c <HAL_RCC_OscConfig+0x334>)
 8002236:	681b      	ldr	r3, [r3, #0]
 8002238:	2204      	movs	r2, #4
 800223a:	4013      	ands	r3, r2
 800223c:	d0f1      	beq.n	8002222 <HAL_RCC_OscConfig+0x20a>
          }
        }

        /* Adjusts the Internal High Speed oscillator (HSI) calibration value.*/
        __HAL_RCC_HSI_CALIBRATIONVALUE_ADJUST(RCC_OscInitStruct->HSICalibrationValue);
 800223e:	4b43      	ldr	r3, [pc, #268]	; (800234c <HAL_RCC_OscConfig+0x334>)
 8002240:	685b      	ldr	r3, [r3, #4]
 8002242:	4a45      	ldr	r2, [pc, #276]	; (8002358 <HAL_RCC_OscConfig+0x340>)
 8002244:	4013      	ands	r3, r2
 8002246:	0019      	movs	r1, r3
 8002248:	687b      	ldr	r3, [r7, #4]
 800224a:	691b      	ldr	r3, [r3, #16]
 800224c:	021a      	lsls	r2, r3, #8
 800224e:	4b3f      	ldr	r3, [pc, #252]	; (800234c <HAL_RCC_OscConfig+0x334>)
 8002250:	430a      	orrs	r2, r1
 8002252:	605a      	str	r2, [r3, #4]
 8002254:	e018      	b.n	8002288 <HAL_RCC_OscConfig+0x270>
      }
      else
      {
        /* Disable the Internal High Speed oscillator (HSI). */
        __HAL_RCC_HSI_DISABLE();
 8002256:	4b3d      	ldr	r3, [pc, #244]	; (800234c <HAL_RCC_OscConfig+0x334>)
 8002258:	681a      	ldr	r2, [r3, #0]
 800225a:	4b3c      	ldr	r3, [pc, #240]	; (800234c <HAL_RCC_OscConfig+0x334>)
 800225c:	2101      	movs	r1, #1
 800225e:	438a      	bics	r2, r1
 8002260:	601a      	str	r2, [r3, #0]

        /* Get Start Tick */
        tickstart = HAL_GetTick();
 8002262:	f7fe fd3b 	bl	8000cdc <HAL_GetTick>
 8002266:	0003      	movs	r3, r0
 8002268:	617b      	str	r3, [r7, #20]

        /* Wait till HSI is disabled */
        while(__HAL_RCC_GET_FLAG(RCC_FLAG_HSIRDY) != 0U)
 800226a:	e008      	b.n	800227e <HAL_RCC_OscConfig+0x266>
        {
          if((HAL_GetTick() - tickstart ) > HSI_TIMEOUT_VALUE)
 800226c:	f7fe fd36 	bl	8000cdc <HAL_GetTick>
 8002270:	0002      	movs	r2, r0
 8002272:	697b      	ldr	r3, [r7, #20]
 8002274:	1ad3      	subs	r3, r2, r3
 8002276:	2b02      	cmp	r3, #2
 8002278:	d901      	bls.n	800227e <HAL_RCC_OscConfig+0x266>
          {
            return HAL_TIMEOUT;
 800227a:	2303      	movs	r3, #3
 800227c:	e240      	b.n	8002700 <HAL_RCC_OscConfig+0x6e8>
        while(__HAL_RCC_GET_FLAG(RCC_FLAG_HSIRDY) != 0U)
 800227e:	4b33      	ldr	r3, [pc, #204]	; (800234c <HAL_RCC_OscConfig+0x334>)
 8002280:	681b      	ldr	r3, [r3, #0]
 8002282:	2204      	movs	r2, #4
 8002284:	4013      	ands	r3, r2
 8002286:	d1f1      	bne.n	800226c <HAL_RCC_OscConfig+0x254>
        }
      }
    }
  }
  /*----------------------------- MSI Configuration --------------------------*/
  if(((RCC_OscInitStruct->OscillatorType) & RCC_OSCILLATORTYPE_MSI) == RCC_OSCILLATORTYPE_MSI)
 8002288:	687b      	ldr	r3, [r7, #4]
 800228a:	681b      	ldr	r3, [r3, #0]
 800228c:	2210      	movs	r2, #16
 800228e:	4013      	ands	r3, r2
 8002290:	d100      	bne.n	8002294 <HAL_RCC_OscConfig+0x27c>
 8002292:	e09e      	b.n	80023d2 <HAL_RCC_OscConfig+0x3ba>
  {
    /* When the MSI is used as system clock it will not be disabled */
    if((sysclk_source == RCC_CFGR_SWS_MSI) )
 8002294:	69fb      	ldr	r3, [r7, #28]
 8002296:	2b00      	cmp	r3, #0
 8002298:	d13f      	bne.n	800231a <HAL_RCC_OscConfig+0x302>
    {
      if((__HAL_RCC_GET_FLAG(RCC_FLAG_MSIRDY) != 0U) && (RCC_OscInitStruct->MSIState == RCC_MSI_OFF))
 800229a:	4b2c      	ldr	r3, [pc, #176]	; (800234c <HAL_RCC_OscConfig+0x334>)
 800229c:	681a      	ldr	r2, [r3, #0]
 800229e:	2380      	movs	r3, #128	; 0x80
 80022a0:	009b      	lsls	r3, r3, #2
 80022a2:	4013      	ands	r3, r2
 80022a4:	d005      	beq.n	80022b2 <HAL_RCC_OscConfig+0x29a>
 80022a6:	687b      	ldr	r3, [r7, #4]
 80022a8:	699b      	ldr	r3, [r3, #24]
 80022aa:	2b00      	cmp	r3, #0
 80022ac:	d101      	bne.n	80022b2 <HAL_RCC_OscConfig+0x29a>
      {
        return HAL_ERROR;
 80022ae:	2301      	movs	r3, #1
 80022b0:	e226      	b.n	8002700 <HAL_RCC_OscConfig+0x6e8>
        /* Check MSICalibrationValue and MSIClockRange input parameters */
        assert_param(IS_RCC_MSICALIBRATION_VALUE(RCC_OscInitStruct->MSICalibrationValue));
        assert_param(IS_RCC_MSI_CLOCK_RANGE(RCC_OscInitStruct->MSIClockRange));

        /* Selects the Multiple Speed oscillator (MSI) clock range .*/
        __HAL_RCC_MSI_RANGE_CONFIG(RCC_OscInitStruct->MSIClockRange);
 80022b2:	4b26      	ldr	r3, [pc, #152]	; (800234c <HAL_RCC_OscConfig+0x334>)
 80022b4:	685b      	ldr	r3, [r3, #4]
 80022b6:	4a2b      	ldr	r2, [pc, #172]	; (8002364 <HAL_RCC_OscConfig+0x34c>)
 80022b8:	4013      	ands	r3, r2
 80022ba:	0019      	movs	r1, r3
 80022bc:	687b      	ldr	r3, [r7, #4]
 80022be:	6a1a      	ldr	r2, [r3, #32]
 80022c0:	4b22      	ldr	r3, [pc, #136]	; (800234c <HAL_RCC_OscConfig+0x334>)
 80022c2:	430a      	orrs	r2, r1
 80022c4:	605a      	str	r2, [r3, #4]
        /* Adjusts the Multiple Speed oscillator (MSI) calibration value.*/
        __HAL_RCC_MSI_CALIBRATIONVALUE_ADJUST(RCC_OscInitStruct->MSICalibrationValue);
 80022c6:	4b21      	ldr	r3, [pc, #132]	; (800234c <HAL_RCC_OscConfig+0x334>)
 80022c8:	685b      	ldr	r3, [r3, #4]
 80022ca:	021b      	lsls	r3, r3, #8
 80022cc:	0a19      	lsrs	r1, r3, #8
 80022ce:	687b      	ldr	r3, [r7, #4]
 80022d0:	69db      	ldr	r3, [r3, #28]
 80022d2:	061a      	lsls	r2, r3, #24
 80022d4:	4b1d      	ldr	r3, [pc, #116]	; (800234c <HAL_RCC_OscConfig+0x334>)
 80022d6:	430a      	orrs	r2, r1
 80022d8:	605a      	str	r2, [r3, #4]


        /* Update the SystemCoreClock global variable */
        SystemCoreClock =  (32768U * (1UL << ((RCC_OscInitStruct->MSIClockRange >> RCC_ICSCR_MSIRANGE_Pos) + 1U)))
 80022da:	687b      	ldr	r3, [r7, #4]
 80022dc:	6a1b      	ldr	r3, [r3, #32]
 80022de:	0b5b      	lsrs	r3, r3, #13
 80022e0:	3301      	adds	r3, #1
 80022e2:	2280      	movs	r2, #128	; 0x80
 80022e4:	0212      	lsls	r2, r2, #8
 80022e6:	409a      	lsls	r2, r3
                           >> AHBPrescTable[((RCC->CFGR & RCC_CFGR_HPRE) >> RCC_CFGR_HPRE_Pos)];
 80022e8:	4b18      	ldr	r3, [pc, #96]	; (800234c <HAL_RCC_OscConfig+0x334>)
 80022ea:	68db      	ldr	r3, [r3, #12]
 80022ec:	091b      	lsrs	r3, r3, #4
 80022ee:	210f      	movs	r1, #15
 80022f0:	400b      	ands	r3, r1
 80022f2:	491a      	ldr	r1, [pc, #104]	; (800235c <HAL_RCC_OscConfig+0x344>)
 80022f4:	5ccb      	ldrb	r3, [r1, r3]
 80022f6:	40da      	lsrs	r2, r3
        SystemCoreClock =  (32768U * (1UL << ((RCC_OscInitStruct->MSIClockRange >> RCC_ICSCR_MSIRANGE_Pos) + 1U)))
 80022f8:	4b19      	ldr	r3, [pc, #100]	; (8002360 <HAL_RCC_OscConfig+0x348>)
 80022fa:	601a      	str	r2, [r3, #0]

        /* Configure the source of time base considering new system clocks settings*/
        status = HAL_InitTick (TICK_INT_PRIORITY);
 80022fc:	2513      	movs	r5, #19
 80022fe:	197c      	adds	r4, r7, r5
 8002300:	2000      	movs	r0, #0
 8002302:	f7fe fcb5 	bl	8000c70 <HAL_InitTick>
 8002306:	0003      	movs	r3, r0
 8002308:	7023      	strb	r3, [r4, #0]
        if(status != HAL_OK)
 800230a:	197b      	adds	r3, r7, r5
 800230c:	781b      	ldrb	r3, [r3, #0]
 800230e:	2b00      	cmp	r3, #0
 8002310:	d05f      	beq.n	80023d2 <HAL_RCC_OscConfig+0x3ba>
        {
          return status;
 8002312:	2313      	movs	r3, #19
 8002314:	18fb      	adds	r3, r7, r3
 8002316:	781b      	ldrb	r3, [r3, #0]
 8002318:	e1f2      	b.n	8002700 <HAL_RCC_OscConfig+0x6e8>
    {
      /* Check MSI State */
      assert_param(IS_RCC_MSI(RCC_OscInitStruct->MSIState));

      /* Check the MSI State */
      if(RCC_OscInitStruct->MSIState != RCC_MSI_OFF)
 800231a:	687b      	ldr	r3, [r7, #4]
 800231c:	699b      	ldr	r3, [r3, #24]
 800231e:	2b00      	cmp	r3, #0
 8002320:	d03d      	beq.n	800239e <HAL_RCC_OscConfig+0x386>
      {
        /* Enable the Multi Speed oscillator (MSI). */
        __HAL_RCC_MSI_ENABLE();
 8002322:	4b0a      	ldr	r3, [pc, #40]	; (800234c <HAL_RCC_OscConfig+0x334>)
 8002324:	681a      	ldr	r2, [r3, #0]
 8002326:	4b09      	ldr	r3, [pc, #36]	; (800234c <HAL_RCC_OscConfig+0x334>)
 8002328:	2180      	movs	r1, #128	; 0x80
 800232a:	0049      	lsls	r1, r1, #1
 800232c:	430a      	orrs	r2, r1
 800232e:	601a      	str	r2, [r3, #0]

        /* Get Start Tick */
        tickstart = HAL_GetTick();
 8002330:	f7fe fcd4 	bl	8000cdc <HAL_GetTick>
 8002334:	0003      	movs	r3, r0
 8002336:	617b      	str	r3, [r7, #20]

        /* Wait till MSI is ready */
        while(__HAL_RCC_GET_FLAG(RCC_FLAG_MSIRDY) == 0U)
 8002338:	e016      	b.n	8002368 <HAL_RCC_OscConfig+0x350>
        {
          if((HAL_GetTick() - tickstart) > MSI_TIMEOUT_VALUE)
 800233a:	f7fe fccf 	bl	8000cdc <HAL_GetTick>
 800233e:	0002      	movs	r2, r0
 8002340:	697b      	ldr	r3, [r7, #20]
 8002342:	1ad3      	subs	r3, r2, r3
 8002344:	2b02      	cmp	r3, #2
 8002346:	d90f      	bls.n	8002368 <HAL_RCC_OscConfig+0x350>
          {
            return HAL_TIMEOUT;
 8002348:	2303      	movs	r3, #3
 800234a:	e1d9      	b.n	8002700 <HAL_RCC_OscConfig+0x6e8>
 800234c:	40021000 	.word	0x40021000
 8002350:	fffeffff 	.word	0xfffeffff
 8002354:	fffbffff 	.word	0xfffbffff
 8002358:	ffffe0ff 	.word	0xffffe0ff
 800235c:	08003808 	.word	0x08003808
 8002360:	20000004 	.word	0x20000004
 8002364:	ffff1fff 	.word	0xffff1fff
        while(__HAL_RCC_GET_FLAG(RCC_FLAG_MSIRDY) == 0U)
 8002368:	4bca      	ldr	r3, [pc, #808]	; (8002694 <HAL_RCC_OscConfig+0x67c>)
 800236a:	681a      	ldr	r2, [r3, #0]
 800236c:	2380      	movs	r3, #128	; 0x80
 800236e:	009b      	lsls	r3, r3, #2
 8002370:	4013      	ands	r3, r2
 8002372:	d0e2      	beq.n	800233a <HAL_RCC_OscConfig+0x322>
        /* Check MSICalibrationValue and MSIClockRange input parameters */
        assert_param(IS_RCC_MSICALIBRATION_VALUE(RCC_OscInitStruct->MSICalibrationValue));
        assert_param(IS_RCC_MSI_CLOCK_RANGE(RCC_OscInitStruct->MSIClockRange));

        /* Selects the Multiple Speed oscillator (MSI) clock range .*/
        __HAL_RCC_MSI_RANGE_CONFIG(RCC_OscInitStruct->MSIClockRange);
 8002374:	4bc7      	ldr	r3, [pc, #796]	; (8002694 <HAL_RCC_OscConfig+0x67c>)
 8002376:	685b      	ldr	r3, [r3, #4]
 8002378:	4ac7      	ldr	r2, [pc, #796]	; (8002698 <HAL_RCC_OscConfig+0x680>)
 800237a:	4013      	ands	r3, r2
 800237c:	0019      	movs	r1, r3
 800237e:	687b      	ldr	r3, [r7, #4]
 8002380:	6a1a      	ldr	r2, [r3, #32]
 8002382:	4bc4      	ldr	r3, [pc, #784]	; (8002694 <HAL_RCC_OscConfig+0x67c>)
 8002384:	430a      	orrs	r2, r1
 8002386:	605a      	str	r2, [r3, #4]
         /* Adjusts the Multiple Speed oscillator (MSI) calibration value.*/
        __HAL_RCC_MSI_CALIBRATIONVALUE_ADJUST(RCC_OscInitStruct->MSICalibrationValue);
 8002388:	4bc2      	ldr	r3, [pc, #776]	; (8002694 <HAL_RCC_OscConfig+0x67c>)
 800238a:	685b      	ldr	r3, [r3, #4]
 800238c:	021b      	lsls	r3, r3, #8
 800238e:	0a19      	lsrs	r1, r3, #8
 8002390:	687b      	ldr	r3, [r7, #4]
 8002392:	69db      	ldr	r3, [r3, #28]
 8002394:	061a      	lsls	r2, r3, #24
 8002396:	4bbf      	ldr	r3, [pc, #764]	; (8002694 <HAL_RCC_OscConfig+0x67c>)
 8002398:	430a      	orrs	r2, r1
 800239a:	605a      	str	r2, [r3, #4]
 800239c:	e019      	b.n	80023d2 <HAL_RCC_OscConfig+0x3ba>
      }
      else
      {
        /* Disable the Multi Speed oscillator (MSI). */
        __HAL_RCC_MSI_DISABLE();
 800239e:	4bbd      	ldr	r3, [pc, #756]	; (8002694 <HAL_RCC_OscConfig+0x67c>)
 80023a0:	681a      	ldr	r2, [r3, #0]
 80023a2:	4bbc      	ldr	r3, [pc, #752]	; (8002694 <HAL_RCC_OscConfig+0x67c>)
 80023a4:	49bd      	ldr	r1, [pc, #756]	; (800269c <HAL_RCC_OscConfig+0x684>)
 80023a6:	400a      	ands	r2, r1
 80023a8:	601a      	str	r2, [r3, #0]

        /* Get Start Tick */
        tickstart = HAL_GetTick();
 80023aa:	f7fe fc97 	bl	8000cdc <HAL_GetTick>
 80023ae:	0003      	movs	r3, r0
 80023b0:	617b      	str	r3, [r7, #20]

        /* Wait till MSI is ready */
        while(__HAL_RCC_GET_FLAG(RCC_FLAG_MSIRDY) != 0U)
 80023b2:	e008      	b.n	80023c6 <HAL_RCC_OscConfig+0x3ae>
        {
          if((HAL_GetTick() - tickstart) > MSI_TIMEOUT_VALUE)
 80023b4:	f7fe fc92 	bl	8000cdc <HAL_GetTick>
 80023b8:	0002      	movs	r2, r0
 80023ba:	697b      	ldr	r3, [r7, #20]
 80023bc:	1ad3      	subs	r3, r2, r3
 80023be:	2b02      	cmp	r3, #2
 80023c0:	d901      	bls.n	80023c6 <HAL_RCC_OscConfig+0x3ae>
          {
            return HAL_TIMEOUT;
 80023c2:	2303      	movs	r3, #3
 80023c4:	e19c      	b.n	8002700 <HAL_RCC_OscConfig+0x6e8>
        while(__HAL_RCC_GET_FLAG(RCC_FLAG_MSIRDY) != 0U)
 80023c6:	4bb3      	ldr	r3, [pc, #716]	; (8002694 <HAL_RCC_OscConfig+0x67c>)
 80023c8:	681a      	ldr	r2, [r3, #0]
 80023ca:	2380      	movs	r3, #128	; 0x80
 80023cc:	009b      	lsls	r3, r3, #2
 80023ce:	4013      	ands	r3, r2
 80023d0:	d1f0      	bne.n	80023b4 <HAL_RCC_OscConfig+0x39c>
        }
      }
    }
  }
  /*------------------------------ LSI Configuration -------------------------*/
  if(((RCC_OscInitStruct->OscillatorType) & RCC_OSCILLATORTYPE_LSI) == RCC_OSCILLATORTYPE_LSI)
 80023d2:	687b      	ldr	r3, [r7, #4]
 80023d4:	681b      	ldr	r3, [r3, #0]
 80023d6:	2208      	movs	r2, #8
 80023d8:	4013      	ands	r3, r2
 80023da:	d036      	beq.n	800244a <HAL_RCC_OscConfig+0x432>
  {
    /* Check the parameters */
    assert_param(IS_RCC_LSI(RCC_OscInitStruct->LSIState));

    /* Check the LSI State */
    if(RCC_OscInitStruct->LSIState != RCC_LSI_OFF)
 80023dc:	687b      	ldr	r3, [r7, #4]
 80023de:	695b      	ldr	r3, [r3, #20]
 80023e0:	2b00      	cmp	r3, #0
 80023e2:	d019      	beq.n	8002418 <HAL_RCC_OscConfig+0x400>
    {
      /* Enable the Internal Low Speed oscillator (LSI). */
      __HAL_RCC_LSI_ENABLE();
 80023e4:	4bab      	ldr	r3, [pc, #684]	; (8002694 <HAL_RCC_OscConfig+0x67c>)
 80023e6:	6d1a      	ldr	r2, [r3, #80]	; 0x50
 80023e8:	4baa      	ldr	r3, [pc, #680]	; (8002694 <HAL_RCC_OscConfig+0x67c>)
 80023ea:	2101      	movs	r1, #1
 80023ec:	430a      	orrs	r2, r1
 80023ee:	651a      	str	r2, [r3, #80]	; 0x50

      /* Get Start Tick */
      tickstart = HAL_GetTick();
 80023f0:	f7fe fc74 	bl	8000cdc <HAL_GetTick>
 80023f4:	0003      	movs	r3, r0
 80023f6:	617b      	str	r3, [r7, #20]

      /* Wait till LSI is ready */
      while(__HAL_RCC_GET_FLAG(RCC_FLAG_LSIRDY) == 0U)
 80023f8:	e008      	b.n	800240c <HAL_RCC_OscConfig+0x3f4>
      {
        if((HAL_GetTick() - tickstart ) > LSI_TIMEOUT_VALUE)
 80023fa:	f7fe fc6f 	bl	8000cdc <HAL_GetTick>
 80023fe:	0002      	movs	r2, r0
 8002400:	697b      	ldr	r3, [r7, #20]
 8002402:	1ad3      	subs	r3, r2, r3
 8002404:	2b02      	cmp	r3, #2
 8002406:	d901      	bls.n	800240c <HAL_RCC_OscConfig+0x3f4>
        {
          return HAL_TIMEOUT;
 8002408:	2303      	movs	r3, #3
 800240a:	e179      	b.n	8002700 <HAL_RCC_OscConfig+0x6e8>
      while(__HAL_RCC_GET_FLAG(RCC_FLAG_LSIRDY) == 0U)
 800240c:	4ba1      	ldr	r3, [pc, #644]	; (8002694 <HAL_RCC_OscConfig+0x67c>)
 800240e:	6d1b      	ldr	r3, [r3, #80]	; 0x50
 8002410:	2202      	movs	r2, #2
 8002412:	4013      	ands	r3, r2
 8002414:	d0f1      	beq.n	80023fa <HAL_RCC_OscConfig+0x3e2>
 8002416:	e018      	b.n	800244a <HAL_RCC_OscConfig+0x432>
      }
    }
    else
    {
      /* Disable the Internal Low Speed oscillator (LSI). */
      __HAL_RCC_LSI_DISABLE();
 8002418:	4b9e      	ldr	r3, [pc, #632]	; (8002694 <HAL_RCC_OscConfig+0x67c>)
 800241a:	6d1a      	ldr	r2, [r3, #80]	; 0x50
 800241c:	4b9d      	ldr	r3, [pc, #628]	; (8002694 <HAL_RCC_OscConfig+0x67c>)
 800241e:	2101      	movs	r1, #1
 8002420:	438a      	bics	r2, r1
 8002422:	651a      	str	r2, [r3, #80]	; 0x50

      /* Get Start Tick */
      tickstart = HAL_GetTick();
 8002424:	f7fe fc5a 	bl	8000cdc <HAL_GetTick>
 8002428:	0003      	movs	r3, r0
 800242a:	617b      	str	r3, [r7, #20]

      /* Wait till LSI is disabled */
      while(__HAL_RCC_GET_FLAG(RCC_FLAG_LSIRDY) != 0U)
 800242c:	e008      	b.n	8002440 <HAL_RCC_OscConfig+0x428>
      {
        if((HAL_GetTick() - tickstart ) > LSI_TIMEOUT_VALUE)
 800242e:	f7fe fc55 	bl	8000cdc <HAL_GetTick>
 8002432:	0002      	movs	r2, r0
 8002434:	697b      	ldr	r3, [r7, #20]
 8002436:	1ad3      	subs	r3, r2, r3
 8002438:	2b02      	cmp	r3, #2
 800243a:	d901      	bls.n	8002440 <HAL_RCC_OscConfig+0x428>
        {
          return HAL_TIMEOUT;
 800243c:	2303      	movs	r3, #3
 800243e:	e15f      	b.n	8002700 <HAL_RCC_OscConfig+0x6e8>
      while(__HAL_RCC_GET_FLAG(RCC_FLAG_LSIRDY) != 0U)
 8002440:	4b94      	ldr	r3, [pc, #592]	; (8002694 <HAL_RCC_OscConfig+0x67c>)
 8002442:	6d1b      	ldr	r3, [r3, #80]	; 0x50
 8002444:	2202      	movs	r2, #2
 8002446:	4013      	ands	r3, r2
 8002448:	d1f1      	bne.n	800242e <HAL_RCC_OscConfig+0x416>
        }
      }
    }
  }
  /*------------------------------ LSE Configuration -------------------------*/
  if(((RCC_OscInitStruct->OscillatorType) & RCC_OSCILLATORTYPE_LSE) == RCC_OSCILLATORTYPE_LSE)
 800244a:	687b      	ldr	r3, [r7, #4]
 800244c:	681b      	ldr	r3, [r3, #0]
 800244e:	2204      	movs	r2, #4
 8002450:	4013      	ands	r3, r2
 8002452:	d100      	bne.n	8002456 <HAL_RCC_OscConfig+0x43e>
 8002454:	e0af      	b.n	80025b6 <HAL_RCC_OscConfig+0x59e>
  {
    FlagStatus       pwrclkchanged = RESET;
 8002456:	2323      	movs	r3, #35	; 0x23
 8002458:	18fb      	adds	r3, r7, r3
 800245a:	2200      	movs	r2, #0
 800245c:	701a      	strb	r2, [r3, #0]
    /* Check the parameters */
    assert_param(IS_RCC_LSE(RCC_OscInitStruct->LSEState));

    /* Update LSE configuration in Backup Domain control register    */
    /* Requires to enable write access to Backup Domain of necessary */
    if(__HAL_RCC_PWR_IS_CLK_DISABLED())
 800245e:	4b8d      	ldr	r3, [pc, #564]	; (8002694 <HAL_RCC_OscConfig+0x67c>)
 8002460:	6b9a      	ldr	r2, [r3, #56]	; 0x38
 8002462:	2380      	movs	r3, #128	; 0x80
 8002464:	055b      	lsls	r3, r3, #21
 8002466:	4013      	ands	r3, r2
 8002468:	d10a      	bne.n	8002480 <HAL_RCC_OscConfig+0x468>
    {
      __HAL_RCC_PWR_CLK_ENABLE();
 800246a:	4b8a      	ldr	r3, [pc, #552]	; (8002694 <HAL_RCC_OscConfig+0x67c>)
 800246c:	6b9a      	ldr	r2, [r3, #56]	; 0x38
 800246e:	4b89      	ldr	r3, [pc, #548]	; (8002694 <HAL_RCC_OscConfig+0x67c>)
 8002470:	2180      	movs	r1, #128	; 0x80
 8002472:	0549      	lsls	r1, r1, #21
 8002474:	430a      	orrs	r2, r1
 8002476:	639a      	str	r2, [r3, #56]	; 0x38
      pwrclkchanged = SET;
 8002478:	2323      	movs	r3, #35	; 0x23
 800247a:	18fb      	adds	r3, r7, r3
 800247c:	2201      	movs	r2, #1
 800247e:	701a      	strb	r2, [r3, #0]
    }

    if(HAL_IS_BIT_CLR(PWR->CR, PWR_CR_DBP))
 8002480:	4b87      	ldr	r3, [pc, #540]	; (80026a0 <HAL_RCC_OscConfig+0x688>)
 8002482:	681a      	ldr	r2, [r3, #0]
 8002484:	2380      	movs	r3, #128	; 0x80
 8002486:	005b      	lsls	r3, r3, #1
 8002488:	4013      	ands	r3, r2
 800248a:	d11a      	bne.n	80024c2 <HAL_RCC_OscConfig+0x4aa>
    {
      /* Enable write access to Backup domain */
      SET_BIT(PWR->CR, PWR_CR_DBP);
 800248c:	4b84      	ldr	r3, [pc, #528]	; (80026a0 <HAL_RCC_OscConfig+0x688>)
 800248e:	681a      	ldr	r2, [r3, #0]
 8002490:	4b83      	ldr	r3, [pc, #524]	; (80026a0 <HAL_RCC_OscConfig+0x688>)
 8002492:	2180      	movs	r1, #128	; 0x80
 8002494:	0049      	lsls	r1, r1, #1
 8002496:	430a      	orrs	r2, r1
 8002498:	601a      	str	r2, [r3, #0]

      /* Wait for Backup domain Write protection disable */
      tickstart = HAL_GetTick();
 800249a:	f7fe fc1f 	bl	8000cdc <HAL_GetTick>
 800249e:	0003      	movs	r3, r0
 80024a0:	617b      	str	r3, [r7, #20]

      while(HAL_IS_BIT_CLR(PWR->CR, PWR_CR_DBP))
 80024a2:	e008      	b.n	80024b6 <HAL_RCC_OscConfig+0x49e>
      {
        if((HAL_GetTick() - tickstart) > RCC_DBP_TIMEOUT_VALUE)
 80024a4:	f7fe fc1a 	bl	8000cdc <HAL_GetTick>
 80024a8:	0002      	movs	r2, r0
 80024aa:	697b      	ldr	r3, [r7, #20]
 80024ac:	1ad3      	subs	r3, r2, r3
 80024ae:	2b64      	cmp	r3, #100	; 0x64
 80024b0:	d901      	bls.n	80024b6 <HAL_RCC_OscConfig+0x49e>
        {
          return HAL_TIMEOUT;
 80024b2:	2303      	movs	r3, #3
 80024b4:	e124      	b.n	8002700 <HAL_RCC_OscConfig+0x6e8>
      while(HAL_IS_BIT_CLR(PWR->CR, PWR_CR_DBP))
 80024b6:	4b7a      	ldr	r3, [pc, #488]	; (80026a0 <HAL_RCC_OscConfig+0x688>)
 80024b8:	681a      	ldr	r2, [r3, #0]
 80024ba:	2380      	movs	r3, #128	; 0x80
 80024bc:	005b      	lsls	r3, r3, #1
 80024be:	4013      	ands	r3, r2
 80024c0:	d0f0      	beq.n	80024a4 <HAL_RCC_OscConfig+0x48c>
        }
      }
    }

    /* Set the new LSE configuration -----------------------------------------*/
    __HAL_RCC_LSE_CONFIG(RCC_OscInitStruct->LSEState);
 80024c2:	687b      	ldr	r3, [r7, #4]
 80024c4:	689a      	ldr	r2, [r3, #8]
 80024c6:	2380      	movs	r3, #128	; 0x80
 80024c8:	005b      	lsls	r3, r3, #1
 80024ca:	429a      	cmp	r2, r3
 80024cc:	d107      	bne.n	80024de <HAL_RCC_OscConfig+0x4c6>
 80024ce:	4b71      	ldr	r3, [pc, #452]	; (8002694 <HAL_RCC_OscConfig+0x67c>)
 80024d0:	6d1a      	ldr	r2, [r3, #80]	; 0x50
 80024d2:	4b70      	ldr	r3, [pc, #448]	; (8002694 <HAL_RCC_OscConfig+0x67c>)
 80024d4:	2180      	movs	r1, #128	; 0x80
 80024d6:	0049      	lsls	r1, r1, #1
 80024d8:	430a      	orrs	r2, r1
 80024da:	651a      	str	r2, [r3, #80]	; 0x50
 80024dc:	e031      	b.n	8002542 <HAL_RCC_OscConfig+0x52a>
 80024de:	687b      	ldr	r3, [r7, #4]
 80024e0:	689b      	ldr	r3, [r3, #8]
 80024e2:	2b00      	cmp	r3, #0
 80024e4:	d10c      	bne.n	8002500 <HAL_RCC_OscConfig+0x4e8>
 80024e6:	4b6b      	ldr	r3, [pc, #428]	; (8002694 <HAL_RCC_OscConfig+0x67c>)
 80024e8:	6d1a      	ldr	r2, [r3, #80]	; 0x50
 80024ea:	4b6a      	ldr	r3, [pc, #424]	; (8002694 <HAL_RCC_OscConfig+0x67c>)
 80024ec:	496b      	ldr	r1, [pc, #428]	; (800269c <HAL_RCC_OscConfig+0x684>)
 80024ee:	400a      	ands	r2, r1
 80024f0:	651a      	str	r2, [r3, #80]	; 0x50
 80024f2:	4b68      	ldr	r3, [pc, #416]	; (8002694 <HAL_RCC_OscConfig+0x67c>)
 80024f4:	6d1a      	ldr	r2, [r3, #80]	; 0x50
 80024f6:	4b67      	ldr	r3, [pc, #412]	; (8002694 <HAL_RCC_OscConfig+0x67c>)
 80024f8:	496a      	ldr	r1, [pc, #424]	; (80026a4 <HAL_RCC_OscConfig+0x68c>)
 80024fa:	400a      	ands	r2, r1
 80024fc:	651a      	str	r2, [r3, #80]	; 0x50
 80024fe:	e020      	b.n	8002542 <HAL_RCC_OscConfig+0x52a>
 8002500:	687b      	ldr	r3, [r7, #4]
 8002502:	689a      	ldr	r2, [r3, #8]
 8002504:	23a0      	movs	r3, #160	; 0xa0
 8002506:	00db      	lsls	r3, r3, #3
 8002508:	429a      	cmp	r2, r3
 800250a:	d10e      	bne.n	800252a <HAL_RCC_OscConfig+0x512>
 800250c:	4b61      	ldr	r3, [pc, #388]	; (8002694 <HAL_RCC_OscConfig+0x67c>)
 800250e:	6d1a      	ldr	r2, [r3, #80]	; 0x50
 8002510:	4b60      	ldr	r3, [pc, #384]	; (8002694 <HAL_RCC_OscConfig+0x67c>)
 8002512:	2180      	movs	r1, #128	; 0x80
 8002514:	00c9      	lsls	r1, r1, #3
 8002516:	430a      	orrs	r2, r1
 8002518:	651a      	str	r2, [r3, #80]	; 0x50
 800251a:	4b5e      	ldr	r3, [pc, #376]	; (8002694 <HAL_RCC_OscConfig+0x67c>)
 800251c:	6d1a      	ldr	r2, [r3, #80]	; 0x50
 800251e:	4b5d      	ldr	r3, [pc, #372]	; (8002694 <HAL_RCC_OscConfig+0x67c>)
 8002520:	2180      	movs	r1, #128	; 0x80
 8002522:	0049      	lsls	r1, r1, #1
 8002524:	430a      	orrs	r2, r1
 8002526:	651a      	str	r2, [r3, #80]	; 0x50
 8002528:	e00b      	b.n	8002542 <HAL_RCC_OscConfig+0x52a>
 800252a:	4b5a      	ldr	r3, [pc, #360]	; (8002694 <HAL_RCC_OscConfig+0x67c>)
 800252c:	6d1a      	ldr	r2, [r3, #80]	; 0x50
 800252e:	4b59      	ldr	r3, [pc, #356]	; (8002694 <HAL_RCC_OscConfig+0x67c>)
 8002530:	495a      	ldr	r1, [pc, #360]	; (800269c <HAL_RCC_OscConfig+0x684>)
 8002532:	400a      	ands	r2, r1
 8002534:	651a      	str	r2, [r3, #80]	; 0x50
 8002536:	4b57      	ldr	r3, [pc, #348]	; (8002694 <HAL_RCC_OscConfig+0x67c>)
 8002538:	6d1a      	ldr	r2, [r3, #80]	; 0x50
 800253a:	4b56      	ldr	r3, [pc, #344]	; (8002694 <HAL_RCC_OscConfig+0x67c>)
 800253c:	4959      	ldr	r1, [pc, #356]	; (80026a4 <HAL_RCC_OscConfig+0x68c>)
 800253e:	400a      	ands	r2, r1
 8002540:	651a      	str	r2, [r3, #80]	; 0x50
    /* Check the LSE State */
    if(RCC_OscInitStruct->LSEState != RCC_LSE_OFF)
 8002542:	687b      	ldr	r3, [r7, #4]
 8002544:	689b      	ldr	r3, [r3, #8]
 8002546:	2b00      	cmp	r3, #0
 8002548:	d015      	beq.n	8002576 <HAL_RCC_OscConfig+0x55e>
    {
      /* Get Start Tick */
      tickstart = HAL_GetTick();
 800254a:	f7fe fbc7 	bl	8000cdc <HAL_GetTick>
 800254e:	0003      	movs	r3, r0
 8002550:	617b      	str	r3, [r7, #20]

      /* Wait till LSE is ready */
      while(__HAL_RCC_GET_FLAG(RCC_FLAG_LSERDY) == 0U)
 8002552:	e009      	b.n	8002568 <HAL_RCC_OscConfig+0x550>
      {
        if((HAL_GetTick() - tickstart ) > RCC_LSE_TIMEOUT_VALUE)
 8002554:	f7fe fbc2 	bl	8000cdc <HAL_GetTick>
 8002558:	0002      	movs	r2, r0
 800255a:	697b      	ldr	r3, [r7, #20]
 800255c:	1ad3      	subs	r3, r2, r3
 800255e:	4a52      	ldr	r2, [pc, #328]	; (80026a8 <HAL_RCC_OscConfig+0x690>)
 8002560:	4293      	cmp	r3, r2
 8002562:	d901      	bls.n	8002568 <HAL_RCC_OscConfig+0x550>
        {
          return HAL_TIMEOUT;
 8002564:	2303      	movs	r3, #3
 8002566:	e0cb      	b.n	8002700 <HAL_RCC_OscConfig+0x6e8>
      while(__HAL_RCC_GET_FLAG(RCC_FLAG_LSERDY) == 0U)
 8002568:	4b4a      	ldr	r3, [pc, #296]	; (8002694 <HAL_RCC_OscConfig+0x67c>)
 800256a:	6d1a      	ldr	r2, [r3, #80]	; 0x50
 800256c:	2380      	movs	r3, #128	; 0x80
 800256e:	009b      	lsls	r3, r3, #2
 8002570:	4013      	ands	r3, r2
 8002572:	d0ef      	beq.n	8002554 <HAL_RCC_OscConfig+0x53c>
 8002574:	e014      	b.n	80025a0 <HAL_RCC_OscConfig+0x588>
      }
    }
    else
    {
      /* Get Start Tick */
      tickstart = HAL_GetTick();
 8002576:	f7fe fbb1 	bl	8000cdc <HAL_GetTick>
 800257a:	0003      	movs	r3, r0
 800257c:	617b      	str	r3, [r7, #20]

      /* Wait till LSE is disabled */
      while(__HAL_RCC_GET_FLAG(RCC_FLAG_LSERDY) != 0U)
 800257e:	e009      	b.n	8002594 <HAL_RCC_OscConfig+0x57c>
      {
        if((HAL_GetTick() - tickstart ) > RCC_LSE_TIMEOUT_VALUE)
 8002580:	f7fe fbac 	bl	8000cdc <HAL_GetTick>
 8002584:	0002      	movs	r2, r0
 8002586:	697b      	ldr	r3, [r7, #20]
 8002588:	1ad3      	subs	r3, r2, r3
 800258a:	4a47      	ldr	r2, [pc, #284]	; (80026a8 <HAL_RCC_OscConfig+0x690>)
 800258c:	4293      	cmp	r3, r2
 800258e:	d901      	bls.n	8002594 <HAL_RCC_OscConfig+0x57c>
        {
          return HAL_TIMEOUT;
 8002590:	2303      	movs	r3, #3
 8002592:	e0b5      	b.n	8002700 <HAL_RCC_OscConfig+0x6e8>
      while(__HAL_RCC_GET_FLAG(RCC_FLAG_LSERDY) != 0U)
 8002594:	4b3f      	ldr	r3, [pc, #252]	; (8002694 <HAL_RCC_OscConfig+0x67c>)
 8002596:	6d1a      	ldr	r2, [r3, #80]	; 0x50
 8002598:	2380      	movs	r3, #128	; 0x80
 800259a:	009b      	lsls	r3, r3, #2
 800259c:	4013      	ands	r3, r2
 800259e:	d1ef      	bne.n	8002580 <HAL_RCC_OscConfig+0x568>
        }
      }
    }

    /* Require to disable power clock if necessary */
    if(pwrclkchanged == SET)
 80025a0:	2323      	movs	r3, #35	; 0x23
 80025a2:	18fb      	adds	r3, r7, r3
 80025a4:	781b      	ldrb	r3, [r3, #0]
 80025a6:	2b01      	cmp	r3, #1
 80025a8:	d105      	bne.n	80025b6 <HAL_RCC_OscConfig+0x59e>
    {
      __HAL_RCC_PWR_CLK_DISABLE();
 80025aa:	4b3a      	ldr	r3, [pc, #232]	; (8002694 <HAL_RCC_OscConfig+0x67c>)
 80025ac:	6b9a      	ldr	r2, [r3, #56]	; 0x38
 80025ae:	4b39      	ldr	r3, [pc, #228]	; (8002694 <HAL_RCC_OscConfig+0x67c>)
 80025b0:	493e      	ldr	r1, [pc, #248]	; (80026ac <HAL_RCC_OscConfig+0x694>)
 80025b2:	400a      	ands	r2, r1
 80025b4:	639a      	str	r2, [r3, #56]	; 0x38
#endif /* RCC_HSI48_SUPPORT */

  /*-------------------------------- PLL Configuration -----------------------*/
  /* Check the parameters */
  assert_param(IS_RCC_PLL(RCC_OscInitStruct->PLL.PLLState));
  if ((RCC_OscInitStruct->PLL.PLLState) != RCC_PLL_NONE)
 80025b6:	687b      	ldr	r3, [r7, #4]
 80025b8:	6a5b      	ldr	r3, [r3, #36]	; 0x24
 80025ba:	2b00      	cmp	r3, #0
 80025bc:	d100      	bne.n	80025c0 <HAL_RCC_OscConfig+0x5a8>
 80025be:	e09e      	b.n	80026fe <HAL_RCC_OscConfig+0x6e6>
  {
    /* Check if the PLL is used as system clock or not */
    if(sysclk_source != RCC_SYSCLKSOURCE_STATUS_PLLCLK)
 80025c0:	69fb      	ldr	r3, [r7, #28]
 80025c2:	2b0c      	cmp	r3, #12
 80025c4:	d100      	bne.n	80025c8 <HAL_RCC_OscConfig+0x5b0>
 80025c6:	e077      	b.n	80026b8 <HAL_RCC_OscConfig+0x6a0>
    {
      if((RCC_OscInitStruct->PLL.PLLState) == RCC_PLL_ON)
 80025c8:	687b      	ldr	r3, [r7, #4]
 80025ca:	6a5b      	ldr	r3, [r3, #36]	; 0x24
 80025cc:	2b02      	cmp	r3, #2
 80025ce:	d145      	bne.n	800265c <HAL_RCC_OscConfig+0x644>
        assert_param(IS_RCC_PLLSOURCE(RCC_OscInitStruct->PLL.PLLSource));
        assert_param(IS_RCC_PLL_MUL(RCC_OscInitStruct->PLL.PLLMUL));
        assert_param(IS_RCC_PLL_DIV(RCC_OscInitStruct->PLL.PLLDIV));

        /* Disable the main PLL. */
        __HAL_RCC_PLL_DISABLE();
 80025d0:	4b30      	ldr	r3, [pc, #192]	; (8002694 <HAL_RCC_OscConfig+0x67c>)
 80025d2:	681a      	ldr	r2, [r3, #0]
 80025d4:	4b2f      	ldr	r3, [pc, #188]	; (8002694 <HAL_RCC_OscConfig+0x67c>)
 80025d6:	4936      	ldr	r1, [pc, #216]	; (80026b0 <HAL_RCC_OscConfig+0x698>)
 80025d8:	400a      	ands	r2, r1
 80025da:	601a      	str	r2, [r3, #0]

        /* Get Start Tick */
        tickstart = HAL_GetTick();
 80025dc:	f7fe fb7e 	bl	8000cdc <HAL_GetTick>
 80025e0:	0003      	movs	r3, r0
 80025e2:	617b      	str	r3, [r7, #20]

        /* Wait till PLL is disabled */
        while(__HAL_RCC_GET_FLAG(RCC_FLAG_PLLRDY)  != 0U)
 80025e4:	e008      	b.n	80025f8 <HAL_RCC_OscConfig+0x5e0>
        {
          if((HAL_GetTick() - tickstart ) > PLL_TIMEOUT_VALUE)
 80025e6:	f7fe fb79 	bl	8000cdc <HAL_GetTick>
 80025ea:	0002      	movs	r2, r0
 80025ec:	697b      	ldr	r3, [r7, #20]
 80025ee:	1ad3      	subs	r3, r2, r3
 80025f0:	2b02      	cmp	r3, #2
 80025f2:	d901      	bls.n	80025f8 <HAL_RCC_OscConfig+0x5e0>
          {
            return HAL_TIMEOUT;
 80025f4:	2303      	movs	r3, #3
 80025f6:	e083      	b.n	8002700 <HAL_RCC_OscConfig+0x6e8>
        while(__HAL_RCC_GET_FLAG(RCC_FLAG_PLLRDY)  != 0U)
 80025f8:	4b26      	ldr	r3, [pc, #152]	; (8002694 <HAL_RCC_OscConfig+0x67c>)
 80025fa:	681a      	ldr	r2, [r3, #0]
 80025fc:	2380      	movs	r3, #128	; 0x80
 80025fe:	049b      	lsls	r3, r3, #18
 8002600:	4013      	ands	r3, r2
 8002602:	d1f0      	bne.n	80025e6 <HAL_RCC_OscConfig+0x5ce>
          }
        }

        /* Configure the main PLL clock source, multiplication and division factors. */
        __HAL_RCC_PLL_CONFIG(RCC_OscInitStruct->PLL.PLLSource,
 8002604:	4b23      	ldr	r3, [pc, #140]	; (8002694 <HAL_RCC_OscConfig+0x67c>)
 8002606:	68db      	ldr	r3, [r3, #12]
 8002608:	4a2a      	ldr	r2, [pc, #168]	; (80026b4 <HAL_RCC_OscConfig+0x69c>)
 800260a:	4013      	ands	r3, r2
 800260c:	0019      	movs	r1, r3
 800260e:	687b      	ldr	r3, [r7, #4]
 8002610:	6a9a      	ldr	r2, [r3, #40]	; 0x28
 8002612:	687b      	ldr	r3, [r7, #4]
 8002614:	6adb      	ldr	r3, [r3, #44]	; 0x2c
 8002616:	431a      	orrs	r2, r3
 8002618:	687b      	ldr	r3, [r7, #4]
 800261a:	6b1b      	ldr	r3, [r3, #48]	; 0x30
 800261c:	431a      	orrs	r2, r3
 800261e:	4b1d      	ldr	r3, [pc, #116]	; (8002694 <HAL_RCC_OscConfig+0x67c>)
 8002620:	430a      	orrs	r2, r1
 8002622:	60da      	str	r2, [r3, #12]
                             RCC_OscInitStruct->PLL.PLLMUL,
                             RCC_OscInitStruct->PLL.PLLDIV);
        /* Enable the main PLL. */
        __HAL_RCC_PLL_ENABLE();
 8002624:	4b1b      	ldr	r3, [pc, #108]	; (8002694 <HAL_RCC_OscConfig+0x67c>)
 8002626:	681a      	ldr	r2, [r3, #0]
 8002628:	4b1a      	ldr	r3, [pc, #104]	; (8002694 <HAL_RCC_OscConfig+0x67c>)
 800262a:	2180      	movs	r1, #128	; 0x80
 800262c:	0449      	lsls	r1, r1, #17
 800262e:	430a      	orrs	r2, r1
 8002630:	601a      	str	r2, [r3, #0]

        /* Get Start Tick */
        tickstart = HAL_GetTick();
 8002632:	f7fe fb53 	bl	8000cdc <HAL_GetTick>
 8002636:	0003      	movs	r3, r0
 8002638:	617b      	str	r3, [r7, #20]

        /* Wait till PLL is ready */
        while(__HAL_RCC_GET_FLAG(RCC_FLAG_PLLRDY)  == 0U)
 800263a:	e008      	b.n	800264e <HAL_RCC_OscConfig+0x636>
        {
          if((HAL_GetTick() - tickstart ) > PLL_TIMEOUT_VALUE)
 800263c:	f7fe fb4e 	bl	8000cdc <HAL_GetTick>
 8002640:	0002      	movs	r2, r0
 8002642:	697b      	ldr	r3, [r7, #20]
 8002644:	1ad3      	subs	r3, r2, r3
 8002646:	2b02      	cmp	r3, #2
 8002648:	d901      	bls.n	800264e <HAL_RCC_OscConfig+0x636>
          {
            return HAL_TIMEOUT;
 800264a:	2303      	movs	r3, #3
 800264c:	e058      	b.n	8002700 <HAL_RCC_OscConfig+0x6e8>
        while(__HAL_RCC_GET_FLAG(RCC_FLAG_PLLRDY)  == 0U)
 800264e:	4b11      	ldr	r3, [pc, #68]	; (8002694 <HAL_RCC_OscConfig+0x67c>)
 8002650:	681a      	ldr	r2, [r3, #0]
 8002652:	2380      	movs	r3, #128	; 0x80
 8002654:	049b      	lsls	r3, r3, #18
 8002656:	4013      	ands	r3, r2
 8002658:	d0f0      	beq.n	800263c <HAL_RCC_OscConfig+0x624>
 800265a:	e050      	b.n	80026fe <HAL_RCC_OscConfig+0x6e6>
        }
      }
      else
      {
        /* Disable the main PLL. */
        __HAL_RCC_PLL_DISABLE();
 800265c:	4b0d      	ldr	r3, [pc, #52]	; (8002694 <HAL_RCC_OscConfig+0x67c>)
 800265e:	681a      	ldr	r2, [r3, #0]
 8002660:	4b0c      	ldr	r3, [pc, #48]	; (8002694 <HAL_RCC_OscConfig+0x67c>)
 8002662:	4913      	ldr	r1, [pc, #76]	; (80026b0 <HAL_RCC_OscConfig+0x698>)
 8002664:	400a      	ands	r2, r1
 8002666:	601a      	str	r2, [r3, #0]

        /* Get Start Tick */
        tickstart = HAL_GetTick();
 8002668:	f7fe fb38 	bl	8000cdc <HAL_GetTick>
 800266c:	0003      	movs	r3, r0
 800266e:	617b      	str	r3, [r7, #20]

        /* Wait till PLL is disabled */
        while(__HAL_RCC_GET_FLAG(RCC_FLAG_PLLRDY)  != 0U)
 8002670:	e008      	b.n	8002684 <HAL_RCC_OscConfig+0x66c>
        {
          if((HAL_GetTick() - tickstart ) > PLL_TIMEOUT_VALUE)
 8002672:	f7fe fb33 	bl	8000cdc <HAL_GetTick>
 8002676:	0002      	movs	r2, r0
 8002678:	697b      	ldr	r3, [r7, #20]
 800267a:	1ad3      	subs	r3, r2, r3
 800267c:	2b02      	cmp	r3, #2
 800267e:	d901      	bls.n	8002684 <HAL_RCC_OscConfig+0x66c>
          {
            return HAL_TIMEOUT;
 8002680:	2303      	movs	r3, #3
 8002682:	e03d      	b.n	8002700 <HAL_RCC_OscConfig+0x6e8>
        while(__HAL_RCC_GET_FLAG(RCC_FLAG_PLLRDY)  != 0U)
 8002684:	4b03      	ldr	r3, [pc, #12]	; (8002694 <HAL_RCC_OscConfig+0x67c>)
 8002686:	681a      	ldr	r2, [r3, #0]
 8002688:	2380      	movs	r3, #128	; 0x80
 800268a:	049b      	lsls	r3, r3, #18
 800268c:	4013      	ands	r3, r2
 800268e:	d1f0      	bne.n	8002672 <HAL_RCC_OscConfig+0x65a>
 8002690:	e035      	b.n	80026fe <HAL_RCC_OscConfig+0x6e6>
 8002692:	46c0      	nop			; (mov r8, r8)
 8002694:	40021000 	.word	0x40021000
 8002698:	ffff1fff 	.word	0xffff1fff
 800269c:	fffffeff 	.word	0xfffffeff
 80026a0:	40007000 	.word	0x40007000
 80026a4:	fffffbff 	.word	0xfffffbff
 80026a8:	00001388 	.word	0x00001388
 80026ac:	efffffff 	.word	0xefffffff
 80026b0:	feffffff 	.word	0xfeffffff
 80026b4:	ff02ffff 	.word	0xff02ffff
      }
    }
    else
    {
      /* Check if there is a request to disable the PLL used as System clock source */
      if((RCC_OscInitStruct->PLL.PLLState) == RCC_PLL_OFF)
 80026b8:	687b      	ldr	r3, [r7, #4]
 80026ba:	6a5b      	ldr	r3, [r3, #36]	; 0x24
 80026bc:	2b01      	cmp	r3, #1
 80026be:	d101      	bne.n	80026c4 <HAL_RCC_OscConfig+0x6ac>
      {
        return HAL_ERROR;
 80026c0:	2301      	movs	r3, #1
 80026c2:	e01d      	b.n	8002700 <HAL_RCC_OscConfig+0x6e8>
      }
      else
      {
        /* Do not return HAL_ERROR if request repeats the current configuration */
        pll_config = RCC->CFGR;
 80026c4:	4b10      	ldr	r3, [pc, #64]	; (8002708 <HAL_RCC_OscConfig+0x6f0>)
 80026c6:	68db      	ldr	r3, [r3, #12]
 80026c8:	61bb      	str	r3, [r7, #24]
        if((READ_BIT(pll_config, RCC_CFGR_PLLSRC) != RCC_OscInitStruct->PLL.PLLSource) ||
 80026ca:	69ba      	ldr	r2, [r7, #24]
 80026cc:	2380      	movs	r3, #128	; 0x80
 80026ce:	025b      	lsls	r3, r3, #9
 80026d0:	401a      	ands	r2, r3
 80026d2:	687b      	ldr	r3, [r7, #4]
 80026d4:	6a9b      	ldr	r3, [r3, #40]	; 0x28
 80026d6:	429a      	cmp	r2, r3
 80026d8:	d10f      	bne.n	80026fa <HAL_RCC_OscConfig+0x6e2>
           (READ_BIT(pll_config, RCC_CFGR_PLLMUL) != RCC_OscInitStruct->PLL.PLLMUL) ||
 80026da:	69ba      	ldr	r2, [r7, #24]
 80026dc:	23f0      	movs	r3, #240	; 0xf0
 80026de:	039b      	lsls	r3, r3, #14
 80026e0:	401a      	ands	r2, r3
 80026e2:	687b      	ldr	r3, [r7, #4]
 80026e4:	6adb      	ldr	r3, [r3, #44]	; 0x2c
        if((READ_BIT(pll_config, RCC_CFGR_PLLSRC) != RCC_OscInitStruct->PLL.PLLSource) ||
 80026e6:	429a      	cmp	r2, r3
 80026e8:	d107      	bne.n	80026fa <HAL_RCC_OscConfig+0x6e2>
           (READ_BIT(pll_config, RCC_CFGR_PLLDIV) != RCC_OscInitStruct->PLL.PLLDIV))
 80026ea:	69ba      	ldr	r2, [r7, #24]
 80026ec:	23c0      	movs	r3, #192	; 0xc0
 80026ee:	041b      	lsls	r3, r3, #16
 80026f0:	401a      	ands	r2, r3
 80026f2:	687b      	ldr	r3, [r7, #4]
 80026f4:	6b1b      	ldr	r3, [r3, #48]	; 0x30
           (READ_BIT(pll_config, RCC_CFGR_PLLMUL) != RCC_OscInitStruct->PLL.PLLMUL) ||
 80026f6:	429a      	cmp	r2, r3
 80026f8:	d001      	beq.n	80026fe <HAL_RCC_OscConfig+0x6e6>
        {
          return HAL_ERROR;
 80026fa:	2301      	movs	r3, #1
 80026fc:	e000      	b.n	8002700 <HAL_RCC_OscConfig+0x6e8>
        }
      }
    }
  }

  return HAL_OK;
 80026fe:	2300      	movs	r3, #0
}
 8002700:	0018      	movs	r0, r3
 8002702:	46bd      	mov	sp, r7
 8002704:	b00a      	add	sp, #40	; 0x28
 8002706:	bdb0      	pop	{r4, r5, r7, pc}
 8002708:	40021000 	.word	0x40021000

0800270c <HAL_RCC_ClockConfig>:
  *         HPRE[3:0] bits to ensure that HCLK not exceed the maximum allowed frequency
  *         (for more details refer to section above "Initialization/de-initialization functions")
  * @retval HAL status
  */
HAL_StatusTypeDef HAL_RCC_ClockConfig(RCC_ClkInitTypeDef  *RCC_ClkInitStruct, uint32_t FLatency)
{
 800270c:	b5b0      	push	{r4, r5, r7, lr}
 800270e:	b084      	sub	sp, #16
 8002710:	af00      	add	r7, sp, #0
 8002712:	6078      	str	r0, [r7, #4]
 8002714:	6039      	str	r1, [r7, #0]
  uint32_t tickstart;
  HAL_StatusTypeDef status;

  /* Check the parameters */
  if(RCC_ClkInitStruct == NULL)
 8002716:	687b      	ldr	r3, [r7, #4]
 8002718:	2b00      	cmp	r3, #0
 800271a:	d101      	bne.n	8002720 <HAL_RCC_ClockConfig+0x14>
  {
    return HAL_ERROR;
 800271c:	2301      	movs	r3, #1
 800271e:	e10d      	b.n	800293c <HAL_RCC_ClockConfig+0x230>
  /* To correctly read data from FLASH memory, the number of wait states (LATENCY)
  must be correctly programmed according to the frequency of the CPU clock
  (HCLK) and the supply voltage of the device. */

  /* Increasing the number of wait states because of higher CPU frequency */
  if(FLatency > __HAL_FLASH_GET_LATENCY())
 8002720:	4b88      	ldr	r3, [pc, #544]	; (8002944 <HAL_RCC_ClockConfig+0x238>)
 8002722:	681b      	ldr	r3, [r3, #0]
 8002724:	2201      	movs	r2, #1
 8002726:	4013      	ands	r3, r2
 8002728:	683a      	ldr	r2, [r7, #0]
 800272a:	429a      	cmp	r2, r3
 800272c:	d911      	bls.n	8002752 <HAL_RCC_ClockConfig+0x46>
  {
    /* Program the new number of wait states to the LATENCY bits in the FLASH_ACR register */
    __HAL_FLASH_SET_LATENCY(FLatency);
 800272e:	4b85      	ldr	r3, [pc, #532]	; (8002944 <HAL_RCC_ClockConfig+0x238>)
 8002730:	681b      	ldr	r3, [r3, #0]
 8002732:	2201      	movs	r2, #1
 8002734:	4393      	bics	r3, r2
 8002736:	0019      	movs	r1, r3
 8002738:	4b82      	ldr	r3, [pc, #520]	; (8002944 <HAL_RCC_ClockConfig+0x238>)
 800273a:	683a      	ldr	r2, [r7, #0]
 800273c:	430a      	orrs	r2, r1
 800273e:	601a      	str	r2, [r3, #0]

    /* Check that the new number of wait states is taken into account to access the Flash
    memory by reading the FLASH_ACR register */
    if(__HAL_FLASH_GET_LATENCY() != FLatency)
 8002740:	4b80      	ldr	r3, [pc, #512]	; (8002944 <HAL_RCC_ClockConfig+0x238>)
 8002742:	681b      	ldr	r3, [r3, #0]
 8002744:	2201      	movs	r2, #1
 8002746:	4013      	ands	r3, r2
 8002748:	683a      	ldr	r2, [r7, #0]
 800274a:	429a      	cmp	r2, r3
 800274c:	d001      	beq.n	8002752 <HAL_RCC_ClockConfig+0x46>
    {
      return HAL_ERROR;
 800274e:	2301      	movs	r3, #1
 8002750:	e0f4      	b.n	800293c <HAL_RCC_ClockConfig+0x230>
    }
  }

  /*-------------------------- HCLK Configuration --------------------------*/
  if(((RCC_ClkInitStruct->ClockType) & RCC_CLOCKTYPE_HCLK) == RCC_CLOCKTYPE_HCLK)
 8002752:	687b      	ldr	r3, [r7, #4]
 8002754:	681b      	ldr	r3, [r3, #0]
 8002756:	2202      	movs	r2, #2
 8002758:	4013      	ands	r3, r2
 800275a:	d009      	beq.n	8002770 <HAL_RCC_ClockConfig+0x64>
  {
    assert_param(IS_RCC_HCLK(RCC_ClkInitStruct->AHBCLKDivider));
    MODIFY_REG(RCC->CFGR, RCC_CFGR_HPRE, RCC_ClkInitStruct->AHBCLKDivider);
 800275c:	4b7a      	ldr	r3, [pc, #488]	; (8002948 <HAL_RCC_ClockConfig+0x23c>)
 800275e:	68db      	ldr	r3, [r3, #12]
 8002760:	22f0      	movs	r2, #240	; 0xf0
 8002762:	4393      	bics	r3, r2
 8002764:	0019      	movs	r1, r3
 8002766:	687b      	ldr	r3, [r7, #4]
 8002768:	689a      	ldr	r2, [r3, #8]
 800276a:	4b77      	ldr	r3, [pc, #476]	; (8002948 <HAL_RCC_ClockConfig+0x23c>)
 800276c:	430a      	orrs	r2, r1
 800276e:	60da      	str	r2, [r3, #12]
  }

  /*------------------------- SYSCLK Configuration ---------------------------*/
  if(((RCC_ClkInitStruct->ClockType) & RCC_CLOCKTYPE_SYSCLK) == RCC_CLOCKTYPE_SYSCLK)
 8002770:	687b      	ldr	r3, [r7, #4]
 8002772:	681b      	ldr	r3, [r3, #0]
 8002774:	2201      	movs	r2, #1
 8002776:	4013      	ands	r3, r2
 8002778:	d100      	bne.n	800277c <HAL_RCC_ClockConfig+0x70>
 800277a:	e089      	b.n	8002890 <HAL_RCC_ClockConfig+0x184>
  {
    assert_param(IS_RCC_SYSCLKSOURCE(RCC_ClkInitStruct->SYSCLKSource));

    /* HSE is selected as System Clock Source */
    if(RCC_ClkInitStruct->SYSCLKSource == RCC_SYSCLKSOURCE_HSE)
 800277c:	687b      	ldr	r3, [r7, #4]
 800277e:	685b      	ldr	r3, [r3, #4]
 8002780:	2b02      	cmp	r3, #2
 8002782:	d107      	bne.n	8002794 <HAL_RCC_ClockConfig+0x88>
    {
      /* Check the HSE ready flag */
      if(__HAL_RCC_GET_FLAG(RCC_FLAG_HSERDY) == 0U)
 8002784:	4b70      	ldr	r3, [pc, #448]	; (8002948 <HAL_RCC_ClockConfig+0x23c>)
 8002786:	681a      	ldr	r2, [r3, #0]
 8002788:	2380      	movs	r3, #128	; 0x80
 800278a:	029b      	lsls	r3, r3, #10
 800278c:	4013      	ands	r3, r2
 800278e:	d120      	bne.n	80027d2 <HAL_RCC_ClockConfig+0xc6>
      {
        return HAL_ERROR;
 8002790:	2301      	movs	r3, #1
 8002792:	e0d3      	b.n	800293c <HAL_RCC_ClockConfig+0x230>
      }
    }
    /* PLL is selected as System Clock Source */
    else if(RCC_ClkInitStruct->SYSCLKSource == RCC_SYSCLKSOURCE_PLLCLK)
 8002794:	687b      	ldr	r3, [r7, #4]
 8002796:	685b      	ldr	r3, [r3, #4]
 8002798:	2b03      	cmp	r3, #3
 800279a:	d107      	bne.n	80027ac <HAL_RCC_ClockConfig+0xa0>
    {
      /* Check the PLL ready flag */
      if(__HAL_RCC_GET_FLAG(RCC_FLAG_PLLRDY) == 0U)
 800279c:	4b6a      	ldr	r3, [pc, #424]	; (8002948 <HAL_RCC_ClockConfig+0x23c>)
 800279e:	681a      	ldr	r2, [r3, #0]
 80027a0:	2380      	movs	r3, #128	; 0x80
 80027a2:	049b      	lsls	r3, r3, #18
 80027a4:	4013      	ands	r3, r2
 80027a6:	d114      	bne.n	80027d2 <HAL_RCC_ClockConfig+0xc6>
      {
        return HAL_ERROR;
 80027a8:	2301      	movs	r3, #1
 80027aa:	e0c7      	b.n	800293c <HAL_RCC_ClockConfig+0x230>
      }
    }
    /* HSI is selected as System Clock Source */
    else if(RCC_ClkInitStruct->SYSCLKSource == RCC_SYSCLKSOURCE_HSI)
 80027ac:	687b      	ldr	r3, [r7, #4]
 80027ae:	685b      	ldr	r3, [r3, #4]
 80027b0:	2b01      	cmp	r3, #1
 80027b2:	d106      	bne.n	80027c2 <HAL_RCC_ClockConfig+0xb6>
    {
      /* Check the HSI ready flag */
      if(__HAL_RCC_GET_FLAG(RCC_FLAG_HSIRDY) == 0U)
 80027b4:	4b64      	ldr	r3, [pc, #400]	; (8002948 <HAL_RCC_ClockConfig+0x23c>)
 80027b6:	681b      	ldr	r3, [r3, #0]
 80027b8:	2204      	movs	r2, #4
 80027ba:	4013      	ands	r3, r2
 80027bc:	d109      	bne.n	80027d2 <HAL_RCC_ClockConfig+0xc6>
      {
        return HAL_ERROR;
 80027be:	2301      	movs	r3, #1
 80027c0:	e0bc      	b.n	800293c <HAL_RCC_ClockConfig+0x230>
    }
    /* MSI is selected as System Clock Source */
    else
    {
      /* Check the MSI ready flag */
      if(__HAL_RCC_GET_FLAG(RCC_FLAG_MSIRDY) == 0U)
 80027c2:	4b61      	ldr	r3, [pc, #388]	; (8002948 <HAL_RCC_ClockConfig+0x23c>)
 80027c4:	681a      	ldr	r2, [r3, #0]
 80027c6:	2380      	movs	r3, #128	; 0x80
 80027c8:	009b      	lsls	r3, r3, #2
 80027ca:	4013      	ands	r3, r2
 80027cc:	d101      	bne.n	80027d2 <HAL_RCC_ClockConfig+0xc6>
      {
        return HAL_ERROR;
 80027ce:	2301      	movs	r3, #1
 80027d0:	e0b4      	b.n	800293c <HAL_RCC_ClockConfig+0x230>
      }
    }
    __HAL_RCC_SYSCLK_CONFIG(RCC_ClkInitStruct->SYSCLKSource);
 80027d2:	4b5d      	ldr	r3, [pc, #372]	; (8002948 <HAL_RCC_ClockConfig+0x23c>)
 80027d4:	68db      	ldr	r3, [r3, #12]
 80027d6:	2203      	movs	r2, #3
 80027d8:	4393      	bics	r3, r2
 80027da:	0019      	movs	r1, r3
 80027dc:	687b      	ldr	r3, [r7, #4]
 80027de:	685a      	ldr	r2, [r3, #4]
 80027e0:	4b59      	ldr	r3, [pc, #356]	; (8002948 <HAL_RCC_ClockConfig+0x23c>)
 80027e2:	430a      	orrs	r2, r1
 80027e4:	60da      	str	r2, [r3, #12]

    /* Get Start Tick */
    tickstart = HAL_GetTick();
 80027e6:	f7fe fa79 	bl	8000cdc <HAL_GetTick>
 80027ea:	0003      	movs	r3, r0
 80027ec:	60fb      	str	r3, [r7, #12]

    if(RCC_ClkInitStruct->SYSCLKSource == RCC_SYSCLKSOURCE_HSE)
 80027ee:	687b      	ldr	r3, [r7, #4]
 80027f0:	685b      	ldr	r3, [r3, #4]
 80027f2:	2b02      	cmp	r3, #2
 80027f4:	d111      	bne.n	800281a <HAL_RCC_ClockConfig+0x10e>
    {
      while (__HAL_RCC_GET_SYSCLK_SOURCE() != RCC_SYSCLKSOURCE_STATUS_HSE)
 80027f6:	e009      	b.n	800280c <HAL_RCC_ClockConfig+0x100>
      {
        if((HAL_GetTick() - tickstart ) > CLOCKSWITCH_TIMEOUT_VALUE)
 80027f8:	f7fe fa70 	bl	8000cdc <HAL_GetTick>
 80027fc:	0002      	movs	r2, r0
 80027fe:	68fb      	ldr	r3, [r7, #12]
 8002800:	1ad3      	subs	r3, r2, r3
 8002802:	4a52      	ldr	r2, [pc, #328]	; (800294c <HAL_RCC_ClockConfig+0x240>)
 8002804:	4293      	cmp	r3, r2
 8002806:	d901      	bls.n	800280c <HAL_RCC_ClockConfig+0x100>
        {
          return HAL_TIMEOUT;
 8002808:	2303      	movs	r3, #3
 800280a:	e097      	b.n	800293c <HAL_RCC_ClockConfig+0x230>
      while (__HAL_RCC_GET_SYSCLK_SOURCE() != RCC_SYSCLKSOURCE_STATUS_HSE)
 800280c:	4b4e      	ldr	r3, [pc, #312]	; (8002948 <HAL_RCC_ClockConfig+0x23c>)
 800280e:	68db      	ldr	r3, [r3, #12]
 8002810:	220c      	movs	r2, #12
 8002812:	4013      	ands	r3, r2
 8002814:	2b08      	cmp	r3, #8
 8002816:	d1ef      	bne.n	80027f8 <HAL_RCC_ClockConfig+0xec>
 8002818:	e03a      	b.n	8002890 <HAL_RCC_ClockConfig+0x184>
        }
      }
    }
    else if(RCC_ClkInitStruct->SYSCLKSource == RCC_SYSCLKSOURCE_PLLCLK)
 800281a:	687b      	ldr	r3, [r7, #4]
 800281c:	685b      	ldr	r3, [r3, #4]
 800281e:	2b03      	cmp	r3, #3
 8002820:	d111      	bne.n	8002846 <HAL_RCC_ClockConfig+0x13a>
    {
      while (__HAL_RCC_GET_SYSCLK_SOURCE() != RCC_SYSCLKSOURCE_STATUS_PLLCLK)
 8002822:	e009      	b.n	8002838 <HAL_RCC_ClockConfig+0x12c>
      {
        if((HAL_GetTick() - tickstart ) > CLOCKSWITCH_TIMEOUT_VALUE)
 8002824:	f7fe fa5a 	bl	8000cdc <HAL_GetTick>
 8002828:	0002      	movs	r2, r0
 800282a:	68fb      	ldr	r3, [r7, #12]
 800282c:	1ad3      	subs	r3, r2, r3
 800282e:	4a47      	ldr	r2, [pc, #284]	; (800294c <HAL_RCC_ClockConfig+0x240>)
 8002830:	4293      	cmp	r3, r2
 8002832:	d901      	bls.n	8002838 <HAL_RCC_ClockConfig+0x12c>
        {
          return HAL_TIMEOUT;
 8002834:	2303      	movs	r3, #3
 8002836:	e081      	b.n	800293c <HAL_RCC_ClockConfig+0x230>
      while (__HAL_RCC_GET_SYSCLK_SOURCE() != RCC_SYSCLKSOURCE_STATUS_PLLCLK)
 8002838:	4b43      	ldr	r3, [pc, #268]	; (8002948 <HAL_RCC_ClockConfig+0x23c>)
 800283a:	68db      	ldr	r3, [r3, #12]
 800283c:	220c      	movs	r2, #12
 800283e:	4013      	ands	r3, r2
 8002840:	2b0c      	cmp	r3, #12
 8002842:	d1ef      	bne.n	8002824 <HAL_RCC_ClockConfig+0x118>
 8002844:	e024      	b.n	8002890 <HAL_RCC_ClockConfig+0x184>
        }
      }
    }
    else if(RCC_ClkInitStruct->SYSCLKSource == RCC_SYSCLKSOURCE_HSI)
 8002846:	687b      	ldr	r3, [r7, #4]
 8002848:	685b      	ldr	r3, [r3, #4]
 800284a:	2b01      	cmp	r3, #1
 800284c:	d11b      	bne.n	8002886 <HAL_RCC_ClockConfig+0x17a>
    {
      while (__HAL_RCC_GET_SYSCLK_SOURCE() != RCC_SYSCLKSOURCE_STATUS_HSI)
 800284e:	e009      	b.n	8002864 <HAL_RCC_ClockConfig+0x158>
      {
        if((HAL_GetTick() - tickstart ) > CLOCKSWITCH_TIMEOUT_VALUE)
 8002850:	f7fe fa44 	bl	8000cdc <HAL_GetTick>
 8002854:	0002      	movs	r2, r0
 8002856:	68fb      	ldr	r3, [r7, #12]
 8002858:	1ad3      	subs	r3, r2, r3
 800285a:	4a3c      	ldr	r2, [pc, #240]	; (800294c <HAL_RCC_ClockConfig+0x240>)
 800285c:	4293      	cmp	r3, r2
 800285e:	d901      	bls.n	8002864 <HAL_RCC_ClockConfig+0x158>
        {
          return HAL_TIMEOUT;
 8002860:	2303      	movs	r3, #3
 8002862:	e06b      	b.n	800293c <HAL_RCC_ClockConfig+0x230>
      while (__HAL_RCC_GET_SYSCLK_SOURCE() != RCC_SYSCLKSOURCE_STATUS_HSI)
 8002864:	4b38      	ldr	r3, [pc, #224]	; (8002948 <HAL_RCC_ClockConfig+0x23c>)
 8002866:	68db      	ldr	r3, [r3, #12]
 8002868:	220c      	movs	r2, #12
 800286a:	4013      	ands	r3, r2
 800286c:	2b04      	cmp	r3, #4
 800286e:	d1ef      	bne.n	8002850 <HAL_RCC_ClockConfig+0x144>
 8002870:	e00e      	b.n	8002890 <HAL_RCC_ClockConfig+0x184>
    }
    else
    {
      while(__HAL_RCC_GET_SYSCLK_SOURCE() != RCC_SYSCLKSOURCE_STATUS_MSI)
      {
        if((HAL_GetTick() - tickstart ) > CLOCKSWITCH_TIMEOUT_VALUE)
 8002872:	f7fe fa33 	bl	8000cdc <HAL_GetTick>
 8002876:	0002      	movs	r2, r0
 8002878:	68fb      	ldr	r3, [r7, #12]
 800287a:	1ad3      	subs	r3, r2, r3
 800287c:	4a33      	ldr	r2, [pc, #204]	; (800294c <HAL_RCC_ClockConfig+0x240>)
 800287e:	4293      	cmp	r3, r2
 8002880:	d901      	bls.n	8002886 <HAL_RCC_ClockConfig+0x17a>
        {
          return HAL_TIMEOUT;
 8002882:	2303      	movs	r3, #3
 8002884:	e05a      	b.n	800293c <HAL_RCC_ClockConfig+0x230>
      while(__HAL_RCC_GET_SYSCLK_SOURCE() != RCC_SYSCLKSOURCE_STATUS_MSI)
 8002886:	4b30      	ldr	r3, [pc, #192]	; (8002948 <HAL_RCC_ClockConfig+0x23c>)
 8002888:	68db      	ldr	r3, [r3, #12]
 800288a:	220c      	movs	r2, #12
 800288c:	4013      	ands	r3, r2
 800288e:	d1f0      	bne.n	8002872 <HAL_RCC_ClockConfig+0x166>
        }
      }
    }
  }
  /* Decreasing the number of wait states because of lower CPU frequency */
  if(FLatency < __HAL_FLASH_GET_LATENCY())
 8002890:	4b2c      	ldr	r3, [pc, #176]	; (8002944 <HAL_RCC_ClockConfig+0x238>)
 8002892:	681b      	ldr	r3, [r3, #0]
 8002894:	2201      	movs	r2, #1
 8002896:	4013      	ands	r3, r2
 8002898:	683a      	ldr	r2, [r7, #0]
 800289a:	429a      	cmp	r2, r3
 800289c:	d211      	bcs.n	80028c2 <HAL_RCC_ClockConfig+0x1b6>
  {
    /* Program the new number of wait states to the LATENCY bits in the FLASH_ACR register */
    __HAL_FLASH_SET_LATENCY(FLatency);
 800289e:	4b29      	ldr	r3, [pc, #164]	; (8002944 <HAL_RCC_ClockConfig+0x238>)
 80028a0:	681b      	ldr	r3, [r3, #0]
 80028a2:	2201      	movs	r2, #1
 80028a4:	4393      	bics	r3, r2
 80028a6:	0019      	movs	r1, r3
 80028a8:	4b26      	ldr	r3, [pc, #152]	; (8002944 <HAL_RCC_ClockConfig+0x238>)
 80028aa:	683a      	ldr	r2, [r7, #0]
 80028ac:	430a      	orrs	r2, r1
 80028ae:	601a      	str	r2, [r3, #0]

    /* Check that the new number of wait states is taken into account to access the Flash
    memory by reading the FLASH_ACR register */
    if(__HAL_FLASH_GET_LATENCY() != FLatency)
 80028b0:	4b24      	ldr	r3, [pc, #144]	; (8002944 <HAL_RCC_ClockConfig+0x238>)
 80028b2:	681b      	ldr	r3, [r3, #0]
 80028b4:	2201      	movs	r2, #1
 80028b6:	4013      	ands	r3, r2
 80028b8:	683a      	ldr	r2, [r7, #0]
 80028ba:	429a      	cmp	r2, r3
 80028bc:	d001      	beq.n	80028c2 <HAL_RCC_ClockConfig+0x1b6>
    {
      return HAL_ERROR;
 80028be:	2301      	movs	r3, #1
 80028c0:	e03c      	b.n	800293c <HAL_RCC_ClockConfig+0x230>
    }
  }

  /*-------------------------- PCLK1 Configuration ---------------------------*/
  if(((RCC_ClkInitStruct->ClockType) & RCC_CLOCKTYPE_PCLK1) == RCC_CLOCKTYPE_PCLK1)
 80028c2:	687b      	ldr	r3, [r7, #4]
 80028c4:	681b      	ldr	r3, [r3, #0]
 80028c6:	2204      	movs	r2, #4
 80028c8:	4013      	ands	r3, r2
 80028ca:	d009      	beq.n	80028e0 <HAL_RCC_ClockConfig+0x1d4>
  {
    assert_param(IS_RCC_PCLK(RCC_ClkInitStruct->APB1CLKDivider));
    MODIFY_REG(RCC->CFGR, RCC_CFGR_PPRE1, RCC_ClkInitStruct->APB1CLKDivider);
 80028cc:	4b1e      	ldr	r3, [pc, #120]	; (8002948 <HAL_RCC_ClockConfig+0x23c>)
 80028ce:	68db      	ldr	r3, [r3, #12]
 80028d0:	4a1f      	ldr	r2, [pc, #124]	; (8002950 <HAL_RCC_ClockConfig+0x244>)
 80028d2:	4013      	ands	r3, r2
 80028d4:	0019      	movs	r1, r3
 80028d6:	687b      	ldr	r3, [r7, #4]
 80028d8:	68da      	ldr	r2, [r3, #12]
 80028da:	4b1b      	ldr	r3, [pc, #108]	; (8002948 <HAL_RCC_ClockConfig+0x23c>)
 80028dc:	430a      	orrs	r2, r1
 80028de:	60da      	str	r2, [r3, #12]
  }

  /*-------------------------- PCLK2 Configuration ---------------------------*/
  if(((RCC_ClkInitStruct->ClockType) & RCC_CLOCKTYPE_PCLK2) == RCC_CLOCKTYPE_PCLK2)
 80028e0:	687b      	ldr	r3, [r7, #4]
 80028e2:	681b      	ldr	r3, [r3, #0]
 80028e4:	2208      	movs	r2, #8
 80028e6:	4013      	ands	r3, r2
 80028e8:	d00a      	beq.n	8002900 <HAL_RCC_ClockConfig+0x1f4>
  {
    assert_param(IS_RCC_PCLK(RCC_ClkInitStruct->APB2CLKDivider));
    MODIFY_REG(RCC->CFGR, RCC_CFGR_PPRE2, ((RCC_ClkInitStruct->APB2CLKDivider) << 3));
 80028ea:	4b17      	ldr	r3, [pc, #92]	; (8002948 <HAL_RCC_ClockConfig+0x23c>)
 80028ec:	68db      	ldr	r3, [r3, #12]
 80028ee:	4a19      	ldr	r2, [pc, #100]	; (8002954 <HAL_RCC_ClockConfig+0x248>)
 80028f0:	4013      	ands	r3, r2
 80028f2:	0019      	movs	r1, r3
 80028f4:	687b      	ldr	r3, [r7, #4]
 80028f6:	691b      	ldr	r3, [r3, #16]
 80028f8:	00da      	lsls	r2, r3, #3
 80028fa:	4b13      	ldr	r3, [pc, #76]	; (8002948 <HAL_RCC_ClockConfig+0x23c>)
 80028fc:	430a      	orrs	r2, r1
 80028fe:	60da      	str	r2, [r3, #12]
  }

  /* Update the SystemCoreClock global variable */
  SystemCoreClock = HAL_RCC_GetSysClockFreq() >> AHBPrescTable[(RCC->CFGR & RCC_CFGR_HPRE)>> RCC_CFGR_HPRE_Pos];
 8002900:	f000 f82e 	bl	8002960 <HAL_RCC_GetSysClockFreq>
 8002904:	0001      	movs	r1, r0
 8002906:	4b10      	ldr	r3, [pc, #64]	; (8002948 <HAL_RCC_ClockConfig+0x23c>)
 8002908:	68db      	ldr	r3, [r3, #12]
 800290a:	091b      	lsrs	r3, r3, #4
 800290c:	220f      	movs	r2, #15
 800290e:	4013      	ands	r3, r2
 8002910:	4a11      	ldr	r2, [pc, #68]	; (8002958 <HAL_RCC_ClockConfig+0x24c>)
 8002912:	5cd3      	ldrb	r3, [r2, r3]
 8002914:	000a      	movs	r2, r1
 8002916:	40da      	lsrs	r2, r3
 8002918:	4b10      	ldr	r3, [pc, #64]	; (800295c <HAL_RCC_ClockConfig+0x250>)
 800291a:	601a      	str	r2, [r3, #0]

  /* Configure the source of time base considering new system clocks settings*/
  status = HAL_InitTick(TICK_INT_PRIORITY);
 800291c:	250b      	movs	r5, #11
 800291e:	197c      	adds	r4, r7, r5
 8002920:	2000      	movs	r0, #0
 8002922:	f7fe f9a5 	bl	8000c70 <HAL_InitTick>
 8002926:	0003      	movs	r3, r0
 8002928:	7023      	strb	r3, [r4, #0]
  if(status != HAL_OK)
 800292a:	197b      	adds	r3, r7, r5
 800292c:	781b      	ldrb	r3, [r3, #0]
 800292e:	2b00      	cmp	r3, #0
 8002930:	d003      	beq.n	800293a <HAL_RCC_ClockConfig+0x22e>
  {
    return status;
 8002932:	230b      	movs	r3, #11
 8002934:	18fb      	adds	r3, r7, r3
 8002936:	781b      	ldrb	r3, [r3, #0]
 8002938:	e000      	b.n	800293c <HAL_RCC_ClockConfig+0x230>
  }

  return HAL_OK;
 800293a:	2300      	movs	r3, #0
}
 800293c:	0018      	movs	r0, r3
 800293e:	46bd      	mov	sp, r7
 8002940:	b004      	add	sp, #16
 8002942:	bdb0      	pop	{r4, r5, r7, pc}
 8002944:	40022000 	.word	0x40022000
 8002948:	40021000 	.word	0x40021000
 800294c:	00001388 	.word	0x00001388
 8002950:	fffff8ff 	.word	0xfffff8ff
 8002954:	ffffc7ff 	.word	0xffffc7ff
 8002958:	08003808 	.word	0x08003808
 800295c:	20000004 	.word	0x20000004

08002960 <HAL_RCC_GetSysClockFreq>:
  *         right SYSCLK value. Otherwise, any configuration based on this function will be incorrect.
  *
  * @retval SYSCLK frequency
  */
uint32_t HAL_RCC_GetSysClockFreq(void)
{
 8002960:	b580      	push	{r7, lr}
 8002962:	b086      	sub	sp, #24
 8002964:	af00      	add	r7, sp, #0
  uint32_t tmpreg, pllm, plld, pllvco, msiclkrange;    /* no init needed */
  uint32_t sysclockfreq;

  tmpreg = RCC->CFGR;
 8002966:	4b3b      	ldr	r3, [pc, #236]	; (8002a54 <HAL_RCC_GetSysClockFreq+0xf4>)
 8002968:	68db      	ldr	r3, [r3, #12]
 800296a:	60fb      	str	r3, [r7, #12]

  /* Get SYSCLK source -------------------------------------------------------*/
  switch (tmpreg & RCC_CFGR_SWS)
 800296c:	68fb      	ldr	r3, [r7, #12]
 800296e:	220c      	movs	r2, #12
 8002970:	4013      	ands	r3, r2
 8002972:	2b08      	cmp	r3, #8
 8002974:	d00e      	beq.n	8002994 <HAL_RCC_GetSysClockFreq+0x34>
 8002976:	2b0c      	cmp	r3, #12
 8002978:	d00f      	beq.n	800299a <HAL_RCC_GetSysClockFreq+0x3a>
 800297a:	2b04      	cmp	r3, #4
 800297c:	d157      	bne.n	8002a2e <HAL_RCC_GetSysClockFreq+0xce>
  {
    case RCC_SYSCLKSOURCE_STATUS_HSI:  /* HSI used as system clock source */
    {
      if ((RCC->CR & RCC_CR_HSIDIVF) != 0U)
 800297e:	4b35      	ldr	r3, [pc, #212]	; (8002a54 <HAL_RCC_GetSysClockFreq+0xf4>)
 8002980:	681b      	ldr	r3, [r3, #0]
 8002982:	2210      	movs	r2, #16
 8002984:	4013      	ands	r3, r2
 8002986:	d002      	beq.n	800298e <HAL_RCC_GetSysClockFreq+0x2e>
      {
        sysclockfreq =  (HSI_VALUE >> 2);
 8002988:	4b33      	ldr	r3, [pc, #204]	; (8002a58 <HAL_RCC_GetSysClockFreq+0xf8>)
 800298a:	613b      	str	r3, [r7, #16]
      }
      else
      {
        sysclockfreq =  HSI_VALUE;
      }
      break;
 800298c:	e05d      	b.n	8002a4a <HAL_RCC_GetSysClockFreq+0xea>
        sysclockfreq =  HSI_VALUE;
 800298e:	4b33      	ldr	r3, [pc, #204]	; (8002a5c <HAL_RCC_GetSysClockFreq+0xfc>)
 8002990:	613b      	str	r3, [r7, #16]
      break;
 8002992:	e05a      	b.n	8002a4a <HAL_RCC_GetSysClockFreq+0xea>
    }
    case RCC_SYSCLKSOURCE_STATUS_HSE:  /* HSE used as system clock */
    {
      sysclockfreq = HSE_VALUE;
 8002994:	4b32      	ldr	r3, [pc, #200]	; (8002a60 <HAL_RCC_GetSysClockFreq+0x100>)
 8002996:	613b      	str	r3, [r7, #16]
      break;
 8002998:	e057      	b.n	8002a4a <HAL_RCC_GetSysClockFreq+0xea>
    }
    case RCC_SYSCLKSOURCE_STATUS_PLLCLK:  /* PLL used as system clock */
    {
      pllm = PLLMulTable[(uint32_t)(tmpreg & RCC_CFGR_PLLMUL) >> RCC_CFGR_PLLMUL_Pos];
 800299a:	68fb      	ldr	r3, [r7, #12]
 800299c:	0c9b      	lsrs	r3, r3, #18
 800299e:	220f      	movs	r2, #15
 80029a0:	4013      	ands	r3, r2
 80029a2:	4a30      	ldr	r2, [pc, #192]	; (8002a64 <HAL_RCC_GetSysClockFreq+0x104>)
 80029a4:	5cd3      	ldrb	r3, [r2, r3]
 80029a6:	60bb      	str	r3, [r7, #8]
      plld = ((uint32_t)(tmpreg & RCC_CFGR_PLLDIV) >> RCC_CFGR_PLLDIV_Pos) + 1U;
 80029a8:	68fb      	ldr	r3, [r7, #12]
 80029aa:	0d9b      	lsrs	r3, r3, #22
 80029ac:	2203      	movs	r2, #3
 80029ae:	4013      	ands	r3, r2
 80029b0:	3301      	adds	r3, #1
 80029b2:	607b      	str	r3, [r7, #4]
      if (__HAL_RCC_GET_PLL_OSCSOURCE() != RCC_PLLSOURCE_HSI)
 80029b4:	4b27      	ldr	r3, [pc, #156]	; (8002a54 <HAL_RCC_GetSysClockFreq+0xf4>)
 80029b6:	68da      	ldr	r2, [r3, #12]
 80029b8:	2380      	movs	r3, #128	; 0x80
 80029ba:	025b      	lsls	r3, r3, #9
 80029bc:	4013      	ands	r3, r2
 80029be:	d00f      	beq.n	80029e0 <HAL_RCC_GetSysClockFreq+0x80>
      {
        /* HSE used as PLL clock source */
        pllvco = (HSE_VALUE * pllm) / plld;
 80029c0:	68b9      	ldr	r1, [r7, #8]
 80029c2:	000a      	movs	r2, r1
 80029c4:	0152      	lsls	r2, r2, #5
 80029c6:	1a52      	subs	r2, r2, r1
 80029c8:	0193      	lsls	r3, r2, #6
 80029ca:	1a9b      	subs	r3, r3, r2
 80029cc:	00db      	lsls	r3, r3, #3
 80029ce:	185b      	adds	r3, r3, r1
 80029d0:	025b      	lsls	r3, r3, #9
 80029d2:	6879      	ldr	r1, [r7, #4]
 80029d4:	0018      	movs	r0, r3
 80029d6:	f7fd fb97 	bl	8000108 <__udivsi3>
 80029da:	0003      	movs	r3, r0
 80029dc:	617b      	str	r3, [r7, #20]
 80029de:	e023      	b.n	8002a28 <HAL_RCC_GetSysClockFreq+0xc8>
      }
      else
      {
        if ((RCC->CR & RCC_CR_HSIDIVF) != 0U)
 80029e0:	4b1c      	ldr	r3, [pc, #112]	; (8002a54 <HAL_RCC_GetSysClockFreq+0xf4>)
 80029e2:	681b      	ldr	r3, [r3, #0]
 80029e4:	2210      	movs	r2, #16
 80029e6:	4013      	ands	r3, r2
 80029e8:	d00f      	beq.n	8002a0a <HAL_RCC_GetSysClockFreq+0xaa>
        {
          pllvco = ((HSI_VALUE >> 2) * pllm) / plld;
 80029ea:	68b9      	ldr	r1, [r7, #8]
 80029ec:	000a      	movs	r2, r1
 80029ee:	0152      	lsls	r2, r2, #5
 80029f0:	1a52      	subs	r2, r2, r1
 80029f2:	0193      	lsls	r3, r2, #6
 80029f4:	1a9b      	subs	r3, r3, r2
 80029f6:	00db      	lsls	r3, r3, #3
 80029f8:	185b      	adds	r3, r3, r1
 80029fa:	021b      	lsls	r3, r3, #8
 80029fc:	6879      	ldr	r1, [r7, #4]
 80029fe:	0018      	movs	r0, r3
 8002a00:	f7fd fb82 	bl	8000108 <__udivsi3>
 8002a04:	0003      	movs	r3, r0
 8002a06:	617b      	str	r3, [r7, #20]
 8002a08:	e00e      	b.n	8002a28 <HAL_RCC_GetSysClockFreq+0xc8>
        }
        else
        {
         pllvco = (HSI_VALUE * pllm) / plld;
 8002a0a:	68b9      	ldr	r1, [r7, #8]
 8002a0c:	000a      	movs	r2, r1
 8002a0e:	0152      	lsls	r2, r2, #5
 8002a10:	1a52      	subs	r2, r2, r1
 8002a12:	0193      	lsls	r3, r2, #6
 8002a14:	1a9b      	subs	r3, r3, r2
 8002a16:	00db      	lsls	r3, r3, #3
 8002a18:	185b      	adds	r3, r3, r1
 8002a1a:	029b      	lsls	r3, r3, #10
 8002a1c:	6879      	ldr	r1, [r7, #4]
 8002a1e:	0018      	movs	r0, r3
 8002a20:	f7fd fb72 	bl	8000108 <__udivsi3>
 8002a24:	0003      	movs	r3, r0
 8002a26:	617b      	str	r3, [r7, #20]
        }
      }
      sysclockfreq = pllvco;
 8002a28:	697b      	ldr	r3, [r7, #20]
 8002a2a:	613b      	str	r3, [r7, #16]
      break;
 8002a2c:	e00d      	b.n	8002a4a <HAL_RCC_GetSysClockFreq+0xea>
    }
    case RCC_SYSCLKSOURCE_STATUS_MSI:  /* MSI used as system clock source */
    default: /* MSI used as system clock */
    {
      msiclkrange = (RCC->ICSCR & RCC_ICSCR_MSIRANGE ) >> RCC_ICSCR_MSIRANGE_Pos;
 8002a2e:	4b09      	ldr	r3, [pc, #36]	; (8002a54 <HAL_RCC_GetSysClockFreq+0xf4>)
 8002a30:	685b      	ldr	r3, [r3, #4]
 8002a32:	0b5b      	lsrs	r3, r3, #13
 8002a34:	2207      	movs	r2, #7
 8002a36:	4013      	ands	r3, r2
 8002a38:	603b      	str	r3, [r7, #0]
      sysclockfreq = (32768U * (1UL << (msiclkrange + 1U)));
 8002a3a:	683b      	ldr	r3, [r7, #0]
 8002a3c:	3301      	adds	r3, #1
 8002a3e:	2280      	movs	r2, #128	; 0x80
 8002a40:	0212      	lsls	r2, r2, #8
 8002a42:	409a      	lsls	r2, r3
 8002a44:	0013      	movs	r3, r2
 8002a46:	613b      	str	r3, [r7, #16]
      break;
 8002a48:	46c0      	nop			; (mov r8, r8)
    }
  }
  return sysclockfreq;
 8002a4a:	693b      	ldr	r3, [r7, #16]
}
 8002a4c:	0018      	movs	r0, r3
 8002a4e:	46bd      	mov	sp, r7
 8002a50:	b006      	add	sp, #24
 8002a52:	bd80      	pop	{r7, pc}
 8002a54:	40021000 	.word	0x40021000
 8002a58:	003d0900 	.word	0x003d0900
 8002a5c:	00f42400 	.word	0x00f42400
 8002a60:	007a1200 	.word	0x007a1200
 8002a64:	08003818 	.word	0x08003818

08002a68 <HAL_RCCEx_PeriphCLKConfig>:
  * @retval HAL status
  * @note   If HAL_ERROR returned, first switch-OFF HSE clock oscillator with @ref HAL_RCC_OscConfig()
  *         to possibly update HSE divider.
  */
HAL_StatusTypeDef HAL_RCCEx_PeriphCLKConfig(RCC_PeriphCLKInitTypeDef  *PeriphClkInit)
{
 8002a68:	b580      	push	{r7, lr}
 8002a6a:	b086      	sub	sp, #24
 8002a6c:	af00      	add	r7, sp, #0
 8002a6e:	6078      	str	r0, [r7, #4]

  /* Check the parameters */
  assert_param(IS_RCC_PERIPHCLOCK(PeriphClkInit->PeriphClockSelection));

  /*------------------------------- RTC/LCD Configuration ------------------------*/
  if ((((PeriphClkInit->PeriphClockSelection) & RCC_PERIPHCLK_RTC) == RCC_PERIPHCLK_RTC)
 8002a70:	687b      	ldr	r3, [r7, #4]
 8002a72:	681b      	ldr	r3, [r3, #0]
 8002a74:	2220      	movs	r2, #32
 8002a76:	4013      	ands	r3, r2
 8002a78:	d100      	bne.n	8002a7c <HAL_RCCEx_PeriphCLKConfig+0x14>
 8002a7a:	e0c7      	b.n	8002c0c <HAL_RCCEx_PeriphCLKConfig+0x1a4>
    {
      assert_param(IS_RCC_RTCCLKSOURCE(PeriphClkInit->LCDClockSelection));
    }
#endif /* LCD */

    FlagStatus       pwrclkchanged = RESET;
 8002a7c:	2317      	movs	r3, #23
 8002a7e:	18fb      	adds	r3, r7, r3
 8002a80:	2200      	movs	r2, #0
 8002a82:	701a      	strb	r2, [r3, #0]

    /* As soon as function is called to change RTC clock source, activation of the
       power domain is done. */
    /* Requires to enable write access to Backup Domain of necessary */
    if(__HAL_RCC_PWR_IS_CLK_DISABLED())
 8002a84:	4b82      	ldr	r3, [pc, #520]	; (8002c90 <HAL_RCCEx_PeriphCLKConfig+0x228>)
 8002a86:	6b9a      	ldr	r2, [r3, #56]	; 0x38
 8002a88:	2380      	movs	r3, #128	; 0x80
 8002a8a:	055b      	lsls	r3, r3, #21
 8002a8c:	4013      	ands	r3, r2
 8002a8e:	d10a      	bne.n	8002aa6 <HAL_RCCEx_PeriphCLKConfig+0x3e>
    {
      __HAL_RCC_PWR_CLK_ENABLE();
 8002a90:	4b7f      	ldr	r3, [pc, #508]	; (8002c90 <HAL_RCCEx_PeriphCLKConfig+0x228>)
 8002a92:	6b9a      	ldr	r2, [r3, #56]	; 0x38
 8002a94:	4b7e      	ldr	r3, [pc, #504]	; (8002c90 <HAL_RCCEx_PeriphCLKConfig+0x228>)
 8002a96:	2180      	movs	r1, #128	; 0x80
 8002a98:	0549      	lsls	r1, r1, #21
 8002a9a:	430a      	orrs	r2, r1
 8002a9c:	639a      	str	r2, [r3, #56]	; 0x38
      pwrclkchanged = SET;
 8002a9e:	2317      	movs	r3, #23
 8002aa0:	18fb      	adds	r3, r7, r3
 8002aa2:	2201      	movs	r2, #1
 8002aa4:	701a      	strb	r2, [r3, #0]
    }

    if(HAL_IS_BIT_CLR(PWR->CR, PWR_CR_DBP))
 8002aa6:	4b7b      	ldr	r3, [pc, #492]	; (8002c94 <HAL_RCCEx_PeriphCLKConfig+0x22c>)
 8002aa8:	681a      	ldr	r2, [r3, #0]
 8002aaa:	2380      	movs	r3, #128	; 0x80
 8002aac:	005b      	lsls	r3, r3, #1
 8002aae:	4013      	ands	r3, r2
 8002ab0:	d11a      	bne.n	8002ae8 <HAL_RCCEx_PeriphCLKConfig+0x80>
    {
      /* Enable write access to Backup domain */
      SET_BIT(PWR->CR, PWR_CR_DBP);
 8002ab2:	4b78      	ldr	r3, [pc, #480]	; (8002c94 <HAL_RCCEx_PeriphCLKConfig+0x22c>)
 8002ab4:	681a      	ldr	r2, [r3, #0]
 8002ab6:	4b77      	ldr	r3, [pc, #476]	; (8002c94 <HAL_RCCEx_PeriphCLKConfig+0x22c>)
 8002ab8:	2180      	movs	r1, #128	; 0x80
 8002aba:	0049      	lsls	r1, r1, #1
 8002abc:	430a      	orrs	r2, r1
 8002abe:	601a      	str	r2, [r3, #0]

      /* Wait for Backup domain Write protection disable */
      tickstart = HAL_GetTick();
 8002ac0:	f7fe f90c 	bl	8000cdc <HAL_GetTick>
 8002ac4:	0003      	movs	r3, r0
 8002ac6:	613b      	str	r3, [r7, #16]

      while(HAL_IS_BIT_CLR(PWR->CR, PWR_CR_DBP))
 8002ac8:	e008      	b.n	8002adc <HAL_RCCEx_PeriphCLKConfig+0x74>
      {
        if((HAL_GetTick() - tickstart) > RCC_DBP_TIMEOUT_VALUE)
 8002aca:	f7fe f907 	bl	8000cdc <HAL_GetTick>
 8002ace:	0002      	movs	r2, r0
 8002ad0:	693b      	ldr	r3, [r7, #16]
 8002ad2:	1ad3      	subs	r3, r2, r3
 8002ad4:	2b64      	cmp	r3, #100	; 0x64
 8002ad6:	d901      	bls.n	8002adc <HAL_RCCEx_PeriphCLKConfig+0x74>
        {
          return HAL_TIMEOUT;
 8002ad8:	2303      	movs	r3, #3
 8002ada:	e0d4      	b.n	8002c86 <HAL_RCCEx_PeriphCLKConfig+0x21e>
      while(HAL_IS_BIT_CLR(PWR->CR, PWR_CR_DBP))
 8002adc:	4b6d      	ldr	r3, [pc, #436]	; (8002c94 <HAL_RCCEx_PeriphCLKConfig+0x22c>)
 8002ade:	681a      	ldr	r2, [r3, #0]
 8002ae0:	2380      	movs	r3, #128	; 0x80
 8002ae2:	005b      	lsls	r3, r3, #1
 8002ae4:	4013      	ands	r3, r2
 8002ae6:	d0f0      	beq.n	8002aca <HAL_RCCEx_PeriphCLKConfig+0x62>
        }
      }
    }

    /* Check if user wants to change HSE RTC prescaler whereas HSE is enabled */
    temp_reg = (RCC->CR & RCC_CR_RTCPRE);
 8002ae8:	4b69      	ldr	r3, [pc, #420]	; (8002c90 <HAL_RCCEx_PeriphCLKConfig+0x228>)
 8002aea:	681a      	ldr	r2, [r3, #0]
 8002aec:	23c0      	movs	r3, #192	; 0xc0
 8002aee:	039b      	lsls	r3, r3, #14
 8002af0:	4013      	ands	r3, r2
 8002af2:	60fb      	str	r3, [r7, #12]
    if ((temp_reg != (PeriphClkInit->RTCClockSelection & RCC_CR_RTCPRE))
 8002af4:	687b      	ldr	r3, [r7, #4]
 8002af6:	685a      	ldr	r2, [r3, #4]
 8002af8:	23c0      	movs	r3, #192	; 0xc0
 8002afa:	039b      	lsls	r3, r3, #14
 8002afc:	4013      	ands	r3, r2
 8002afe:	68fa      	ldr	r2, [r7, #12]
 8002b00:	429a      	cmp	r2, r3
 8002b02:	d013      	beq.n	8002b2c <HAL_RCCEx_PeriphCLKConfig+0xc4>
#if defined (LCD)
     || (temp_reg != (PeriphClkInit->LCDClockSelection & RCC_CR_RTCPRE))
#endif /* LCD */
       )
    { /* Check HSE State */
      if ((PeriphClkInit->RTCClockSelection & RCC_CSR_RTCSEL) == RCC_CSR_RTCSEL_HSE)
 8002b04:	687b      	ldr	r3, [r7, #4]
 8002b06:	685a      	ldr	r2, [r3, #4]
 8002b08:	23c0      	movs	r3, #192	; 0xc0
 8002b0a:	029b      	lsls	r3, r3, #10
 8002b0c:	401a      	ands	r2, r3
 8002b0e:	23c0      	movs	r3, #192	; 0xc0
 8002b10:	029b      	lsls	r3, r3, #10
 8002b12:	429a      	cmp	r2, r3
 8002b14:	d10a      	bne.n	8002b2c <HAL_RCCEx_PeriphCLKConfig+0xc4>
      {
        if (HAL_IS_BIT_SET(RCC->CR, RCC_CR_HSERDY))
 8002b16:	4b5e      	ldr	r3, [pc, #376]	; (8002c90 <HAL_RCCEx_PeriphCLKConfig+0x228>)
 8002b18:	681a      	ldr	r2, [r3, #0]
 8002b1a:	2380      	movs	r3, #128	; 0x80
 8002b1c:	029b      	lsls	r3, r3, #10
 8002b1e:	401a      	ands	r2, r3
 8002b20:	2380      	movs	r3, #128	; 0x80
 8002b22:	029b      	lsls	r3, r3, #10
 8002b24:	429a      	cmp	r2, r3
 8002b26:	d101      	bne.n	8002b2c <HAL_RCCEx_PeriphCLKConfig+0xc4>
        {
          /* To update HSE divider, first switch-OFF HSE clock oscillator*/
          return HAL_ERROR;
 8002b28:	2301      	movs	r3, #1
 8002b2a:	e0ac      	b.n	8002c86 <HAL_RCCEx_PeriphCLKConfig+0x21e>
        }
      }
    }

    /* Reset the Backup domain only if the RTC Clock source selection is modified from reset value */
    temp_reg = (RCC->CSR & RCC_CSR_RTCSEL);
 8002b2c:	4b58      	ldr	r3, [pc, #352]	; (8002c90 <HAL_RCCEx_PeriphCLKConfig+0x228>)
 8002b2e:	6d1a      	ldr	r2, [r3, #80]	; 0x50
 8002b30:	23c0      	movs	r3, #192	; 0xc0
 8002b32:	029b      	lsls	r3, r3, #10
 8002b34:	4013      	ands	r3, r2
 8002b36:	60fb      	str	r3, [r7, #12]

    if((temp_reg != 0x00000000U) && (((temp_reg != (PeriphClkInit->RTCClockSelection & RCC_CSR_RTCSEL)) \
 8002b38:	68fb      	ldr	r3, [r7, #12]
 8002b3a:	2b00      	cmp	r3, #0
 8002b3c:	d03b      	beq.n	8002bb6 <HAL_RCCEx_PeriphCLKConfig+0x14e>
 8002b3e:	687b      	ldr	r3, [r7, #4]
 8002b40:	685a      	ldr	r2, [r3, #4]
 8002b42:	23c0      	movs	r3, #192	; 0xc0
 8002b44:	029b      	lsls	r3, r3, #10
 8002b46:	4013      	ands	r3, r2
 8002b48:	68fa      	ldr	r2, [r7, #12]
 8002b4a:	429a      	cmp	r2, r3
 8002b4c:	d033      	beq.n	8002bb6 <HAL_RCCEx_PeriphCLKConfig+0x14e>
      && (((PeriphClkInit->PeriphClockSelection) & RCC_PERIPHCLK_RTC) == RCC_PERIPHCLK_RTC))
 8002b4e:	687b      	ldr	r3, [r7, #4]
 8002b50:	681b      	ldr	r3, [r3, #0]
 8002b52:	2220      	movs	r2, #32
 8002b54:	4013      	ands	r3, r2
 8002b56:	d02e      	beq.n	8002bb6 <HAL_RCCEx_PeriphCLKConfig+0x14e>
       && (((PeriphClkInit->PeriphClockSelection) & RCC_PERIPHCLK_LCD) == RCC_PERIPHCLK_LCD))
#endif /* LCD */
     ))
    {
      /* Store the content of CSR register before the reset of Backup Domain */
      temp_reg = (RCC->CSR & ~(RCC_CSR_RTCSEL));
 8002b58:	4b4d      	ldr	r3, [pc, #308]	; (8002c90 <HAL_RCCEx_PeriphCLKConfig+0x228>)
 8002b5a:	6d1b      	ldr	r3, [r3, #80]	; 0x50
 8002b5c:	4a4e      	ldr	r2, [pc, #312]	; (8002c98 <HAL_RCCEx_PeriphCLKConfig+0x230>)
 8002b5e:	4013      	ands	r3, r2
 8002b60:	60fb      	str	r3, [r7, #12]

      /* RTC Clock selection can be changed only if the Backup Domain is reset */
      __HAL_RCC_BACKUPRESET_FORCE();
 8002b62:	4b4b      	ldr	r3, [pc, #300]	; (8002c90 <HAL_RCCEx_PeriphCLKConfig+0x228>)
 8002b64:	6d1a      	ldr	r2, [r3, #80]	; 0x50
 8002b66:	4b4a      	ldr	r3, [pc, #296]	; (8002c90 <HAL_RCCEx_PeriphCLKConfig+0x228>)
 8002b68:	2180      	movs	r1, #128	; 0x80
 8002b6a:	0309      	lsls	r1, r1, #12
 8002b6c:	430a      	orrs	r2, r1
 8002b6e:	651a      	str	r2, [r3, #80]	; 0x50
      __HAL_RCC_BACKUPRESET_RELEASE();
 8002b70:	4b47      	ldr	r3, [pc, #284]	; (8002c90 <HAL_RCCEx_PeriphCLKConfig+0x228>)
 8002b72:	6d1a      	ldr	r2, [r3, #80]	; 0x50
 8002b74:	4b46      	ldr	r3, [pc, #280]	; (8002c90 <HAL_RCCEx_PeriphCLKConfig+0x228>)
 8002b76:	4949      	ldr	r1, [pc, #292]	; (8002c9c <HAL_RCCEx_PeriphCLKConfig+0x234>)
 8002b78:	400a      	ands	r2, r1
 8002b7a:	651a      	str	r2, [r3, #80]	; 0x50

      /* Restore the Content of CSR register */
      RCC->CSR = temp_reg;
 8002b7c:	4b44      	ldr	r3, [pc, #272]	; (8002c90 <HAL_RCCEx_PeriphCLKConfig+0x228>)
 8002b7e:	68fa      	ldr	r2, [r7, #12]
 8002b80:	651a      	str	r2, [r3, #80]	; 0x50

       /* Wait for LSERDY if LSE was enabled */
      if (HAL_IS_BIT_SET(temp_reg, RCC_CSR_LSEON))
 8002b82:	68fa      	ldr	r2, [r7, #12]
 8002b84:	2380      	movs	r3, #128	; 0x80
 8002b86:	005b      	lsls	r3, r3, #1
 8002b88:	4013      	ands	r3, r2
 8002b8a:	d014      	beq.n	8002bb6 <HAL_RCCEx_PeriphCLKConfig+0x14e>
      {
        /* Get Start Tick */
        tickstart = HAL_GetTick();
 8002b8c:	f7fe f8a6 	bl	8000cdc <HAL_GetTick>
 8002b90:	0003      	movs	r3, r0
 8002b92:	613b      	str	r3, [r7, #16]

        /* Wait till LSE is ready */
        while(__HAL_RCC_GET_FLAG(RCC_FLAG_LSERDY) == 0U)
 8002b94:	e009      	b.n	8002baa <HAL_RCCEx_PeriphCLKConfig+0x142>
        {
          if((HAL_GetTick() - tickstart ) > RCC_LSE_TIMEOUT_VALUE)
 8002b96:	f7fe f8a1 	bl	8000cdc <HAL_GetTick>
 8002b9a:	0002      	movs	r2, r0
 8002b9c:	693b      	ldr	r3, [r7, #16]
 8002b9e:	1ad3      	subs	r3, r2, r3
 8002ba0:	4a3f      	ldr	r2, [pc, #252]	; (8002ca0 <HAL_RCCEx_PeriphCLKConfig+0x238>)
 8002ba2:	4293      	cmp	r3, r2
 8002ba4:	d901      	bls.n	8002baa <HAL_RCCEx_PeriphCLKConfig+0x142>
          {
            return HAL_TIMEOUT;
 8002ba6:	2303      	movs	r3, #3
 8002ba8:	e06d      	b.n	8002c86 <HAL_RCCEx_PeriphCLKConfig+0x21e>
        while(__HAL_RCC_GET_FLAG(RCC_FLAG_LSERDY) == 0U)
 8002baa:	4b39      	ldr	r3, [pc, #228]	; (8002c90 <HAL_RCCEx_PeriphCLKConfig+0x228>)
 8002bac:	6d1a      	ldr	r2, [r3, #80]	; 0x50
 8002bae:	2380      	movs	r3, #128	; 0x80
 8002bb0:	009b      	lsls	r3, r3, #2
 8002bb2:	4013      	ands	r3, r2
 8002bb4:	d0ef      	beq.n	8002b96 <HAL_RCCEx_PeriphCLKConfig+0x12e>
          }
        }
      }
    }
    __HAL_RCC_RTC_CONFIG(PeriphClkInit->RTCClockSelection);
 8002bb6:	687b      	ldr	r3, [r7, #4]
 8002bb8:	685a      	ldr	r2, [r3, #4]
 8002bba:	23c0      	movs	r3, #192	; 0xc0
 8002bbc:	029b      	lsls	r3, r3, #10
 8002bbe:	401a      	ands	r2, r3
 8002bc0:	23c0      	movs	r3, #192	; 0xc0
 8002bc2:	029b      	lsls	r3, r3, #10
 8002bc4:	429a      	cmp	r2, r3
 8002bc6:	d10c      	bne.n	8002be2 <HAL_RCCEx_PeriphCLKConfig+0x17a>
 8002bc8:	4b31      	ldr	r3, [pc, #196]	; (8002c90 <HAL_RCCEx_PeriphCLKConfig+0x228>)
 8002bca:	681b      	ldr	r3, [r3, #0]
 8002bcc:	4a35      	ldr	r2, [pc, #212]	; (8002ca4 <HAL_RCCEx_PeriphCLKConfig+0x23c>)
 8002bce:	4013      	ands	r3, r2
 8002bd0:	0019      	movs	r1, r3
 8002bd2:	687b      	ldr	r3, [r7, #4]
 8002bd4:	685a      	ldr	r2, [r3, #4]
 8002bd6:	23c0      	movs	r3, #192	; 0xc0
 8002bd8:	039b      	lsls	r3, r3, #14
 8002bda:	401a      	ands	r2, r3
 8002bdc:	4b2c      	ldr	r3, [pc, #176]	; (8002c90 <HAL_RCCEx_PeriphCLKConfig+0x228>)
 8002bde:	430a      	orrs	r2, r1
 8002be0:	601a      	str	r2, [r3, #0]
 8002be2:	4b2b      	ldr	r3, [pc, #172]	; (8002c90 <HAL_RCCEx_PeriphCLKConfig+0x228>)
 8002be4:	6d19      	ldr	r1, [r3, #80]	; 0x50
 8002be6:	687b      	ldr	r3, [r7, #4]
 8002be8:	685a      	ldr	r2, [r3, #4]
 8002bea:	23c0      	movs	r3, #192	; 0xc0
 8002bec:	029b      	lsls	r3, r3, #10
 8002bee:	401a      	ands	r2, r3
 8002bf0:	4b27      	ldr	r3, [pc, #156]	; (8002c90 <HAL_RCCEx_PeriphCLKConfig+0x228>)
 8002bf2:	430a      	orrs	r2, r1
 8002bf4:	651a      	str	r2, [r3, #80]	; 0x50

    /* Require to disable power clock if necessary */
    if(pwrclkchanged == SET)
 8002bf6:	2317      	movs	r3, #23
 8002bf8:	18fb      	adds	r3, r7, r3
 8002bfa:	781b      	ldrb	r3, [r3, #0]
 8002bfc:	2b01      	cmp	r3, #1
 8002bfe:	d105      	bne.n	8002c0c <HAL_RCCEx_PeriphCLKConfig+0x1a4>
    {
      __HAL_RCC_PWR_CLK_DISABLE();
 8002c00:	4b23      	ldr	r3, [pc, #140]	; (8002c90 <HAL_RCCEx_PeriphCLKConfig+0x228>)
 8002c02:	6b9a      	ldr	r2, [r3, #56]	; 0x38
 8002c04:	4b22      	ldr	r3, [pc, #136]	; (8002c90 <HAL_RCCEx_PeriphCLKConfig+0x228>)
 8002c06:	4928      	ldr	r1, [pc, #160]	; (8002ca8 <HAL_RCCEx_PeriphCLKConfig+0x240>)
 8002c08:	400a      	ands	r2, r1
 8002c0a:	639a      	str	r2, [r3, #56]	; 0x38
    __HAL_RCC_USART1_CONFIG(PeriphClkInit->Usart1ClockSelection);
  }
#endif /* RCC_CCIPR_USART1SEL */

  /*----------------------------- USART2 Configuration --------------------------*/
  if(((PeriphClkInit->PeriphClockSelection) & RCC_PERIPHCLK_USART2) == RCC_PERIPHCLK_USART2)
 8002c0c:	687b      	ldr	r3, [r7, #4]
 8002c0e:	681b      	ldr	r3, [r3, #0]
 8002c10:	2202      	movs	r2, #2
 8002c12:	4013      	ands	r3, r2
 8002c14:	d009      	beq.n	8002c2a <HAL_RCCEx_PeriphCLKConfig+0x1c2>
  {
    /* Check the parameters */
    assert_param(IS_RCC_USART2CLKSOURCE(PeriphClkInit->Usart2ClockSelection));

    /* Configure the USART2 clock source */
    __HAL_RCC_USART2_CONFIG(PeriphClkInit->Usart2ClockSelection);
 8002c16:	4b1e      	ldr	r3, [pc, #120]	; (8002c90 <HAL_RCCEx_PeriphCLKConfig+0x228>)
 8002c18:	6cdb      	ldr	r3, [r3, #76]	; 0x4c
 8002c1a:	220c      	movs	r2, #12
 8002c1c:	4393      	bics	r3, r2
 8002c1e:	0019      	movs	r1, r3
 8002c20:	687b      	ldr	r3, [r7, #4]
 8002c22:	689a      	ldr	r2, [r3, #8]
 8002c24:	4b1a      	ldr	r3, [pc, #104]	; (8002c90 <HAL_RCCEx_PeriphCLKConfig+0x228>)
 8002c26:	430a      	orrs	r2, r1
 8002c28:	64da      	str	r2, [r3, #76]	; 0x4c
  }

  /*------------------------------ LPUART1 Configuration ------------------------*/
  if(((PeriphClkInit->PeriphClockSelection) & RCC_PERIPHCLK_LPUART1) == RCC_PERIPHCLK_LPUART1)
 8002c2a:	687b      	ldr	r3, [r7, #4]
 8002c2c:	681b      	ldr	r3, [r3, #0]
 8002c2e:	2204      	movs	r2, #4
 8002c30:	4013      	ands	r3, r2
 8002c32:	d009      	beq.n	8002c48 <HAL_RCCEx_PeriphCLKConfig+0x1e0>
  {
    /* Check the parameters */
    assert_param(IS_RCC_LPUART1CLKSOURCE(PeriphClkInit->Lpuart1ClockSelection));

    /* Configure the LPUAR1 clock source */
    __HAL_RCC_LPUART1_CONFIG(PeriphClkInit->Lpuart1ClockSelection);
 8002c34:	4b16      	ldr	r3, [pc, #88]	; (8002c90 <HAL_RCCEx_PeriphCLKConfig+0x228>)
 8002c36:	6cdb      	ldr	r3, [r3, #76]	; 0x4c
 8002c38:	4a1c      	ldr	r2, [pc, #112]	; (8002cac <HAL_RCCEx_PeriphCLKConfig+0x244>)
 8002c3a:	4013      	ands	r3, r2
 8002c3c:	0019      	movs	r1, r3
 8002c3e:	687b      	ldr	r3, [r7, #4]
 8002c40:	68da      	ldr	r2, [r3, #12]
 8002c42:	4b13      	ldr	r3, [pc, #76]	; (8002c90 <HAL_RCCEx_PeriphCLKConfig+0x228>)
 8002c44:	430a      	orrs	r2, r1
 8002c46:	64da      	str	r2, [r3, #76]	; 0x4c
  }

  /*------------------------------ I2C1 Configuration ------------------------*/
  if(((PeriphClkInit->PeriphClockSelection) & RCC_PERIPHCLK_I2C1) == RCC_PERIPHCLK_I2C1)
 8002c48:	687b      	ldr	r3, [r7, #4]
 8002c4a:	681b      	ldr	r3, [r3, #0]
 8002c4c:	2208      	movs	r2, #8
 8002c4e:	4013      	ands	r3, r2
 8002c50:	d009      	beq.n	8002c66 <HAL_RCCEx_PeriphCLKConfig+0x1fe>
  {
    /* Check the parameters */
    assert_param(IS_RCC_I2C1CLKSOURCE(PeriphClkInit->I2c1ClockSelection));

    /* Configure the I2C1 clock source */
    __HAL_RCC_I2C1_CONFIG(PeriphClkInit->I2c1ClockSelection);
 8002c52:	4b0f      	ldr	r3, [pc, #60]	; (8002c90 <HAL_RCCEx_PeriphCLKConfig+0x228>)
 8002c54:	6cdb      	ldr	r3, [r3, #76]	; 0x4c
 8002c56:	4a16      	ldr	r2, [pc, #88]	; (8002cb0 <HAL_RCCEx_PeriphCLKConfig+0x248>)
 8002c58:	4013      	ands	r3, r2
 8002c5a:	0019      	movs	r1, r3
 8002c5c:	687b      	ldr	r3, [r7, #4]
 8002c5e:	691a      	ldr	r2, [r3, #16]
 8002c60:	4b0b      	ldr	r3, [pc, #44]	; (8002c90 <HAL_RCCEx_PeriphCLKConfig+0x228>)
 8002c62:	430a      	orrs	r2, r1
 8002c64:	64da      	str	r2, [r3, #76]	; 0x4c
    __HAL_RCC_USB_CONFIG(PeriphClkInit->UsbClockSelection);
  }
#endif /* USB */

  /*---------------------------- LPTIM1 configuration ------------------------*/
  if(((PeriphClkInit->PeriphClockSelection) & RCC_PERIPHCLK_LPTIM1) == (RCC_PERIPHCLK_LPTIM1))
 8002c66:	687b      	ldr	r3, [r7, #4]
 8002c68:	681b      	ldr	r3, [r3, #0]
 8002c6a:	2280      	movs	r2, #128	; 0x80
 8002c6c:	4013      	ands	r3, r2
 8002c6e:	d009      	beq.n	8002c84 <HAL_RCCEx_PeriphCLKConfig+0x21c>
  {
    assert_param(IS_RCC_LPTIMCLK(PeriphClkInit->LptimClockSelection));
    __HAL_RCC_LPTIM1_CONFIG(PeriphClkInit->LptimClockSelection);
 8002c70:	4b07      	ldr	r3, [pc, #28]	; (8002c90 <HAL_RCCEx_PeriphCLKConfig+0x228>)
 8002c72:	6cdb      	ldr	r3, [r3, #76]	; 0x4c
 8002c74:	4a0f      	ldr	r2, [pc, #60]	; (8002cb4 <HAL_RCCEx_PeriphCLKConfig+0x24c>)
 8002c76:	4013      	ands	r3, r2
 8002c78:	0019      	movs	r1, r3
 8002c7a:	687b      	ldr	r3, [r7, #4]
 8002c7c:	695a      	ldr	r2, [r3, #20]
 8002c7e:	4b04      	ldr	r3, [pc, #16]	; (8002c90 <HAL_RCCEx_PeriphCLKConfig+0x228>)
 8002c80:	430a      	orrs	r2, r1
 8002c82:	64da      	str	r2, [r3, #76]	; 0x4c
  }

  return HAL_OK;
 8002c84:	2300      	movs	r3, #0
}
 8002c86:	0018      	movs	r0, r3
 8002c88:	46bd      	mov	sp, r7
 8002c8a:	b006      	add	sp, #24
 8002c8c:	bd80      	pop	{r7, pc}
 8002c8e:	46c0      	nop			; (mov r8, r8)
 8002c90:	40021000 	.word	0x40021000
 8002c94:	40007000 	.word	0x40007000
 8002c98:	fffcffff 	.word	0xfffcffff
 8002c9c:	fff7ffff 	.word	0xfff7ffff
 8002ca0:	00001388 	.word	0x00001388
 8002ca4:	ffcfffff 	.word	0xffcfffff
 8002ca8:	efffffff 	.word	0xefffffff
 8002cac:	fffff3ff 	.word	0xfffff3ff
 8002cb0:	ffffcfff 	.word	0xffffcfff
 8002cb4:	fff3ffff 	.word	0xfff3ffff

08002cb8 <HAL_TIM_Base_Init>:
  *         Ex: call @ref HAL_TIM_Base_DeInit() before HAL_TIM_Base_Init()
  * @param  htim TIM Base handle
  * @retval HAL status
  */
HAL_StatusTypeDef HAL_TIM_Base_Init(TIM_HandleTypeDef *htim)
{
 8002cb8:	b580      	push	{r7, lr}
 8002cba:	b082      	sub	sp, #8
 8002cbc:	af00      	add	r7, sp, #0
 8002cbe:	6078      	str	r0, [r7, #4]
  /* Check the TIM handle allocation */
  if (htim == NULL)
 8002cc0:	687b      	ldr	r3, [r7, #4]
 8002cc2:	2b00      	cmp	r3, #0
 8002cc4:	d101      	bne.n	8002cca <HAL_TIM_Base_Init+0x12>
  {
    return HAL_ERROR;
 8002cc6:	2301      	movs	r3, #1
 8002cc8:	e01e      	b.n	8002d08 <HAL_TIM_Base_Init+0x50>
  assert_param(IS_TIM_CLOCKDIVISION_DIV(htim->Init.ClockDivision));
  assert_param(IS_TIM_PERIOD(htim->Init.Period));
  assert_param(IS_TIM_PRESCALER(htim->Init.Prescaler));
  assert_param(IS_TIM_AUTORELOAD_PRELOAD(htim->Init.AutoReloadPreload));

  if (htim->State == HAL_TIM_STATE_RESET)
 8002cca:	687b      	ldr	r3, [r7, #4]
 8002ccc:	2239      	movs	r2, #57	; 0x39
 8002cce:	5c9b      	ldrb	r3, [r3, r2]
 8002cd0:	b2db      	uxtb	r3, r3
 8002cd2:	2b00      	cmp	r3, #0
 8002cd4:	d107      	bne.n	8002ce6 <HAL_TIM_Base_Init+0x2e>
  {
    /* Allocate lock resource and initialize it */
    htim->Lock = HAL_UNLOCKED;
 8002cd6:	687b      	ldr	r3, [r7, #4]
 8002cd8:	2238      	movs	r2, #56	; 0x38
 8002cda:	2100      	movs	r1, #0
 8002cdc:	5499      	strb	r1, [r3, r2]
    }
    /* Init the low level hardware : GPIO, CLOCK, NVIC */
    htim->Base_MspInitCallback(htim);
#else
    /* Init the low level hardware : GPIO, CLOCK, NVIC */
    HAL_TIM_Base_MspInit(htim);
 8002cde:	687b      	ldr	r3, [r7, #4]
 8002ce0:	0018      	movs	r0, r3
 8002ce2:	f7fd feef 	bl	8000ac4 <HAL_TIM_Base_MspInit>
#endif /* USE_HAL_TIM_REGISTER_CALLBACKS */
  }

  /* Set the TIM state */
  htim->State = HAL_TIM_STATE_BUSY;
 8002ce6:	687b      	ldr	r3, [r7, #4]
 8002ce8:	2239      	movs	r2, #57	; 0x39
 8002cea:	2102      	movs	r1, #2
 8002cec:	5499      	strb	r1, [r3, r2]

  /* Set the Time Base configuration */
  TIM_Base_SetConfig(htim->Instance, &htim->Init);
 8002cee:	687b      	ldr	r3, [r7, #4]
 8002cf0:	681a      	ldr	r2, [r3, #0]
 8002cf2:	687b      	ldr	r3, [r7, #4]
 8002cf4:	3304      	adds	r3, #4
 8002cf6:	0019      	movs	r1, r3
 8002cf8:	0010      	movs	r0, r2
 8002cfa:	f000 faff 	bl	80032fc <TIM_Base_SetConfig>

  /* Initialize the TIM state*/
  htim->State = HAL_TIM_STATE_READY;
 8002cfe:	687b      	ldr	r3, [r7, #4]
 8002d00:	2239      	movs	r2, #57	; 0x39
 8002d02:	2101      	movs	r1, #1
 8002d04:	5499      	strb	r1, [r3, r2]

  return HAL_OK;
 8002d06:	2300      	movs	r3, #0
}
 8002d08:	0018      	movs	r0, r3
 8002d0a:	46bd      	mov	sp, r7
 8002d0c:	b002      	add	sp, #8
 8002d0e:	bd80      	pop	{r7, pc}

08002d10 <HAL_TIM_Base_Start_IT>:
  * @brief  Starts the TIM Base generation in interrupt mode.
  * @param  htim TIM Base handle
  * @retval HAL status
  */
HAL_StatusTypeDef HAL_TIM_Base_Start_IT(TIM_HandleTypeDef *htim)
{
 8002d10:	b580      	push	{r7, lr}
 8002d12:	b084      	sub	sp, #16
 8002d14:	af00      	add	r7, sp, #0
 8002d16:	6078      	str	r0, [r7, #4]

  /* Check the parameters */
  assert_param(IS_TIM_INSTANCE(htim->Instance));

  /* Enable the TIM Update interrupt */
  __HAL_TIM_ENABLE_IT(htim, TIM_IT_UPDATE);
 8002d18:	687b      	ldr	r3, [r7, #4]
 8002d1a:	681b      	ldr	r3, [r3, #0]
 8002d1c:	68da      	ldr	r2, [r3, #12]
 8002d1e:	687b      	ldr	r3, [r7, #4]
 8002d20:	681b      	ldr	r3, [r3, #0]
 8002d22:	2101      	movs	r1, #1
 8002d24:	430a      	orrs	r2, r1
 8002d26:	60da      	str	r2, [r3, #12]

  /* Enable the Peripheral, except in trigger mode where enable is automatically done with trigger */
  tmpsmcr = htim->Instance->SMCR & TIM_SMCR_SMS;
 8002d28:	687b      	ldr	r3, [r7, #4]
 8002d2a:	681b      	ldr	r3, [r3, #0]
 8002d2c:	689b      	ldr	r3, [r3, #8]
 8002d2e:	2207      	movs	r2, #7
 8002d30:	4013      	ands	r3, r2
 8002d32:	60fb      	str	r3, [r7, #12]
  if (!IS_TIM_SLAVEMODE_TRIGGER_ENABLED(tmpsmcr))
 8002d34:	68fb      	ldr	r3, [r7, #12]
 8002d36:	2b06      	cmp	r3, #6
 8002d38:	d007      	beq.n	8002d4a <HAL_TIM_Base_Start_IT+0x3a>
  {
    __HAL_TIM_ENABLE(htim);
 8002d3a:	687b      	ldr	r3, [r7, #4]
 8002d3c:	681b      	ldr	r3, [r3, #0]
 8002d3e:	681a      	ldr	r2, [r3, #0]
 8002d40:	687b      	ldr	r3, [r7, #4]
 8002d42:	681b      	ldr	r3, [r3, #0]
 8002d44:	2101      	movs	r1, #1
 8002d46:	430a      	orrs	r2, r1
 8002d48:	601a      	str	r2, [r3, #0]
  }

  /* Return function status */
  return HAL_OK;
 8002d4a:	2300      	movs	r3, #0
}
 8002d4c:	0018      	movs	r0, r3
 8002d4e:	46bd      	mov	sp, r7
 8002d50:	b004      	add	sp, #16
 8002d52:	bd80      	pop	{r7, pc}

08002d54 <HAL_TIM_PWM_Init>:
  *         Ex: call @ref HAL_TIM_PWM_DeInit() before HAL_TIM_PWM_Init()
  * @param  htim TIM PWM handle
  * @retval HAL status
  */
HAL_StatusTypeDef HAL_TIM_PWM_Init(TIM_HandleTypeDef *htim)
{
 8002d54:	b580      	push	{r7, lr}
 8002d56:	b082      	sub	sp, #8
 8002d58:	af00      	add	r7, sp, #0
 8002d5a:	6078      	str	r0, [r7, #4]
  /* Check the TIM handle allocation */
  if (htim == NULL)
 8002d5c:	687b      	ldr	r3, [r7, #4]
 8002d5e:	2b00      	cmp	r3, #0
 8002d60:	d101      	bne.n	8002d66 <HAL_TIM_PWM_Init+0x12>
  {
    return HAL_ERROR;
 8002d62:	2301      	movs	r3, #1
 8002d64:	e01e      	b.n	8002da4 <HAL_TIM_PWM_Init+0x50>
  assert_param(IS_TIM_CLOCKDIVISION_DIV(htim->Init.ClockDivision));
  assert_param(IS_TIM_PERIOD(htim->Init.Period));
  assert_param(IS_TIM_PRESCALER(htim->Init.Prescaler));
  assert_param(IS_TIM_AUTORELOAD_PRELOAD(htim->Init.AutoReloadPreload));

  if (htim->State == HAL_TIM_STATE_RESET)
 8002d66:	687b      	ldr	r3, [r7, #4]
 8002d68:	2239      	movs	r2, #57	; 0x39
 8002d6a:	5c9b      	ldrb	r3, [r3, r2]
 8002d6c:	b2db      	uxtb	r3, r3
 8002d6e:	2b00      	cmp	r3, #0
 8002d70:	d107      	bne.n	8002d82 <HAL_TIM_PWM_Init+0x2e>
  {
    /* Allocate lock resource and initialize it */
    htim->Lock = HAL_UNLOCKED;
 8002d72:	687b      	ldr	r3, [r7, #4]
 8002d74:	2238      	movs	r2, #56	; 0x38
 8002d76:	2100      	movs	r1, #0
 8002d78:	5499      	strb	r1, [r3, r2]
    }
    /* Init the low level hardware : GPIO, CLOCK, NVIC */
    htim->PWM_MspInitCallback(htim);
#else
    /* Init the low level hardware : GPIO, CLOCK, NVIC and DMA */
    HAL_TIM_PWM_MspInit(htim);
 8002d7a:	687b      	ldr	r3, [r7, #4]
 8002d7c:	0018      	movs	r0, r3
 8002d7e:	f7fd fe8b 	bl	8000a98 <HAL_TIM_PWM_MspInit>
#endif /* USE_HAL_TIM_REGISTER_CALLBACKS */
  }

  /* Set the TIM state */
  htim->State = HAL_TIM_STATE_BUSY;
 8002d82:	687b      	ldr	r3, [r7, #4]
 8002d84:	2239      	movs	r2, #57	; 0x39
 8002d86:	2102      	movs	r1, #2
 8002d88:	5499      	strb	r1, [r3, r2]

  /* Init the base time for the PWM */
  TIM_Base_SetConfig(htim->Instance, &htim->Init);
 8002d8a:	687b      	ldr	r3, [r7, #4]
 8002d8c:	681a      	ldr	r2, [r3, #0]
 8002d8e:	687b      	ldr	r3, [r7, #4]
 8002d90:	3304      	adds	r3, #4
 8002d92:	0019      	movs	r1, r3
 8002d94:	0010      	movs	r0, r2
 8002d96:	f000 fab1 	bl	80032fc <TIM_Base_SetConfig>

  /* Initialize the TIM state*/
  htim->State = HAL_TIM_STATE_READY;
 8002d9a:	687b      	ldr	r3, [r7, #4]
 8002d9c:	2239      	movs	r2, #57	; 0x39
 8002d9e:	2101      	movs	r1, #1
 8002da0:	5499      	strb	r1, [r3, r2]

  return HAL_OK;
 8002da2:	2300      	movs	r3, #0
}
 8002da4:	0018      	movs	r0, r3
 8002da6:	46bd      	mov	sp, r7
 8002da8:	b002      	add	sp, #8
 8002daa:	bd80      	pop	{r7, pc}

08002dac <HAL_TIM_PWM_Start>:
  *            @arg TIM_CHANNEL_3: TIM Channel 3 selected
  *            @arg TIM_CHANNEL_4: TIM Channel 4 selected
  * @retval HAL status
  */
HAL_StatusTypeDef HAL_TIM_PWM_Start(TIM_HandleTypeDef *htim, uint32_t Channel)
{
 8002dac:	b580      	push	{r7, lr}
 8002dae:	b084      	sub	sp, #16
 8002db0:	af00      	add	r7, sp, #0
 8002db2:	6078      	str	r0, [r7, #4]
 8002db4:	6039      	str	r1, [r7, #0]

  /* Check the parameters */
  assert_param(IS_TIM_CCX_INSTANCE(htim->Instance, Channel));

  /* Enable the Capture compare channel */
  TIM_CCxChannelCmd(htim->Instance, Channel, TIM_CCx_ENABLE);
 8002db6:	687b      	ldr	r3, [r7, #4]
 8002db8:	681b      	ldr	r3, [r3, #0]
 8002dba:	6839      	ldr	r1, [r7, #0]
 8002dbc:	2201      	movs	r2, #1
 8002dbe:	0018      	movs	r0, r3
 8002dc0:	f000 fc84 	bl	80036cc <TIM_CCxChannelCmd>

  /* Enable the Peripheral, except in trigger mode where enable is automatically done with trigger */
  tmpsmcr = htim->Instance->SMCR & TIM_SMCR_SMS;
 8002dc4:	687b      	ldr	r3, [r7, #4]
 8002dc6:	681b      	ldr	r3, [r3, #0]
 8002dc8:	689b      	ldr	r3, [r3, #8]
 8002dca:	2207      	movs	r2, #7
 8002dcc:	4013      	ands	r3, r2
 8002dce:	60fb      	str	r3, [r7, #12]
  if (!IS_TIM_SLAVEMODE_TRIGGER_ENABLED(tmpsmcr))
 8002dd0:	68fb      	ldr	r3, [r7, #12]
 8002dd2:	2b06      	cmp	r3, #6
 8002dd4:	d007      	beq.n	8002de6 <HAL_TIM_PWM_Start+0x3a>
  {
    __HAL_TIM_ENABLE(htim);
 8002dd6:	687b      	ldr	r3, [r7, #4]
 8002dd8:	681b      	ldr	r3, [r3, #0]
 8002dda:	681a      	ldr	r2, [r3, #0]
 8002ddc:	687b      	ldr	r3, [r7, #4]
 8002dde:	681b      	ldr	r3, [r3, #0]
 8002de0:	2101      	movs	r1, #1
 8002de2:	430a      	orrs	r2, r1
 8002de4:	601a      	str	r2, [r3, #0]
  }

  /* Return function status */
  return HAL_OK;
 8002de6:	2300      	movs	r3, #0
}
 8002de8:	0018      	movs	r0, r3
 8002dea:	46bd      	mov	sp, r7
 8002dec:	b004      	add	sp, #16
 8002dee:	bd80      	pop	{r7, pc}

08002df0 <HAL_TIM_IRQHandler>:
  * @brief  This function handles TIM interrupts requests.
  * @param  htim TIM  handle
  * @retval None
  */
void HAL_TIM_IRQHandler(TIM_HandleTypeDef *htim)
{
 8002df0:	b580      	push	{r7, lr}
 8002df2:	b082      	sub	sp, #8
 8002df4:	af00      	add	r7, sp, #0
 8002df6:	6078      	str	r0, [r7, #4]
  /* Capture compare 1 event */
  if (__HAL_TIM_GET_FLAG(htim, TIM_FLAG_CC1) != RESET)
 8002df8:	687b      	ldr	r3, [r7, #4]
 8002dfa:	681b      	ldr	r3, [r3, #0]
 8002dfc:	691b      	ldr	r3, [r3, #16]
 8002dfe:	2202      	movs	r2, #2
 8002e00:	4013      	ands	r3, r2
 8002e02:	2b02      	cmp	r3, #2
 8002e04:	d124      	bne.n	8002e50 <HAL_TIM_IRQHandler+0x60>
  {
    if (__HAL_TIM_GET_IT_SOURCE(htim, TIM_IT_CC1) != RESET)
 8002e06:	687b      	ldr	r3, [r7, #4]
 8002e08:	681b      	ldr	r3, [r3, #0]
 8002e0a:	68db      	ldr	r3, [r3, #12]
 8002e0c:	2202      	movs	r2, #2
 8002e0e:	4013      	ands	r3, r2
 8002e10:	2b02      	cmp	r3, #2
 8002e12:	d11d      	bne.n	8002e50 <HAL_TIM_IRQHandler+0x60>
    {
      {
        __HAL_TIM_CLEAR_IT(htim, TIM_IT_CC1);
 8002e14:	687b      	ldr	r3, [r7, #4]
 8002e16:	681b      	ldr	r3, [r3, #0]
 8002e18:	2203      	movs	r2, #3
 8002e1a:	4252      	negs	r2, r2
 8002e1c:	611a      	str	r2, [r3, #16]
        htim->Channel = HAL_TIM_ACTIVE_CHANNEL_1;
 8002e1e:	687b      	ldr	r3, [r7, #4]
 8002e20:	2201      	movs	r2, #1
 8002e22:	761a      	strb	r2, [r3, #24]

        /* Input capture event */
        if ((htim->Instance->CCMR1 & TIM_CCMR1_CC1S) != 0x00U)
 8002e24:	687b      	ldr	r3, [r7, #4]
 8002e26:	681b      	ldr	r3, [r3, #0]
 8002e28:	699b      	ldr	r3, [r3, #24]
 8002e2a:	2203      	movs	r2, #3
 8002e2c:	4013      	ands	r3, r2
 8002e2e:	d004      	beq.n	8002e3a <HAL_TIM_IRQHandler+0x4a>
        {
#if (USE_HAL_TIM_REGISTER_CALLBACKS == 1)
          htim->IC_CaptureCallback(htim);
#else
          HAL_TIM_IC_CaptureCallback(htim);
 8002e30:	687b      	ldr	r3, [r7, #4]
 8002e32:	0018      	movs	r0, r3
 8002e34:	f000 fa4a 	bl	80032cc <HAL_TIM_IC_CaptureCallback>
 8002e38:	e007      	b.n	8002e4a <HAL_TIM_IRQHandler+0x5a>
        {
#if (USE_HAL_TIM_REGISTER_CALLBACKS == 1)
          htim->OC_DelayElapsedCallback(htim);
          htim->PWM_PulseFinishedCallback(htim);
#else
          HAL_TIM_OC_DelayElapsedCallback(htim);
 8002e3a:	687b      	ldr	r3, [r7, #4]
 8002e3c:	0018      	movs	r0, r3
 8002e3e:	f000 fa3d 	bl	80032bc <HAL_TIM_OC_DelayElapsedCallback>
          HAL_TIM_PWM_PulseFinishedCallback(htim);
 8002e42:	687b      	ldr	r3, [r7, #4]
 8002e44:	0018      	movs	r0, r3
 8002e46:	f000 fa49 	bl	80032dc <HAL_TIM_PWM_PulseFinishedCallback>
#endif /* USE_HAL_TIM_REGISTER_CALLBACKS */
        }
        htim->Channel = HAL_TIM_ACTIVE_CHANNEL_CLEARED;
 8002e4a:	687b      	ldr	r3, [r7, #4]
 8002e4c:	2200      	movs	r2, #0
 8002e4e:	761a      	strb	r2, [r3, #24]
      }
    }
  }
  /* Capture compare 2 event */
  if (__HAL_TIM_GET_FLAG(htim, TIM_FLAG_CC2) != RESET)
 8002e50:	687b      	ldr	r3, [r7, #4]
 8002e52:	681b      	ldr	r3, [r3, #0]
 8002e54:	691b      	ldr	r3, [r3, #16]
 8002e56:	2204      	movs	r2, #4
 8002e58:	4013      	ands	r3, r2
 8002e5a:	2b04      	cmp	r3, #4
 8002e5c:	d125      	bne.n	8002eaa <HAL_TIM_IRQHandler+0xba>
  {
    if (__HAL_TIM_GET_IT_SOURCE(htim, TIM_IT_CC2) != RESET)
 8002e5e:	687b      	ldr	r3, [r7, #4]
 8002e60:	681b      	ldr	r3, [r3, #0]
 8002e62:	68db      	ldr	r3, [r3, #12]
 8002e64:	2204      	movs	r2, #4
 8002e66:	4013      	ands	r3, r2
 8002e68:	2b04      	cmp	r3, #4
 8002e6a:	d11e      	bne.n	8002eaa <HAL_TIM_IRQHandler+0xba>
    {
      __HAL_TIM_CLEAR_IT(htim, TIM_IT_CC2);
 8002e6c:	687b      	ldr	r3, [r7, #4]
 8002e6e:	681b      	ldr	r3, [r3, #0]
 8002e70:	2205      	movs	r2, #5
 8002e72:	4252      	negs	r2, r2
 8002e74:	611a      	str	r2, [r3, #16]
      htim->Channel = HAL_TIM_ACTIVE_CHANNEL_2;
 8002e76:	687b      	ldr	r3, [r7, #4]
 8002e78:	2202      	movs	r2, #2
 8002e7a:	761a      	strb	r2, [r3, #24]
      /* Input capture event */
      if ((htim->Instance->CCMR1 & TIM_CCMR1_CC2S) != 0x00U)
 8002e7c:	687b      	ldr	r3, [r7, #4]
 8002e7e:	681b      	ldr	r3, [r3, #0]
 8002e80:	699a      	ldr	r2, [r3, #24]
 8002e82:	23c0      	movs	r3, #192	; 0xc0
 8002e84:	009b      	lsls	r3, r3, #2
 8002e86:	4013      	ands	r3, r2
 8002e88:	d004      	beq.n	8002e94 <HAL_TIM_IRQHandler+0xa4>
      {
#if (USE_HAL_TIM_REGISTER_CALLBACKS == 1)
        htim->IC_CaptureCallback(htim);
#else
        HAL_TIM_IC_CaptureCallback(htim);
 8002e8a:	687b      	ldr	r3, [r7, #4]
 8002e8c:	0018      	movs	r0, r3
 8002e8e:	f000 fa1d 	bl	80032cc <HAL_TIM_IC_CaptureCallback>
 8002e92:	e007      	b.n	8002ea4 <HAL_TIM_IRQHandler+0xb4>
      {
#if (USE_HAL_TIM_REGISTER_CALLBACKS == 1)
        htim->OC_DelayElapsedCallback(htim);
        htim->PWM_PulseFinishedCallback(htim);
#else
        HAL_TIM_OC_DelayElapsedCallback(htim);
 8002e94:	687b      	ldr	r3, [r7, #4]
 8002e96:	0018      	movs	r0, r3
 8002e98:	f000 fa10 	bl	80032bc <HAL_TIM_OC_DelayElapsedCallback>
        HAL_TIM_PWM_PulseFinishedCallback(htim);
 8002e9c:	687b      	ldr	r3, [r7, #4]
 8002e9e:	0018      	movs	r0, r3
 8002ea0:	f000 fa1c 	bl	80032dc <HAL_TIM_PWM_PulseFinishedCallback>
#endif /* USE_HAL_TIM_REGISTER_CALLBACKS */
      }
      htim->Channel = HAL_TIM_ACTIVE_CHANNEL_CLEARED;
 8002ea4:	687b      	ldr	r3, [r7, #4]
 8002ea6:	2200      	movs	r2, #0
 8002ea8:	761a      	strb	r2, [r3, #24]
    }
  }
  /* Capture compare 3 event */
  if (__HAL_TIM_GET_FLAG(htim, TIM_FLAG_CC3) != RESET)
 8002eaa:	687b      	ldr	r3, [r7, #4]
 8002eac:	681b      	ldr	r3, [r3, #0]
 8002eae:	691b      	ldr	r3, [r3, #16]
 8002eb0:	2208      	movs	r2, #8
 8002eb2:	4013      	ands	r3, r2
 8002eb4:	2b08      	cmp	r3, #8
 8002eb6:	d124      	bne.n	8002f02 <HAL_TIM_IRQHandler+0x112>
  {
    if (__HAL_TIM_GET_IT_SOURCE(htim, TIM_IT_CC3) != RESET)
 8002eb8:	687b      	ldr	r3, [r7, #4]
 8002eba:	681b      	ldr	r3, [r3, #0]
 8002ebc:	68db      	ldr	r3, [r3, #12]
 8002ebe:	2208      	movs	r2, #8
 8002ec0:	4013      	ands	r3, r2
 8002ec2:	2b08      	cmp	r3, #8
 8002ec4:	d11d      	bne.n	8002f02 <HAL_TIM_IRQHandler+0x112>
    {
      __HAL_TIM_CLEAR_IT(htim, TIM_IT_CC3);
 8002ec6:	687b      	ldr	r3, [r7, #4]
 8002ec8:	681b      	ldr	r3, [r3, #0]
 8002eca:	2209      	movs	r2, #9
 8002ecc:	4252      	negs	r2, r2
 8002ece:	611a      	str	r2, [r3, #16]
      htim->Channel = HAL_TIM_ACTIVE_CHANNEL_3;
 8002ed0:	687b      	ldr	r3, [r7, #4]
 8002ed2:	2204      	movs	r2, #4
 8002ed4:	761a      	strb	r2, [r3, #24]
      /* Input capture event */
      if ((htim->Instance->CCMR2 & TIM_CCMR2_CC3S) != 0x00U)
 8002ed6:	687b      	ldr	r3, [r7, #4]
 8002ed8:	681b      	ldr	r3, [r3, #0]
 8002eda:	69db      	ldr	r3, [r3, #28]
 8002edc:	2203      	movs	r2, #3
 8002ede:	4013      	ands	r3, r2
 8002ee0:	d004      	beq.n	8002eec <HAL_TIM_IRQHandler+0xfc>
      {
#if (USE_HAL_TIM_REGISTER_CALLBACKS == 1)
        htim->IC_CaptureCallback(htim);
#else
        HAL_TIM_IC_CaptureCallback(htim);
 8002ee2:	687b      	ldr	r3, [r7, #4]
 8002ee4:	0018      	movs	r0, r3
 8002ee6:	f000 f9f1 	bl	80032cc <HAL_TIM_IC_CaptureCallback>
 8002eea:	e007      	b.n	8002efc <HAL_TIM_IRQHandler+0x10c>
      {
#if (USE_HAL_TIM_REGISTER_CALLBACKS == 1)
        htim->OC_DelayElapsedCallback(htim);
        htim->PWM_PulseFinishedCallback(htim);
#else
        HAL_TIM_OC_DelayElapsedCallback(htim);
 8002eec:	687b      	ldr	r3, [r7, #4]
 8002eee:	0018      	movs	r0, r3
 8002ef0:	f000 f9e4 	bl	80032bc <HAL_TIM_OC_DelayElapsedCallback>
        HAL_TIM_PWM_PulseFinishedCallback(htim);
 8002ef4:	687b      	ldr	r3, [r7, #4]
 8002ef6:	0018      	movs	r0, r3
 8002ef8:	f000 f9f0 	bl	80032dc <HAL_TIM_PWM_PulseFinishedCallback>
#endif /* USE_HAL_TIM_REGISTER_CALLBACKS */
      }
      htim->Channel = HAL_TIM_ACTIVE_CHANNEL_CLEARED;
 8002efc:	687b      	ldr	r3, [r7, #4]
 8002efe:	2200      	movs	r2, #0
 8002f00:	761a      	strb	r2, [r3, #24]
    }
  }
  /* Capture compare 4 event */
  if (__HAL_TIM_GET_FLAG(htim, TIM_FLAG_CC4) != RESET)
 8002f02:	687b      	ldr	r3, [r7, #4]
 8002f04:	681b      	ldr	r3, [r3, #0]
 8002f06:	691b      	ldr	r3, [r3, #16]
 8002f08:	2210      	movs	r2, #16
 8002f0a:	4013      	ands	r3, r2
 8002f0c:	2b10      	cmp	r3, #16
 8002f0e:	d125      	bne.n	8002f5c <HAL_TIM_IRQHandler+0x16c>
  {
    if (__HAL_TIM_GET_IT_SOURCE(htim, TIM_IT_CC4) != RESET)
 8002f10:	687b      	ldr	r3, [r7, #4]
 8002f12:	681b      	ldr	r3, [r3, #0]
 8002f14:	68db      	ldr	r3, [r3, #12]
 8002f16:	2210      	movs	r2, #16
 8002f18:	4013      	ands	r3, r2
 8002f1a:	2b10      	cmp	r3, #16
 8002f1c:	d11e      	bne.n	8002f5c <HAL_TIM_IRQHandler+0x16c>
    {
      __HAL_TIM_CLEAR_IT(htim, TIM_IT_CC4);
 8002f1e:	687b      	ldr	r3, [r7, #4]
 8002f20:	681b      	ldr	r3, [r3, #0]
 8002f22:	2211      	movs	r2, #17
 8002f24:	4252      	negs	r2, r2
 8002f26:	611a      	str	r2, [r3, #16]
      htim->Channel = HAL_TIM_ACTIVE_CHANNEL_4;
 8002f28:	687b      	ldr	r3, [r7, #4]
 8002f2a:	2208      	movs	r2, #8
 8002f2c:	761a      	strb	r2, [r3, #24]
      /* Input capture event */
      if ((htim->Instance->CCMR2 & TIM_CCMR2_CC4S) != 0x00U)
 8002f2e:	687b      	ldr	r3, [r7, #4]
 8002f30:	681b      	ldr	r3, [r3, #0]
 8002f32:	69da      	ldr	r2, [r3, #28]
 8002f34:	23c0      	movs	r3, #192	; 0xc0
 8002f36:	009b      	lsls	r3, r3, #2
 8002f38:	4013      	ands	r3, r2
 8002f3a:	d004      	beq.n	8002f46 <HAL_TIM_IRQHandler+0x156>
      {
#if (USE_HAL_TIM_REGISTER_CALLBACKS == 1)
        htim->IC_CaptureCallback(htim);
#else
        HAL_TIM_IC_CaptureCallback(htim);
 8002f3c:	687b      	ldr	r3, [r7, #4]
 8002f3e:	0018      	movs	r0, r3
 8002f40:	f000 f9c4 	bl	80032cc <HAL_TIM_IC_CaptureCallback>
 8002f44:	e007      	b.n	8002f56 <HAL_TIM_IRQHandler+0x166>
      {
#if (USE_HAL_TIM_REGISTER_CALLBACKS == 1)
        htim->OC_DelayElapsedCallback(htim);
        htim->PWM_PulseFinishedCallback(htim);
#else
        HAL_TIM_OC_DelayElapsedCallback(htim);
 8002f46:	687b      	ldr	r3, [r7, #4]
 8002f48:	0018      	movs	r0, r3
 8002f4a:	f000 f9b7 	bl	80032bc <HAL_TIM_OC_DelayElapsedCallback>
        HAL_TIM_PWM_PulseFinishedCallback(htim);
 8002f4e:	687b      	ldr	r3, [r7, #4]
 8002f50:	0018      	movs	r0, r3
 8002f52:	f000 f9c3 	bl	80032dc <HAL_TIM_PWM_PulseFinishedCallback>
#endif /* USE_HAL_TIM_REGISTER_CALLBACKS */
      }
      htim->Channel = HAL_TIM_ACTIVE_CHANNEL_CLEARED;
 8002f56:	687b      	ldr	r3, [r7, #4]
 8002f58:	2200      	movs	r2, #0
 8002f5a:	761a      	strb	r2, [r3, #24]
    }
  }
  /* TIM Update event */
  if (__HAL_TIM_GET_FLAG(htim, TIM_FLAG_UPDATE) != RESET)
 8002f5c:	687b      	ldr	r3, [r7, #4]
 8002f5e:	681b      	ldr	r3, [r3, #0]
 8002f60:	691b      	ldr	r3, [r3, #16]
 8002f62:	2201      	movs	r2, #1
 8002f64:	4013      	ands	r3, r2
 8002f66:	2b01      	cmp	r3, #1
 8002f68:	d10f      	bne.n	8002f8a <HAL_TIM_IRQHandler+0x19a>
  {
    if (__HAL_TIM_GET_IT_SOURCE(htim, TIM_IT_UPDATE) != RESET)
 8002f6a:	687b      	ldr	r3, [r7, #4]
 8002f6c:	681b      	ldr	r3, [r3, #0]
 8002f6e:	68db      	ldr	r3, [r3, #12]
 8002f70:	2201      	movs	r2, #1
 8002f72:	4013      	ands	r3, r2
 8002f74:	2b01      	cmp	r3, #1
 8002f76:	d108      	bne.n	8002f8a <HAL_TIM_IRQHandler+0x19a>
    {
      __HAL_TIM_CLEAR_IT(htim, TIM_IT_UPDATE);
 8002f78:	687b      	ldr	r3, [r7, #4]
 8002f7a:	681b      	ldr	r3, [r3, #0]
 8002f7c:	2202      	movs	r2, #2
 8002f7e:	4252      	negs	r2, r2
 8002f80:	611a      	str	r2, [r3, #16]
#if (USE_HAL_TIM_REGISTER_CALLBACKS == 1)
      htim->PeriodElapsedCallback(htim);
#else
      HAL_TIM_PeriodElapsedCallback(htim);
 8002f82:	687b      	ldr	r3, [r7, #4]
 8002f84:	0018      	movs	r0, r3
 8002f86:	f000 f991 	bl	80032ac <HAL_TIM_PeriodElapsedCallback>
#endif /* USE_HAL_TIM_REGISTER_CALLBACKS */
    }
  }
  /* TIM Trigger detection event */
  if (__HAL_TIM_GET_FLAG(htim, TIM_FLAG_TRIGGER) != RESET)
 8002f8a:	687b      	ldr	r3, [r7, #4]
 8002f8c:	681b      	ldr	r3, [r3, #0]
 8002f8e:	691b      	ldr	r3, [r3, #16]
 8002f90:	2240      	movs	r2, #64	; 0x40
 8002f92:	4013      	ands	r3, r2
 8002f94:	2b40      	cmp	r3, #64	; 0x40
 8002f96:	d10f      	bne.n	8002fb8 <HAL_TIM_IRQHandler+0x1c8>
  {
    if (__HAL_TIM_GET_IT_SOURCE(htim, TIM_IT_TRIGGER) != RESET)
 8002f98:	687b      	ldr	r3, [r7, #4]
 8002f9a:	681b      	ldr	r3, [r3, #0]
 8002f9c:	68db      	ldr	r3, [r3, #12]
 8002f9e:	2240      	movs	r2, #64	; 0x40
 8002fa0:	4013      	ands	r3, r2
 8002fa2:	2b40      	cmp	r3, #64	; 0x40
 8002fa4:	d108      	bne.n	8002fb8 <HAL_TIM_IRQHandler+0x1c8>
    {
      __HAL_TIM_CLEAR_IT(htim, TIM_IT_TRIGGER);
 8002fa6:	687b      	ldr	r3, [r7, #4]
 8002fa8:	681b      	ldr	r3, [r3, #0]
 8002faa:	2241      	movs	r2, #65	; 0x41
 8002fac:	4252      	negs	r2, r2
 8002fae:	611a      	str	r2, [r3, #16]
#if (USE_HAL_TIM_REGISTER_CALLBACKS == 1)
      htim->TriggerCallback(htim);
#else
      HAL_TIM_TriggerCallback(htim);
 8002fb0:	687b      	ldr	r3, [r7, #4]
 8002fb2:	0018      	movs	r0, r3
 8002fb4:	f000 f99a 	bl	80032ec <HAL_TIM_TriggerCallback>
#endif /* USE_HAL_TIM_REGISTER_CALLBACKS */
    }
  }
}
 8002fb8:	46c0      	nop			; (mov r8, r8)
 8002fba:	46bd      	mov	sp, r7
 8002fbc:	b002      	add	sp, #8
 8002fbe:	bd80      	pop	{r7, pc}

08002fc0 <HAL_TIM_PWM_ConfigChannel>:
  * @retval HAL status
  */
HAL_StatusTypeDef HAL_TIM_PWM_ConfigChannel(TIM_HandleTypeDef *htim,
                                            TIM_OC_InitTypeDef *sConfig,
                                            uint32_t Channel)
{
 8002fc0:	b580      	push	{r7, lr}
 8002fc2:	b084      	sub	sp, #16
 8002fc4:	af00      	add	r7, sp, #0
 8002fc6:	60f8      	str	r0, [r7, #12]
 8002fc8:	60b9      	str	r1, [r7, #8]
 8002fca:	607a      	str	r2, [r7, #4]
  assert_param(IS_TIM_PWM_MODE(sConfig->OCMode));
  assert_param(IS_TIM_OC_POLARITY(sConfig->OCPolarity));
  assert_param(IS_TIM_FAST_STATE(sConfig->OCFastMode));

  /* Process Locked */
  __HAL_LOCK(htim);
 8002fcc:	68fb      	ldr	r3, [r7, #12]
 8002fce:	2238      	movs	r2, #56	; 0x38
 8002fd0:	5c9b      	ldrb	r3, [r3, r2]
 8002fd2:	2b01      	cmp	r3, #1
 8002fd4:	d101      	bne.n	8002fda <HAL_TIM_PWM_ConfigChannel+0x1a>
 8002fd6:	2302      	movs	r3, #2
 8002fd8:	e0a4      	b.n	8003124 <HAL_TIM_PWM_ConfigChannel+0x164>
 8002fda:	68fb      	ldr	r3, [r7, #12]
 8002fdc:	2238      	movs	r2, #56	; 0x38
 8002fde:	2101      	movs	r1, #1
 8002fe0:	5499      	strb	r1, [r3, r2]

  htim->State = HAL_TIM_STATE_BUSY;
 8002fe2:	68fb      	ldr	r3, [r7, #12]
 8002fe4:	2239      	movs	r2, #57	; 0x39
 8002fe6:	2102      	movs	r1, #2
 8002fe8:	5499      	strb	r1, [r3, r2]

  switch (Channel)
 8002fea:	687b      	ldr	r3, [r7, #4]
 8002fec:	2b04      	cmp	r3, #4
 8002fee:	d029      	beq.n	8003044 <HAL_TIM_PWM_ConfigChannel+0x84>
 8002ff0:	d802      	bhi.n	8002ff8 <HAL_TIM_PWM_ConfigChannel+0x38>
 8002ff2:	2b00      	cmp	r3, #0
 8002ff4:	d005      	beq.n	8003002 <HAL_TIM_PWM_ConfigChannel+0x42>
      htim->Instance->CCMR2 |= sConfig->OCFastMode << 8U;
      break;
    }

    default:
      break;
 8002ff6:	e08c      	b.n	8003112 <HAL_TIM_PWM_ConfigChannel+0x152>
  switch (Channel)
 8002ff8:	2b08      	cmp	r3, #8
 8002ffa:	d046      	beq.n	800308a <HAL_TIM_PWM_ConfigChannel+0xca>
 8002ffc:	2b0c      	cmp	r3, #12
 8002ffe:	d065      	beq.n	80030cc <HAL_TIM_PWM_ConfigChannel+0x10c>
      break;
 8003000:	e087      	b.n	8003112 <HAL_TIM_PWM_ConfigChannel+0x152>
      TIM_OC1_SetConfig(htim->Instance, sConfig);
 8003002:	68fb      	ldr	r3, [r7, #12]
 8003004:	681b      	ldr	r3, [r3, #0]
 8003006:	68ba      	ldr	r2, [r7, #8]
 8003008:	0011      	movs	r1, r2
 800300a:	0018      	movs	r0, r3
 800300c:	f000 f9c0 	bl	8003390 <TIM_OC1_SetConfig>
      htim->Instance->CCMR1 |= TIM_CCMR1_OC1PE;
 8003010:	68fb      	ldr	r3, [r7, #12]
 8003012:	681b      	ldr	r3, [r3, #0]
 8003014:	699a      	ldr	r2, [r3, #24]
 8003016:	68fb      	ldr	r3, [r7, #12]
 8003018:	681b      	ldr	r3, [r3, #0]
 800301a:	2108      	movs	r1, #8
 800301c:	430a      	orrs	r2, r1
 800301e:	619a      	str	r2, [r3, #24]
      htim->Instance->CCMR1 &= ~TIM_CCMR1_OC1FE;
 8003020:	68fb      	ldr	r3, [r7, #12]
 8003022:	681b      	ldr	r3, [r3, #0]
 8003024:	699a      	ldr	r2, [r3, #24]
 8003026:	68fb      	ldr	r3, [r7, #12]
 8003028:	681b      	ldr	r3, [r3, #0]
 800302a:	2104      	movs	r1, #4
 800302c:	438a      	bics	r2, r1
 800302e:	619a      	str	r2, [r3, #24]
      htim->Instance->CCMR1 |= sConfig->OCFastMode;
 8003030:	68fb      	ldr	r3, [r7, #12]
 8003032:	681b      	ldr	r3, [r3, #0]
 8003034:	6999      	ldr	r1, [r3, #24]
 8003036:	68bb      	ldr	r3, [r7, #8]
 8003038:	68da      	ldr	r2, [r3, #12]
 800303a:	68fb      	ldr	r3, [r7, #12]
 800303c:	681b      	ldr	r3, [r3, #0]
 800303e:	430a      	orrs	r2, r1
 8003040:	619a      	str	r2, [r3, #24]
      break;
 8003042:	e066      	b.n	8003112 <HAL_TIM_PWM_ConfigChannel+0x152>
      TIM_OC2_SetConfig(htim->Instance, sConfig);
 8003044:	68fb      	ldr	r3, [r7, #12]
 8003046:	681b      	ldr	r3, [r3, #0]
 8003048:	68ba      	ldr	r2, [r7, #8]
 800304a:	0011      	movs	r1, r2
 800304c:	0018      	movs	r0, r3
 800304e:	f000 f9db 	bl	8003408 <TIM_OC2_SetConfig>
      htim->Instance->CCMR1 |= TIM_CCMR1_OC2PE;
 8003052:	68fb      	ldr	r3, [r7, #12]
 8003054:	681b      	ldr	r3, [r3, #0]
 8003056:	699a      	ldr	r2, [r3, #24]
 8003058:	68fb      	ldr	r3, [r7, #12]
 800305a:	681b      	ldr	r3, [r3, #0]
 800305c:	2180      	movs	r1, #128	; 0x80
 800305e:	0109      	lsls	r1, r1, #4
 8003060:	430a      	orrs	r2, r1
 8003062:	619a      	str	r2, [r3, #24]
      htim->Instance->CCMR1 &= ~TIM_CCMR1_OC2FE;
 8003064:	68fb      	ldr	r3, [r7, #12]
 8003066:	681b      	ldr	r3, [r3, #0]
 8003068:	699a      	ldr	r2, [r3, #24]
 800306a:	68fb      	ldr	r3, [r7, #12]
 800306c:	681b      	ldr	r3, [r3, #0]
 800306e:	492f      	ldr	r1, [pc, #188]	; (800312c <HAL_TIM_PWM_ConfigChannel+0x16c>)
 8003070:	400a      	ands	r2, r1
 8003072:	619a      	str	r2, [r3, #24]
      htim->Instance->CCMR1 |= sConfig->OCFastMode << 8U;
 8003074:	68fb      	ldr	r3, [r7, #12]
 8003076:	681b      	ldr	r3, [r3, #0]
 8003078:	6999      	ldr	r1, [r3, #24]
 800307a:	68bb      	ldr	r3, [r7, #8]
 800307c:	68db      	ldr	r3, [r3, #12]
 800307e:	021a      	lsls	r2, r3, #8
 8003080:	68fb      	ldr	r3, [r7, #12]
 8003082:	681b      	ldr	r3, [r3, #0]
 8003084:	430a      	orrs	r2, r1
 8003086:	619a      	str	r2, [r3, #24]
      break;
 8003088:	e043      	b.n	8003112 <HAL_TIM_PWM_ConfigChannel+0x152>
      TIM_OC3_SetConfig(htim->Instance, sConfig);
 800308a:	68fb      	ldr	r3, [r7, #12]
 800308c:	681b      	ldr	r3, [r3, #0]
 800308e:	68ba      	ldr	r2, [r7, #8]
 8003090:	0011      	movs	r1, r2
 8003092:	0018      	movs	r0, r3
 8003094:	f000 f9fa 	bl	800348c <TIM_OC3_SetConfig>
      htim->Instance->CCMR2 |= TIM_CCMR2_OC3PE;
 8003098:	68fb      	ldr	r3, [r7, #12]
 800309a:	681b      	ldr	r3, [r3, #0]
 800309c:	69da      	ldr	r2, [r3, #28]
 800309e:	68fb      	ldr	r3, [r7, #12]
 80030a0:	681b      	ldr	r3, [r3, #0]
 80030a2:	2108      	movs	r1, #8
 80030a4:	430a      	orrs	r2, r1
 80030a6:	61da      	str	r2, [r3, #28]
      htim->Instance->CCMR2 &= ~TIM_CCMR2_OC3FE;
 80030a8:	68fb      	ldr	r3, [r7, #12]
 80030aa:	681b      	ldr	r3, [r3, #0]
 80030ac:	69da      	ldr	r2, [r3, #28]
 80030ae:	68fb      	ldr	r3, [r7, #12]
 80030b0:	681b      	ldr	r3, [r3, #0]
 80030b2:	2104      	movs	r1, #4
 80030b4:	438a      	bics	r2, r1
 80030b6:	61da      	str	r2, [r3, #28]
      htim->Instance->CCMR2 |= sConfig->OCFastMode;
 80030b8:	68fb      	ldr	r3, [r7, #12]
 80030ba:	681b      	ldr	r3, [r3, #0]
 80030bc:	69d9      	ldr	r1, [r3, #28]
 80030be:	68bb      	ldr	r3, [r7, #8]
 80030c0:	68da      	ldr	r2, [r3, #12]
 80030c2:	68fb      	ldr	r3, [r7, #12]
 80030c4:	681b      	ldr	r3, [r3, #0]
 80030c6:	430a      	orrs	r2, r1
 80030c8:	61da      	str	r2, [r3, #28]
      break;
 80030ca:	e022      	b.n	8003112 <HAL_TIM_PWM_ConfigChannel+0x152>
      TIM_OC4_SetConfig(htim->Instance, sConfig);
 80030cc:	68fb      	ldr	r3, [r7, #12]
 80030ce:	681b      	ldr	r3, [r3, #0]
 80030d0:	68ba      	ldr	r2, [r7, #8]
 80030d2:	0011      	movs	r1, r2
 80030d4:	0018      	movs	r0, r3
 80030d6:	f000 fa19 	bl	800350c <TIM_OC4_SetConfig>
      htim->Instance->CCMR2 |= TIM_CCMR2_OC4PE;
 80030da:	68fb      	ldr	r3, [r7, #12]
 80030dc:	681b      	ldr	r3, [r3, #0]
 80030de:	69da      	ldr	r2, [r3, #28]
 80030e0:	68fb      	ldr	r3, [r7, #12]
 80030e2:	681b      	ldr	r3, [r3, #0]
 80030e4:	2180      	movs	r1, #128	; 0x80
 80030e6:	0109      	lsls	r1, r1, #4
 80030e8:	430a      	orrs	r2, r1
 80030ea:	61da      	str	r2, [r3, #28]
      htim->Instance->CCMR2 &= ~TIM_CCMR2_OC4FE;
 80030ec:	68fb      	ldr	r3, [r7, #12]
 80030ee:	681b      	ldr	r3, [r3, #0]
 80030f0:	69da      	ldr	r2, [r3, #28]
 80030f2:	68fb      	ldr	r3, [r7, #12]
 80030f4:	681b      	ldr	r3, [r3, #0]
 80030f6:	490d      	ldr	r1, [pc, #52]	; (800312c <HAL_TIM_PWM_ConfigChannel+0x16c>)
 80030f8:	400a      	ands	r2, r1
 80030fa:	61da      	str	r2, [r3, #28]
      htim->Instance->CCMR2 |= sConfig->OCFastMode << 8U;
 80030fc:	68fb      	ldr	r3, [r7, #12]
 80030fe:	681b      	ldr	r3, [r3, #0]
 8003100:	69d9      	ldr	r1, [r3, #28]
 8003102:	68bb      	ldr	r3, [r7, #8]
 8003104:	68db      	ldr	r3, [r3, #12]
 8003106:	021a      	lsls	r2, r3, #8
 8003108:	68fb      	ldr	r3, [r7, #12]
 800310a:	681b      	ldr	r3, [r3, #0]
 800310c:	430a      	orrs	r2, r1
 800310e:	61da      	str	r2, [r3, #28]
      break;
 8003110:	46c0      	nop			; (mov r8, r8)
  }

  htim->State = HAL_TIM_STATE_READY;
 8003112:	68fb      	ldr	r3, [r7, #12]
 8003114:	2239      	movs	r2, #57	; 0x39
 8003116:	2101      	movs	r1, #1
 8003118:	5499      	strb	r1, [r3, r2]

  __HAL_UNLOCK(htim);
 800311a:	68fb      	ldr	r3, [r7, #12]
 800311c:	2238      	movs	r2, #56	; 0x38
 800311e:	2100      	movs	r1, #0
 8003120:	5499      	strb	r1, [r3, r2]

  return HAL_OK;
 8003122:	2300      	movs	r3, #0
}
 8003124:	0018      	movs	r0, r3
 8003126:	46bd      	mov	sp, r7
 8003128:	b004      	add	sp, #16
 800312a:	bd80      	pop	{r7, pc}
 800312c:	fffffbff 	.word	0xfffffbff

08003130 <HAL_TIM_ConfigClockSource>:
  * @param  sClockSourceConfig pointer to a TIM_ClockConfigTypeDef structure that
  *         contains the clock source information for the TIM peripheral.
  * @retval HAL status
  */
HAL_StatusTypeDef HAL_TIM_ConfigClockSource(TIM_HandleTypeDef *htim, TIM_ClockConfigTypeDef *sClockSourceConfig)
{
 8003130:	b580      	push	{r7, lr}
 8003132:	b084      	sub	sp, #16
 8003134:	af00      	add	r7, sp, #0
 8003136:	6078      	str	r0, [r7, #4]
 8003138:	6039      	str	r1, [r7, #0]
  uint32_t tmpsmcr;

  /* Process Locked */
  __HAL_LOCK(htim);
 800313a:	687b      	ldr	r3, [r7, #4]
 800313c:	2238      	movs	r2, #56	; 0x38
 800313e:	5c9b      	ldrb	r3, [r3, r2]
 8003140:	2b01      	cmp	r3, #1
 8003142:	d101      	bne.n	8003148 <HAL_TIM_ConfigClockSource+0x18>
 8003144:	2302      	movs	r3, #2
 8003146:	e0ab      	b.n	80032a0 <HAL_TIM_ConfigClockSource+0x170>
 8003148:	687b      	ldr	r3, [r7, #4]
 800314a:	2238      	movs	r2, #56	; 0x38
 800314c:	2101      	movs	r1, #1
 800314e:	5499      	strb	r1, [r3, r2]

  htim->State = HAL_TIM_STATE_BUSY;
 8003150:	687b      	ldr	r3, [r7, #4]
 8003152:	2239      	movs	r2, #57	; 0x39
 8003154:	2102      	movs	r1, #2
 8003156:	5499      	strb	r1, [r3, r2]

  /* Check the parameters */
  assert_param(IS_TIM_CLOCKSOURCE(sClockSourceConfig->ClockSource));

  /* Reset the SMS, TS, ECE, ETPS and ETRF bits */
  tmpsmcr = htim->Instance->SMCR;
 8003158:	687b      	ldr	r3, [r7, #4]
 800315a:	681b      	ldr	r3, [r3, #0]
 800315c:	689b      	ldr	r3, [r3, #8]
 800315e:	60fb      	str	r3, [r7, #12]
  tmpsmcr &= ~(TIM_SMCR_SMS | TIM_SMCR_TS);
 8003160:	68fb      	ldr	r3, [r7, #12]
 8003162:	2277      	movs	r2, #119	; 0x77
 8003164:	4393      	bics	r3, r2
 8003166:	60fb      	str	r3, [r7, #12]
  tmpsmcr &= ~(TIM_SMCR_ETF | TIM_SMCR_ETPS | TIM_SMCR_ECE | TIM_SMCR_ETP);
 8003168:	68fb      	ldr	r3, [r7, #12]
 800316a:	4a4f      	ldr	r2, [pc, #316]	; (80032a8 <HAL_TIM_ConfigClockSource+0x178>)
 800316c:	4013      	ands	r3, r2
 800316e:	60fb      	str	r3, [r7, #12]
  htim->Instance->SMCR = tmpsmcr;
 8003170:	687b      	ldr	r3, [r7, #4]
 8003172:	681b      	ldr	r3, [r3, #0]
 8003174:	68fa      	ldr	r2, [r7, #12]
 8003176:	609a      	str	r2, [r3, #8]

  switch (sClockSourceConfig->ClockSource)
 8003178:	683b      	ldr	r3, [r7, #0]
 800317a:	681b      	ldr	r3, [r3, #0]
 800317c:	2b40      	cmp	r3, #64	; 0x40
 800317e:	d100      	bne.n	8003182 <HAL_TIM_ConfigClockSource+0x52>
 8003180:	e06b      	b.n	800325a <HAL_TIM_ConfigClockSource+0x12a>
 8003182:	d80e      	bhi.n	80031a2 <HAL_TIM_ConfigClockSource+0x72>
 8003184:	2b10      	cmp	r3, #16
 8003186:	d100      	bne.n	800318a <HAL_TIM_ConfigClockSource+0x5a>
 8003188:	e077      	b.n	800327a <HAL_TIM_ConfigClockSource+0x14a>
 800318a:	d803      	bhi.n	8003194 <HAL_TIM_ConfigClockSource+0x64>
 800318c:	2b00      	cmp	r3, #0
 800318e:	d100      	bne.n	8003192 <HAL_TIM_ConfigClockSource+0x62>
 8003190:	e073      	b.n	800327a <HAL_TIM_ConfigClockSource+0x14a>
      TIM_ITRx_SetConfig(htim->Instance, sClockSourceConfig->ClockSource);
      break;
    }

    default:
      break;
 8003192:	e07c      	b.n	800328e <HAL_TIM_ConfigClockSource+0x15e>
  switch (sClockSourceConfig->ClockSource)
 8003194:	2b20      	cmp	r3, #32
 8003196:	d100      	bne.n	800319a <HAL_TIM_ConfigClockSource+0x6a>
 8003198:	e06f      	b.n	800327a <HAL_TIM_ConfigClockSource+0x14a>
 800319a:	2b30      	cmp	r3, #48	; 0x30
 800319c:	d100      	bne.n	80031a0 <HAL_TIM_ConfigClockSource+0x70>
 800319e:	e06c      	b.n	800327a <HAL_TIM_ConfigClockSource+0x14a>
      break;
 80031a0:	e075      	b.n	800328e <HAL_TIM_ConfigClockSource+0x15e>
  switch (sClockSourceConfig->ClockSource)
 80031a2:	2b70      	cmp	r3, #112	; 0x70
 80031a4:	d00e      	beq.n	80031c4 <HAL_TIM_ConfigClockSource+0x94>
 80031a6:	d804      	bhi.n	80031b2 <HAL_TIM_ConfigClockSource+0x82>
 80031a8:	2b50      	cmp	r3, #80	; 0x50
 80031aa:	d036      	beq.n	800321a <HAL_TIM_ConfigClockSource+0xea>
 80031ac:	2b60      	cmp	r3, #96	; 0x60
 80031ae:	d044      	beq.n	800323a <HAL_TIM_ConfigClockSource+0x10a>
      break;
 80031b0:	e06d      	b.n	800328e <HAL_TIM_ConfigClockSource+0x15e>
  switch (sClockSourceConfig->ClockSource)
 80031b2:	2280      	movs	r2, #128	; 0x80
 80031b4:	0152      	lsls	r2, r2, #5
 80031b6:	4293      	cmp	r3, r2
 80031b8:	d068      	beq.n	800328c <HAL_TIM_ConfigClockSource+0x15c>
 80031ba:	2280      	movs	r2, #128	; 0x80
 80031bc:	0192      	lsls	r2, r2, #6
 80031be:	4293      	cmp	r3, r2
 80031c0:	d017      	beq.n	80031f2 <HAL_TIM_ConfigClockSource+0xc2>
      break;
 80031c2:	e064      	b.n	800328e <HAL_TIM_ConfigClockSource+0x15e>
      TIM_ETR_SetConfig(htim->Instance,
 80031c4:	687b      	ldr	r3, [r7, #4]
 80031c6:	6818      	ldr	r0, [r3, #0]
 80031c8:	683b      	ldr	r3, [r7, #0]
 80031ca:	6899      	ldr	r1, [r3, #8]
 80031cc:	683b      	ldr	r3, [r7, #0]
 80031ce:	685a      	ldr	r2, [r3, #4]
 80031d0:	683b      	ldr	r3, [r7, #0]
 80031d2:	68db      	ldr	r3, [r3, #12]
 80031d4:	f000 fa5a 	bl	800368c <TIM_ETR_SetConfig>
      tmpsmcr = htim->Instance->SMCR;
 80031d8:	687b      	ldr	r3, [r7, #4]
 80031da:	681b      	ldr	r3, [r3, #0]
 80031dc:	689b      	ldr	r3, [r3, #8]
 80031de:	60fb      	str	r3, [r7, #12]
      tmpsmcr |= (TIM_SLAVEMODE_EXTERNAL1 | TIM_CLOCKSOURCE_ETRMODE1);
 80031e0:	68fb      	ldr	r3, [r7, #12]
 80031e2:	2277      	movs	r2, #119	; 0x77
 80031e4:	4313      	orrs	r3, r2
 80031e6:	60fb      	str	r3, [r7, #12]
      htim->Instance->SMCR = tmpsmcr;
 80031e8:	687b      	ldr	r3, [r7, #4]
 80031ea:	681b      	ldr	r3, [r3, #0]
 80031ec:	68fa      	ldr	r2, [r7, #12]
 80031ee:	609a      	str	r2, [r3, #8]
      break;
 80031f0:	e04d      	b.n	800328e <HAL_TIM_ConfigClockSource+0x15e>
      TIM_ETR_SetConfig(htim->Instance,
 80031f2:	687b      	ldr	r3, [r7, #4]
 80031f4:	6818      	ldr	r0, [r3, #0]
 80031f6:	683b      	ldr	r3, [r7, #0]
 80031f8:	6899      	ldr	r1, [r3, #8]
 80031fa:	683b      	ldr	r3, [r7, #0]
 80031fc:	685a      	ldr	r2, [r3, #4]
 80031fe:	683b      	ldr	r3, [r7, #0]
 8003200:	68db      	ldr	r3, [r3, #12]
 8003202:	f000 fa43 	bl	800368c <TIM_ETR_SetConfig>
      htim->Instance->SMCR |= TIM_SMCR_ECE;
 8003206:	687b      	ldr	r3, [r7, #4]
 8003208:	681b      	ldr	r3, [r3, #0]
 800320a:	689a      	ldr	r2, [r3, #8]
 800320c:	687b      	ldr	r3, [r7, #4]
 800320e:	681b      	ldr	r3, [r3, #0]
 8003210:	2180      	movs	r1, #128	; 0x80
 8003212:	01c9      	lsls	r1, r1, #7
 8003214:	430a      	orrs	r2, r1
 8003216:	609a      	str	r2, [r3, #8]
      break;
 8003218:	e039      	b.n	800328e <HAL_TIM_ConfigClockSource+0x15e>
      TIM_TI1_ConfigInputStage(htim->Instance,
 800321a:	687b      	ldr	r3, [r7, #4]
 800321c:	6818      	ldr	r0, [r3, #0]
 800321e:	683b      	ldr	r3, [r7, #0]
 8003220:	6859      	ldr	r1, [r3, #4]
 8003222:	683b      	ldr	r3, [r7, #0]
 8003224:	68db      	ldr	r3, [r3, #12]
 8003226:	001a      	movs	r2, r3
 8003228:	f000 f9b6 	bl	8003598 <TIM_TI1_ConfigInputStage>
      TIM_ITRx_SetConfig(htim->Instance, TIM_CLOCKSOURCE_TI1);
 800322c:	687b      	ldr	r3, [r7, #4]
 800322e:	681b      	ldr	r3, [r3, #0]
 8003230:	2150      	movs	r1, #80	; 0x50
 8003232:	0018      	movs	r0, r3
 8003234:	f000 fa10 	bl	8003658 <TIM_ITRx_SetConfig>
      break;
 8003238:	e029      	b.n	800328e <HAL_TIM_ConfigClockSource+0x15e>
      TIM_TI2_ConfigInputStage(htim->Instance,
 800323a:	687b      	ldr	r3, [r7, #4]
 800323c:	6818      	ldr	r0, [r3, #0]
 800323e:	683b      	ldr	r3, [r7, #0]
 8003240:	6859      	ldr	r1, [r3, #4]
 8003242:	683b      	ldr	r3, [r7, #0]
 8003244:	68db      	ldr	r3, [r3, #12]
 8003246:	001a      	movs	r2, r3
 8003248:	f000 f9d4 	bl	80035f4 <TIM_TI2_ConfigInputStage>
      TIM_ITRx_SetConfig(htim->Instance, TIM_CLOCKSOURCE_TI2);
 800324c:	687b      	ldr	r3, [r7, #4]
 800324e:	681b      	ldr	r3, [r3, #0]
 8003250:	2160      	movs	r1, #96	; 0x60
 8003252:	0018      	movs	r0, r3
 8003254:	f000 fa00 	bl	8003658 <TIM_ITRx_SetConfig>
      break;
 8003258:	e019      	b.n	800328e <HAL_TIM_ConfigClockSource+0x15e>
      TIM_TI1_ConfigInputStage(htim->Instance,
 800325a:	687b      	ldr	r3, [r7, #4]
 800325c:	6818      	ldr	r0, [r3, #0]
 800325e:	683b      	ldr	r3, [r7, #0]
 8003260:	6859      	ldr	r1, [r3, #4]
 8003262:	683b      	ldr	r3, [r7, #0]
 8003264:	68db      	ldr	r3, [r3, #12]
 8003266:	001a      	movs	r2, r3
 8003268:	f000 f996 	bl	8003598 <TIM_TI1_ConfigInputStage>
      TIM_ITRx_SetConfig(htim->Instance, TIM_CLOCKSOURCE_TI1ED);
 800326c:	687b      	ldr	r3, [r7, #4]
 800326e:	681b      	ldr	r3, [r3, #0]
 8003270:	2140      	movs	r1, #64	; 0x40
 8003272:	0018      	movs	r0, r3
 8003274:	f000 f9f0 	bl	8003658 <TIM_ITRx_SetConfig>
      break;
 8003278:	e009      	b.n	800328e <HAL_TIM_ConfigClockSource+0x15e>
      TIM_ITRx_SetConfig(htim->Instance, sClockSourceConfig->ClockSource);
 800327a:	687b      	ldr	r3, [r7, #4]
 800327c:	681a      	ldr	r2, [r3, #0]
 800327e:	683b      	ldr	r3, [r7, #0]
 8003280:	681b      	ldr	r3, [r3, #0]
 8003282:	0019      	movs	r1, r3
 8003284:	0010      	movs	r0, r2
 8003286:	f000 f9e7 	bl	8003658 <TIM_ITRx_SetConfig>
      break;
 800328a:	e000      	b.n	800328e <HAL_TIM_ConfigClockSource+0x15e>
      break;
 800328c:	46c0      	nop			; (mov r8, r8)
  }
  htim->State = HAL_TIM_STATE_READY;
 800328e:	687b      	ldr	r3, [r7, #4]
 8003290:	2239      	movs	r2, #57	; 0x39
 8003292:	2101      	movs	r1, #1
 8003294:	5499      	strb	r1, [r3, r2]

  __HAL_UNLOCK(htim);
 8003296:	687b      	ldr	r3, [r7, #4]
 8003298:	2238      	movs	r2, #56	; 0x38
 800329a:	2100      	movs	r1, #0
 800329c:	5499      	strb	r1, [r3, r2]

  return HAL_OK;
 800329e:	2300      	movs	r3, #0
}
 80032a0:	0018      	movs	r0, r3
 80032a2:	46bd      	mov	sp, r7
 80032a4:	b004      	add	sp, #16
 80032a6:	bd80      	pop	{r7, pc}
 80032a8:	ffff00ff 	.word	0xffff00ff

080032ac <HAL_TIM_PeriodElapsedCallback>:
  * @brief  Period elapsed callback in non-blocking mode
  * @param  htim TIM handle
  * @retval None
  */
__weak void HAL_TIM_PeriodElapsedCallback(TIM_HandleTypeDef *htim)
{
 80032ac:	b580      	push	{r7, lr}
 80032ae:	b082      	sub	sp, #8
 80032b0:	af00      	add	r7, sp, #0
 80032b2:	6078      	str	r0, [r7, #4]
  UNUSED(htim);

  /* NOTE : This function should not be modified, when the callback is needed,
            the HAL_TIM_PeriodElapsedCallback could be implemented in the user file
   */
}
 80032b4:	46c0      	nop			; (mov r8, r8)
 80032b6:	46bd      	mov	sp, r7
 80032b8:	b002      	add	sp, #8
 80032ba:	bd80      	pop	{r7, pc}

080032bc <HAL_TIM_OC_DelayElapsedCallback>:
  * @brief  Output Compare callback in non-blocking mode
  * @param  htim TIM OC handle
  * @retval None
  */
__weak void HAL_TIM_OC_DelayElapsedCallback(TIM_HandleTypeDef *htim)
{
 80032bc:	b580      	push	{r7, lr}
 80032be:	b082      	sub	sp, #8
 80032c0:	af00      	add	r7, sp, #0
 80032c2:	6078      	str	r0, [r7, #4]
  UNUSED(htim);

  /* NOTE : This function should not be modified, when the callback is needed,
            the HAL_TIM_OC_DelayElapsedCallback could be implemented in the user file
   */
}
 80032c4:	46c0      	nop			; (mov r8, r8)
 80032c6:	46bd      	mov	sp, r7
 80032c8:	b002      	add	sp, #8
 80032ca:	bd80      	pop	{r7, pc}

080032cc <HAL_TIM_IC_CaptureCallback>:
  * @brief  Input Capture callback in non-blocking mode
  * @param  htim TIM IC handle
  * @retval None
  */
__weak void HAL_TIM_IC_CaptureCallback(TIM_HandleTypeDef *htim)
{
 80032cc:	b580      	push	{r7, lr}
 80032ce:	b082      	sub	sp, #8
 80032d0:	af00      	add	r7, sp, #0
 80032d2:	6078      	str	r0, [r7, #4]
  UNUSED(htim);

  /* NOTE : This function should not be modified, when the callback is needed,
            the HAL_TIM_IC_CaptureCallback could be implemented in the user file
   */
}
 80032d4:	46c0      	nop			; (mov r8, r8)
 80032d6:	46bd      	mov	sp, r7
 80032d8:	b002      	add	sp, #8
 80032da:	bd80      	pop	{r7, pc}

080032dc <HAL_TIM_PWM_PulseFinishedCallback>:
  * @brief  PWM Pulse finished callback in non-blocking mode
  * @param  htim TIM handle
  * @retval None
  */
__weak void HAL_TIM_PWM_PulseFinishedCallback(TIM_HandleTypeDef *htim)
{
 80032dc:	b580      	push	{r7, lr}
 80032de:	b082      	sub	sp, #8
 80032e0:	af00      	add	r7, sp, #0
 80032e2:	6078      	str	r0, [r7, #4]
  UNUSED(htim);

  /* NOTE : This function should not be modified, when the callback is needed,
            the HAL_TIM_PWM_PulseFinishedCallback could be implemented in the user file
   */
}
 80032e4:	46c0      	nop			; (mov r8, r8)
 80032e6:	46bd      	mov	sp, r7
 80032e8:	b002      	add	sp, #8
 80032ea:	bd80      	pop	{r7, pc}

080032ec <HAL_TIM_TriggerCallback>:
  * @brief  Hall Trigger detection callback in non-blocking mode
  * @param  htim TIM handle
  * @retval None
  */
__weak void HAL_TIM_TriggerCallback(TIM_HandleTypeDef *htim)
{
 80032ec:	b580      	push	{r7, lr}
 80032ee:	b082      	sub	sp, #8
 80032f0:	af00      	add	r7, sp, #0
 80032f2:	6078      	str	r0, [r7, #4]
  UNUSED(htim);

  /* NOTE : This function should not be modified, when the callback is needed,
            the HAL_TIM_TriggerCallback could be implemented in the user file
   */
}
 80032f4:	46c0      	nop			; (mov r8, r8)
 80032f6:	46bd      	mov	sp, r7
 80032f8:	b002      	add	sp, #8
 80032fa:	bd80      	pop	{r7, pc}

080032fc <TIM_Base_SetConfig>:
  * @param  TIMx TIM peripheral
  * @param  Structure TIM Base configuration structure
  * @retval None
  */
void TIM_Base_SetConfig(TIM_TypeDef *TIMx, TIM_Base_InitTypeDef *Structure)
{
 80032fc:	b580      	push	{r7, lr}
 80032fe:	b084      	sub	sp, #16
 8003300:	af00      	add	r7, sp, #0
 8003302:	6078      	str	r0, [r7, #4]
 8003304:	6039      	str	r1, [r7, #0]
  uint32_t tmpcr1;
  tmpcr1 = TIMx->CR1;
 8003306:	687b      	ldr	r3, [r7, #4]
 8003308:	681b      	ldr	r3, [r3, #0]
 800330a:	60fb      	str	r3, [r7, #12]

  /* Set TIM Time Base Unit parameters ---------------------------------------*/
  if (IS_TIM_COUNTER_MODE_SELECT_INSTANCE(TIMx))
 800330c:	687a      	ldr	r2, [r7, #4]
 800330e:	2380      	movs	r3, #128	; 0x80
 8003310:	05db      	lsls	r3, r3, #23
 8003312:	429a      	cmp	r2, r3
 8003314:	d003      	beq.n	800331e <TIM_Base_SetConfig+0x22>
 8003316:	687b      	ldr	r3, [r7, #4]
 8003318:	4a1b      	ldr	r2, [pc, #108]	; (8003388 <TIM_Base_SetConfig+0x8c>)
 800331a:	4293      	cmp	r3, r2
 800331c:	d108      	bne.n	8003330 <TIM_Base_SetConfig+0x34>
  {
    /* Select the Counter Mode */
    tmpcr1 &= ~(TIM_CR1_DIR | TIM_CR1_CMS);
 800331e:	68fb      	ldr	r3, [r7, #12]
 8003320:	2270      	movs	r2, #112	; 0x70
 8003322:	4393      	bics	r3, r2
 8003324:	60fb      	str	r3, [r7, #12]
    tmpcr1 |= Structure->CounterMode;
 8003326:	683b      	ldr	r3, [r7, #0]
 8003328:	685b      	ldr	r3, [r3, #4]
 800332a:	68fa      	ldr	r2, [r7, #12]
 800332c:	4313      	orrs	r3, r2
 800332e:	60fb      	str	r3, [r7, #12]
  }

  if (IS_TIM_CLOCK_DIVISION_INSTANCE(TIMx))
 8003330:	687a      	ldr	r2, [r7, #4]
 8003332:	2380      	movs	r3, #128	; 0x80
 8003334:	05db      	lsls	r3, r3, #23
 8003336:	429a      	cmp	r2, r3
 8003338:	d003      	beq.n	8003342 <TIM_Base_SetConfig+0x46>
 800333a:	687b      	ldr	r3, [r7, #4]
 800333c:	4a12      	ldr	r2, [pc, #72]	; (8003388 <TIM_Base_SetConfig+0x8c>)
 800333e:	4293      	cmp	r3, r2
 8003340:	d108      	bne.n	8003354 <TIM_Base_SetConfig+0x58>
  {
    /* Set the clock division */
    tmpcr1 &= ~TIM_CR1_CKD;
 8003342:	68fb      	ldr	r3, [r7, #12]
 8003344:	4a11      	ldr	r2, [pc, #68]	; (800338c <TIM_Base_SetConfig+0x90>)
 8003346:	4013      	ands	r3, r2
 8003348:	60fb      	str	r3, [r7, #12]
    tmpcr1 |= (uint32_t)Structure->ClockDivision;
 800334a:	683b      	ldr	r3, [r7, #0]
 800334c:	68db      	ldr	r3, [r3, #12]
 800334e:	68fa      	ldr	r2, [r7, #12]
 8003350:	4313      	orrs	r3, r2
 8003352:	60fb      	str	r3, [r7, #12]
  }

  /* Set the auto-reload preload */
  MODIFY_REG(tmpcr1, TIM_CR1_ARPE, Structure->AutoReloadPreload);
 8003354:	68fb      	ldr	r3, [r7, #12]
 8003356:	2280      	movs	r2, #128	; 0x80
 8003358:	4393      	bics	r3, r2
 800335a:	001a      	movs	r2, r3
 800335c:	683b      	ldr	r3, [r7, #0]
 800335e:	691b      	ldr	r3, [r3, #16]
 8003360:	4313      	orrs	r3, r2
 8003362:	60fb      	str	r3, [r7, #12]

  TIMx->CR1 = tmpcr1;
 8003364:	687b      	ldr	r3, [r7, #4]
 8003366:	68fa      	ldr	r2, [r7, #12]
 8003368:	601a      	str	r2, [r3, #0]

  /* Set the Autoreload value */
  TIMx->ARR = (uint32_t)Structure->Period ;
 800336a:	683b      	ldr	r3, [r7, #0]
 800336c:	689a      	ldr	r2, [r3, #8]
 800336e:	687b      	ldr	r3, [r7, #4]
 8003370:	62da      	str	r2, [r3, #44]	; 0x2c

  /* Set the Prescaler value */
  TIMx->PSC = Structure->Prescaler;
 8003372:	683b      	ldr	r3, [r7, #0]
 8003374:	681a      	ldr	r2, [r3, #0]
 8003376:	687b      	ldr	r3, [r7, #4]
 8003378:	629a      	str	r2, [r3, #40]	; 0x28

  /* Generate an update event to reload the Prescaler
     and the repetition counter (only for advanced timer) value immediately */
  TIMx->EGR = TIM_EGR_UG;
 800337a:	687b      	ldr	r3, [r7, #4]
 800337c:	2201      	movs	r2, #1
 800337e:	615a      	str	r2, [r3, #20]
}
 8003380:	46c0      	nop			; (mov r8, r8)
 8003382:	46bd      	mov	sp, r7
 8003384:	b004      	add	sp, #16
 8003386:	bd80      	pop	{r7, pc}
 8003388:	40010800 	.word	0x40010800
 800338c:	fffffcff 	.word	0xfffffcff

08003390 <TIM_OC1_SetConfig>:
  * @param  TIMx to select the TIM peripheral
  * @param  OC_Config The ouput configuration structure
  * @retval None
  */
static void TIM_OC1_SetConfig(TIM_TypeDef *TIMx, TIM_OC_InitTypeDef *OC_Config)
{
 8003390:	b580      	push	{r7, lr}
 8003392:	b086      	sub	sp, #24
 8003394:	af00      	add	r7, sp, #0
 8003396:	6078      	str	r0, [r7, #4]
 8003398:	6039      	str	r1, [r7, #0]
  uint32_t tmpccmrx;
  uint32_t tmpccer;
  uint32_t tmpcr2;

  /* Disable the Channel 1: Reset the CC1E Bit */
  TIMx->CCER &= ~TIM_CCER_CC1E;
 800339a:	687b      	ldr	r3, [r7, #4]
 800339c:	6a1b      	ldr	r3, [r3, #32]
 800339e:	2201      	movs	r2, #1
 80033a0:	4393      	bics	r3, r2
 80033a2:	001a      	movs	r2, r3
 80033a4:	687b      	ldr	r3, [r7, #4]
 80033a6:	621a      	str	r2, [r3, #32]

  /* Get the TIMx CCER register value */
  tmpccer = TIMx->CCER;
 80033a8:	687b      	ldr	r3, [r7, #4]
 80033aa:	6a1b      	ldr	r3, [r3, #32]
 80033ac:	617b      	str	r3, [r7, #20]
  /* Get the TIMx CR2 register value */
  tmpcr2 =  TIMx->CR2;
 80033ae:	687b      	ldr	r3, [r7, #4]
 80033b0:	685b      	ldr	r3, [r3, #4]
 80033b2:	613b      	str	r3, [r7, #16]

  /* Get the TIMx CCMR1 register value */
  tmpccmrx = TIMx->CCMR1;
 80033b4:	687b      	ldr	r3, [r7, #4]
 80033b6:	699b      	ldr	r3, [r3, #24]
 80033b8:	60fb      	str	r3, [r7, #12]

  /* Reset the Output Compare Mode Bits */
  tmpccmrx &= ~TIM_CCMR1_OC1M;
 80033ba:	68fb      	ldr	r3, [r7, #12]
 80033bc:	2270      	movs	r2, #112	; 0x70
 80033be:	4393      	bics	r3, r2
 80033c0:	60fb      	str	r3, [r7, #12]
  tmpccmrx &= ~TIM_CCMR1_CC1S;
 80033c2:	68fb      	ldr	r3, [r7, #12]
 80033c4:	2203      	movs	r2, #3
 80033c6:	4393      	bics	r3, r2
 80033c8:	60fb      	str	r3, [r7, #12]
  /* Select the Output Compare Mode */
  tmpccmrx |= OC_Config->OCMode;
 80033ca:	683b      	ldr	r3, [r7, #0]
 80033cc:	681b      	ldr	r3, [r3, #0]
 80033ce:	68fa      	ldr	r2, [r7, #12]
 80033d0:	4313      	orrs	r3, r2
 80033d2:	60fb      	str	r3, [r7, #12]

  /* Reset the Output Polarity level */
  tmpccer &= ~TIM_CCER_CC1P;
 80033d4:	697b      	ldr	r3, [r7, #20]
 80033d6:	2202      	movs	r2, #2
 80033d8:	4393      	bics	r3, r2
 80033da:	617b      	str	r3, [r7, #20]
  /* Set the Output Compare Polarity */
  tmpccer |= OC_Config->OCPolarity;
 80033dc:	683b      	ldr	r3, [r7, #0]
 80033de:	689b      	ldr	r3, [r3, #8]
 80033e0:	697a      	ldr	r2, [r7, #20]
 80033e2:	4313      	orrs	r3, r2
 80033e4:	617b      	str	r3, [r7, #20]

  /* Write to TIMx CR2 */
  TIMx->CR2 = tmpcr2;
 80033e6:	687b      	ldr	r3, [r7, #4]
 80033e8:	693a      	ldr	r2, [r7, #16]
 80033ea:	605a      	str	r2, [r3, #4]

  /* Write to TIMx CCMR1 */
  TIMx->CCMR1 = tmpccmrx;
 80033ec:	687b      	ldr	r3, [r7, #4]
 80033ee:	68fa      	ldr	r2, [r7, #12]
 80033f0:	619a      	str	r2, [r3, #24]

  /* Set the Capture Compare Register value */
  TIMx->CCR1 = OC_Config->Pulse;
 80033f2:	683b      	ldr	r3, [r7, #0]
 80033f4:	685a      	ldr	r2, [r3, #4]
 80033f6:	687b      	ldr	r3, [r7, #4]
 80033f8:	635a      	str	r2, [r3, #52]	; 0x34

  /* Write to TIMx CCER */
  TIMx->CCER = tmpccer;
 80033fa:	687b      	ldr	r3, [r7, #4]
 80033fc:	697a      	ldr	r2, [r7, #20]
 80033fe:	621a      	str	r2, [r3, #32]
}
 8003400:	46c0      	nop			; (mov r8, r8)
 8003402:	46bd      	mov	sp, r7
 8003404:	b006      	add	sp, #24
 8003406:	bd80      	pop	{r7, pc}

08003408 <TIM_OC2_SetConfig>:
  * @param  TIMx to select the TIM peripheral
  * @param  OC_Config The ouput configuration structure
  * @retval None
  */
static void TIM_OC2_SetConfig(TIM_TypeDef *TIMx, TIM_OC_InitTypeDef *OC_Config)
{
 8003408:	b580      	push	{r7, lr}
 800340a:	b086      	sub	sp, #24
 800340c:	af00      	add	r7, sp, #0
 800340e:	6078      	str	r0, [r7, #4]
 8003410:	6039      	str	r1, [r7, #0]
  uint32_t tmpccmrx;
  uint32_t tmpccer;
  uint32_t tmpcr2;

  /* Disable the Channel 2: Reset the CC2E Bit */
  TIMx->CCER &= ~TIM_CCER_CC2E;
 8003412:	687b      	ldr	r3, [r7, #4]
 8003414:	6a1b      	ldr	r3, [r3, #32]
 8003416:	2210      	movs	r2, #16
 8003418:	4393      	bics	r3, r2
 800341a:	001a      	movs	r2, r3
 800341c:	687b      	ldr	r3, [r7, #4]
 800341e:	621a      	str	r2, [r3, #32]

  /* Get the TIMx CCER register value */
  tmpccer = TIMx->CCER;
 8003420:	687b      	ldr	r3, [r7, #4]
 8003422:	6a1b      	ldr	r3, [r3, #32]
 8003424:	617b      	str	r3, [r7, #20]
  /* Get the TIMx CR2 register value */
  tmpcr2 =  TIMx->CR2;
 8003426:	687b      	ldr	r3, [r7, #4]
 8003428:	685b      	ldr	r3, [r3, #4]
 800342a:	613b      	str	r3, [r7, #16]

  /* Get the TIMx CCMR1 register value */
  tmpccmrx = TIMx->CCMR1;
 800342c:	687b      	ldr	r3, [r7, #4]
 800342e:	699b      	ldr	r3, [r3, #24]
 8003430:	60fb      	str	r3, [r7, #12]

  /* Reset the Output Compare mode and Capture/Compare selection Bits */
  tmpccmrx &= ~TIM_CCMR1_OC2M;
 8003432:	68fb      	ldr	r3, [r7, #12]
 8003434:	4a13      	ldr	r2, [pc, #76]	; (8003484 <TIM_OC2_SetConfig+0x7c>)
 8003436:	4013      	ands	r3, r2
 8003438:	60fb      	str	r3, [r7, #12]
  tmpccmrx &= ~TIM_CCMR1_CC2S;
 800343a:	68fb      	ldr	r3, [r7, #12]
 800343c:	4a12      	ldr	r2, [pc, #72]	; (8003488 <TIM_OC2_SetConfig+0x80>)
 800343e:	4013      	ands	r3, r2
 8003440:	60fb      	str	r3, [r7, #12]

  /* Select the Output Compare Mode */
  tmpccmrx |= (OC_Config->OCMode << 8U);
 8003442:	683b      	ldr	r3, [r7, #0]
 8003444:	681b      	ldr	r3, [r3, #0]
 8003446:	021b      	lsls	r3, r3, #8
 8003448:	68fa      	ldr	r2, [r7, #12]
 800344a:	4313      	orrs	r3, r2
 800344c:	60fb      	str	r3, [r7, #12]

  /* Reset the Output Polarity level */
  tmpccer &= ~TIM_CCER_CC2P;
 800344e:	697b      	ldr	r3, [r7, #20]
 8003450:	2220      	movs	r2, #32
 8003452:	4393      	bics	r3, r2
 8003454:	617b      	str	r3, [r7, #20]
  /* Set the Output Compare Polarity */
  tmpccer |= (OC_Config->OCPolarity << 4U);
 8003456:	683b      	ldr	r3, [r7, #0]
 8003458:	689b      	ldr	r3, [r3, #8]
 800345a:	011b      	lsls	r3, r3, #4
 800345c:	697a      	ldr	r2, [r7, #20]
 800345e:	4313      	orrs	r3, r2
 8003460:	617b      	str	r3, [r7, #20]

  /* Write to TIMx CR2 */
  TIMx->CR2 = tmpcr2;
 8003462:	687b      	ldr	r3, [r7, #4]
 8003464:	693a      	ldr	r2, [r7, #16]
 8003466:	605a      	str	r2, [r3, #4]

  /* Write to TIMx CCMR1 */
  TIMx->CCMR1 = tmpccmrx;
 8003468:	687b      	ldr	r3, [r7, #4]
 800346a:	68fa      	ldr	r2, [r7, #12]
 800346c:	619a      	str	r2, [r3, #24]

  /* Set the Capture Compare Register value */
  TIMx->CCR2 = OC_Config->Pulse;
 800346e:	683b      	ldr	r3, [r7, #0]
 8003470:	685a      	ldr	r2, [r3, #4]
 8003472:	687b      	ldr	r3, [r7, #4]
 8003474:	639a      	str	r2, [r3, #56]	; 0x38

  /* Write to TIMx CCER */
  TIMx->CCER = tmpccer;
 8003476:	687b      	ldr	r3, [r7, #4]
 8003478:	697a      	ldr	r2, [r7, #20]
 800347a:	621a      	str	r2, [r3, #32]
}
 800347c:	46c0      	nop			; (mov r8, r8)
 800347e:	46bd      	mov	sp, r7
 8003480:	b006      	add	sp, #24
 8003482:	bd80      	pop	{r7, pc}
 8003484:	ffff8fff 	.word	0xffff8fff
 8003488:	fffffcff 	.word	0xfffffcff

0800348c <TIM_OC3_SetConfig>:
  * @param  TIMx to select the TIM peripheral
  * @param  OC_Config The ouput configuration structure
  * @retval None
  */
static void TIM_OC3_SetConfig(TIM_TypeDef *TIMx, TIM_OC_InitTypeDef *OC_Config)
{
 800348c:	b580      	push	{r7, lr}
 800348e:	b086      	sub	sp, #24
 8003490:	af00      	add	r7, sp, #0
 8003492:	6078      	str	r0, [r7, #4]
 8003494:	6039      	str	r1, [r7, #0]
  uint32_t tmpccmrx;
  uint32_t tmpccer;
  uint32_t tmpcr2;

  /* Disable the Channel 3: Reset the CC2E Bit */
  TIMx->CCER &= ~TIM_CCER_CC3E;
 8003496:	687b      	ldr	r3, [r7, #4]
 8003498:	6a1b      	ldr	r3, [r3, #32]
 800349a:	4a1a      	ldr	r2, [pc, #104]	; (8003504 <TIM_OC3_SetConfig+0x78>)
 800349c:	401a      	ands	r2, r3
 800349e:	687b      	ldr	r3, [r7, #4]
 80034a0:	621a      	str	r2, [r3, #32]

  /* Get the TIMx CCER register value */
  tmpccer = TIMx->CCER;
 80034a2:	687b      	ldr	r3, [r7, #4]
 80034a4:	6a1b      	ldr	r3, [r3, #32]
 80034a6:	617b      	str	r3, [r7, #20]
  /* Get the TIMx CR2 register value */
  tmpcr2 =  TIMx->CR2;
 80034a8:	687b      	ldr	r3, [r7, #4]
 80034aa:	685b      	ldr	r3, [r3, #4]
 80034ac:	613b      	str	r3, [r7, #16]

  /* Get the TIMx CCMR2 register value */
  tmpccmrx = TIMx->CCMR2;
 80034ae:	687b      	ldr	r3, [r7, #4]
 80034b0:	69db      	ldr	r3, [r3, #28]
 80034b2:	60fb      	str	r3, [r7, #12]

  /* Reset the Output Compare mode and Capture/Compare selection Bits */
  tmpccmrx &= ~TIM_CCMR2_OC3M;
 80034b4:	68fb      	ldr	r3, [r7, #12]
 80034b6:	2270      	movs	r2, #112	; 0x70
 80034b8:	4393      	bics	r3, r2
 80034ba:	60fb      	str	r3, [r7, #12]
  tmpccmrx &= ~TIM_CCMR2_CC3S;
 80034bc:	68fb      	ldr	r3, [r7, #12]
 80034be:	2203      	movs	r2, #3
 80034c0:	4393      	bics	r3, r2
 80034c2:	60fb      	str	r3, [r7, #12]
  /* Select the Output Compare Mode */
  tmpccmrx |= OC_Config->OCMode;
 80034c4:	683b      	ldr	r3, [r7, #0]
 80034c6:	681b      	ldr	r3, [r3, #0]
 80034c8:	68fa      	ldr	r2, [r7, #12]
 80034ca:	4313      	orrs	r3, r2
 80034cc:	60fb      	str	r3, [r7, #12]

  /* Reset the Output Polarity level */
  tmpccer &= ~TIM_CCER_CC3P;
 80034ce:	697b      	ldr	r3, [r7, #20]
 80034d0:	4a0d      	ldr	r2, [pc, #52]	; (8003508 <TIM_OC3_SetConfig+0x7c>)
 80034d2:	4013      	ands	r3, r2
 80034d4:	617b      	str	r3, [r7, #20]
  /* Set the Output Compare Polarity */
  tmpccer |= (OC_Config->OCPolarity << 8U);
 80034d6:	683b      	ldr	r3, [r7, #0]
 80034d8:	689b      	ldr	r3, [r3, #8]
 80034da:	021b      	lsls	r3, r3, #8
 80034dc:	697a      	ldr	r2, [r7, #20]
 80034de:	4313      	orrs	r3, r2
 80034e0:	617b      	str	r3, [r7, #20]

  /* Write to TIMx CR2 */
  TIMx->CR2 = tmpcr2;
 80034e2:	687b      	ldr	r3, [r7, #4]
 80034e4:	693a      	ldr	r2, [r7, #16]
 80034e6:	605a      	str	r2, [r3, #4]

  /* Write to TIMx CCMR2 */
  TIMx->CCMR2 = tmpccmrx;
 80034e8:	687b      	ldr	r3, [r7, #4]
 80034ea:	68fa      	ldr	r2, [r7, #12]
 80034ec:	61da      	str	r2, [r3, #28]

  /* Set the Capture Compare Register value */
  TIMx->CCR3 = OC_Config->Pulse;
 80034ee:	683b      	ldr	r3, [r7, #0]
 80034f0:	685a      	ldr	r2, [r3, #4]
 80034f2:	687b      	ldr	r3, [r7, #4]
 80034f4:	63da      	str	r2, [r3, #60]	; 0x3c

  /* Write to TIMx CCER */
  TIMx->CCER = tmpccer;
 80034f6:	687b      	ldr	r3, [r7, #4]
 80034f8:	697a      	ldr	r2, [r7, #20]
 80034fa:	621a      	str	r2, [r3, #32]
}
 80034fc:	46c0      	nop			; (mov r8, r8)
 80034fe:	46bd      	mov	sp, r7
 8003500:	b006      	add	sp, #24
 8003502:	bd80      	pop	{r7, pc}
 8003504:	fffffeff 	.word	0xfffffeff
 8003508:	fffffdff 	.word	0xfffffdff

0800350c <TIM_OC4_SetConfig>:
  * @param  TIMx to select the TIM peripheral
  * @param  OC_Config The ouput configuration structure
  * @retval None
  */
static void TIM_OC4_SetConfig(TIM_TypeDef *TIMx, TIM_OC_InitTypeDef *OC_Config)
{
 800350c:	b580      	push	{r7, lr}
 800350e:	b086      	sub	sp, #24
 8003510:	af00      	add	r7, sp, #0
 8003512:	6078      	str	r0, [r7, #4]
 8003514:	6039      	str	r1, [r7, #0]
  uint32_t tmpccmrx;
  uint32_t tmpccer;
  uint32_t tmpcr2;

  /* Disable the Channel 4: Reset the CC4E Bit */
  TIMx->CCER &= ~TIM_CCER_CC4E;
 8003516:	687b      	ldr	r3, [r7, #4]
 8003518:	6a1b      	ldr	r3, [r3, #32]
 800351a:	4a1b      	ldr	r2, [pc, #108]	; (8003588 <TIM_OC4_SetConfig+0x7c>)
 800351c:	401a      	ands	r2, r3
 800351e:	687b      	ldr	r3, [r7, #4]
 8003520:	621a      	str	r2, [r3, #32]

  /* Get the TIMx CCER register value */
  tmpccer = TIMx->CCER;
 8003522:	687b      	ldr	r3, [r7, #4]
 8003524:	6a1b      	ldr	r3, [r3, #32]
 8003526:	617b      	str	r3, [r7, #20]
  /* Get the TIMx CR2 register value */
  tmpcr2 =  TIMx->CR2;
 8003528:	687b      	ldr	r3, [r7, #4]
 800352a:	685b      	ldr	r3, [r3, #4]
 800352c:	613b      	str	r3, [r7, #16]

  /* Get the TIMx CCMR2 register value */
  tmpccmrx = TIMx->CCMR2;
 800352e:	687b      	ldr	r3, [r7, #4]
 8003530:	69db      	ldr	r3, [r3, #28]
 8003532:	60fb      	str	r3, [r7, #12]

  /* Reset the Output Compare mode and Capture/Compare selection Bits */
  tmpccmrx &= ~TIM_CCMR2_OC4M;
 8003534:	68fb      	ldr	r3, [r7, #12]
 8003536:	4a15      	ldr	r2, [pc, #84]	; (800358c <TIM_OC4_SetConfig+0x80>)
 8003538:	4013      	ands	r3, r2
 800353a:	60fb      	str	r3, [r7, #12]
  tmpccmrx &= ~TIM_CCMR2_CC4S;
 800353c:	68fb      	ldr	r3, [r7, #12]
 800353e:	4a14      	ldr	r2, [pc, #80]	; (8003590 <TIM_OC4_SetConfig+0x84>)
 8003540:	4013      	ands	r3, r2
 8003542:	60fb      	str	r3, [r7, #12]

  /* Select the Output Compare Mode */
  tmpccmrx |= (OC_Config->OCMode << 8U);
 8003544:	683b      	ldr	r3, [r7, #0]
 8003546:	681b      	ldr	r3, [r3, #0]
 8003548:	021b      	lsls	r3, r3, #8
 800354a:	68fa      	ldr	r2, [r7, #12]
 800354c:	4313      	orrs	r3, r2
 800354e:	60fb      	str	r3, [r7, #12]

  /* Reset the Output Polarity level */
  tmpccer &= ~TIM_CCER_CC4P;
 8003550:	697b      	ldr	r3, [r7, #20]
 8003552:	4a10      	ldr	r2, [pc, #64]	; (8003594 <TIM_OC4_SetConfig+0x88>)
 8003554:	4013      	ands	r3, r2
 8003556:	617b      	str	r3, [r7, #20]
  /* Set the Output Compare Polarity */
  tmpccer |= (OC_Config->OCPolarity << 12U);
 8003558:	683b      	ldr	r3, [r7, #0]
 800355a:	689b      	ldr	r3, [r3, #8]
 800355c:	031b      	lsls	r3, r3, #12
 800355e:	697a      	ldr	r2, [r7, #20]
 8003560:	4313      	orrs	r3, r2
 8003562:	617b      	str	r3, [r7, #20]

  /* Write to TIMx CR2 */
  TIMx->CR2 = tmpcr2;
 8003564:	687b      	ldr	r3, [r7, #4]
 8003566:	693a      	ldr	r2, [r7, #16]
 8003568:	605a      	str	r2, [r3, #4]

  /* Write to TIMx CCMR2 */
  TIMx->CCMR2 = tmpccmrx;
 800356a:	687b      	ldr	r3, [r7, #4]
 800356c:	68fa      	ldr	r2, [r7, #12]
 800356e:	61da      	str	r2, [r3, #28]

  /* Set the Capture Compare Register value */
  TIMx->CCR4 = OC_Config->Pulse;
 8003570:	683b      	ldr	r3, [r7, #0]
 8003572:	685a      	ldr	r2, [r3, #4]
 8003574:	687b      	ldr	r3, [r7, #4]
 8003576:	641a      	str	r2, [r3, #64]	; 0x40

  /* Write to TIMx CCER */
  TIMx->CCER = tmpccer;
 8003578:	687b      	ldr	r3, [r7, #4]
 800357a:	697a      	ldr	r2, [r7, #20]
 800357c:	621a      	str	r2, [r3, #32]
}
 800357e:	46c0      	nop			; (mov r8, r8)
 8003580:	46bd      	mov	sp, r7
 8003582:	b006      	add	sp, #24
 8003584:	bd80      	pop	{r7, pc}
 8003586:	46c0      	nop			; (mov r8, r8)
 8003588:	ffffefff 	.word	0xffffefff
 800358c:	ffff8fff 	.word	0xffff8fff
 8003590:	fffffcff 	.word	0xfffffcff
 8003594:	ffffdfff 	.word	0xffffdfff

08003598 <TIM_TI1_ConfigInputStage>:
  * @param  TIM_ICFilter Specifies the Input Capture Filter.
  *          This parameter must be a value between 0x00 and 0x0F.
  * @retval None
  */
static void TIM_TI1_ConfigInputStage(TIM_TypeDef *TIMx, uint32_t TIM_ICPolarity, uint32_t TIM_ICFilter)
{
 8003598:	b580      	push	{r7, lr}
 800359a:	b086      	sub	sp, #24
 800359c:	af00      	add	r7, sp, #0
 800359e:	60f8      	str	r0, [r7, #12]
 80035a0:	60b9      	str	r1, [r7, #8]
 80035a2:	607a      	str	r2, [r7, #4]
  uint32_t tmpccmr1;
  uint32_t tmpccer;

  /* Disable the Channel 1: Reset the CC1E Bit */
  tmpccer = TIMx->CCER;
 80035a4:	68fb      	ldr	r3, [r7, #12]
 80035a6:	6a1b      	ldr	r3, [r3, #32]
 80035a8:	617b      	str	r3, [r7, #20]
  TIMx->CCER &= ~TIM_CCER_CC1E;
 80035aa:	68fb      	ldr	r3, [r7, #12]
 80035ac:	6a1b      	ldr	r3, [r3, #32]
 80035ae:	2201      	movs	r2, #1
 80035b0:	4393      	bics	r3, r2
 80035b2:	001a      	movs	r2, r3
 80035b4:	68fb      	ldr	r3, [r7, #12]
 80035b6:	621a      	str	r2, [r3, #32]
  tmpccmr1 = TIMx->CCMR1;
 80035b8:	68fb      	ldr	r3, [r7, #12]
 80035ba:	699b      	ldr	r3, [r3, #24]
 80035bc:	613b      	str	r3, [r7, #16]

  /* Set the filter */
  tmpccmr1 &= ~TIM_CCMR1_IC1F;
 80035be:	693b      	ldr	r3, [r7, #16]
 80035c0:	22f0      	movs	r2, #240	; 0xf0
 80035c2:	4393      	bics	r3, r2
 80035c4:	613b      	str	r3, [r7, #16]
  tmpccmr1 |= (TIM_ICFilter << 4U);
 80035c6:	687b      	ldr	r3, [r7, #4]
 80035c8:	011b      	lsls	r3, r3, #4
 80035ca:	693a      	ldr	r2, [r7, #16]
 80035cc:	4313      	orrs	r3, r2
 80035ce:	613b      	str	r3, [r7, #16]

  /* Select the Polarity and set the CC1E Bit */
  tmpccer &= ~(TIM_CCER_CC1P | TIM_CCER_CC1NP);
 80035d0:	697b      	ldr	r3, [r7, #20]
 80035d2:	220a      	movs	r2, #10
 80035d4:	4393      	bics	r3, r2
 80035d6:	617b      	str	r3, [r7, #20]
  tmpccer |= TIM_ICPolarity;
 80035d8:	697a      	ldr	r2, [r7, #20]
 80035da:	68bb      	ldr	r3, [r7, #8]
 80035dc:	4313      	orrs	r3, r2
 80035de:	617b      	str	r3, [r7, #20]

  /* Write to TIMx CCMR1 and CCER registers */
  TIMx->CCMR1 = tmpccmr1;
 80035e0:	68fb      	ldr	r3, [r7, #12]
 80035e2:	693a      	ldr	r2, [r7, #16]
 80035e4:	619a      	str	r2, [r3, #24]
  TIMx->CCER = tmpccer;
 80035e6:	68fb      	ldr	r3, [r7, #12]
 80035e8:	697a      	ldr	r2, [r7, #20]
 80035ea:	621a      	str	r2, [r3, #32]
}
 80035ec:	46c0      	nop			; (mov r8, r8)
 80035ee:	46bd      	mov	sp, r7
 80035f0:	b006      	add	sp, #24
 80035f2:	bd80      	pop	{r7, pc}

080035f4 <TIM_TI2_ConfigInputStage>:
  * @param  TIM_ICFilter Specifies the Input Capture Filter.
  *          This parameter must be a value between 0x00 and 0x0F.
  * @retval None
  */
static void TIM_TI2_ConfigInputStage(TIM_TypeDef *TIMx, uint32_t TIM_ICPolarity, uint32_t TIM_ICFilter)
{
 80035f4:	b580      	push	{r7, lr}
 80035f6:	b086      	sub	sp, #24
 80035f8:	af00      	add	r7, sp, #0
 80035fa:	60f8      	str	r0, [r7, #12]
 80035fc:	60b9      	str	r1, [r7, #8]
 80035fe:	607a      	str	r2, [r7, #4]
  uint32_t tmpccmr1;
  uint32_t tmpccer;

  /* Disable the Channel 2: Reset the CC2E Bit */
  TIMx->CCER &= ~TIM_CCER_CC2E;
 8003600:	68fb      	ldr	r3, [r7, #12]
 8003602:	6a1b      	ldr	r3, [r3, #32]
 8003604:	2210      	movs	r2, #16
 8003606:	4393      	bics	r3, r2
 8003608:	001a      	movs	r2, r3
 800360a:	68fb      	ldr	r3, [r7, #12]
 800360c:	621a      	str	r2, [r3, #32]
  tmpccmr1 = TIMx->CCMR1;
 800360e:	68fb      	ldr	r3, [r7, #12]
 8003610:	699b      	ldr	r3, [r3, #24]
 8003612:	617b      	str	r3, [r7, #20]
  tmpccer = TIMx->CCER;
 8003614:	68fb      	ldr	r3, [r7, #12]
 8003616:	6a1b      	ldr	r3, [r3, #32]
 8003618:	613b      	str	r3, [r7, #16]

  /* Set the filter */
  tmpccmr1 &= ~TIM_CCMR1_IC2F;
 800361a:	697b      	ldr	r3, [r7, #20]
 800361c:	4a0d      	ldr	r2, [pc, #52]	; (8003654 <TIM_TI2_ConfigInputStage+0x60>)
 800361e:	4013      	ands	r3, r2
 8003620:	617b      	str	r3, [r7, #20]
  tmpccmr1 |= (TIM_ICFilter << 12U);
 8003622:	687b      	ldr	r3, [r7, #4]
 8003624:	031b      	lsls	r3, r3, #12
 8003626:	697a      	ldr	r2, [r7, #20]
 8003628:	4313      	orrs	r3, r2
 800362a:	617b      	str	r3, [r7, #20]

  /* Select the Polarity and set the CC2E Bit */
  tmpccer &= ~(TIM_CCER_CC2P | TIM_CCER_CC2NP);
 800362c:	693b      	ldr	r3, [r7, #16]
 800362e:	22a0      	movs	r2, #160	; 0xa0
 8003630:	4393      	bics	r3, r2
 8003632:	613b      	str	r3, [r7, #16]
  tmpccer |= (TIM_ICPolarity << 4U);
 8003634:	68bb      	ldr	r3, [r7, #8]
 8003636:	011b      	lsls	r3, r3, #4
 8003638:	693a      	ldr	r2, [r7, #16]
 800363a:	4313      	orrs	r3, r2
 800363c:	613b      	str	r3, [r7, #16]

  /* Write to TIMx CCMR1 and CCER registers */
  TIMx->CCMR1 = tmpccmr1 ;
 800363e:	68fb      	ldr	r3, [r7, #12]
 8003640:	697a      	ldr	r2, [r7, #20]
 8003642:	619a      	str	r2, [r3, #24]
  TIMx->CCER = tmpccer;
 8003644:	68fb      	ldr	r3, [r7, #12]
 8003646:	693a      	ldr	r2, [r7, #16]
 8003648:	621a      	str	r2, [r3, #32]
}
 800364a:	46c0      	nop			; (mov r8, r8)
 800364c:	46bd      	mov	sp, r7
 800364e:	b006      	add	sp, #24
 8003650:	bd80      	pop	{r7, pc}
 8003652:	46c0      	nop			; (mov r8, r8)
 8003654:	ffff0fff 	.word	0xffff0fff

08003658 <TIM_ITRx_SetConfig>:
  *            @arg TIM_TS_TI2FP2: Filtered Timer Input 2
  *            @arg TIM_TS_ETRF: External Trigger input
  * @retval None
  */
static void TIM_ITRx_SetConfig(TIM_TypeDef *TIMx, uint32_t InputTriggerSource)
{
 8003658:	b580      	push	{r7, lr}
 800365a:	b084      	sub	sp, #16
 800365c:	af00      	add	r7, sp, #0
 800365e:	6078      	str	r0, [r7, #4]
 8003660:	6039      	str	r1, [r7, #0]
  uint32_t tmpsmcr;

  /* Get the TIMx SMCR register value */
  tmpsmcr = TIMx->SMCR;
 8003662:	687b      	ldr	r3, [r7, #4]
 8003664:	689b      	ldr	r3, [r3, #8]
 8003666:	60fb      	str	r3, [r7, #12]
  /* Reset the TS Bits */
  tmpsmcr &= ~TIM_SMCR_TS;
 8003668:	68fb      	ldr	r3, [r7, #12]
 800366a:	2270      	movs	r2, #112	; 0x70
 800366c:	4393      	bics	r3, r2
 800366e:	60fb      	str	r3, [r7, #12]
  /* Set the Input Trigger source and the slave mode*/
  tmpsmcr |= (InputTriggerSource | TIM_SLAVEMODE_EXTERNAL1);
 8003670:	683a      	ldr	r2, [r7, #0]
 8003672:	68fb      	ldr	r3, [r7, #12]
 8003674:	4313      	orrs	r3, r2
 8003676:	2207      	movs	r2, #7
 8003678:	4313      	orrs	r3, r2
 800367a:	60fb      	str	r3, [r7, #12]
  /* Write to TIMx SMCR */
  TIMx->SMCR = tmpsmcr;
 800367c:	687b      	ldr	r3, [r7, #4]
 800367e:	68fa      	ldr	r2, [r7, #12]
 8003680:	609a      	str	r2, [r3, #8]
}
 8003682:	46c0      	nop			; (mov r8, r8)
 8003684:	46bd      	mov	sp, r7
 8003686:	b004      	add	sp, #16
 8003688:	bd80      	pop	{r7, pc}
	...

0800368c <TIM_ETR_SetConfig>:
  *          This parameter must be a value between 0x00 and 0x0F
  * @retval None
  */
static void TIM_ETR_SetConfig(TIM_TypeDef *TIMx, uint32_t TIM_ExtTRGPrescaler,
                              uint32_t TIM_ExtTRGPolarity, uint32_t ExtTRGFilter)
{
 800368c:	b580      	push	{r7, lr}
 800368e:	b086      	sub	sp, #24
 8003690:	af00      	add	r7, sp, #0
 8003692:	60f8      	str	r0, [r7, #12]
 8003694:	60b9      	str	r1, [r7, #8]
 8003696:	607a      	str	r2, [r7, #4]
 8003698:	603b      	str	r3, [r7, #0]
  uint32_t tmpsmcr;

  tmpsmcr = TIMx->SMCR;
 800369a:	68fb      	ldr	r3, [r7, #12]
 800369c:	689b      	ldr	r3, [r3, #8]
 800369e:	617b      	str	r3, [r7, #20]

  /* Reset the ETR Bits */
  tmpsmcr &= ~(TIM_SMCR_ETF | TIM_SMCR_ETPS | TIM_SMCR_ECE | TIM_SMCR_ETP);
 80036a0:	697b      	ldr	r3, [r7, #20]
 80036a2:	4a09      	ldr	r2, [pc, #36]	; (80036c8 <TIM_ETR_SetConfig+0x3c>)
 80036a4:	4013      	ands	r3, r2
 80036a6:	617b      	str	r3, [r7, #20]

  /* Set the Prescaler, the Filter value and the Polarity */
  tmpsmcr |= (uint32_t)(TIM_ExtTRGPrescaler | (TIM_ExtTRGPolarity | (ExtTRGFilter << 8U)));
 80036a8:	683b      	ldr	r3, [r7, #0]
 80036aa:	021a      	lsls	r2, r3, #8
 80036ac:	687b      	ldr	r3, [r7, #4]
 80036ae:	431a      	orrs	r2, r3
 80036b0:	68bb      	ldr	r3, [r7, #8]
 80036b2:	4313      	orrs	r3, r2
 80036b4:	697a      	ldr	r2, [r7, #20]
 80036b6:	4313      	orrs	r3, r2
 80036b8:	617b      	str	r3, [r7, #20]

  /* Write to TIMx SMCR */
  TIMx->SMCR = tmpsmcr;
 80036ba:	68fb      	ldr	r3, [r7, #12]
 80036bc:	697a      	ldr	r2, [r7, #20]
 80036be:	609a      	str	r2, [r3, #8]
}
 80036c0:	46c0      	nop			; (mov r8, r8)
 80036c2:	46bd      	mov	sp, r7
 80036c4:	b006      	add	sp, #24
 80036c6:	bd80      	pop	{r7, pc}
 80036c8:	ffff00ff 	.word	0xffff00ff

080036cc <TIM_CCxChannelCmd>:
  * @param  ChannelState specifies the TIM Channel CCxE bit new state.
  *          This parameter can be: TIM_CCx_ENABLE or TIM_CCx_DISABLE.
  * @retval None
  */
static void TIM_CCxChannelCmd(TIM_TypeDef *TIMx, uint32_t Channel, uint32_t ChannelState)
{
 80036cc:	b580      	push	{r7, lr}
 80036ce:	b086      	sub	sp, #24
 80036d0:	af00      	add	r7, sp, #0
 80036d2:	60f8      	str	r0, [r7, #12]
 80036d4:	60b9      	str	r1, [r7, #8]
 80036d6:	607a      	str	r2, [r7, #4]

  /* Check the parameters */
  assert_param(IS_TIM_CC1_INSTANCE(TIMx));
  assert_param(IS_TIM_CHANNELS(Channel));

  tmp = TIM_CCER_CC1E << (Channel & 0x1FU); /* 0x1FU = 31 bits max shift */
 80036d8:	68bb      	ldr	r3, [r7, #8]
 80036da:	221f      	movs	r2, #31
 80036dc:	4013      	ands	r3, r2
 80036de:	2201      	movs	r2, #1
 80036e0:	409a      	lsls	r2, r3
 80036e2:	0013      	movs	r3, r2
 80036e4:	617b      	str	r3, [r7, #20]

  /* Reset the CCxE Bit */
  TIMx->CCER &= ~tmp;
 80036e6:	68fb      	ldr	r3, [r7, #12]
 80036e8:	6a1b      	ldr	r3, [r3, #32]
 80036ea:	697a      	ldr	r2, [r7, #20]
 80036ec:	43d2      	mvns	r2, r2
 80036ee:	401a      	ands	r2, r3
 80036f0:	68fb      	ldr	r3, [r7, #12]
 80036f2:	621a      	str	r2, [r3, #32]

  /* Set or reset the CCxE Bit */
  TIMx->CCER |= (uint32_t)(ChannelState << (Channel & 0x1FU)); /* 0x1FU = 31 bits max shift */
 80036f4:	68fb      	ldr	r3, [r7, #12]
 80036f6:	6a1a      	ldr	r2, [r3, #32]
 80036f8:	68bb      	ldr	r3, [r7, #8]
 80036fa:	211f      	movs	r1, #31
 80036fc:	400b      	ands	r3, r1
 80036fe:	6879      	ldr	r1, [r7, #4]
 8003700:	4099      	lsls	r1, r3
 8003702:	000b      	movs	r3, r1
 8003704:	431a      	orrs	r2, r3
 8003706:	68fb      	ldr	r3, [r7, #12]
 8003708:	621a      	str	r2, [r3, #32]
}
 800370a:	46c0      	nop			; (mov r8, r8)
 800370c:	46bd      	mov	sp, r7
 800370e:	b006      	add	sp, #24
 8003710:	bd80      	pop	{r7, pc}

08003712 <HAL_TIMEx_MasterConfigSynchronization>:
  *         mode.
  * @retval HAL status
  */
HAL_StatusTypeDef HAL_TIMEx_MasterConfigSynchronization(TIM_HandleTypeDef *htim,
                                                        TIM_MasterConfigTypeDef *sMasterConfig)
{
 8003712:	b580      	push	{r7, lr}
 8003714:	b084      	sub	sp, #16
 8003716:	af00      	add	r7, sp, #0
 8003718:	6078      	str	r0, [r7, #4]
 800371a:	6039      	str	r1, [r7, #0]
  assert_param(IS_TIM_SYNCHRO_INSTANCE(htim->Instance));
  assert_param(IS_TIM_TRGO_SOURCE(sMasterConfig->MasterOutputTrigger));
  assert_param(IS_TIM_MSM_STATE(sMasterConfig->MasterSlaveMode));

  /* Check input state */
  __HAL_LOCK(htim);
 800371c:	687b      	ldr	r3, [r7, #4]
 800371e:	2238      	movs	r2, #56	; 0x38
 8003720:	5c9b      	ldrb	r3, [r3, r2]
 8003722:	2b01      	cmp	r3, #1
 8003724:	d101      	bne.n	800372a <HAL_TIMEx_MasterConfigSynchronization+0x18>
 8003726:	2302      	movs	r3, #2
 8003728:	e032      	b.n	8003790 <HAL_TIMEx_MasterConfigSynchronization+0x7e>
 800372a:	687b      	ldr	r3, [r7, #4]
 800372c:	2238      	movs	r2, #56	; 0x38
 800372e:	2101      	movs	r1, #1
 8003730:	5499      	strb	r1, [r3, r2]

  /* Change the handler state */
  htim->State = HAL_TIM_STATE_BUSY;
 8003732:	687b      	ldr	r3, [r7, #4]
 8003734:	2239      	movs	r2, #57	; 0x39
 8003736:	2102      	movs	r1, #2
 8003738:	5499      	strb	r1, [r3, r2]

  /* Get the TIMx CR2 register value */
  tmpcr2 = htim->Instance->CR2;
 800373a:	687b      	ldr	r3, [r7, #4]
 800373c:	681b      	ldr	r3, [r3, #0]
 800373e:	685b      	ldr	r3, [r3, #4]
 8003740:	60fb      	str	r3, [r7, #12]

  /* Get the TIMx SMCR register value */
  tmpsmcr = htim->Instance->SMCR;
 8003742:	687b      	ldr	r3, [r7, #4]
 8003744:	681b      	ldr	r3, [r3, #0]
 8003746:	689b      	ldr	r3, [r3, #8]
 8003748:	60bb      	str	r3, [r7, #8]

  /* Reset the MMS Bits */
  tmpcr2 &= ~TIM_CR2_MMS;
 800374a:	68fb      	ldr	r3, [r7, #12]
 800374c:	2270      	movs	r2, #112	; 0x70
 800374e:	4393      	bics	r3, r2
 8003750:	60fb      	str	r3, [r7, #12]
  /* Select the TRGO source */
  tmpcr2 |=  sMasterConfig->MasterOutputTrigger;
 8003752:	683b      	ldr	r3, [r7, #0]
 8003754:	681b      	ldr	r3, [r3, #0]
 8003756:	68fa      	ldr	r2, [r7, #12]
 8003758:	4313      	orrs	r3, r2
 800375a:	60fb      	str	r3, [r7, #12]

  /* Reset the MSM Bit */
  tmpsmcr &= ~TIM_SMCR_MSM;
 800375c:	68bb      	ldr	r3, [r7, #8]
 800375e:	2280      	movs	r2, #128	; 0x80
 8003760:	4393      	bics	r3, r2
 8003762:	60bb      	str	r3, [r7, #8]
  /* Set master mode */
  tmpsmcr |= sMasterConfig->MasterSlaveMode;
 8003764:	683b      	ldr	r3, [r7, #0]
 8003766:	685b      	ldr	r3, [r3, #4]
 8003768:	68ba      	ldr	r2, [r7, #8]
 800376a:	4313      	orrs	r3, r2
 800376c:	60bb      	str	r3, [r7, #8]

  /* Update TIMx CR2 */
  htim->Instance->CR2 = tmpcr2;
 800376e:	687b      	ldr	r3, [r7, #4]
 8003770:	681b      	ldr	r3, [r3, #0]
 8003772:	68fa      	ldr	r2, [r7, #12]
 8003774:	605a      	str	r2, [r3, #4]

  /* Update TIMx SMCR */
  htim->Instance->SMCR = tmpsmcr;
 8003776:	687b      	ldr	r3, [r7, #4]
 8003778:	681b      	ldr	r3, [r3, #0]
 800377a:	68ba      	ldr	r2, [r7, #8]
 800377c:	609a      	str	r2, [r3, #8]

  /* Change the htim state */
  htim->State = HAL_TIM_STATE_READY;
 800377e:	687b      	ldr	r3, [r7, #4]
 8003780:	2239      	movs	r2, #57	; 0x39
 8003782:	2101      	movs	r1, #1
 8003784:	5499      	strb	r1, [r3, r2]

  __HAL_UNLOCK(htim);
 8003786:	687b      	ldr	r3, [r7, #4]
 8003788:	2238      	movs	r2, #56	; 0x38
 800378a:	2100      	movs	r1, #0
 800378c:	5499      	strb	r1, [r3, r2]

  return HAL_OK;
 800378e:	2300      	movs	r3, #0
}
 8003790:	0018      	movs	r0, r3
 8003792:	46bd      	mov	sp, r7
 8003794:	b004      	add	sp, #16
 8003796:	bd80      	pop	{r7, pc}

08003798 <__libc_init_array>:
 8003798:	b570      	push	{r4, r5, r6, lr}
 800379a:	2600      	movs	r6, #0
 800379c:	4d0c      	ldr	r5, [pc, #48]	; (80037d0 <__libc_init_array+0x38>)
 800379e:	4c0d      	ldr	r4, [pc, #52]	; (80037d4 <__libc_init_array+0x3c>)
 80037a0:	1b64      	subs	r4, r4, r5
 80037a2:	10a4      	asrs	r4, r4, #2
 80037a4:	42a6      	cmp	r6, r4
 80037a6:	d109      	bne.n	80037bc <__libc_init_array+0x24>
 80037a8:	2600      	movs	r6, #0
 80037aa:	f000 f821 	bl	80037f0 <_init>
 80037ae:	4d0a      	ldr	r5, [pc, #40]	; (80037d8 <__libc_init_array+0x40>)
 80037b0:	4c0a      	ldr	r4, [pc, #40]	; (80037dc <__libc_init_array+0x44>)
 80037b2:	1b64      	subs	r4, r4, r5
 80037b4:	10a4      	asrs	r4, r4, #2
 80037b6:	42a6      	cmp	r6, r4
 80037b8:	d105      	bne.n	80037c6 <__libc_init_array+0x2e>
 80037ba:	bd70      	pop	{r4, r5, r6, pc}
 80037bc:	00b3      	lsls	r3, r6, #2
 80037be:	58eb      	ldr	r3, [r5, r3]
 80037c0:	4798      	blx	r3
 80037c2:	3601      	adds	r6, #1
 80037c4:	e7ee      	b.n	80037a4 <__libc_init_array+0xc>
 80037c6:	00b3      	lsls	r3, r6, #2
 80037c8:	58eb      	ldr	r3, [r5, r3]
 80037ca:	4798      	blx	r3
 80037cc:	3601      	adds	r6, #1
 80037ce:	e7f2      	b.n	80037b6 <__libc_init_array+0x1e>
 80037d0:	08003824 	.word	0x08003824
 80037d4:	08003824 	.word	0x08003824
 80037d8:	08003824 	.word	0x08003824
 80037dc:	08003828 	.word	0x08003828

080037e0 <memset>:
 80037e0:	0003      	movs	r3, r0
 80037e2:	1812      	adds	r2, r2, r0
 80037e4:	4293      	cmp	r3, r2
 80037e6:	d100      	bne.n	80037ea <memset+0xa>
 80037e8:	4770      	bx	lr
 80037ea:	7019      	strb	r1, [r3, #0]
 80037ec:	3301      	adds	r3, #1
 80037ee:	e7f9      	b.n	80037e4 <memset+0x4>

080037f0 <_init>:
 80037f0:	b5f8      	push	{r3, r4, r5, r6, r7, lr}
 80037f2:	46c0      	nop			; (mov r8, r8)
 80037f4:	bcf8      	pop	{r3, r4, r5, r6, r7}
 80037f6:	bc08      	pop	{r3}
 80037f8:	469e      	mov	lr, r3
 80037fa:	4770      	bx	lr

080037fc <_fini>:
 80037fc:	b5f8      	push	{r3, r4, r5, r6, r7, lr}
 80037fe:	46c0      	nop			; (mov r8, r8)
 8003800:	bcf8      	pop	{r3, r4, r5, r6, r7}
 8003802:	bc08      	pop	{r3}
 8003804:	469e      	mov	lr, r3
 8003806:	4770      	bx	lr
