
OverDriverPedal_SW.elf:     file format elf32-littlearm

Sections:
Idx Name          Size      VMA       LMA       File off  Algn
  0 .isr_vector   000000c0  08000000  08000000  00010000  2**0
                  CONTENTS, ALLOC, LOAD, READONLY, DATA
  1 .text         000037e4  080000c0  080000c0  000100c0  2**2
                  CONTENTS, ALLOC, LOAD, READONLY, CODE
  2 .rodata       0000001c  080038a4  080038a4  000138a4  2**2
                  CONTENTS, ALLOC, LOAD, READONLY, DATA
  3 .ARM.extab    00000000  080038c0  080038c0  00020008  2**0
                  CONTENTS
  4 .ARM          00000000  080038c0  080038c0  00020008  2**0
                  CONTENTS
  5 .preinit_array 00000000  080038c0  080038c0  00020008  2**0
                  CONTENTS, ALLOC, LOAD, DATA
  6 .init_array   00000004  080038c0  080038c0  000138c0  2**2
                  CONTENTS, ALLOC, LOAD, DATA
  7 .fini_array   00000004  080038c4  080038c4  000138c4  2**2
                  CONTENTS, ALLOC, LOAD, DATA
  8 .data         00000008  20000000  080038c8  00020000  2**2
                  CONTENTS, ALLOC, LOAD, DATA
  9 .bss          00000178  20000008  080038d0  00020008  2**2
                  ALLOC
 10 ._user_heap_stack 00000600  20000180  080038d0  00020180  2**0
                  ALLOC
 11 .ARM.attributes 00000028  00000000  00000000  00020008  2**0
                  CONTENTS, READONLY
 12 .debug_info   0000b669  00000000  00000000  00020030  2**0
                  CONTENTS, READONLY, DEBUGGING
 13 .debug_abbrev 00002007  00000000  00000000  0002b699  2**0
                  CONTENTS, READONLY, DEBUGGING
 14 .debug_aranges 00000b80  00000000  00000000  0002d6a0  2**3
                  CONTENTS, READONLY, DEBUGGING
 15 .debug_ranges 00000a48  00000000  00000000  0002e220  2**3
                  CONTENTS, READONLY, DEBUGGING
 16 .debug_macro  00011c5f  00000000  00000000  0002ec68  2**0
                  CONTENTS, READONLY, DEBUGGING
 17 .debug_line   0000abbf  00000000  00000000  000408c7  2**0
                  CONTENTS, READONLY, DEBUGGING
 18 .debug_str    0006ade2  00000000  00000000  0004b486  2**0
                  CONTENTS, READONLY, DEBUGGING
 19 .comment      0000007b  00000000  00000000  000b6268  2**0
                  CONTENTS, READONLY
 20 .debug_frame  00002734  00000000  00000000  000b62e4  2**2
                  CONTENTS, READONLY, DEBUGGING

Disassembly of section .text:

080000c0 <__do_global_dtors_aux>:
 80000c0:	b510      	push	{r4, lr}
 80000c2:	4c06      	ldr	r4, [pc, #24]	; (80000dc <__do_global_dtors_aux+0x1c>)
 80000c4:	7823      	ldrb	r3, [r4, #0]
 80000c6:	2b00      	cmp	r3, #0
 80000c8:	d107      	bne.n	80000da <__do_global_dtors_aux+0x1a>
 80000ca:	4b05      	ldr	r3, [pc, #20]	; (80000e0 <__do_global_dtors_aux+0x20>)
 80000cc:	2b00      	cmp	r3, #0
 80000ce:	d002      	beq.n	80000d6 <__do_global_dtors_aux+0x16>
 80000d0:	4804      	ldr	r0, [pc, #16]	; (80000e4 <__do_global_dtors_aux+0x24>)
 80000d2:	e000      	b.n	80000d6 <__do_global_dtors_aux+0x16>
 80000d4:	bf00      	nop
 80000d6:	2301      	movs	r3, #1
 80000d8:	7023      	strb	r3, [r4, #0]
 80000da:	bd10      	pop	{r4, pc}
 80000dc:	20000008 	.word	0x20000008
 80000e0:	00000000 	.word	0x00000000
 80000e4:	0800388c 	.word	0x0800388c

080000e8 <frame_dummy>:
 80000e8:	4b04      	ldr	r3, [pc, #16]	; (80000fc <frame_dummy+0x14>)
 80000ea:	b510      	push	{r4, lr}
 80000ec:	2b00      	cmp	r3, #0
 80000ee:	d003      	beq.n	80000f8 <frame_dummy+0x10>
 80000f0:	4903      	ldr	r1, [pc, #12]	; (8000100 <frame_dummy+0x18>)
 80000f2:	4804      	ldr	r0, [pc, #16]	; (8000104 <frame_dummy+0x1c>)
 80000f4:	e000      	b.n	80000f8 <frame_dummy+0x10>
 80000f6:	bf00      	nop
 80000f8:	bd10      	pop	{r4, pc}
 80000fa:	46c0      	nop			; (mov r8, r8)
 80000fc:	00000000 	.word	0x00000000
 8000100:	2000000c 	.word	0x2000000c
 8000104:	0800388c 	.word	0x0800388c

08000108 <__udivsi3>:
 8000108:	2200      	movs	r2, #0
 800010a:	0843      	lsrs	r3, r0, #1
 800010c:	428b      	cmp	r3, r1
 800010e:	d374      	bcc.n	80001fa <__udivsi3+0xf2>
 8000110:	0903      	lsrs	r3, r0, #4
 8000112:	428b      	cmp	r3, r1
 8000114:	d35f      	bcc.n	80001d6 <__udivsi3+0xce>
 8000116:	0a03      	lsrs	r3, r0, #8
 8000118:	428b      	cmp	r3, r1
 800011a:	d344      	bcc.n	80001a6 <__udivsi3+0x9e>
 800011c:	0b03      	lsrs	r3, r0, #12
 800011e:	428b      	cmp	r3, r1
 8000120:	d328      	bcc.n	8000174 <__udivsi3+0x6c>
 8000122:	0c03      	lsrs	r3, r0, #16
 8000124:	428b      	cmp	r3, r1
 8000126:	d30d      	bcc.n	8000144 <__udivsi3+0x3c>
 8000128:	22ff      	movs	r2, #255	; 0xff
 800012a:	0209      	lsls	r1, r1, #8
 800012c:	ba12      	rev	r2, r2
 800012e:	0c03      	lsrs	r3, r0, #16
 8000130:	428b      	cmp	r3, r1
 8000132:	d302      	bcc.n	800013a <__udivsi3+0x32>
 8000134:	1212      	asrs	r2, r2, #8
 8000136:	0209      	lsls	r1, r1, #8
 8000138:	d065      	beq.n	8000206 <__udivsi3+0xfe>
 800013a:	0b03      	lsrs	r3, r0, #12
 800013c:	428b      	cmp	r3, r1
 800013e:	d319      	bcc.n	8000174 <__udivsi3+0x6c>
 8000140:	e000      	b.n	8000144 <__udivsi3+0x3c>
 8000142:	0a09      	lsrs	r1, r1, #8
 8000144:	0bc3      	lsrs	r3, r0, #15
 8000146:	428b      	cmp	r3, r1
 8000148:	d301      	bcc.n	800014e <__udivsi3+0x46>
 800014a:	03cb      	lsls	r3, r1, #15
 800014c:	1ac0      	subs	r0, r0, r3
 800014e:	4152      	adcs	r2, r2
 8000150:	0b83      	lsrs	r3, r0, #14
 8000152:	428b      	cmp	r3, r1
 8000154:	d301      	bcc.n	800015a <__udivsi3+0x52>
 8000156:	038b      	lsls	r3, r1, #14
 8000158:	1ac0      	subs	r0, r0, r3
 800015a:	4152      	adcs	r2, r2
 800015c:	0b43      	lsrs	r3, r0, #13
 800015e:	428b      	cmp	r3, r1
 8000160:	d301      	bcc.n	8000166 <__udivsi3+0x5e>
 8000162:	034b      	lsls	r3, r1, #13
 8000164:	1ac0      	subs	r0, r0, r3
 8000166:	4152      	adcs	r2, r2
 8000168:	0b03      	lsrs	r3, r0, #12
 800016a:	428b      	cmp	r3, r1
 800016c:	d301      	bcc.n	8000172 <__udivsi3+0x6a>
 800016e:	030b      	lsls	r3, r1, #12
 8000170:	1ac0      	subs	r0, r0, r3
 8000172:	4152      	adcs	r2, r2
 8000174:	0ac3      	lsrs	r3, r0, #11
 8000176:	428b      	cmp	r3, r1
 8000178:	d301      	bcc.n	800017e <__udivsi3+0x76>
 800017a:	02cb      	lsls	r3, r1, #11
 800017c:	1ac0      	subs	r0, r0, r3
 800017e:	4152      	adcs	r2, r2
 8000180:	0a83      	lsrs	r3, r0, #10
 8000182:	428b      	cmp	r3, r1
 8000184:	d301      	bcc.n	800018a <__udivsi3+0x82>
 8000186:	028b      	lsls	r3, r1, #10
 8000188:	1ac0      	subs	r0, r0, r3
 800018a:	4152      	adcs	r2, r2
 800018c:	0a43      	lsrs	r3, r0, #9
 800018e:	428b      	cmp	r3, r1
 8000190:	d301      	bcc.n	8000196 <__udivsi3+0x8e>
 8000192:	024b      	lsls	r3, r1, #9
 8000194:	1ac0      	subs	r0, r0, r3
 8000196:	4152      	adcs	r2, r2
 8000198:	0a03      	lsrs	r3, r0, #8
 800019a:	428b      	cmp	r3, r1
 800019c:	d301      	bcc.n	80001a2 <__udivsi3+0x9a>
 800019e:	020b      	lsls	r3, r1, #8
 80001a0:	1ac0      	subs	r0, r0, r3
 80001a2:	4152      	adcs	r2, r2
 80001a4:	d2cd      	bcs.n	8000142 <__udivsi3+0x3a>
 80001a6:	09c3      	lsrs	r3, r0, #7
 80001a8:	428b      	cmp	r3, r1
 80001aa:	d301      	bcc.n	80001b0 <__udivsi3+0xa8>
 80001ac:	01cb      	lsls	r3, r1, #7
 80001ae:	1ac0      	subs	r0, r0, r3
 80001b0:	4152      	adcs	r2, r2
 80001b2:	0983      	lsrs	r3, r0, #6
 80001b4:	428b      	cmp	r3, r1
 80001b6:	d301      	bcc.n	80001bc <__udivsi3+0xb4>
 80001b8:	018b      	lsls	r3, r1, #6
 80001ba:	1ac0      	subs	r0, r0, r3
 80001bc:	4152      	adcs	r2, r2
 80001be:	0943      	lsrs	r3, r0, #5
 80001c0:	428b      	cmp	r3, r1
 80001c2:	d301      	bcc.n	80001c8 <__udivsi3+0xc0>
 80001c4:	014b      	lsls	r3, r1, #5
 80001c6:	1ac0      	subs	r0, r0, r3
 80001c8:	4152      	adcs	r2, r2
 80001ca:	0903      	lsrs	r3, r0, #4
 80001cc:	428b      	cmp	r3, r1
 80001ce:	d301      	bcc.n	80001d4 <__udivsi3+0xcc>
 80001d0:	010b      	lsls	r3, r1, #4
 80001d2:	1ac0      	subs	r0, r0, r3
 80001d4:	4152      	adcs	r2, r2
 80001d6:	08c3      	lsrs	r3, r0, #3
 80001d8:	428b      	cmp	r3, r1
 80001da:	d301      	bcc.n	80001e0 <__udivsi3+0xd8>
 80001dc:	00cb      	lsls	r3, r1, #3
 80001de:	1ac0      	subs	r0, r0, r3
 80001e0:	4152      	adcs	r2, r2
 80001e2:	0883      	lsrs	r3, r0, #2
 80001e4:	428b      	cmp	r3, r1
 80001e6:	d301      	bcc.n	80001ec <__udivsi3+0xe4>
 80001e8:	008b      	lsls	r3, r1, #2
 80001ea:	1ac0      	subs	r0, r0, r3
 80001ec:	4152      	adcs	r2, r2
 80001ee:	0843      	lsrs	r3, r0, #1
 80001f0:	428b      	cmp	r3, r1
 80001f2:	d301      	bcc.n	80001f8 <__udivsi3+0xf0>
 80001f4:	004b      	lsls	r3, r1, #1
 80001f6:	1ac0      	subs	r0, r0, r3
 80001f8:	4152      	adcs	r2, r2
 80001fa:	1a41      	subs	r1, r0, r1
 80001fc:	d200      	bcs.n	8000200 <__udivsi3+0xf8>
 80001fe:	4601      	mov	r1, r0
 8000200:	4152      	adcs	r2, r2
 8000202:	4610      	mov	r0, r2
 8000204:	4770      	bx	lr
 8000206:	e7ff      	b.n	8000208 <__udivsi3+0x100>
 8000208:	b501      	push	{r0, lr}
 800020a:	2000      	movs	r0, #0
 800020c:	f000 f806 	bl	800021c <__aeabi_idiv0>
 8000210:	bd02      	pop	{r1, pc}
 8000212:	46c0      	nop			; (mov r8, r8)

08000214 <__aeabi_uidivmod>:
 8000214:	2900      	cmp	r1, #0
 8000216:	d0f7      	beq.n	8000208 <__udivsi3+0x100>
 8000218:	e776      	b.n	8000108 <__udivsi3>
 800021a:	4770      	bx	lr

0800021c <__aeabi_idiv0>:
 800021c:	4770      	bx	lr
 800021e:	46c0      	nop			; (mov r8, r8)

08000220 <MX_ADC_Init>:
ADC_HandleTypeDef hadc;
DMA_HandleTypeDef hdma_adc;

/* ADC init function */
void MX_ADC_Init(void)
{
 8000220:	b580      	push	{r7, lr}
 8000222:	b082      	sub	sp, #8
 8000224:	af00      	add	r7, sp, #0
  ADC_ChannelConfTypeDef sConfig = {0};
 8000226:	003b      	movs	r3, r7
 8000228:	0018      	movs	r0, r3
 800022a:	2308      	movs	r3, #8
 800022c:	001a      	movs	r2, r3
 800022e:	2100      	movs	r1, #0
 8000230:	f003 fb24 	bl	800387c <memset>

  /** Configure the global features of the ADC (Clock, Resolution, Data Alignment and number of conversion) 
  */
  hadc.Instance = ADC1;
 8000234:	4b2a      	ldr	r3, [pc, #168]	; (80002e0 <MX_ADC_Init+0xc0>)
 8000236:	4a2b      	ldr	r2, [pc, #172]	; (80002e4 <MX_ADC_Init+0xc4>)
 8000238:	601a      	str	r2, [r3, #0]
  hadc.Init.OversamplingMode = DISABLE;
 800023a:	4b29      	ldr	r3, [pc, #164]	; (80002e0 <MX_ADC_Init+0xc0>)
 800023c:	2200      	movs	r2, #0
 800023e:	63da      	str	r2, [r3, #60]	; 0x3c
  hadc.Init.ClockPrescaler = ADC_CLOCK_SYNC_PCLK_DIV1;
 8000240:	4b27      	ldr	r3, [pc, #156]	; (80002e0 <MX_ADC_Init+0xc0>)
 8000242:	22c0      	movs	r2, #192	; 0xc0
 8000244:	0612      	lsls	r2, r2, #24
 8000246:	605a      	str	r2, [r3, #4]
  hadc.Init.Resolution = ADC_RESOLUTION_12B;
 8000248:	4b25      	ldr	r3, [pc, #148]	; (80002e0 <MX_ADC_Init+0xc0>)
 800024a:	2200      	movs	r2, #0
 800024c:	609a      	str	r2, [r3, #8]
  hadc.Init.SamplingTime = ADC_SAMPLETIME_1CYCLE_5;
 800024e:	4b24      	ldr	r3, [pc, #144]	; (80002e0 <MX_ADC_Init+0xc0>)
 8000250:	2200      	movs	r2, #0
 8000252:	639a      	str	r2, [r3, #56]	; 0x38
  hadc.Init.ScanConvMode = ADC_SCAN_DIRECTION_FORWARD;
 8000254:	4b22      	ldr	r3, [pc, #136]	; (80002e0 <MX_ADC_Init+0xc0>)
 8000256:	2201      	movs	r2, #1
 8000258:	611a      	str	r2, [r3, #16]
  hadc.Init.DataAlign = ADC_DATAALIGN_RIGHT;
 800025a:	4b21      	ldr	r3, [pc, #132]	; (80002e0 <MX_ADC_Init+0xc0>)
 800025c:	2200      	movs	r2, #0
 800025e:	60da      	str	r2, [r3, #12]
  hadc.Init.ContinuousConvMode = ENABLE;
 8000260:	4b1f      	ldr	r3, [pc, #124]	; (80002e0 <MX_ADC_Init+0xc0>)
 8000262:	2220      	movs	r2, #32
 8000264:	2101      	movs	r1, #1
 8000266:	5499      	strb	r1, [r3, r2]
  hadc.Init.DiscontinuousConvMode = DISABLE;
 8000268:	4b1d      	ldr	r3, [pc, #116]	; (80002e0 <MX_ADC_Init+0xc0>)
 800026a:	2221      	movs	r2, #33	; 0x21
 800026c:	2100      	movs	r1, #0
 800026e:	5499      	strb	r1, [r3, r2]
  hadc.Init.ExternalTrigConvEdge = ADC_EXTERNALTRIGCONVEDGE_NONE;
 8000270:	4b1b      	ldr	r3, [pc, #108]	; (80002e0 <MX_ADC_Init+0xc0>)
 8000272:	2200      	movs	r2, #0
 8000274:	629a      	str	r2, [r3, #40]	; 0x28
  hadc.Init.ExternalTrigConv = ADC_SOFTWARE_START;
 8000276:	4b1a      	ldr	r3, [pc, #104]	; (80002e0 <MX_ADC_Init+0xc0>)
 8000278:	22c2      	movs	r2, #194	; 0xc2
 800027a:	32ff      	adds	r2, #255	; 0xff
 800027c:	625a      	str	r2, [r3, #36]	; 0x24
  hadc.Init.DMAContinuousRequests = ENABLE;
 800027e:	4b18      	ldr	r3, [pc, #96]	; (80002e0 <MX_ADC_Init+0xc0>)
 8000280:	222c      	movs	r2, #44	; 0x2c
 8000282:	2101      	movs	r1, #1
 8000284:	5499      	strb	r1, [r3, r2]
  hadc.Init.EOCSelection = ADC_EOC_SINGLE_CONV;
 8000286:	4b16      	ldr	r3, [pc, #88]	; (80002e0 <MX_ADC_Init+0xc0>)
 8000288:	2204      	movs	r2, #4
 800028a:	615a      	str	r2, [r3, #20]
  hadc.Init.Overrun = ADC_OVR_DATA_OVERWRITTEN;
 800028c:	4b14      	ldr	r3, [pc, #80]	; (80002e0 <MX_ADC_Init+0xc0>)
 800028e:	2280      	movs	r2, #128	; 0x80
 8000290:	0152      	lsls	r2, r2, #5
 8000292:	631a      	str	r2, [r3, #48]	; 0x30
  hadc.Init.LowPowerAutoWait = DISABLE;
 8000294:	4b12      	ldr	r3, [pc, #72]	; (80002e0 <MX_ADC_Init+0xc0>)
 8000296:	2200      	movs	r2, #0
 8000298:	619a      	str	r2, [r3, #24]
  hadc.Init.LowPowerFrequencyMode = DISABLE;
 800029a:	4b11      	ldr	r3, [pc, #68]	; (80002e0 <MX_ADC_Init+0xc0>)
 800029c:	2200      	movs	r2, #0
 800029e:	635a      	str	r2, [r3, #52]	; 0x34
  hadc.Init.LowPowerAutoPowerOff = DISABLE;
 80002a0:	4b0f      	ldr	r3, [pc, #60]	; (80002e0 <MX_ADC_Init+0xc0>)
 80002a2:	2200      	movs	r2, #0
 80002a4:	61da      	str	r2, [r3, #28]
  if (HAL_ADC_Init(&hadc) != HAL_OK)
 80002a6:	4b0e      	ldr	r3, [pc, #56]	; (80002e0 <MX_ADC_Init+0xc0>)
 80002a8:	0018      	movs	r0, r3
 80002aa:	f000 fd6f 	bl	8000d8c <HAL_ADC_Init>
 80002ae:	1e03      	subs	r3, r0, #0
 80002b0:	d001      	beq.n	80002b6 <MX_ADC_Init+0x96>
  {
    Error_Handler();
 80002b2:	f000 fa35 	bl	8000720 <Error_Handler>
  }
  /** Configure for the selected ADC regular channel to be converted. 
  */
  sConfig.Channel = ADC_CHANNEL_7;
 80002b6:	003b      	movs	r3, r7
 80002b8:	4a0b      	ldr	r2, [pc, #44]	; (80002e8 <MX_ADC_Init+0xc8>)
 80002ba:	601a      	str	r2, [r3, #0]
  sConfig.Rank = ADC_RANK_CHANNEL_NUMBER;
 80002bc:	003b      	movs	r3, r7
 80002be:	2280      	movs	r2, #128	; 0x80
 80002c0:	0152      	lsls	r2, r2, #5
 80002c2:	605a      	str	r2, [r3, #4]
  if (HAL_ADC_ConfigChannel(&hadc, &sConfig) != HAL_OK)
 80002c4:	003a      	movs	r2, r7
 80002c6:	4b06      	ldr	r3, [pc, #24]	; (80002e0 <MX_ADC_Init+0xc0>)
 80002c8:	0011      	movs	r1, r2
 80002ca:	0018      	movs	r0, r3
 80002cc:	f000 ff6c 	bl	80011a8 <HAL_ADC_ConfigChannel>
 80002d0:	1e03      	subs	r3, r0, #0
 80002d2:	d001      	beq.n	80002d8 <MX_ADC_Init+0xb8>
  {
    Error_Handler();
 80002d4:	f000 fa24 	bl	8000720 <Error_Handler>
  }

}
 80002d8:	46c0      	nop			; (mov r8, r8)
 80002da:	46bd      	mov	sp, r7
 80002dc:	b002      	add	sp, #8
 80002de:	bd80      	pop	{r7, pc}
 80002e0:	20000074 	.word	0x20000074
 80002e4:	40012400 	.word	0x40012400
 80002e8:	1c000080 	.word	0x1c000080

080002ec <HAL_ADC_MspInit>:

void HAL_ADC_MspInit(ADC_HandleTypeDef* adcHandle)
{
 80002ec:	b580      	push	{r7, lr}
 80002ee:	b088      	sub	sp, #32
 80002f0:	af00      	add	r7, sp, #0
 80002f2:	6078      	str	r0, [r7, #4]

  GPIO_InitTypeDef GPIO_InitStruct = {0};
 80002f4:	230c      	movs	r3, #12
 80002f6:	18fb      	adds	r3, r7, r3
 80002f8:	0018      	movs	r0, r3
 80002fa:	2314      	movs	r3, #20
 80002fc:	001a      	movs	r2, r3
 80002fe:	2100      	movs	r1, #0
 8000300:	f003 fabc 	bl	800387c <memset>
  if(adcHandle->Instance==ADC1)
 8000304:	687b      	ldr	r3, [r7, #4]
 8000306:	681b      	ldr	r3, [r3, #0]
 8000308:	4a29      	ldr	r2, [pc, #164]	; (80003b0 <HAL_ADC_MspInit+0xc4>)
 800030a:	4293      	cmp	r3, r2
 800030c:	d14c      	bne.n	80003a8 <HAL_ADC_MspInit+0xbc>
  {
  /* USER CODE BEGIN ADC1_MspInit 0 */

  /* USER CODE END ADC1_MspInit 0 */
    /* ADC1 clock enable */
    __HAL_RCC_ADC1_CLK_ENABLE();
 800030e:	4b29      	ldr	r3, [pc, #164]	; (80003b4 <HAL_ADC_MspInit+0xc8>)
 8000310:	6b5a      	ldr	r2, [r3, #52]	; 0x34
 8000312:	4b28      	ldr	r3, [pc, #160]	; (80003b4 <HAL_ADC_MspInit+0xc8>)
 8000314:	2180      	movs	r1, #128	; 0x80
 8000316:	0089      	lsls	r1, r1, #2
 8000318:	430a      	orrs	r2, r1
 800031a:	635a      	str	r2, [r3, #52]	; 0x34
  
    __HAL_RCC_GPIOA_CLK_ENABLE();
 800031c:	4b25      	ldr	r3, [pc, #148]	; (80003b4 <HAL_ADC_MspInit+0xc8>)
 800031e:	6ada      	ldr	r2, [r3, #44]	; 0x2c
 8000320:	4b24      	ldr	r3, [pc, #144]	; (80003b4 <HAL_ADC_MspInit+0xc8>)
 8000322:	2101      	movs	r1, #1
 8000324:	430a      	orrs	r2, r1
 8000326:	62da      	str	r2, [r3, #44]	; 0x2c
 8000328:	4b22      	ldr	r3, [pc, #136]	; (80003b4 <HAL_ADC_MspInit+0xc8>)
 800032a:	6adb      	ldr	r3, [r3, #44]	; 0x2c
 800032c:	2201      	movs	r2, #1
 800032e:	4013      	ands	r3, r2
 8000330:	60bb      	str	r3, [r7, #8]
 8000332:	68bb      	ldr	r3, [r7, #8]
    /**ADC GPIO Configuration    
    PA7     ------> ADC_IN7 
    */
    GPIO_InitStruct.Pin = GPIO_PIN_7;
 8000334:	210c      	movs	r1, #12
 8000336:	187b      	adds	r3, r7, r1
 8000338:	2280      	movs	r2, #128	; 0x80
 800033a:	601a      	str	r2, [r3, #0]
    GPIO_InitStruct.Mode = GPIO_MODE_ANALOG;
 800033c:	187b      	adds	r3, r7, r1
 800033e:	2203      	movs	r2, #3
 8000340:	605a      	str	r2, [r3, #4]
    GPIO_InitStruct.Pull = GPIO_NOPULL;
 8000342:	187b      	adds	r3, r7, r1
 8000344:	2200      	movs	r2, #0
 8000346:	609a      	str	r2, [r3, #8]
    HAL_GPIO_Init(GPIOA, &GPIO_InitStruct);
 8000348:	187a      	adds	r2, r7, r1
 800034a:	23a0      	movs	r3, #160	; 0xa0
 800034c:	05db      	lsls	r3, r3, #23
 800034e:	0011      	movs	r1, r2
 8000350:	0018      	movs	r0, r3
 8000352:	f001 fb45 	bl	80019e0 <HAL_GPIO_Init>

    /* ADC1 DMA Init */
    /* ADC Init */
    hdma_adc.Instance = DMA1_Channel1;
 8000356:	4b18      	ldr	r3, [pc, #96]	; (80003b8 <HAL_ADC_MspInit+0xcc>)
 8000358:	4a18      	ldr	r2, [pc, #96]	; (80003bc <HAL_ADC_MspInit+0xd0>)
 800035a:	601a      	str	r2, [r3, #0]
    hdma_adc.Init.Request = DMA_REQUEST_0;
 800035c:	4b16      	ldr	r3, [pc, #88]	; (80003b8 <HAL_ADC_MspInit+0xcc>)
 800035e:	2200      	movs	r2, #0
 8000360:	605a      	str	r2, [r3, #4]
    hdma_adc.Init.Direction = DMA_PERIPH_TO_MEMORY;
 8000362:	4b15      	ldr	r3, [pc, #84]	; (80003b8 <HAL_ADC_MspInit+0xcc>)
 8000364:	2200      	movs	r2, #0
 8000366:	609a      	str	r2, [r3, #8]
    hdma_adc.Init.PeriphInc = DMA_PINC_DISABLE;
 8000368:	4b13      	ldr	r3, [pc, #76]	; (80003b8 <HAL_ADC_MspInit+0xcc>)
 800036a:	2200      	movs	r2, #0
 800036c:	60da      	str	r2, [r3, #12]
    hdma_adc.Init.MemInc = DMA_MINC_ENABLE;
 800036e:	4b12      	ldr	r3, [pc, #72]	; (80003b8 <HAL_ADC_MspInit+0xcc>)
 8000370:	2280      	movs	r2, #128	; 0x80
 8000372:	611a      	str	r2, [r3, #16]
    hdma_adc.Init.PeriphDataAlignment = DMA_PDATAALIGN_BYTE;
 8000374:	4b10      	ldr	r3, [pc, #64]	; (80003b8 <HAL_ADC_MspInit+0xcc>)
 8000376:	2200      	movs	r2, #0
 8000378:	615a      	str	r2, [r3, #20]
    hdma_adc.Init.MemDataAlignment = DMA_MDATAALIGN_BYTE;
 800037a:	4b0f      	ldr	r3, [pc, #60]	; (80003b8 <HAL_ADC_MspInit+0xcc>)
 800037c:	2200      	movs	r2, #0
 800037e:	619a      	str	r2, [r3, #24]
    hdma_adc.Init.Mode = DMA_CIRCULAR;
 8000380:	4b0d      	ldr	r3, [pc, #52]	; (80003b8 <HAL_ADC_MspInit+0xcc>)
 8000382:	2220      	movs	r2, #32
 8000384:	61da      	str	r2, [r3, #28]
    hdma_adc.Init.Priority = DMA_PRIORITY_LOW;
 8000386:	4b0c      	ldr	r3, [pc, #48]	; (80003b8 <HAL_ADC_MspInit+0xcc>)
 8000388:	2200      	movs	r2, #0
 800038a:	621a      	str	r2, [r3, #32]
    if (HAL_DMA_Init(&hdma_adc) != HAL_OK)
 800038c:	4b0a      	ldr	r3, [pc, #40]	; (80003b8 <HAL_ADC_MspInit+0xcc>)
 800038e:	0018      	movs	r0, r3
 8000390:	f001 f96c 	bl	800166c <HAL_DMA_Init>
 8000394:	1e03      	subs	r3, r0, #0
 8000396:	d001      	beq.n	800039c <HAL_ADC_MspInit+0xb0>
    {
      Error_Handler();
 8000398:	f000 f9c2 	bl	8000720 <Error_Handler>
    }

    __HAL_LINKDMA(adcHandle,DMA_Handle,hdma_adc);
 800039c:	687b      	ldr	r3, [r7, #4]
 800039e:	4a06      	ldr	r2, [pc, #24]	; (80003b8 <HAL_ADC_MspInit+0xcc>)
 80003a0:	64da      	str	r2, [r3, #76]	; 0x4c
 80003a2:	4b05      	ldr	r3, [pc, #20]	; (80003b8 <HAL_ADC_MspInit+0xcc>)
 80003a4:	687a      	ldr	r2, [r7, #4]
 80003a6:	629a      	str	r2, [r3, #40]	; 0x28

  /* USER CODE BEGIN ADC1_MspInit 1 */

  /* USER CODE END ADC1_MspInit 1 */
  }
}
 80003a8:	46c0      	nop			; (mov r8, r8)
 80003aa:	46bd      	mov	sp, r7
 80003ac:	b008      	add	sp, #32
 80003ae:	bd80      	pop	{r7, pc}
 80003b0:	40012400 	.word	0x40012400
 80003b4:	40021000 	.word	0x40021000
 80003b8:	2000002c 	.word	0x2000002c
 80003bc:	40020008 	.word	0x40020008

080003c0 <MX_DMA_Init>:

/** 
  * Enable DMA controller clock
  */
void MX_DMA_Init(void) 
{
 80003c0:	b580      	push	{r7, lr}
 80003c2:	b082      	sub	sp, #8
 80003c4:	af00      	add	r7, sp, #0

  /* DMA controller clock enable */
  __HAL_RCC_DMA1_CLK_ENABLE();
 80003c6:	4b0c      	ldr	r3, [pc, #48]	; (80003f8 <MX_DMA_Init+0x38>)
 80003c8:	6b1a      	ldr	r2, [r3, #48]	; 0x30
 80003ca:	4b0b      	ldr	r3, [pc, #44]	; (80003f8 <MX_DMA_Init+0x38>)
 80003cc:	2101      	movs	r1, #1
 80003ce:	430a      	orrs	r2, r1
 80003d0:	631a      	str	r2, [r3, #48]	; 0x30
 80003d2:	4b09      	ldr	r3, [pc, #36]	; (80003f8 <MX_DMA_Init+0x38>)
 80003d4:	6b1b      	ldr	r3, [r3, #48]	; 0x30
 80003d6:	2201      	movs	r2, #1
 80003d8:	4013      	ands	r3, r2
 80003da:	607b      	str	r3, [r7, #4]
 80003dc:	687b      	ldr	r3, [r7, #4]

  /* DMA interrupt init */
  /* DMA1_Channel1_IRQn interrupt configuration */
  HAL_NVIC_SetPriority(DMA1_Channel1_IRQn, 1, 0);
 80003de:	2200      	movs	r2, #0
 80003e0:	2101      	movs	r1, #1
 80003e2:	2009      	movs	r0, #9
 80003e4:	f001 f910 	bl	8001608 <HAL_NVIC_SetPriority>
  HAL_NVIC_EnableIRQ(DMA1_Channel1_IRQn);
 80003e8:	2009      	movs	r0, #9
 80003ea:	f001 f922 	bl	8001632 <HAL_NVIC_EnableIRQ>

}
 80003ee:	46c0      	nop			; (mov r8, r8)
 80003f0:	46bd      	mov	sp, r7
 80003f2:	b002      	add	sp, #8
 80003f4:	bd80      	pop	{r7, pc}
 80003f6:	46c0      	nop			; (mov r8, r8)
 80003f8:	40021000 	.word	0x40021000

080003fc <MX_GPIO_Init>:
        * Output
        * EVENT_OUT
        * EXTI
*/
void MX_GPIO_Init(void)
{
 80003fc:	b590      	push	{r4, r7, lr}
 80003fe:	b089      	sub	sp, #36	; 0x24
 8000400:	af00      	add	r7, sp, #0

  GPIO_InitTypeDef GPIO_InitStruct = {0};
 8000402:	240c      	movs	r4, #12
 8000404:	193b      	adds	r3, r7, r4
 8000406:	0018      	movs	r0, r3
 8000408:	2314      	movs	r3, #20
 800040a:	001a      	movs	r2, r3
 800040c:	2100      	movs	r1, #0
 800040e:	f003 fa35 	bl	800387c <memset>

  /* GPIO Ports Clock Enable */
  __HAL_RCC_GPIOC_CLK_ENABLE();
 8000412:	4b28      	ldr	r3, [pc, #160]	; (80004b4 <MX_GPIO_Init+0xb8>)
 8000414:	6ada      	ldr	r2, [r3, #44]	; 0x2c
 8000416:	4b27      	ldr	r3, [pc, #156]	; (80004b4 <MX_GPIO_Init+0xb8>)
 8000418:	2104      	movs	r1, #4
 800041a:	430a      	orrs	r2, r1
 800041c:	62da      	str	r2, [r3, #44]	; 0x2c
 800041e:	4b25      	ldr	r3, [pc, #148]	; (80004b4 <MX_GPIO_Init+0xb8>)
 8000420:	6adb      	ldr	r3, [r3, #44]	; 0x2c
 8000422:	2204      	movs	r2, #4
 8000424:	4013      	ands	r3, r2
 8000426:	60bb      	str	r3, [r7, #8]
 8000428:	68bb      	ldr	r3, [r7, #8]
  __HAL_RCC_GPIOA_CLK_ENABLE();
 800042a:	4b22      	ldr	r3, [pc, #136]	; (80004b4 <MX_GPIO_Init+0xb8>)
 800042c:	6ada      	ldr	r2, [r3, #44]	; 0x2c
 800042e:	4b21      	ldr	r3, [pc, #132]	; (80004b4 <MX_GPIO_Init+0xb8>)
 8000430:	2101      	movs	r1, #1
 8000432:	430a      	orrs	r2, r1
 8000434:	62da      	str	r2, [r3, #44]	; 0x2c
 8000436:	4b1f      	ldr	r3, [pc, #124]	; (80004b4 <MX_GPIO_Init+0xb8>)
 8000438:	6adb      	ldr	r3, [r3, #44]	; 0x2c
 800043a:	2201      	movs	r2, #1
 800043c:	4013      	ands	r3, r2
 800043e:	607b      	str	r3, [r7, #4]
 8000440:	687b      	ldr	r3, [r7, #4]

  /*Configure GPIO pin Output Level */
  HAL_GPIO_WritePin(GPIOC, CLEAN_ENABLE_Pin|FX_ENABLE_Pin, GPIO_PIN_RESET);
 8000442:	23c0      	movs	r3, #192	; 0xc0
 8000444:	021b      	lsls	r3, r3, #8
 8000446:	481c      	ldr	r0, [pc, #112]	; (80004b8 <MX_GPIO_Init+0xbc>)
 8000448:	2200      	movs	r2, #0
 800044a:	0019      	movs	r1, r3
 800044c:	f001 fc2e 	bl	8001cac <HAL_GPIO_WritePin>

  /*Configure GPIO pins : PCPin PCPin */
  GPIO_InitStruct.Pin = CLEAN_ENABLE_Pin|FX_ENABLE_Pin;
 8000450:	193b      	adds	r3, r7, r4
 8000452:	22c0      	movs	r2, #192	; 0xc0
 8000454:	0212      	lsls	r2, r2, #8
 8000456:	601a      	str	r2, [r3, #0]
  GPIO_InitStruct.Mode = GPIO_MODE_OUTPUT_PP;
 8000458:	193b      	adds	r3, r7, r4
 800045a:	2201      	movs	r2, #1
 800045c:	605a      	str	r2, [r3, #4]
  GPIO_InitStruct.Pull = GPIO_PULLUP;
 800045e:	193b      	adds	r3, r7, r4
 8000460:	2201      	movs	r2, #1
 8000462:	609a      	str	r2, [r3, #8]
  GPIO_InitStruct.Speed = GPIO_SPEED_FREQ_LOW;
 8000464:	0021      	movs	r1, r4
 8000466:	193b      	adds	r3, r7, r4
 8000468:	2200      	movs	r2, #0
 800046a:	60da      	str	r2, [r3, #12]
  HAL_GPIO_Init(GPIOC, &GPIO_InitStruct);
 800046c:	000c      	movs	r4, r1
 800046e:	187b      	adds	r3, r7, r1
 8000470:	4a11      	ldr	r2, [pc, #68]	; (80004b8 <MX_GPIO_Init+0xbc>)
 8000472:	0019      	movs	r1, r3
 8000474:	0010      	movs	r0, r2
 8000476:	f001 fab3 	bl	80019e0 <HAL_GPIO_Init>

  /*Configure GPIO pin : PtPin */
  GPIO_InitStruct.Pin = FOOTSW_EXTI4_Pin;
 800047a:	0021      	movs	r1, r4
 800047c:	187b      	adds	r3, r7, r1
 800047e:	2210      	movs	r2, #16
 8000480:	601a      	str	r2, [r3, #0]
  GPIO_InitStruct.Mode = GPIO_MODE_IT_FALLING;
 8000482:	187b      	adds	r3, r7, r1
 8000484:	4a0d      	ldr	r2, [pc, #52]	; (80004bc <MX_GPIO_Init+0xc0>)
 8000486:	605a      	str	r2, [r3, #4]
  GPIO_InitStruct.Pull = GPIO_PULLUP;
 8000488:	187b      	adds	r3, r7, r1
 800048a:	2201      	movs	r2, #1
 800048c:	609a      	str	r2, [r3, #8]
  HAL_GPIO_Init(FOOTSW_EXTI4_GPIO_Port, &GPIO_InitStruct);
 800048e:	187a      	adds	r2, r7, r1
 8000490:	23a0      	movs	r3, #160	; 0xa0
 8000492:	05db      	lsls	r3, r3, #23
 8000494:	0011      	movs	r1, r2
 8000496:	0018      	movs	r0, r3
 8000498:	f001 faa2 	bl	80019e0 <HAL_GPIO_Init>

  /* EXTI interrupt init*/
  HAL_NVIC_SetPriority(EXTI4_15_IRQn, 0, 0);
 800049c:	2200      	movs	r2, #0
 800049e:	2100      	movs	r1, #0
 80004a0:	2007      	movs	r0, #7
 80004a2:	f001 f8b1 	bl	8001608 <HAL_NVIC_SetPriority>
  HAL_NVIC_EnableIRQ(EXTI4_15_IRQn);
 80004a6:	2007      	movs	r0, #7
 80004a8:	f001 f8c3 	bl	8001632 <HAL_NVIC_EnableIRQ>

}
 80004ac:	46c0      	nop			; (mov r8, r8)
 80004ae:	46bd      	mov	sp, r7
 80004b0:	b009      	add	sp, #36	; 0x24
 80004b2:	bd90      	pop	{r4, r7, pc}
 80004b4:	40021000 	.word	0x40021000
 80004b8:	50000800 	.word	0x50000800
 80004bc:	10210000 	.word	0x10210000

080004c0 <MX_LPTIM1_Init>:

LPTIM_HandleTypeDef hlptim1;

/* LPTIM1 init function */
void MX_LPTIM1_Init(void)
{
 80004c0:	b580      	push	{r7, lr}
 80004c2:	af00      	add	r7, sp, #0

  hlptim1.Instance = LPTIM1;
 80004c4:	4b0f      	ldr	r3, [pc, #60]	; (8000504 <MX_LPTIM1_Init+0x44>)
 80004c6:	4a10      	ldr	r2, [pc, #64]	; (8000508 <MX_LPTIM1_Init+0x48>)
 80004c8:	601a      	str	r2, [r3, #0]
  hlptim1.Init.Clock.Source = LPTIM_CLOCKSOURCE_APBCLOCK_LPOSC;
 80004ca:	4b0e      	ldr	r3, [pc, #56]	; (8000504 <MX_LPTIM1_Init+0x44>)
 80004cc:	2200      	movs	r2, #0
 80004ce:	605a      	str	r2, [r3, #4]
  hlptim1.Init.Clock.Prescaler = LPTIM_PRESCALER_DIV1;
 80004d0:	4b0c      	ldr	r3, [pc, #48]	; (8000504 <MX_LPTIM1_Init+0x44>)
 80004d2:	2200      	movs	r2, #0
 80004d4:	609a      	str	r2, [r3, #8]
  hlptim1.Init.Trigger.Source = LPTIM_TRIGSOURCE_SOFTWARE;
 80004d6:	4b0b      	ldr	r3, [pc, #44]	; (8000504 <MX_LPTIM1_Init+0x44>)
 80004d8:	4a0c      	ldr	r2, [pc, #48]	; (800050c <MX_LPTIM1_Init+0x4c>)
 80004da:	615a      	str	r2, [r3, #20]
  hlptim1.Init.OutputPolarity = LPTIM_OUTPUTPOLARITY_HIGH;
 80004dc:	4b09      	ldr	r3, [pc, #36]	; (8000504 <MX_LPTIM1_Init+0x44>)
 80004de:	2200      	movs	r2, #0
 80004e0:	621a      	str	r2, [r3, #32]
  hlptim1.Init.UpdateMode = LPTIM_UPDATE_IMMEDIATE;
 80004e2:	4b08      	ldr	r3, [pc, #32]	; (8000504 <MX_LPTIM1_Init+0x44>)
 80004e4:	2200      	movs	r2, #0
 80004e6:	625a      	str	r2, [r3, #36]	; 0x24
  hlptim1.Init.CounterSource = LPTIM_COUNTERSOURCE_INTERNAL;
 80004e8:	4b06      	ldr	r3, [pc, #24]	; (8000504 <MX_LPTIM1_Init+0x44>)
 80004ea:	2200      	movs	r2, #0
 80004ec:	629a      	str	r2, [r3, #40]	; 0x28
  if (HAL_LPTIM_Init(&hlptim1) != HAL_OK)
 80004ee:	4b05      	ldr	r3, [pc, #20]	; (8000504 <MX_LPTIM1_Init+0x44>)
 80004f0:	0018      	movs	r0, r3
 80004f2:	f001 fc31 	bl	8001d58 <HAL_LPTIM_Init>
 80004f6:	1e03      	subs	r3, r0, #0
 80004f8:	d001      	beq.n	80004fe <MX_LPTIM1_Init+0x3e>
  {
    Error_Handler();
 80004fa:	f000 f911 	bl	8000720 <Error_Handler>
  }

}
 80004fe:	46c0      	nop			; (mov r8, r8)
 8000500:	46bd      	mov	sp, r7
 8000502:	bd80      	pop	{r7, pc}
 8000504:	200000d0 	.word	0x200000d0
 8000508:	40007c00 	.word	0x40007c00
 800050c:	0000ffff 	.word	0x0000ffff

08000510 <HAL_LPTIM_MspInit>:

void HAL_LPTIM_MspInit(LPTIM_HandleTypeDef* lptimHandle)
{
 8000510:	b580      	push	{r7, lr}
 8000512:	b082      	sub	sp, #8
 8000514:	af00      	add	r7, sp, #0
 8000516:	6078      	str	r0, [r7, #4]

  if(lptimHandle->Instance==LPTIM1)
 8000518:	687b      	ldr	r3, [r7, #4]
 800051a:	681b      	ldr	r3, [r3, #0]
 800051c:	4a0a      	ldr	r2, [pc, #40]	; (8000548 <HAL_LPTIM_MspInit+0x38>)
 800051e:	4293      	cmp	r3, r2
 8000520:	d10e      	bne.n	8000540 <HAL_LPTIM_MspInit+0x30>
  {
  /* USER CODE BEGIN LPTIM1_MspInit 0 */

  /* USER CODE END LPTIM1_MspInit 0 */
    /* LPTIM1 clock enable */
    __HAL_RCC_LPTIM1_CLK_ENABLE();
 8000522:	4b0a      	ldr	r3, [pc, #40]	; (800054c <HAL_LPTIM_MspInit+0x3c>)
 8000524:	6b9a      	ldr	r2, [r3, #56]	; 0x38
 8000526:	4b09      	ldr	r3, [pc, #36]	; (800054c <HAL_LPTIM_MspInit+0x3c>)
 8000528:	2180      	movs	r1, #128	; 0x80
 800052a:	0609      	lsls	r1, r1, #24
 800052c:	430a      	orrs	r2, r1
 800052e:	639a      	str	r2, [r3, #56]	; 0x38

    /* LPTIM1 interrupt Init */
    HAL_NVIC_SetPriority(LPTIM1_IRQn, 0, 0);
 8000530:	2200      	movs	r2, #0
 8000532:	2100      	movs	r1, #0
 8000534:	200d      	movs	r0, #13
 8000536:	f001 f867 	bl	8001608 <HAL_NVIC_SetPriority>
    HAL_NVIC_EnableIRQ(LPTIM1_IRQn);
 800053a:	200d      	movs	r0, #13
 800053c:	f001 f879 	bl	8001632 <HAL_NVIC_EnableIRQ>
  /* USER CODE BEGIN LPTIM1_MspInit 1 */

  /* USER CODE END LPTIM1_MspInit 1 */
  }
}
 8000540:	46c0      	nop			; (mov r8, r8)
 8000542:	46bd      	mov	sp, r7
 8000544:	b002      	add	sp, #8
 8000546:	bd80      	pop	{r7, pc}
 8000548:	40007c00 	.word	0x40007c00
 800054c:	40021000 	.word	0x40021000

08000550 <main>:
/**
  * @brief  The application entry point.
  * @retval int
  */
int main(void)
{
 8000550:	b580      	push	{r7, lr}
 8000552:	af00      	add	r7, sp, #0
  /* USER CODE END 1 */

  /* MCU Configuration--------------------------------------------------------*/

  /* Reset of all peripherals, Initializes the Flash interface and the Systick. */
  HAL_Init();
 8000554:	f000 fbba 	bl	8000ccc <HAL_Init>
  /* USER CODE BEGIN Init */

  /* USER CODE END Init */

  /* Configure the system clock */
  SystemClock_Config();
 8000558:	f000 f870 	bl	800063c <SystemClock_Config>
  /* USER CODE BEGIN SysInit */

  /* USER CODE END SysInit */

  /* Initialize all configured peripherals */
  MX_GPIO_Init();
 800055c:	f7ff ff4e 	bl	80003fc <MX_GPIO_Init>
  MX_DMA_Init();
 8000560:	f7ff ff2e 	bl	80003c0 <MX_DMA_Init>
  MX_TIM2_Init();
 8000564:	f000 fa1e 	bl	80009a4 <MX_TIM2_Init>
  MX_TIM21_Init();
 8000568:	f000 fa8e 	bl	8000a88 <MX_TIM21_Init>
  MX_ADC_Init();
 800056c:	f7ff fe58 	bl	8000220 <MX_ADC_Init>
  MX_LPTIM1_Init();
 8000570:	f7ff ffa6 	bl	80004c0 <MX_LPTIM1_Init>
  /* USER CODE BEGIN 2 */

  // start PWM outputs
  HAL_TIM_PWM_Start(&htim2, TIM_CHANNEL_1);
 8000574:	4b27      	ldr	r3, [pc, #156]	; (8000614 <main+0xc4>)
 8000576:	2100      	movs	r1, #0
 8000578:	0018      	movs	r0, r3
 800057a:	f002 fc65 	bl	8002e48 <HAL_TIM_PWM_Start>
  HAL_TIM_PWM_Start(&htim2, TIM_CHANNEL_2);
 800057e:	4b25      	ldr	r3, [pc, #148]	; (8000614 <main+0xc4>)
 8000580:	2104      	movs	r1, #4
 8000582:	0018      	movs	r0, r3
 8000584:	f002 fc60 	bl	8002e48 <HAL_TIM_PWM_Start>
  HAL_TIM_PWM_Start(&htim2, TIM_CHANNEL_3);
 8000588:	4b22      	ldr	r3, [pc, #136]	; (8000614 <main+0xc4>)
 800058a:	2108      	movs	r1, #8
 800058c:	0018      	movs	r0, r3
 800058e:	f002 fc5b 	bl	8002e48 <HAL_TIM_PWM_Start>

  // init PWM to 50% duty
  TIM2->ARR = 8191;
 8000592:	2380      	movs	r3, #128	; 0x80
 8000594:	05db      	lsls	r3, r3, #23
 8000596:	4a20      	ldr	r2, [pc, #128]	; (8000618 <main+0xc8>)
 8000598:	62da      	str	r2, [r3, #44]	; 0x2c
  TIM2->CCR1 = 0;
 800059a:	2380      	movs	r3, #128	; 0x80
 800059c:	05db      	lsls	r3, r3, #23
 800059e:	2200      	movs	r2, #0
 80005a0:	635a      	str	r2, [r3, #52]	; 0x34
  TIM2->CCR2 = 0;
 80005a2:	2380      	movs	r3, #128	; 0x80
 80005a4:	05db      	lsls	r3, r3, #23
 80005a6:	2200      	movs	r2, #0
 80005a8:	639a      	str	r2, [r3, #56]	; 0x38
  TIM2->CCR3 = 0;
 80005aa:	2380      	movs	r3, #128	; 0x80
 80005ac:	05db      	lsls	r3, r3, #23
 80005ae:	2200      	movs	r2, #0
 80005b0:	63da      	str	r2, [r3, #60]	; 0x3c

  // debounce timer
  HAL_TIM_Base_Start_IT(&htim21);
 80005b2:	4b1a      	ldr	r3, [pc, #104]	; (800061c <main+0xcc>)
 80005b4:	0018      	movs	r0, r3
 80005b6:	f002 fbf9 	bl	8002dac <HAL_TIM_Base_Start_IT>

  HAL_LPTIM_Counter_Start_IT(&hlptim1, LED_PERIOD_LIMIT);
 80005ba:	4a19      	ldr	r2, [pc, #100]	; (8000620 <main+0xd0>)
 80005bc:	4b19      	ldr	r3, [pc, #100]	; (8000624 <main+0xd4>)
 80005be:	0011      	movs	r1, r2
 80005c0:	0018      	movs	r0, r3
 80005c2:	f001 fc49 	bl	8001e58 <HAL_LPTIM_Counter_Start_IT>
  LPTIM1->CFGR |= LPTIM_CFGR_PRESC_0 | LPTIM_CFGR_PRESC_1 | LPTIM_CFGR_PRESC_2;
 80005c6:	4b18      	ldr	r3, [pc, #96]	; (8000628 <main+0xd8>)
 80005c8:	68da      	ldr	r2, [r3, #12]
 80005ca:	4b17      	ldr	r3, [pc, #92]	; (8000628 <main+0xd8>)
 80005cc:	21e0      	movs	r1, #224	; 0xe0
 80005ce:	0109      	lsls	r1, r1, #4
 80005d0:	430a      	orrs	r2, r1
 80005d2:	60da      	str	r2, [r3, #12]
  LPTIM1->ARR = 1536;
 80005d4:	4b14      	ldr	r3, [pc, #80]	; (8000628 <main+0xd8>)
 80005d6:	22c0      	movs	r2, #192	; 0xc0
 80005d8:	00d2      	lsls	r2, r2, #3
 80005da:	619a      	str	r2, [r3, #24]

  // init bypass switch (clean signal default)
  HAL_GPIO_WritePin(CLEAN_ENABLE_GPIO_Port, CLEAN_ENABLE_Pin, 1);
 80005dc:	2380      	movs	r3, #128	; 0x80
 80005de:	01db      	lsls	r3, r3, #7
 80005e0:	4812      	ldr	r0, [pc, #72]	; (800062c <main+0xdc>)
 80005e2:	2201      	movs	r2, #1
 80005e4:	0019      	movs	r1, r3
 80005e6:	f001 fb61 	bl	8001cac <HAL_GPIO_WritePin>
  HAL_GPIO_WritePin(FX_ENABLE_GPIO_Port, FX_ENABLE_Pin, 0);
 80005ea:	2380      	movs	r3, #128	; 0x80
 80005ec:	021b      	lsls	r3, r3, #8
 80005ee:	480f      	ldr	r0, [pc, #60]	; (800062c <main+0xdc>)
 80005f0:	2200      	movs	r2, #0
 80005f2:	0019      	movs	r1, r3
 80005f4:	f001 fb5a 	bl	8001cac <HAL_GPIO_WritePin>


  HAL_ADC_Start_DMA(&hadc, adc_data, ADC_DATA_MAX);
 80005f8:	490d      	ldr	r1, [pc, #52]	; (8000630 <main+0xe0>)
 80005fa:	4b0e      	ldr	r3, [pc, #56]	; (8000634 <main+0xe4>)
 80005fc:	2201      	movs	r2, #1
 80005fe:	0018      	movs	r0, r3
 8000600:	f000 fd38 	bl	8001074 <HAL_ADC_Start_DMA>
  /* Infinite loop */
  /* USER CODE BEGIN WHILE */
  while (1)
  {

	  temp++;
 8000604:	4b0c      	ldr	r3, [pc, #48]	; (8000638 <main+0xe8>)
 8000606:	781b      	ldrb	r3, [r3, #0]
 8000608:	3301      	adds	r3, #1
 800060a:	b2da      	uxtb	r2, r3
 800060c:	4b0a      	ldr	r3, [pc, #40]	; (8000638 <main+0xe8>)
 800060e:	701a      	strb	r2, [r3, #0]
 8000610:	e7f8      	b.n	8000604 <main+0xb4>
 8000612:	46c0      	nop			; (mov r8, r8)
 8000614:	20000104 	.word	0x20000104
 8000618:	00001fff 	.word	0x00001fff
 800061c:	20000140 	.word	0x20000140
 8000620:	000007ff 	.word	0x000007ff
 8000624:	200000d0 	.word	0x200000d0
 8000628:	40007c00 	.word	0x40007c00
 800062c:	50000800 	.word	0x50000800
 8000630:	20000100 	.word	0x20000100
 8000634:	20000074 	.word	0x20000074
 8000638:	20000000 	.word	0x20000000

0800063c <SystemClock_Config>:
/**
  * @brief System Clock Configuration
  * @retval None
  */
void SystemClock_Config(void)
{
 800063c:	b590      	push	{r4, r7, lr}
 800063e:	b099      	sub	sp, #100	; 0x64
 8000640:	af00      	add	r7, sp, #0
  RCC_OscInitTypeDef RCC_OscInitStruct = {0};
 8000642:	242c      	movs	r4, #44	; 0x2c
 8000644:	193b      	adds	r3, r7, r4
 8000646:	0018      	movs	r0, r3
 8000648:	2334      	movs	r3, #52	; 0x34
 800064a:	001a      	movs	r2, r3
 800064c:	2100      	movs	r1, #0
 800064e:	f003 f915 	bl	800387c <memset>
  RCC_ClkInitTypeDef RCC_ClkInitStruct = {0};
 8000652:	2318      	movs	r3, #24
 8000654:	18fb      	adds	r3, r7, r3
 8000656:	0018      	movs	r0, r3
 8000658:	2314      	movs	r3, #20
 800065a:	001a      	movs	r2, r3
 800065c:	2100      	movs	r1, #0
 800065e:	f003 f90d 	bl	800387c <memset>
  RCC_PeriphCLKInitTypeDef PeriphClkInit = {0};
 8000662:	003b      	movs	r3, r7
 8000664:	0018      	movs	r0, r3
 8000666:	2318      	movs	r3, #24
 8000668:	001a      	movs	r2, r3
 800066a:	2100      	movs	r1, #0
 800066c:	f003 f906 	bl	800387c <memset>

  /** Configure the main internal regulator output voltage 
  */
  __HAL_PWR_VOLTAGESCALING_CONFIG(PWR_REGULATOR_VOLTAGE_SCALE1);
 8000670:	4b29      	ldr	r3, [pc, #164]	; (8000718 <SystemClock_Config+0xdc>)
 8000672:	681b      	ldr	r3, [r3, #0]
 8000674:	4a29      	ldr	r2, [pc, #164]	; (800071c <SystemClock_Config+0xe0>)
 8000676:	401a      	ands	r2, r3
 8000678:	4b27      	ldr	r3, [pc, #156]	; (8000718 <SystemClock_Config+0xdc>)
 800067a:	2180      	movs	r1, #128	; 0x80
 800067c:	0109      	lsls	r1, r1, #4
 800067e:	430a      	orrs	r2, r1
 8000680:	601a      	str	r2, [r3, #0]
  /** Initializes the CPU, AHB and APB busses clocks 
  */
  RCC_OscInitStruct.OscillatorType = RCC_OSCILLATORTYPE_HSI;
 8000682:	0021      	movs	r1, r4
 8000684:	187b      	adds	r3, r7, r1
 8000686:	2202      	movs	r2, #2
 8000688:	601a      	str	r2, [r3, #0]
  RCC_OscInitStruct.HSIState = RCC_HSI_ON;
 800068a:	187b      	adds	r3, r7, r1
 800068c:	2201      	movs	r2, #1
 800068e:	60da      	str	r2, [r3, #12]
  RCC_OscInitStruct.HSICalibrationValue = RCC_HSICALIBRATION_DEFAULT;
 8000690:	187b      	adds	r3, r7, r1
 8000692:	2210      	movs	r2, #16
 8000694:	611a      	str	r2, [r3, #16]
  RCC_OscInitStruct.PLL.PLLState = RCC_PLL_ON;
 8000696:	187b      	adds	r3, r7, r1
 8000698:	2202      	movs	r2, #2
 800069a:	625a      	str	r2, [r3, #36]	; 0x24
  RCC_OscInitStruct.PLL.PLLSource = RCC_PLLSOURCE_HSI;
 800069c:	187b      	adds	r3, r7, r1
 800069e:	2200      	movs	r2, #0
 80006a0:	629a      	str	r2, [r3, #40]	; 0x28
  RCC_OscInitStruct.PLL.PLLMUL = RCC_PLLMUL_4;
 80006a2:	187b      	adds	r3, r7, r1
 80006a4:	2280      	movs	r2, #128	; 0x80
 80006a6:	02d2      	lsls	r2, r2, #11
 80006a8:	62da      	str	r2, [r3, #44]	; 0x2c
  RCC_OscInitStruct.PLL.PLLDIV = RCC_PLLDIV_4;
 80006aa:	187b      	adds	r3, r7, r1
 80006ac:	22c0      	movs	r2, #192	; 0xc0
 80006ae:	0412      	lsls	r2, r2, #16
 80006b0:	631a      	str	r2, [r3, #48]	; 0x30
  if (HAL_RCC_OscConfig(&RCC_OscInitStruct) != HAL_OK)
 80006b2:	187b      	adds	r3, r7, r1
 80006b4:	0018      	movs	r0, r3
 80006b6:	f001 fcfd 	bl	80020b4 <HAL_RCC_OscConfig>
 80006ba:	1e03      	subs	r3, r0, #0
 80006bc:	d001      	beq.n	80006c2 <SystemClock_Config+0x86>
  {
    Error_Handler();
 80006be:	f000 f82f 	bl	8000720 <Error_Handler>
  }
  /** Initializes the CPU, AHB and APB busses clocks 
  */
  RCC_ClkInitStruct.ClockType = RCC_CLOCKTYPE_HCLK|RCC_CLOCKTYPE_SYSCLK
 80006c2:	2118      	movs	r1, #24
 80006c4:	187b      	adds	r3, r7, r1
 80006c6:	220f      	movs	r2, #15
 80006c8:	601a      	str	r2, [r3, #0]
                              |RCC_CLOCKTYPE_PCLK1|RCC_CLOCKTYPE_PCLK2;
  RCC_ClkInitStruct.SYSCLKSource = RCC_SYSCLKSOURCE_PLLCLK;
 80006ca:	187b      	adds	r3, r7, r1
 80006cc:	2203      	movs	r2, #3
 80006ce:	605a      	str	r2, [r3, #4]
  RCC_ClkInitStruct.AHBCLKDivider = RCC_SYSCLK_DIV1;
 80006d0:	187b      	adds	r3, r7, r1
 80006d2:	2200      	movs	r2, #0
 80006d4:	609a      	str	r2, [r3, #8]
  RCC_ClkInitStruct.APB1CLKDivider = RCC_HCLK_DIV1;
 80006d6:	187b      	adds	r3, r7, r1
 80006d8:	2200      	movs	r2, #0
 80006da:	60da      	str	r2, [r3, #12]
  RCC_ClkInitStruct.APB2CLKDivider = RCC_HCLK_DIV1;
 80006dc:	187b      	adds	r3, r7, r1
 80006de:	2200      	movs	r2, #0
 80006e0:	611a      	str	r2, [r3, #16]

  if (HAL_RCC_ClockConfig(&RCC_ClkInitStruct, FLASH_LATENCY_0) != HAL_OK)
 80006e2:	187b      	adds	r3, r7, r1
 80006e4:	2100      	movs	r1, #0
 80006e6:	0018      	movs	r0, r3
 80006e8:	f002 f85e 	bl	80027a8 <HAL_RCC_ClockConfig>
 80006ec:	1e03      	subs	r3, r0, #0
 80006ee:	d001      	beq.n	80006f4 <SystemClock_Config+0xb8>
  {
    Error_Handler();
 80006f0:	f000 f816 	bl	8000720 <Error_Handler>
  }
  PeriphClkInit.PeriphClockSelection = RCC_PERIPHCLK_LPTIM1;
 80006f4:	003b      	movs	r3, r7
 80006f6:	2280      	movs	r2, #128	; 0x80
 80006f8:	601a      	str	r2, [r3, #0]
  PeriphClkInit.LptimClockSelection = RCC_LPTIM1CLKSOURCE_PCLK;
 80006fa:	003b      	movs	r3, r7
 80006fc:	2200      	movs	r2, #0
 80006fe:	615a      	str	r2, [r3, #20]

  if (HAL_RCCEx_PeriphCLKConfig(&PeriphClkInit) != HAL_OK)
 8000700:	003b      	movs	r3, r7
 8000702:	0018      	movs	r0, r3
 8000704:	f002 f9fe 	bl	8002b04 <HAL_RCCEx_PeriphCLKConfig>
 8000708:	1e03      	subs	r3, r0, #0
 800070a:	d001      	beq.n	8000710 <SystemClock_Config+0xd4>
  {
    Error_Handler();
 800070c:	f000 f808 	bl	8000720 <Error_Handler>
  }
}
 8000710:	46c0      	nop			; (mov r8, r8)
 8000712:	46bd      	mov	sp, r7
 8000714:	b019      	add	sp, #100	; 0x64
 8000716:	bd90      	pop	{r4, r7, pc}
 8000718:	40007000 	.word	0x40007000
 800071c:	ffffe7ff 	.word	0xffffe7ff

08000720 <Error_Handler>:
/**
  * @brief  This function is executed in case of error occurrence.
  * @retval None
  */
void Error_Handler(void)
{
 8000720:	b580      	push	{r7, lr}
 8000722:	af00      	add	r7, sp, #0
  /* USER CODE BEGIN Error_Handler_Debug */
  /* User can add his own implementation to report the HAL error return state */

  /* USER CODE END Error_Handler_Debug */
}
 8000724:	46c0      	nop			; (mov r8, r8)
 8000726:	46bd      	mov	sp, r7
 8000728:	bd80      	pop	{r7, pc}
	...

0800072c <HAL_MspInit>:
/* USER CODE END 0 */
/**
  * Initializes the Global MSP.
  */
void HAL_MspInit(void)
{
 800072c:	b580      	push	{r7, lr}
 800072e:	af00      	add	r7, sp, #0
  /* USER CODE BEGIN MspInit 0 */

  /* USER CODE END MspInit 0 */

  __HAL_RCC_SYSCFG_CLK_ENABLE();
 8000730:	4b07      	ldr	r3, [pc, #28]	; (8000750 <HAL_MspInit+0x24>)
 8000732:	6b5a      	ldr	r2, [r3, #52]	; 0x34
 8000734:	4b06      	ldr	r3, [pc, #24]	; (8000750 <HAL_MspInit+0x24>)
 8000736:	2101      	movs	r1, #1
 8000738:	430a      	orrs	r2, r1
 800073a:	635a      	str	r2, [r3, #52]	; 0x34
  __HAL_RCC_PWR_CLK_ENABLE();
 800073c:	4b04      	ldr	r3, [pc, #16]	; (8000750 <HAL_MspInit+0x24>)
 800073e:	6b9a      	ldr	r2, [r3, #56]	; 0x38
 8000740:	4b03      	ldr	r3, [pc, #12]	; (8000750 <HAL_MspInit+0x24>)
 8000742:	2180      	movs	r1, #128	; 0x80
 8000744:	0549      	lsls	r1, r1, #21
 8000746:	430a      	orrs	r2, r1
 8000748:	639a      	str	r2, [r3, #56]	; 0x38
  /* System interrupt init*/

  /* USER CODE BEGIN MspInit 1 */

  /* USER CODE END MspInit 1 */
}
 800074a:	46c0      	nop			; (mov r8, r8)
 800074c:	46bd      	mov	sp, r7
 800074e:	bd80      	pop	{r7, pc}
 8000750:	40021000 	.word	0x40021000

08000754 <ledprogram_panfade>:
		led_value2--;
	}
}

void ledprogram_panfade()
{
 8000754:	b580      	push	{r7, lr}
 8000756:	af00      	add	r7, sp, #0
	// led pwm ch1
	if(!led1_fade_stop)
 8000758:	4b2b      	ldr	r3, [pc, #172]	; (8000808 <ledprogram_panfade+0xb4>)
 800075a:	781b      	ldrb	r3, [r3, #0]
 800075c:	2b00      	cmp	r3, #0
 800075e:	d125      	bne.n	80007ac <ledprogram_panfade+0x58>
	{
		if(led_value1 < 1)
 8000760:	4b2a      	ldr	r3, [pc, #168]	; (800080c <ledprogram_panfade+0xb8>)
 8000762:	881b      	ldrh	r3, [r3, #0]
 8000764:	2b00      	cmp	r3, #0
 8000766:	d108      	bne.n	800077a <ledprogram_panfade+0x26>
		{
			led_fade_up1 = 1;
 8000768:	4b29      	ldr	r3, [pc, #164]	; (8000810 <ledprogram_panfade+0xbc>)
 800076a:	2201      	movs	r2, #1
 800076c:	701a      	strb	r2, [r3, #0]
			led1_fade_stop = 1;
 800076e:	4b26      	ldr	r3, [pc, #152]	; (8000808 <ledprogram_panfade+0xb4>)
 8000770:	2201      	movs	r2, #1
 8000772:	701a      	strb	r2, [r3, #0]
			led2_fade_stop = 0;
 8000774:	4b27      	ldr	r3, [pc, #156]	; (8000814 <ledprogram_panfade+0xc0>)
 8000776:	2200      	movs	r2, #0
 8000778:	701a      	strb	r2, [r3, #0]

		}
		if(led_value1 > LED_PERIOD_LIMIT) {
 800077a:	4b24      	ldr	r3, [pc, #144]	; (800080c <ledprogram_panfade+0xb8>)
 800077c:	881b      	ldrh	r3, [r3, #0]
 800077e:	4a26      	ldr	r2, [pc, #152]	; (8000818 <ledprogram_panfade+0xc4>)
 8000780:	4293      	cmp	r3, r2
 8000782:	d902      	bls.n	800078a <ledprogram_panfade+0x36>
			led_fade_up1 = 0;
 8000784:	4b22      	ldr	r3, [pc, #136]	; (8000810 <ledprogram_panfade+0xbc>)
 8000786:	2200      	movs	r2, #0
 8000788:	701a      	strb	r2, [r3, #0]
		}

		if(led_fade_up1)
 800078a:	4b21      	ldr	r3, [pc, #132]	; (8000810 <ledprogram_panfade+0xbc>)
 800078c:	781b      	ldrb	r3, [r3, #0]
 800078e:	2b00      	cmp	r3, #0
 8000790:	d006      	beq.n	80007a0 <ledprogram_panfade+0x4c>
		{
			led_value1++;
 8000792:	4b1e      	ldr	r3, [pc, #120]	; (800080c <ledprogram_panfade+0xb8>)
 8000794:	881b      	ldrh	r3, [r3, #0]
 8000796:	3301      	adds	r3, #1
 8000798:	b29a      	uxth	r2, r3
 800079a:	4b1c      	ldr	r3, [pc, #112]	; (800080c <ledprogram_panfade+0xb8>)
 800079c:	801a      	strh	r2, [r3, #0]
 800079e:	e005      	b.n	80007ac <ledprogram_panfade+0x58>
		}
		else
		{
			led_value1--;
 80007a0:	4b1a      	ldr	r3, [pc, #104]	; (800080c <ledprogram_panfade+0xb8>)
 80007a2:	881b      	ldrh	r3, [r3, #0]
 80007a4:	3b01      	subs	r3, #1
 80007a6:	b29a      	uxth	r2, r3
 80007a8:	4b18      	ldr	r3, [pc, #96]	; (800080c <ledprogram_panfade+0xb8>)
 80007aa:	801a      	strh	r2, [r3, #0]
		}
	}
	if(!led2_fade_stop)
 80007ac:	4b19      	ldr	r3, [pc, #100]	; (8000814 <ledprogram_panfade+0xc0>)
 80007ae:	781b      	ldrb	r3, [r3, #0]
 80007b0:	2b00      	cmp	r3, #0
 80007b2:	d125      	bne.n	8000800 <ledprogram_panfade+0xac>
	{
		// led pwm ch2
		if(led_value2 < 1)
 80007b4:	4b19      	ldr	r3, [pc, #100]	; (800081c <ledprogram_panfade+0xc8>)
 80007b6:	881b      	ldrh	r3, [r3, #0]
 80007b8:	2b00      	cmp	r3, #0
 80007ba:	d108      	bne.n	80007ce <ledprogram_panfade+0x7a>
		{
			led_fade_up2 = 1;
 80007bc:	4b18      	ldr	r3, [pc, #96]	; (8000820 <ledprogram_panfade+0xcc>)
 80007be:	2201      	movs	r2, #1
 80007c0:	701a      	strb	r2, [r3, #0]
			led2_fade_stop = 1;
 80007c2:	4b14      	ldr	r3, [pc, #80]	; (8000814 <ledprogram_panfade+0xc0>)
 80007c4:	2201      	movs	r2, #1
 80007c6:	701a      	strb	r2, [r3, #0]
			led1_fade_stop = 0;
 80007c8:	4b0f      	ldr	r3, [pc, #60]	; (8000808 <ledprogram_panfade+0xb4>)
 80007ca:	2200      	movs	r2, #0
 80007cc:	701a      	strb	r2, [r3, #0]

		}
		if(led_value2 > LED_PERIOD_LIMIT) {
 80007ce:	4b13      	ldr	r3, [pc, #76]	; (800081c <ledprogram_panfade+0xc8>)
 80007d0:	881b      	ldrh	r3, [r3, #0]
 80007d2:	4a11      	ldr	r2, [pc, #68]	; (8000818 <ledprogram_panfade+0xc4>)
 80007d4:	4293      	cmp	r3, r2
 80007d6:	d902      	bls.n	80007de <ledprogram_panfade+0x8a>
			led_fade_up2 = 0;
 80007d8:	4b11      	ldr	r3, [pc, #68]	; (8000820 <ledprogram_panfade+0xcc>)
 80007da:	2200      	movs	r2, #0
 80007dc:	701a      	strb	r2, [r3, #0]
		}

		if(led_fade_up2)
 80007de:	4b10      	ldr	r3, [pc, #64]	; (8000820 <ledprogram_panfade+0xcc>)
 80007e0:	781b      	ldrb	r3, [r3, #0]
 80007e2:	2b00      	cmp	r3, #0
 80007e4:	d006      	beq.n	80007f4 <ledprogram_panfade+0xa0>
		{
			led_value2++;
 80007e6:	4b0d      	ldr	r3, [pc, #52]	; (800081c <ledprogram_panfade+0xc8>)
 80007e8:	881b      	ldrh	r3, [r3, #0]
 80007ea:	3301      	adds	r3, #1
 80007ec:	b29a      	uxth	r2, r3
 80007ee:	4b0b      	ldr	r3, [pc, #44]	; (800081c <ledprogram_panfade+0xc8>)
 80007f0:	801a      	strh	r2, [r3, #0]
		{
			led_value2--;
		}
	}

}
 80007f2:	e005      	b.n	8000800 <ledprogram_panfade+0xac>
			led_value2--;
 80007f4:	4b09      	ldr	r3, [pc, #36]	; (800081c <ledprogram_panfade+0xc8>)
 80007f6:	881b      	ldrh	r3, [r3, #0]
 80007f8:	3b01      	subs	r3, #1
 80007fa:	b29a      	uxth	r2, r3
 80007fc:	4b07      	ldr	r3, [pc, #28]	; (800081c <ledprogram_panfade+0xc8>)
 80007fe:	801a      	strh	r2, [r3, #0]
}
 8000800:	46c0      	nop			; (mov r8, r8)
 8000802:	46bd      	mov	sp, r7
 8000804:	bd80      	pop	{r7, pc}
 8000806:	46c0      	nop			; (mov r8, r8)
 8000808:	2000002b 	.word	0x2000002b
 800080c:	20000026 	.word	0x20000026
 8000810:	20000001 	.word	0x20000001
 8000814:	20000002 	.word	0x20000002
 8000818:	000007ff 	.word	0x000007ff
 800081c:	20000028 	.word	0x20000028
 8000820:	2000002a 	.word	0x2000002a

08000824 <NMI_Handler>:
/******************************************************************************/
/**
  * @brief This function handles Non maskable interrupt.
  */
void NMI_Handler(void)
{
 8000824:	b580      	push	{r7, lr}
 8000826:	af00      	add	r7, sp, #0

  /* USER CODE END NonMaskableInt_IRQn 0 */
  /* USER CODE BEGIN NonMaskableInt_IRQn 1 */

  /* USER CODE END NonMaskableInt_IRQn 1 */
}
 8000828:	46c0      	nop			; (mov r8, r8)
 800082a:	46bd      	mov	sp, r7
 800082c:	bd80      	pop	{r7, pc}

0800082e <HardFault_Handler>:

/**
  * @brief This function handles Hard fault interrupt.
  */
void HardFault_Handler(void)
{
 800082e:	b580      	push	{r7, lr}
 8000830:	af00      	add	r7, sp, #0
  /* USER CODE BEGIN HardFault_IRQn 0 */

  /* USER CODE END HardFault_IRQn 0 */
  while (1)
 8000832:	e7fe      	b.n	8000832 <HardFault_Handler+0x4>

08000834 <SVC_Handler>:

/**
  * @brief This function handles System service call via SWI instruction.
  */
void SVC_Handler(void)
{
 8000834:	b580      	push	{r7, lr}
 8000836:	af00      	add	r7, sp, #0

  /* USER CODE END SVC_IRQn 0 */
  /* USER CODE BEGIN SVC_IRQn 1 */

  /* USER CODE END SVC_IRQn 1 */
}
 8000838:	46c0      	nop			; (mov r8, r8)
 800083a:	46bd      	mov	sp, r7
 800083c:	bd80      	pop	{r7, pc}

0800083e <PendSV_Handler>:

/**
  * @brief This function handles Pendable request for system service.
  */
void PendSV_Handler(void)
{
 800083e:	b580      	push	{r7, lr}
 8000840:	af00      	add	r7, sp, #0

  /* USER CODE END PendSV_IRQn 0 */
  /* USER CODE BEGIN PendSV_IRQn 1 */

  /* USER CODE END PendSV_IRQn 1 */
}
 8000842:	46c0      	nop			; (mov r8, r8)
 8000844:	46bd      	mov	sp, r7
 8000846:	bd80      	pop	{r7, pc}

08000848 <SysTick_Handler>:

/**
  * @brief This function handles System tick timer.
  */
void SysTick_Handler(void)
{
 8000848:	b580      	push	{r7, lr}
 800084a:	af00      	add	r7, sp, #0
  /* USER CODE BEGIN SysTick_IRQn 0 */

  /* USER CODE END SysTick_IRQn 0 */
  HAL_IncTick();
 800084c:	f000 fa88 	bl	8000d60 <HAL_IncTick>
  /* USER CODE BEGIN SysTick_IRQn 1 */

  /* USER CODE END SysTick_IRQn 1 */
}
 8000850:	46c0      	nop			; (mov r8, r8)
 8000852:	46bd      	mov	sp, r7
 8000854:	bd80      	pop	{r7, pc}
	...

08000858 <EXTI4_15_IRQHandler>:

/**
  * @brief This function handles EXTI line 4 to 15 interrupts.
  */
void EXTI4_15_IRQHandler(void)
{
 8000858:	b580      	push	{r7, lr}
 800085a:	b082      	sub	sp, #8
 800085c:	af00      	add	r7, sp, #0
  /* USER CODE BEGIN EXTI4_15_IRQn 0 */

	uint16_t interrupt_time = TIM21->CNT;
 800085e:	4b14      	ldr	r3, [pc, #80]	; (80008b0 <EXTI4_15_IRQHandler+0x58>)
 8000860:	6a5a      	ldr	r2, [r3, #36]	; 0x24
 8000862:	1dbb      	adds	r3, r7, #6
 8000864:	801a      	strh	r2, [r3, #0]
	if (interrupt_time - last_interrupt_time > (adc_data[0]*2))
 8000866:	1dbb      	adds	r3, r7, #6
 8000868:	881b      	ldrh	r3, [r3, #0]
 800086a:	4a12      	ldr	r2, [pc, #72]	; (80008b4 <EXTI4_15_IRQHandler+0x5c>)
 800086c:	8812      	ldrh	r2, [r2, #0]
 800086e:	1a9b      	subs	r3, r3, r2
 8000870:	001a      	movs	r2, r3
 8000872:	4b11      	ldr	r3, [pc, #68]	; (80008b8 <EXTI4_15_IRQHandler+0x60>)
 8000874:	681b      	ldr	r3, [r3, #0]
 8000876:	005b      	lsls	r3, r3, #1
 8000878:	429a      	cmp	r2, r3
 800087a:	d90d      	bls.n	8000898 <EXTI4_15_IRQHandler+0x40>
	{
		HAL_GPIO_TogglePin(CLEAN_ENABLE_GPIO_Port, CLEAN_ENABLE_Pin);
 800087c:	2380      	movs	r3, #128	; 0x80
 800087e:	01db      	lsls	r3, r3, #7
 8000880:	4a0e      	ldr	r2, [pc, #56]	; (80008bc <EXTI4_15_IRQHandler+0x64>)
 8000882:	0019      	movs	r1, r3
 8000884:	0010      	movs	r0, r2
 8000886:	f001 fa2e 	bl	8001ce6 <HAL_GPIO_TogglePin>
		HAL_GPIO_TogglePin(FX_ENABLE_GPIO_Port, FX_ENABLE_Pin);
 800088a:	2380      	movs	r3, #128	; 0x80
 800088c:	021b      	lsls	r3, r3, #8
 800088e:	4a0b      	ldr	r2, [pc, #44]	; (80008bc <EXTI4_15_IRQHandler+0x64>)
 8000890:	0019      	movs	r1, r3
 8000892:	0010      	movs	r0, r2
 8000894:	f001 fa27 	bl	8001ce6 <HAL_GPIO_TogglePin>
	}
	last_interrupt_time = interrupt_time;
 8000898:	4b06      	ldr	r3, [pc, #24]	; (80008b4 <EXTI4_15_IRQHandler+0x5c>)
 800089a:	1dba      	adds	r2, r7, #6
 800089c:	8812      	ldrh	r2, [r2, #0]
 800089e:	801a      	strh	r2, [r3, #0]

  /* USER CODE END EXTI4_15_IRQn 0 */
  HAL_GPIO_EXTI_IRQHandler(GPIO_PIN_4);
 80008a0:	2010      	movs	r0, #16
 80008a2:	f001 fa33 	bl	8001d0c <HAL_GPIO_EXTI_IRQHandler>
  /* USER CODE BEGIN EXTI4_15_IRQn 1 */

  /* USER CODE END EXTI4_15_IRQn 1 */
}
 80008a6:	46c0      	nop			; (mov r8, r8)
 80008a8:	46bd      	mov	sp, r7
 80008aa:	b002      	add	sp, #8
 80008ac:	bd80      	pop	{r7, pc}
 80008ae:	46c0      	nop			; (mov r8, r8)
 80008b0:	40010800 	.word	0x40010800
 80008b4:	20000024 	.word	0x20000024
 80008b8:	20000100 	.word	0x20000100
 80008bc:	50000800 	.word	0x50000800

080008c0 <DMA1_Channel1_IRQHandler>:

/**
  * @brief This function handles DMA1 channel 1 interrupt.
  */
void DMA1_Channel1_IRQHandler(void)
{
 80008c0:	b580      	push	{r7, lr}
 80008c2:	af00      	add	r7, sp, #0
  /* USER CODE BEGIN DMA1_Channel1_IRQn 0 */

  /* USER CODE END DMA1_Channel1_IRQn 0 */
  HAL_DMA_IRQHandler(&hdma_adc);
 80008c4:	4b03      	ldr	r3, [pc, #12]	; (80008d4 <DMA1_Channel1_IRQHandler+0x14>)
 80008c6:	0018      	movs	r0, r3
 80008c8:	f000 ffae 	bl	8001828 <HAL_DMA_IRQHandler>
  /* USER CODE BEGIN DMA1_Channel1_IRQn 1 */

  /* USER CODE END DMA1_Channel1_IRQn 1 */
}
 80008cc:	46c0      	nop			; (mov r8, r8)
 80008ce:	46bd      	mov	sp, r7
 80008d0:	bd80      	pop	{r7, pc}
 80008d2:	46c0      	nop			; (mov r8, r8)
 80008d4:	2000002c 	.word	0x2000002c

080008d8 <LPTIM1_IRQHandler>:

/**
  * @brief This function handles LPTIM1 global interrupt / LPTIM1 wake-up interrupt through EXTI line 29.
  */
void LPTIM1_IRQHandler(void)
{
 80008d8:	b580      	push	{r7, lr}
 80008da:	af00      	add	r7, sp, #0
  /* USER CODE BEGIN LPTIM1_IRQn 0 */
	//ledprogram_syncfade();
	ledprogram_panfade();
 80008dc:	f7ff ff3a 	bl	8000754 <ledprogram_panfade>

	TIM2->CCR1 = led_value1;
 80008e0:	4b08      	ldr	r3, [pc, #32]	; (8000904 <LPTIM1_IRQHandler+0x2c>)
 80008e2:	881a      	ldrh	r2, [r3, #0]
 80008e4:	2380      	movs	r3, #128	; 0x80
 80008e6:	05db      	lsls	r3, r3, #23
 80008e8:	635a      	str	r2, [r3, #52]	; 0x34
	TIM2->CCR2 = led_value2;
 80008ea:	4b07      	ldr	r3, [pc, #28]	; (8000908 <LPTIM1_IRQHandler+0x30>)
 80008ec:	881a      	ldrh	r2, [r3, #0]
 80008ee:	2380      	movs	r3, #128	; 0x80
 80008f0:	05db      	lsls	r3, r3, #23
 80008f2:	639a      	str	r2, [r3, #56]	; 0x38
	//TIM2->CCR3 = led_value;
  /* USER CODE END LPTIM1_IRQn 0 */
  HAL_LPTIM_IRQHandler(&hlptim1);
 80008f4:	4b05      	ldr	r3, [pc, #20]	; (800090c <LPTIM1_IRQHandler+0x34>)
 80008f6:	0018      	movs	r0, r3
 80008f8:	f001 fb02 	bl	8001f00 <HAL_LPTIM_IRQHandler>
  /* USER CODE BEGIN LPTIM1_IRQn 1 */

  /* USER CODE END LPTIM1_IRQn 1 */
}
 80008fc:	46c0      	nop			; (mov r8, r8)
 80008fe:	46bd      	mov	sp, r7
 8000900:	bd80      	pop	{r7, pc}
 8000902:	46c0      	nop			; (mov r8, r8)
 8000904:	20000026 	.word	0x20000026
 8000908:	20000028 	.word	0x20000028
 800090c:	200000d0 	.word	0x200000d0

08000910 <TIM21_IRQHandler>:

/**
  * @brief This function handles TIM21 global interrupt.
  */
void TIM21_IRQHandler(void)
{
 8000910:	b580      	push	{r7, lr}
 8000912:	af00      	add	r7, sp, #0
  /* USER CODE BEGIN TIM21_IRQn 0 */

  /* USER CODE END TIM21_IRQn 0 */
  HAL_TIM_IRQHandler(&htim21);
 8000914:	4b03      	ldr	r3, [pc, #12]	; (8000924 <TIM21_IRQHandler+0x14>)
 8000916:	0018      	movs	r0, r3
 8000918:	f002 fab8 	bl	8002e8c <HAL_TIM_IRQHandler>
  /* USER CODE BEGIN TIM21_IRQn 1 */

  /* USER CODE END TIM21_IRQn 1 */
}
 800091c:	46c0      	nop			; (mov r8, r8)
 800091e:	46bd      	mov	sp, r7
 8000920:	bd80      	pop	{r7, pc}
 8000922:	46c0      	nop			; (mov r8, r8)
 8000924:	20000140 	.word	0x20000140

08000928 <SystemInit>:
  * @brief  Setup the microcontroller system.
  * @param  None
  * @retval None
  */
void SystemInit (void)
{
 8000928:	b580      	push	{r7, lr}
 800092a:	af00      	add	r7, sp, #0
/*!< Set MSION bit */
  RCC->CR |= (uint32_t)0x00000100U;
 800092c:	4b17      	ldr	r3, [pc, #92]	; (800098c <SystemInit+0x64>)
 800092e:	681a      	ldr	r2, [r3, #0]
 8000930:	4b16      	ldr	r3, [pc, #88]	; (800098c <SystemInit+0x64>)
 8000932:	2180      	movs	r1, #128	; 0x80
 8000934:	0049      	lsls	r1, r1, #1
 8000936:	430a      	orrs	r2, r1
 8000938:	601a      	str	r2, [r3, #0]

  /*!< Reset SW[1:0], HPRE[3:0], PPRE1[2:0], PPRE2[2:0], MCOSEL[2:0] and MCOPRE[2:0] bits */
  RCC->CFGR &= (uint32_t) 0x88FF400CU;
 800093a:	4b14      	ldr	r3, [pc, #80]	; (800098c <SystemInit+0x64>)
 800093c:	68da      	ldr	r2, [r3, #12]
 800093e:	4b13      	ldr	r3, [pc, #76]	; (800098c <SystemInit+0x64>)
 8000940:	4913      	ldr	r1, [pc, #76]	; (8000990 <SystemInit+0x68>)
 8000942:	400a      	ands	r2, r1
 8000944:	60da      	str	r2, [r3, #12]

  /*!< Reset HSION, HSIDIVEN, HSEON, CSSON and PLLON bits */
  RCC->CR &= (uint32_t)0xFEF6FFF6U;
 8000946:	4b11      	ldr	r3, [pc, #68]	; (800098c <SystemInit+0x64>)
 8000948:	681a      	ldr	r2, [r3, #0]
 800094a:	4b10      	ldr	r3, [pc, #64]	; (800098c <SystemInit+0x64>)
 800094c:	4911      	ldr	r1, [pc, #68]	; (8000994 <SystemInit+0x6c>)
 800094e:	400a      	ands	r2, r1
 8000950:	601a      	str	r2, [r3, #0]

  /*!< Reset HSI48ON  bit */
  RCC->CRRCR &= (uint32_t)0xFFFFFFFEU;
 8000952:	4b0e      	ldr	r3, [pc, #56]	; (800098c <SystemInit+0x64>)
 8000954:	689a      	ldr	r2, [r3, #8]
 8000956:	4b0d      	ldr	r3, [pc, #52]	; (800098c <SystemInit+0x64>)
 8000958:	2101      	movs	r1, #1
 800095a:	438a      	bics	r2, r1
 800095c:	609a      	str	r2, [r3, #8]

  /*!< Reset HSEBYP bit */
  RCC->CR &= (uint32_t)0xFFFBFFFFU;
 800095e:	4b0b      	ldr	r3, [pc, #44]	; (800098c <SystemInit+0x64>)
 8000960:	681a      	ldr	r2, [r3, #0]
 8000962:	4b0a      	ldr	r3, [pc, #40]	; (800098c <SystemInit+0x64>)
 8000964:	490c      	ldr	r1, [pc, #48]	; (8000998 <SystemInit+0x70>)
 8000966:	400a      	ands	r2, r1
 8000968:	601a      	str	r2, [r3, #0]

  /*!< Reset PLLSRC, PLLMUL[3:0] and PLLDIV[1:0] bits */
  RCC->CFGR &= (uint32_t)0xFF02FFFFU;
 800096a:	4b08      	ldr	r3, [pc, #32]	; (800098c <SystemInit+0x64>)
 800096c:	68da      	ldr	r2, [r3, #12]
 800096e:	4b07      	ldr	r3, [pc, #28]	; (800098c <SystemInit+0x64>)
 8000970:	490a      	ldr	r1, [pc, #40]	; (800099c <SystemInit+0x74>)
 8000972:	400a      	ands	r2, r1
 8000974:	60da      	str	r2, [r3, #12]

  /*!< Disable all interrupts */
  RCC->CIER = 0x00000000U;
 8000976:	4b05      	ldr	r3, [pc, #20]	; (800098c <SystemInit+0x64>)
 8000978:	2200      	movs	r2, #0
 800097a:	611a      	str	r2, [r3, #16]

  /* Configure the Vector Table location add offset address ------------------*/
#ifdef VECT_TAB_SRAM
  SCB->VTOR = SRAM_BASE | VECT_TAB_OFFSET; /* Vector Table Relocation in Internal SRAM */
#else
  SCB->VTOR = FLASH_BASE | VECT_TAB_OFFSET; /* Vector Table Relocation in Internal FLASH */
 800097c:	4b08      	ldr	r3, [pc, #32]	; (80009a0 <SystemInit+0x78>)
 800097e:	2280      	movs	r2, #128	; 0x80
 8000980:	0512      	lsls	r2, r2, #20
 8000982:	609a      	str	r2, [r3, #8]
#endif
}
 8000984:	46c0      	nop			; (mov r8, r8)
 8000986:	46bd      	mov	sp, r7
 8000988:	bd80      	pop	{r7, pc}
 800098a:	46c0      	nop			; (mov r8, r8)
 800098c:	40021000 	.word	0x40021000
 8000990:	88ff400c 	.word	0x88ff400c
 8000994:	fef6fff6 	.word	0xfef6fff6
 8000998:	fffbffff 	.word	0xfffbffff
 800099c:	ff02ffff 	.word	0xff02ffff
 80009a0:	e000ed00 	.word	0xe000ed00

080009a4 <MX_TIM2_Init>:
TIM_HandleTypeDef htim2;
TIM_HandleTypeDef htim21;

/* TIM2 init function */
void MX_TIM2_Init(void)
{
 80009a4:	b580      	push	{r7, lr}
 80009a6:	b086      	sub	sp, #24
 80009a8:	af00      	add	r7, sp, #0
  TIM_MasterConfigTypeDef sMasterConfig = {0};
 80009aa:	2310      	movs	r3, #16
 80009ac:	18fb      	adds	r3, r7, r3
 80009ae:	0018      	movs	r0, r3
 80009b0:	2308      	movs	r3, #8
 80009b2:	001a      	movs	r2, r3
 80009b4:	2100      	movs	r1, #0
 80009b6:	f002 ff61 	bl	800387c <memset>
  TIM_OC_InitTypeDef sConfigOC = {0};
 80009ba:	003b      	movs	r3, r7
 80009bc:	0018      	movs	r0, r3
 80009be:	2310      	movs	r3, #16
 80009c0:	001a      	movs	r2, r3
 80009c2:	2100      	movs	r1, #0
 80009c4:	f002 ff5a 	bl	800387c <memset>

  htim2.Instance = TIM2;
 80009c8:	4b2e      	ldr	r3, [pc, #184]	; (8000a84 <MX_TIM2_Init+0xe0>)
 80009ca:	2280      	movs	r2, #128	; 0x80
 80009cc:	05d2      	lsls	r2, r2, #23
 80009ce:	601a      	str	r2, [r3, #0]
  htim2.Init.Prescaler = 0;
 80009d0:	4b2c      	ldr	r3, [pc, #176]	; (8000a84 <MX_TIM2_Init+0xe0>)
 80009d2:	2200      	movs	r2, #0
 80009d4:	605a      	str	r2, [r3, #4]
  htim2.Init.CounterMode = TIM_COUNTERMODE_UP;
 80009d6:	4b2b      	ldr	r3, [pc, #172]	; (8000a84 <MX_TIM2_Init+0xe0>)
 80009d8:	2200      	movs	r2, #0
 80009da:	609a      	str	r2, [r3, #8]
  htim2.Init.Period = 64;
 80009dc:	4b29      	ldr	r3, [pc, #164]	; (8000a84 <MX_TIM2_Init+0xe0>)
 80009de:	2240      	movs	r2, #64	; 0x40
 80009e0:	60da      	str	r2, [r3, #12]
  htim2.Init.ClockDivision = TIM_CLOCKDIVISION_DIV1;
 80009e2:	4b28      	ldr	r3, [pc, #160]	; (8000a84 <MX_TIM2_Init+0xe0>)
 80009e4:	2200      	movs	r2, #0
 80009e6:	611a      	str	r2, [r3, #16]
  htim2.Init.AutoReloadPreload = TIM_AUTORELOAD_PRELOAD_DISABLE;
 80009e8:	4b26      	ldr	r3, [pc, #152]	; (8000a84 <MX_TIM2_Init+0xe0>)
 80009ea:	2200      	movs	r2, #0
 80009ec:	615a      	str	r2, [r3, #20]
  if (HAL_TIM_PWM_Init(&htim2) != HAL_OK)
 80009ee:	4b25      	ldr	r3, [pc, #148]	; (8000a84 <MX_TIM2_Init+0xe0>)
 80009f0:	0018      	movs	r0, r3
 80009f2:	f002 f9fd 	bl	8002df0 <HAL_TIM_PWM_Init>
 80009f6:	1e03      	subs	r3, r0, #0
 80009f8:	d001      	beq.n	80009fe <MX_TIM2_Init+0x5a>
  {
    Error_Handler();
 80009fa:	f7ff fe91 	bl	8000720 <Error_Handler>
  }
  sMasterConfig.MasterOutputTrigger = TIM_TRGO_RESET;
 80009fe:	2110      	movs	r1, #16
 8000a00:	187b      	adds	r3, r7, r1
 8000a02:	2200      	movs	r2, #0
 8000a04:	601a      	str	r2, [r3, #0]
  sMasterConfig.MasterSlaveMode = TIM_MASTERSLAVEMODE_DISABLE;
 8000a06:	187b      	adds	r3, r7, r1
 8000a08:	2200      	movs	r2, #0
 8000a0a:	605a      	str	r2, [r3, #4]
  if (HAL_TIMEx_MasterConfigSynchronization(&htim2, &sMasterConfig) != HAL_OK)
 8000a0c:	187a      	adds	r2, r7, r1
 8000a0e:	4b1d      	ldr	r3, [pc, #116]	; (8000a84 <MX_TIM2_Init+0xe0>)
 8000a10:	0011      	movs	r1, r2
 8000a12:	0018      	movs	r0, r3
 8000a14:	f002 fecb 	bl	80037ae <HAL_TIMEx_MasterConfigSynchronization>
 8000a18:	1e03      	subs	r3, r0, #0
 8000a1a:	d001      	beq.n	8000a20 <MX_TIM2_Init+0x7c>
  {
    Error_Handler();
 8000a1c:	f7ff fe80 	bl	8000720 <Error_Handler>
  }
  sConfigOC.OCMode = TIM_OCMODE_PWM1;
 8000a20:	003b      	movs	r3, r7
 8000a22:	2260      	movs	r2, #96	; 0x60
 8000a24:	601a      	str	r2, [r3, #0]
  sConfigOC.Pulse = 0;
 8000a26:	003b      	movs	r3, r7
 8000a28:	2200      	movs	r2, #0
 8000a2a:	605a      	str	r2, [r3, #4]
  sConfigOC.OCPolarity = TIM_OCPOLARITY_HIGH;
 8000a2c:	003b      	movs	r3, r7
 8000a2e:	2200      	movs	r2, #0
 8000a30:	609a      	str	r2, [r3, #8]
  sConfigOC.OCFastMode = TIM_OCFAST_DISABLE;
 8000a32:	003b      	movs	r3, r7
 8000a34:	2200      	movs	r2, #0
 8000a36:	60da      	str	r2, [r3, #12]
  if (HAL_TIM_PWM_ConfigChannel(&htim2, &sConfigOC, TIM_CHANNEL_1) != HAL_OK)
 8000a38:	0039      	movs	r1, r7
 8000a3a:	4b12      	ldr	r3, [pc, #72]	; (8000a84 <MX_TIM2_Init+0xe0>)
 8000a3c:	2200      	movs	r2, #0
 8000a3e:	0018      	movs	r0, r3
 8000a40:	f002 fb0c 	bl	800305c <HAL_TIM_PWM_ConfigChannel>
 8000a44:	1e03      	subs	r3, r0, #0
 8000a46:	d001      	beq.n	8000a4c <MX_TIM2_Init+0xa8>
  {
    Error_Handler();
 8000a48:	f7ff fe6a 	bl	8000720 <Error_Handler>
  }
  if (HAL_TIM_PWM_ConfigChannel(&htim2, &sConfigOC, TIM_CHANNEL_2) != HAL_OK)
 8000a4c:	0039      	movs	r1, r7
 8000a4e:	4b0d      	ldr	r3, [pc, #52]	; (8000a84 <MX_TIM2_Init+0xe0>)
 8000a50:	2204      	movs	r2, #4
 8000a52:	0018      	movs	r0, r3
 8000a54:	f002 fb02 	bl	800305c <HAL_TIM_PWM_ConfigChannel>
 8000a58:	1e03      	subs	r3, r0, #0
 8000a5a:	d001      	beq.n	8000a60 <MX_TIM2_Init+0xbc>
  {
    Error_Handler();
 8000a5c:	f7ff fe60 	bl	8000720 <Error_Handler>
  }
  if (HAL_TIM_PWM_ConfigChannel(&htim2, &sConfigOC, TIM_CHANNEL_3) != HAL_OK)
 8000a60:	0039      	movs	r1, r7
 8000a62:	4b08      	ldr	r3, [pc, #32]	; (8000a84 <MX_TIM2_Init+0xe0>)
 8000a64:	2208      	movs	r2, #8
 8000a66:	0018      	movs	r0, r3
 8000a68:	f002 faf8 	bl	800305c <HAL_TIM_PWM_ConfigChannel>
 8000a6c:	1e03      	subs	r3, r0, #0
 8000a6e:	d001      	beq.n	8000a74 <MX_TIM2_Init+0xd0>
  {
    Error_Handler();
 8000a70:	f7ff fe56 	bl	8000720 <Error_Handler>
  }
  HAL_TIM_MspPostInit(&htim2);
 8000a74:	4b03      	ldr	r3, [pc, #12]	; (8000a84 <MX_TIM2_Init+0xe0>)
 8000a76:	0018      	movs	r0, r3
 8000a78:	f000 f892 	bl	8000ba0 <HAL_TIM_MspPostInit>

}
 8000a7c:	46c0      	nop			; (mov r8, r8)
 8000a7e:	46bd      	mov	sp, r7
 8000a80:	b006      	add	sp, #24
 8000a82:	bd80      	pop	{r7, pc}
 8000a84:	20000104 	.word	0x20000104

08000a88 <MX_TIM21_Init>:
/* TIM21 init function */
void MX_TIM21_Init(void)
{
 8000a88:	b580      	push	{r7, lr}
 8000a8a:	b086      	sub	sp, #24
 8000a8c:	af00      	add	r7, sp, #0
  TIM_ClockConfigTypeDef sClockSourceConfig = {0};
 8000a8e:	2308      	movs	r3, #8
 8000a90:	18fb      	adds	r3, r7, r3
 8000a92:	0018      	movs	r0, r3
 8000a94:	2310      	movs	r3, #16
 8000a96:	001a      	movs	r2, r3
 8000a98:	2100      	movs	r1, #0
 8000a9a:	f002 feef 	bl	800387c <memset>
  TIM_MasterConfigTypeDef sMasterConfig = {0};
 8000a9e:	003b      	movs	r3, r7
 8000aa0:	0018      	movs	r0, r3
 8000aa2:	2308      	movs	r3, #8
 8000aa4:	001a      	movs	r2, r3
 8000aa6:	2100      	movs	r1, #0
 8000aa8:	f002 fee8 	bl	800387c <memset>

  htim21.Instance = TIM21;
 8000aac:	4b1e      	ldr	r3, [pc, #120]	; (8000b28 <MX_TIM21_Init+0xa0>)
 8000aae:	4a1f      	ldr	r2, [pc, #124]	; (8000b2c <MX_TIM21_Init+0xa4>)
 8000ab0:	601a      	str	r2, [r3, #0]
  htim21.Init.Prescaler = 65535;
 8000ab2:	4b1d      	ldr	r3, [pc, #116]	; (8000b28 <MX_TIM21_Init+0xa0>)
 8000ab4:	4a1e      	ldr	r2, [pc, #120]	; (8000b30 <MX_TIM21_Init+0xa8>)
 8000ab6:	605a      	str	r2, [r3, #4]
  htim21.Init.CounterMode = TIM_COUNTERMODE_UP;
 8000ab8:	4b1b      	ldr	r3, [pc, #108]	; (8000b28 <MX_TIM21_Init+0xa0>)
 8000aba:	2200      	movs	r2, #0
 8000abc:	609a      	str	r2, [r3, #8]
  htim21.Init.Period = 65535;
 8000abe:	4b1a      	ldr	r3, [pc, #104]	; (8000b28 <MX_TIM21_Init+0xa0>)
 8000ac0:	4a1b      	ldr	r2, [pc, #108]	; (8000b30 <MX_TIM21_Init+0xa8>)
 8000ac2:	60da      	str	r2, [r3, #12]
  htim21.Init.ClockDivision = TIM_CLOCKDIVISION_DIV1;
 8000ac4:	4b18      	ldr	r3, [pc, #96]	; (8000b28 <MX_TIM21_Init+0xa0>)
 8000ac6:	2200      	movs	r2, #0
 8000ac8:	611a      	str	r2, [r3, #16]
  htim21.Init.AutoReloadPreload = TIM_AUTORELOAD_PRELOAD_DISABLE;
 8000aca:	4b17      	ldr	r3, [pc, #92]	; (8000b28 <MX_TIM21_Init+0xa0>)
 8000acc:	2200      	movs	r2, #0
 8000ace:	615a      	str	r2, [r3, #20]
  if (HAL_TIM_Base_Init(&htim21) != HAL_OK)
 8000ad0:	4b15      	ldr	r3, [pc, #84]	; (8000b28 <MX_TIM21_Init+0xa0>)
 8000ad2:	0018      	movs	r0, r3
 8000ad4:	f002 f93e 	bl	8002d54 <HAL_TIM_Base_Init>
 8000ad8:	1e03      	subs	r3, r0, #0
 8000ada:	d001      	beq.n	8000ae0 <MX_TIM21_Init+0x58>
  {
    Error_Handler();
 8000adc:	f7ff fe20 	bl	8000720 <Error_Handler>
  }
  sClockSourceConfig.ClockSource = TIM_CLOCKSOURCE_INTERNAL;
 8000ae0:	2108      	movs	r1, #8
 8000ae2:	187b      	adds	r3, r7, r1
 8000ae4:	2280      	movs	r2, #128	; 0x80
 8000ae6:	0152      	lsls	r2, r2, #5
 8000ae8:	601a      	str	r2, [r3, #0]
  if (HAL_TIM_ConfigClockSource(&htim21, &sClockSourceConfig) != HAL_OK)
 8000aea:	187a      	adds	r2, r7, r1
 8000aec:	4b0e      	ldr	r3, [pc, #56]	; (8000b28 <MX_TIM21_Init+0xa0>)
 8000aee:	0011      	movs	r1, r2
 8000af0:	0018      	movs	r0, r3
 8000af2:	f002 fb6b 	bl	80031cc <HAL_TIM_ConfigClockSource>
 8000af6:	1e03      	subs	r3, r0, #0
 8000af8:	d001      	beq.n	8000afe <MX_TIM21_Init+0x76>
  {
    Error_Handler();
 8000afa:	f7ff fe11 	bl	8000720 <Error_Handler>
  }
  sMasterConfig.MasterOutputTrigger = TIM_TRGO_RESET;
 8000afe:	003b      	movs	r3, r7
 8000b00:	2200      	movs	r2, #0
 8000b02:	601a      	str	r2, [r3, #0]
  sMasterConfig.MasterSlaveMode = TIM_MASTERSLAVEMODE_DISABLE;
 8000b04:	003b      	movs	r3, r7
 8000b06:	2200      	movs	r2, #0
 8000b08:	605a      	str	r2, [r3, #4]
  if (HAL_TIMEx_MasterConfigSynchronization(&htim21, &sMasterConfig) != HAL_OK)
 8000b0a:	003a      	movs	r2, r7
 8000b0c:	4b06      	ldr	r3, [pc, #24]	; (8000b28 <MX_TIM21_Init+0xa0>)
 8000b0e:	0011      	movs	r1, r2
 8000b10:	0018      	movs	r0, r3
 8000b12:	f002 fe4c 	bl	80037ae <HAL_TIMEx_MasterConfigSynchronization>
 8000b16:	1e03      	subs	r3, r0, #0
 8000b18:	d001      	beq.n	8000b1e <MX_TIM21_Init+0x96>
  {
    Error_Handler();
 8000b1a:	f7ff fe01 	bl	8000720 <Error_Handler>
  }

}
 8000b1e:	46c0      	nop			; (mov r8, r8)
 8000b20:	46bd      	mov	sp, r7
 8000b22:	b006      	add	sp, #24
 8000b24:	bd80      	pop	{r7, pc}
 8000b26:	46c0      	nop			; (mov r8, r8)
 8000b28:	20000140 	.word	0x20000140
 8000b2c:	40010800 	.word	0x40010800
 8000b30:	0000ffff 	.word	0x0000ffff

08000b34 <HAL_TIM_PWM_MspInit>:

void HAL_TIM_PWM_MspInit(TIM_HandleTypeDef* tim_pwmHandle)
{
 8000b34:	b580      	push	{r7, lr}
 8000b36:	b082      	sub	sp, #8
 8000b38:	af00      	add	r7, sp, #0
 8000b3a:	6078      	str	r0, [r7, #4]

  if(tim_pwmHandle->Instance==TIM2)
 8000b3c:	687b      	ldr	r3, [r7, #4]
 8000b3e:	681a      	ldr	r2, [r3, #0]
 8000b40:	2380      	movs	r3, #128	; 0x80
 8000b42:	05db      	lsls	r3, r3, #23
 8000b44:	429a      	cmp	r2, r3
 8000b46:	d105      	bne.n	8000b54 <HAL_TIM_PWM_MspInit+0x20>
  {
  /* USER CODE BEGIN TIM2_MspInit 0 */

  /* USER CODE END TIM2_MspInit 0 */
    /* TIM2 clock enable */
    __HAL_RCC_TIM2_CLK_ENABLE();
 8000b48:	4b04      	ldr	r3, [pc, #16]	; (8000b5c <HAL_TIM_PWM_MspInit+0x28>)
 8000b4a:	6b9a      	ldr	r2, [r3, #56]	; 0x38
 8000b4c:	4b03      	ldr	r3, [pc, #12]	; (8000b5c <HAL_TIM_PWM_MspInit+0x28>)
 8000b4e:	2101      	movs	r1, #1
 8000b50:	430a      	orrs	r2, r1
 8000b52:	639a      	str	r2, [r3, #56]	; 0x38
  /* USER CODE BEGIN TIM2_MspInit 1 */

  /* USER CODE END TIM2_MspInit 1 */
  }
}
 8000b54:	46c0      	nop			; (mov r8, r8)
 8000b56:	46bd      	mov	sp, r7
 8000b58:	b002      	add	sp, #8
 8000b5a:	bd80      	pop	{r7, pc}
 8000b5c:	40021000 	.word	0x40021000

08000b60 <HAL_TIM_Base_MspInit>:

void HAL_TIM_Base_MspInit(TIM_HandleTypeDef* tim_baseHandle)
{
 8000b60:	b580      	push	{r7, lr}
 8000b62:	b082      	sub	sp, #8
 8000b64:	af00      	add	r7, sp, #0
 8000b66:	6078      	str	r0, [r7, #4]

  if(tim_baseHandle->Instance==TIM21)
 8000b68:	687b      	ldr	r3, [r7, #4]
 8000b6a:	681b      	ldr	r3, [r3, #0]
 8000b6c:	4a0a      	ldr	r2, [pc, #40]	; (8000b98 <HAL_TIM_Base_MspInit+0x38>)
 8000b6e:	4293      	cmp	r3, r2
 8000b70:	d10d      	bne.n	8000b8e <HAL_TIM_Base_MspInit+0x2e>
  {
  /* USER CODE BEGIN TIM21_MspInit 0 */

  /* USER CODE END TIM21_MspInit 0 */
    /* TIM21 clock enable */
    __HAL_RCC_TIM21_CLK_ENABLE();
 8000b72:	4b0a      	ldr	r3, [pc, #40]	; (8000b9c <HAL_TIM_Base_MspInit+0x3c>)
 8000b74:	6b5a      	ldr	r2, [r3, #52]	; 0x34
 8000b76:	4b09      	ldr	r3, [pc, #36]	; (8000b9c <HAL_TIM_Base_MspInit+0x3c>)
 8000b78:	2104      	movs	r1, #4
 8000b7a:	430a      	orrs	r2, r1
 8000b7c:	635a      	str	r2, [r3, #52]	; 0x34

    /* TIM21 interrupt Init */
    HAL_NVIC_SetPriority(TIM21_IRQn, 0, 0);
 8000b7e:	2200      	movs	r2, #0
 8000b80:	2100      	movs	r1, #0
 8000b82:	2014      	movs	r0, #20
 8000b84:	f000 fd40 	bl	8001608 <HAL_NVIC_SetPriority>
    HAL_NVIC_EnableIRQ(TIM21_IRQn);
 8000b88:	2014      	movs	r0, #20
 8000b8a:	f000 fd52 	bl	8001632 <HAL_NVIC_EnableIRQ>
  /* USER CODE BEGIN TIM21_MspInit 1 */

  /* USER CODE END TIM21_MspInit 1 */
  }
}
 8000b8e:	46c0      	nop			; (mov r8, r8)
 8000b90:	46bd      	mov	sp, r7
 8000b92:	b002      	add	sp, #8
 8000b94:	bd80      	pop	{r7, pc}
 8000b96:	46c0      	nop			; (mov r8, r8)
 8000b98:	40010800 	.word	0x40010800
 8000b9c:	40021000 	.word	0x40021000

08000ba0 <HAL_TIM_MspPostInit>:
void HAL_TIM_MspPostInit(TIM_HandleTypeDef* timHandle)
{
 8000ba0:	b590      	push	{r4, r7, lr}
 8000ba2:	b089      	sub	sp, #36	; 0x24
 8000ba4:	af00      	add	r7, sp, #0
 8000ba6:	6078      	str	r0, [r7, #4]

  GPIO_InitTypeDef GPIO_InitStruct = {0};
 8000ba8:	230c      	movs	r3, #12
 8000baa:	18fb      	adds	r3, r7, r3
 8000bac:	0018      	movs	r0, r3
 8000bae:	2314      	movs	r3, #20
 8000bb0:	001a      	movs	r2, r3
 8000bb2:	2100      	movs	r1, #0
 8000bb4:	f002 fe62 	bl	800387c <memset>
  if(timHandle->Instance==TIM2)
 8000bb8:	687b      	ldr	r3, [r7, #4]
 8000bba:	681a      	ldr	r2, [r3, #0]
 8000bbc:	2380      	movs	r3, #128	; 0x80
 8000bbe:	05db      	lsls	r3, r3, #23
 8000bc0:	429a      	cmp	r2, r3
 8000bc2:	d13b      	bne.n	8000c3c <HAL_TIM_MspPostInit+0x9c>
  {
  /* USER CODE BEGIN TIM2_MspPostInit 0 */

  /* USER CODE END TIM2_MspPostInit 0 */
  
    __HAL_RCC_GPIOA_CLK_ENABLE();
 8000bc4:	4b1f      	ldr	r3, [pc, #124]	; (8000c44 <HAL_TIM_MspPostInit+0xa4>)
 8000bc6:	6ada      	ldr	r2, [r3, #44]	; 0x2c
 8000bc8:	4b1e      	ldr	r3, [pc, #120]	; (8000c44 <HAL_TIM_MspPostInit+0xa4>)
 8000bca:	2101      	movs	r1, #1
 8000bcc:	430a      	orrs	r2, r1
 8000bce:	62da      	str	r2, [r3, #44]	; 0x2c
 8000bd0:	4b1c      	ldr	r3, [pc, #112]	; (8000c44 <HAL_TIM_MspPostInit+0xa4>)
 8000bd2:	6adb      	ldr	r3, [r3, #44]	; 0x2c
 8000bd4:	2201      	movs	r2, #1
 8000bd6:	4013      	ands	r3, r2
 8000bd8:	60bb      	str	r3, [r7, #8]
 8000bda:	68bb      	ldr	r3, [r7, #8]
    /**TIM2 GPIO Configuration    
    PA0-CK_IN     ------> TIM2_CH1
    PA1     ------> TIM2_CH2
    PA10     ------> TIM2_CH3 
    */
    GPIO_InitStruct.Pin = GPIO_PIN_0|GPIO_PIN_1;
 8000bdc:	210c      	movs	r1, #12
 8000bde:	187b      	adds	r3, r7, r1
 8000be0:	2203      	movs	r2, #3
 8000be2:	601a      	str	r2, [r3, #0]
    GPIO_InitStruct.Mode = GPIO_MODE_AF_PP;
 8000be4:	187b      	adds	r3, r7, r1
 8000be6:	2202      	movs	r2, #2
 8000be8:	605a      	str	r2, [r3, #4]
    GPIO_InitStruct.Pull = GPIO_NOPULL;
 8000bea:	187b      	adds	r3, r7, r1
 8000bec:	2200      	movs	r2, #0
 8000bee:	609a      	str	r2, [r3, #8]
    GPIO_InitStruct.Speed = GPIO_SPEED_FREQ_LOW;
 8000bf0:	187b      	adds	r3, r7, r1
 8000bf2:	2200      	movs	r2, #0
 8000bf4:	60da      	str	r2, [r3, #12]
    GPIO_InitStruct.Alternate = GPIO_AF2_TIM2;
 8000bf6:	187b      	adds	r3, r7, r1
 8000bf8:	2202      	movs	r2, #2
 8000bfa:	611a      	str	r2, [r3, #16]
    HAL_GPIO_Init(GPIOA, &GPIO_InitStruct);
 8000bfc:	000c      	movs	r4, r1
 8000bfe:	187a      	adds	r2, r7, r1
 8000c00:	23a0      	movs	r3, #160	; 0xa0
 8000c02:	05db      	lsls	r3, r3, #23
 8000c04:	0011      	movs	r1, r2
 8000c06:	0018      	movs	r0, r3
 8000c08:	f000 feea 	bl	80019e0 <HAL_GPIO_Init>

    GPIO_InitStruct.Pin = GPIO_PIN_10;
 8000c0c:	0021      	movs	r1, r4
 8000c0e:	187b      	adds	r3, r7, r1
 8000c10:	2280      	movs	r2, #128	; 0x80
 8000c12:	00d2      	lsls	r2, r2, #3
 8000c14:	601a      	str	r2, [r3, #0]
    GPIO_InitStruct.Mode = GPIO_MODE_AF_PP;
 8000c16:	187b      	adds	r3, r7, r1
 8000c18:	2202      	movs	r2, #2
 8000c1a:	605a      	str	r2, [r3, #4]
    GPIO_InitStruct.Pull = GPIO_NOPULL;
 8000c1c:	187b      	adds	r3, r7, r1
 8000c1e:	2200      	movs	r2, #0
 8000c20:	609a      	str	r2, [r3, #8]
    GPIO_InitStruct.Speed = GPIO_SPEED_FREQ_LOW;
 8000c22:	187b      	adds	r3, r7, r1
 8000c24:	2200      	movs	r2, #0
 8000c26:	60da      	str	r2, [r3, #12]
    GPIO_InitStruct.Alternate = GPIO_AF5_TIM2;
 8000c28:	187b      	adds	r3, r7, r1
 8000c2a:	2205      	movs	r2, #5
 8000c2c:	611a      	str	r2, [r3, #16]
    HAL_GPIO_Init(GPIOA, &GPIO_InitStruct);
 8000c2e:	187a      	adds	r2, r7, r1
 8000c30:	23a0      	movs	r3, #160	; 0xa0
 8000c32:	05db      	lsls	r3, r3, #23
 8000c34:	0011      	movs	r1, r2
 8000c36:	0018      	movs	r0, r3
 8000c38:	f000 fed2 	bl	80019e0 <HAL_GPIO_Init>
  /* USER CODE BEGIN TIM2_MspPostInit 1 */

  /* USER CODE END TIM2_MspPostInit 1 */
  }

}
 8000c3c:	46c0      	nop			; (mov r8, r8)
 8000c3e:	46bd      	mov	sp, r7
 8000c40:	b009      	add	sp, #36	; 0x24
 8000c42:	bd90      	pop	{r4, r7, pc}
 8000c44:	40021000 	.word	0x40021000

08000c48 <Reset_Handler>:

    .section  .text.Reset_Handler
  .weak  Reset_Handler
  .type  Reset_Handler, %function
Reset_Handler:  
   ldr   r0, =_estack
 8000c48:	4813      	ldr	r0, [pc, #76]	; (8000c98 <LoopForever+0x2>)
   mov   sp, r0          /* set stack pointer */
 8000c4a:	4685      	mov	sp, r0

/*Check if boot space corresponds to system memory*/

    LDR R0,=0x00000004
 8000c4c:	4813      	ldr	r0, [pc, #76]	; (8000c9c <LoopForever+0x6>)
    LDR R1, [R0]
 8000c4e:	6801      	ldr	r1, [r0, #0]
    LSRS R1, R1, #24
 8000c50:	0e09      	lsrs	r1, r1, #24
    LDR R2,=0x1F
 8000c52:	4a13      	ldr	r2, [pc, #76]	; (8000ca0 <LoopForever+0xa>)
    CMP R1, R2
 8000c54:	4291      	cmp	r1, r2
    BNE ApplicationStart
 8000c56:	d105      	bne.n	8000c64 <ApplicationStart>

 /*SYSCFG clock enable*/
    LDR R0,=0x40021034
 8000c58:	4812      	ldr	r0, [pc, #72]	; (8000ca4 <LoopForever+0xe>)
    LDR R1,=0x00000001
 8000c5a:	4913      	ldr	r1, [pc, #76]	; (8000ca8 <LoopForever+0x12>)
    STR R1, [R0]
 8000c5c:	6001      	str	r1, [r0, #0]

/*Set CFGR1 register with flash memory remap at address 0*/
    LDR R0,=0x40010000
 8000c5e:	4813      	ldr	r0, [pc, #76]	; (8000cac <LoopForever+0x16>)
    LDR R1,=0x00000000
 8000c60:	4913      	ldr	r1, [pc, #76]	; (8000cb0 <LoopForever+0x1a>)
    STR R1, [R0]
 8000c62:	6001      	str	r1, [r0, #0]

08000c64 <ApplicationStart>:

ApplicationStart:
/* Copy the data segment initializers from flash to SRAM */
  movs  r1, #0
 8000c64:	2100      	movs	r1, #0
  b  LoopCopyDataInit
 8000c66:	e003      	b.n	8000c70 <LoopCopyDataInit>

08000c68 <CopyDataInit>:

CopyDataInit:
  ldr  r3, =_sidata
 8000c68:	4b12      	ldr	r3, [pc, #72]	; (8000cb4 <LoopForever+0x1e>)
  ldr  r3, [r3, r1]
 8000c6a:	585b      	ldr	r3, [r3, r1]
  str  r3, [r0, r1]
 8000c6c:	5043      	str	r3, [r0, r1]
  adds  r1, r1, #4
 8000c6e:	3104      	adds	r1, #4

08000c70 <LoopCopyDataInit>:

LoopCopyDataInit:
  ldr  r0, =_sdata
 8000c70:	4811      	ldr	r0, [pc, #68]	; (8000cb8 <LoopForever+0x22>)
  ldr  r3, =_edata
 8000c72:	4b12      	ldr	r3, [pc, #72]	; (8000cbc <LoopForever+0x26>)
  adds  r2, r0, r1
 8000c74:	1842      	adds	r2, r0, r1
  cmp  r2, r3
 8000c76:	429a      	cmp	r2, r3
  bcc  CopyDataInit
 8000c78:	d3f6      	bcc.n	8000c68 <CopyDataInit>
  ldr  r2, =_sbss
 8000c7a:	4a11      	ldr	r2, [pc, #68]	; (8000cc0 <LoopForever+0x2a>)
  b  LoopFillZerobss
 8000c7c:	e002      	b.n	8000c84 <LoopFillZerobss>

08000c7e <FillZerobss>:
/* Zero fill the bss segment. */
FillZerobss:
  movs  r3, #0
 8000c7e:	2300      	movs	r3, #0
  str  r3, [r2]
 8000c80:	6013      	str	r3, [r2, #0]
  adds r2, r2, #4
 8000c82:	3204      	adds	r2, #4

08000c84 <LoopFillZerobss>:


LoopFillZerobss:
  ldr  r3, = _ebss
 8000c84:	4b0f      	ldr	r3, [pc, #60]	; (8000cc4 <LoopForever+0x2e>)
  cmp  r2, r3
 8000c86:	429a      	cmp	r2, r3
  bcc  FillZerobss
 8000c88:	d3f9      	bcc.n	8000c7e <FillZerobss>

/* Call the clock system intitialization function.*/
  bl  SystemInit
 8000c8a:	f7ff fe4d 	bl	8000928 <SystemInit>
/* Call static constructors */
    bl __libc_init_array
 8000c8e:	f002 fdd1 	bl	8003834 <__libc_init_array>
/* Call the application's entry point.*/
  bl  main
 8000c92:	f7ff fc5d 	bl	8000550 <main>

08000c96 <LoopForever>:

LoopForever:
    b LoopForever
 8000c96:	e7fe      	b.n	8000c96 <LoopForever>
   ldr   r0, =_estack
 8000c98:	20000800 	.word	0x20000800
    LDR R0,=0x00000004
 8000c9c:	00000004 	.word	0x00000004
    LDR R2,=0x1F
 8000ca0:	0000001f 	.word	0x0000001f
    LDR R0,=0x40021034
 8000ca4:	40021034 	.word	0x40021034
    LDR R1,=0x00000001
 8000ca8:	00000001 	.word	0x00000001
    LDR R0,=0x40010000
 8000cac:	40010000 	.word	0x40010000
    LDR R1,=0x00000000
 8000cb0:	00000000 	.word	0x00000000
  ldr  r3, =_sidata
 8000cb4:	080038c8 	.word	0x080038c8
  ldr  r0, =_sdata
 8000cb8:	20000000 	.word	0x20000000
  ldr  r3, =_edata
 8000cbc:	20000008 	.word	0x20000008
  ldr  r2, =_sbss
 8000cc0:	20000008 	.word	0x20000008
  ldr  r3, = _ebss
 8000cc4:	20000180 	.word	0x20000180

08000cc8 <ADC1_COMP_IRQHandler>:
 * @retval : None
*/
    .section  .text.Default_Handler,"ax",%progbits
Default_Handler:
Infinite_Loop:
  b  Infinite_Loop
 8000cc8:	e7fe      	b.n	8000cc8 <ADC1_COMP_IRQHandler>
	...

08000ccc <HAL_Init>:
  *        In the default implementation,Systick is used as source of time base.
  *        the tick variable is incremented each 1ms in its ISR.
  * @retval HAL status
  */
HAL_StatusTypeDef HAL_Init(void)
{
 8000ccc:	b580      	push	{r7, lr}
 8000cce:	b082      	sub	sp, #8
 8000cd0:	af00      	add	r7, sp, #0
  HAL_StatusTypeDef  status = HAL_OK;
 8000cd2:	1dfb      	adds	r3, r7, #7
 8000cd4:	2200      	movs	r2, #0
 8000cd6:	701a      	strb	r2, [r3, #0]
#if (BUFFER_CACHE_DISABLE != 0)
  __HAL_FLASH_BUFFER_CACHE_DISABLE();
#endif /* BUFFER_CACHE_DISABLE */

#if (PREREAD_ENABLE != 0)
  __HAL_FLASH_PREREAD_BUFFER_ENABLE();
 8000cd8:	4b0b      	ldr	r3, [pc, #44]	; (8000d08 <HAL_Init+0x3c>)
 8000cda:	681a      	ldr	r2, [r3, #0]
 8000cdc:	4b0a      	ldr	r3, [pc, #40]	; (8000d08 <HAL_Init+0x3c>)
 8000cde:	2140      	movs	r1, #64	; 0x40
 8000ce0:	430a      	orrs	r2, r1
 8000ce2:	601a      	str	r2, [r3, #0]
#if (PREFETCH_ENABLE != 0)
  __HAL_FLASH_PREFETCH_BUFFER_ENABLE();
#endif /* PREFETCH_ENABLE */

  /* Use SysTick as time base source and configure 1ms tick (default clock after Reset is MSI) */
  if (HAL_InitTick(TICK_INT_PRIORITY) != HAL_OK)
 8000ce4:	2000      	movs	r0, #0
 8000ce6:	f000 f811 	bl	8000d0c <HAL_InitTick>
 8000cea:	1e03      	subs	r3, r0, #0
 8000cec:	d003      	beq.n	8000cf6 <HAL_Init+0x2a>
  {
    status = HAL_ERROR;
 8000cee:	1dfb      	adds	r3, r7, #7
 8000cf0:	2201      	movs	r2, #1
 8000cf2:	701a      	strb	r2, [r3, #0]
 8000cf4:	e001      	b.n	8000cfa <HAL_Init+0x2e>
  }
  else
  {
    /* Init the low level hardware */
    HAL_MspInit();
 8000cf6:	f7ff fd19 	bl	800072c <HAL_MspInit>
  }

  /* Return function status */
  return status;
 8000cfa:	1dfb      	adds	r3, r7, #7
 8000cfc:	781b      	ldrb	r3, [r3, #0]
}
 8000cfe:	0018      	movs	r0, r3
 8000d00:	46bd      	mov	sp, r7
 8000d02:	b002      	add	sp, #8
 8000d04:	bd80      	pop	{r7, pc}
 8000d06:	46c0      	nop			; (mov r8, r8)
 8000d08:	40022000 	.word	0x40022000

08000d0c <HAL_InitTick>:
  *       implementation  in user file.
  * @param TickPriority Tick interrupt priority.
  * @retval HAL status
  */
__weak HAL_StatusTypeDef HAL_InitTick(uint32_t TickPriority)
{
 8000d0c:	b580      	push	{r7, lr}
 8000d0e:	b084      	sub	sp, #16
 8000d10:	af00      	add	r7, sp, #0
 8000d12:	6078      	str	r0, [r7, #4]
  HAL_StatusTypeDef  status = HAL_OK;
 8000d14:	230f      	movs	r3, #15
 8000d16:	18fb      	adds	r3, r7, r3
 8000d18:	2200      	movs	r2, #0
 8000d1a:	701a      	strb	r2, [r3, #0]

  /*Configure the SysTick to have interrupt in 1ms time basis*/
  if (HAL_SYSTICK_Config(SystemCoreClock/1000UL) != 0U)
 8000d1c:	4b0f      	ldr	r3, [pc, #60]	; (8000d5c <HAL_InitTick+0x50>)
 8000d1e:	681a      	ldr	r2, [r3, #0]
 8000d20:	23fa      	movs	r3, #250	; 0xfa
 8000d22:	0099      	lsls	r1, r3, #2
 8000d24:	0010      	movs	r0, r2
 8000d26:	f7ff f9ef 	bl	8000108 <__udivsi3>
 8000d2a:	0003      	movs	r3, r0
 8000d2c:	0018      	movs	r0, r3
 8000d2e:	f000 fc90 	bl	8001652 <HAL_SYSTICK_Config>
 8000d32:	1e03      	subs	r3, r0, #0
 8000d34:	d004      	beq.n	8000d40 <HAL_InitTick+0x34>
  {
    status = HAL_ERROR;
 8000d36:	230f      	movs	r3, #15
 8000d38:	18fb      	adds	r3, r7, r3
 8000d3a:	2201      	movs	r2, #1
 8000d3c:	701a      	strb	r2, [r3, #0]
 8000d3e:	e006      	b.n	8000d4e <HAL_InitTick+0x42>
  }
  else
  {
    /*Configure the SysTick IRQ priority */
    HAL_NVIC_SetPriority(SysTick_IRQn, TickPriority, 0);
 8000d40:	6879      	ldr	r1, [r7, #4]
 8000d42:	2301      	movs	r3, #1
 8000d44:	425b      	negs	r3, r3
 8000d46:	2200      	movs	r2, #0
 8000d48:	0018      	movs	r0, r3
 8000d4a:	f000 fc5d 	bl	8001608 <HAL_NVIC_SetPriority>
  }

  /* Return function status */
  return status;
 8000d4e:	230f      	movs	r3, #15
 8000d50:	18fb      	adds	r3, r7, r3
 8000d52:	781b      	ldrb	r3, [r3, #0]
}
 8000d54:	0018      	movs	r0, r3
 8000d56:	46bd      	mov	sp, r7
 8000d58:	b004      	add	sp, #16
 8000d5a:	bd80      	pop	{r7, pc}
 8000d5c:	20000004 	.word	0x20000004

08000d60 <HAL_IncTick>:
 * @note This function is declared as __weak to be overwritten in case of other
  *      implementations in user file.
  * @retval None
  */
__weak void HAL_IncTick(void)
{
 8000d60:	b580      	push	{r7, lr}
 8000d62:	af00      	add	r7, sp, #0
  uwTick++;
 8000d64:	4b03      	ldr	r3, [pc, #12]	; (8000d74 <HAL_IncTick+0x14>)
 8000d66:	681b      	ldr	r3, [r3, #0]
 8000d68:	1c5a      	adds	r2, r3, #1
 8000d6a:	4b02      	ldr	r3, [pc, #8]	; (8000d74 <HAL_IncTick+0x14>)
 8000d6c:	601a      	str	r2, [r3, #0]
}
 8000d6e:	46c0      	nop			; (mov r8, r8)
 8000d70:	46bd      	mov	sp, r7
 8000d72:	bd80      	pop	{r7, pc}
 8000d74:	2000017c 	.word	0x2000017c

08000d78 <HAL_GetTick>:
  * @note This function is declared as __weak to be overwritten in case of other
  *       implementations in user file.
  * @retval tick value
  */
__weak uint32_t HAL_GetTick(void)
{
 8000d78:	b580      	push	{r7, lr}
 8000d7a:	af00      	add	r7, sp, #0
  return uwTick;
 8000d7c:	4b02      	ldr	r3, [pc, #8]	; (8000d88 <HAL_GetTick+0x10>)
 8000d7e:	681b      	ldr	r3, [r3, #0]
}
 8000d80:	0018      	movs	r0, r3
 8000d82:	46bd      	mov	sp, r7
 8000d84:	bd80      	pop	{r7, pc}
 8000d86:	46c0      	nop			; (mov r8, r8)
 8000d88:	2000017c 	.word	0x2000017c

08000d8c <HAL_ADC_Init>:
  *         function "HAL_ADCEx_EnableVREFINTTempSensor()" must be called similarilly.  
  * @param  hadc ADC handle
  * @retval HAL status
  */
HAL_StatusTypeDef HAL_ADC_Init(ADC_HandleTypeDef* hadc)
{
 8000d8c:	b580      	push	{r7, lr}
 8000d8e:	b082      	sub	sp, #8
 8000d90:	af00      	add	r7, sp, #0
 8000d92:	6078      	str	r0, [r7, #4]
 
  /* Check ADC handle */
  if(hadc == NULL)
 8000d94:	687b      	ldr	r3, [r7, #4]
 8000d96:	2b00      	cmp	r3, #0
 8000d98:	d101      	bne.n	8000d9e <HAL_ADC_Init+0x12>
  {
    return HAL_ERROR;
 8000d9a:	2301      	movs	r3, #1
 8000d9c:	e159      	b.n	8001052 <HAL_ADC_Init+0x2c6>
  /* Refer to header of this file for more details on clock enabling procedure*/
  
  /* Actions performed only if ADC is coming from state reset:                */
  /* - Initialization of ADC MSP                                              */
  /* - ADC voltage regulator enable                                           */
  if(hadc->State == HAL_ADC_STATE_RESET)
 8000d9e:	687b      	ldr	r3, [r7, #4]
 8000da0:	6d5b      	ldr	r3, [r3, #84]	; 0x54
 8000da2:	2b00      	cmp	r3, #0
 8000da4:	d10a      	bne.n	8000dbc <HAL_ADC_Init+0x30>
  {
    /* Initialize ADC error code */
    ADC_CLEAR_ERRORCODE(hadc);
 8000da6:	687b      	ldr	r3, [r7, #4]
 8000da8:	2200      	movs	r2, #0
 8000daa:	659a      	str	r2, [r3, #88]	; 0x58
    
    /* Allocate lock resource and initialize it */
    hadc->Lock = HAL_UNLOCKED;
 8000dac:	687b      	ldr	r3, [r7, #4]
 8000dae:	2250      	movs	r2, #80	; 0x50
 8000db0:	2100      	movs	r1, #0
 8000db2:	5499      	strb	r1, [r3, r2]
    
    /* Init the low level hardware */
    hadc->MspInitCallback(hadc);
#else
    /* Init the low level hardware */
    HAL_ADC_MspInit(hadc);
 8000db4:	687b      	ldr	r3, [r7, #4]
 8000db6:	0018      	movs	r0, r3
 8000db8:	f7ff fa98 	bl	80002ec <HAL_ADC_MspInit>
  /* Configuration of ADC parameters if previous preliminary actions are      */ 
  /* correctly completed.                                                     */
  /* and if there is no conversion on going on regular group (ADC can be      */
  /* enabled anyway, in case of call of this function to update a parameter   */
  /* on the fly).                                                             */
  if (HAL_IS_BIT_SET(hadc->State, HAL_ADC_STATE_ERROR_INTERNAL) ||
 8000dbc:	687b      	ldr	r3, [r7, #4]
 8000dbe:	6d5b      	ldr	r3, [r3, #84]	; 0x54
 8000dc0:	2210      	movs	r2, #16
 8000dc2:	4013      	ands	r3, r2
 8000dc4:	2b10      	cmp	r3, #16
 8000dc6:	d005      	beq.n	8000dd4 <HAL_ADC_Init+0x48>
     (ADC_IS_CONVERSION_ONGOING_REGULAR(hadc) != RESET)  )
 8000dc8:	687b      	ldr	r3, [r7, #4]
 8000dca:	681b      	ldr	r3, [r3, #0]
 8000dcc:	689b      	ldr	r3, [r3, #8]
 8000dce:	2204      	movs	r2, #4
 8000dd0:	4013      	ands	r3, r2
  if (HAL_IS_BIT_SET(hadc->State, HAL_ADC_STATE_ERROR_INTERNAL) ||
 8000dd2:	d00b      	beq.n	8000dec <HAL_ADC_Init+0x60>
  {
    /* Update ADC state machine to error */
    SET_BIT(hadc->State, HAL_ADC_STATE_ERROR_INTERNAL);
 8000dd4:	687b      	ldr	r3, [r7, #4]
 8000dd6:	6d5b      	ldr	r3, [r3, #84]	; 0x54
 8000dd8:	2210      	movs	r2, #16
 8000dda:	431a      	orrs	r2, r3
 8000ddc:	687b      	ldr	r3, [r7, #4]
 8000dde:	655a      	str	r2, [r3, #84]	; 0x54
        
    /* Process unlocked */
    __HAL_UNLOCK(hadc);
 8000de0:	687b      	ldr	r3, [r7, #4]
 8000de2:	2250      	movs	r2, #80	; 0x50
 8000de4:	2100      	movs	r1, #0
 8000de6:	5499      	strb	r1, [r3, r2]
    return HAL_ERROR;
 8000de8:	2301      	movs	r3, #1
 8000dea:	e132      	b.n	8001052 <HAL_ADC_Init+0x2c6>
  }

  /* Set ADC state */
  ADC_STATE_CLR_SET(hadc->State,
 8000dec:	687b      	ldr	r3, [r7, #4]
 8000dee:	6d5b      	ldr	r3, [r3, #84]	; 0x54
 8000df0:	4a9a      	ldr	r2, [pc, #616]	; (800105c <HAL_ADC_Init+0x2d0>)
 8000df2:	4013      	ands	r3, r2
 8000df4:	2202      	movs	r2, #2
 8000df6:	431a      	orrs	r2, r3
 8000df8:	687b      	ldr	r3, [r7, #4]
 8000dfa:	655a      	str	r2, [r3, #84]	; 0x54
  /* Parameters update conditioned to ADC state:                            */
  /* Parameters that can be updated only when ADC is disabled:              */
  /*  - ADC clock mode                                                      */
  /*  - ADC clock prescaler                                                 */
  /*  - ADC Resolution                                                      */
  if (ADC_IS_ENABLE(hadc) == RESET)
 8000dfc:	687b      	ldr	r3, [r7, #4]
 8000dfe:	681b      	ldr	r3, [r3, #0]
 8000e00:	689b      	ldr	r3, [r3, #8]
 8000e02:	2203      	movs	r2, #3
 8000e04:	4013      	ands	r3, r2
 8000e06:	2b01      	cmp	r3, #1
 8000e08:	d108      	bne.n	8000e1c <HAL_ADC_Init+0x90>
 8000e0a:	687b      	ldr	r3, [r7, #4]
 8000e0c:	681b      	ldr	r3, [r3, #0]
 8000e0e:	681b      	ldr	r3, [r3, #0]
 8000e10:	2201      	movs	r2, #1
 8000e12:	4013      	ands	r3, r2
 8000e14:	2b01      	cmp	r3, #1
 8000e16:	d101      	bne.n	8000e1c <HAL_ADC_Init+0x90>
 8000e18:	2301      	movs	r3, #1
 8000e1a:	e000      	b.n	8000e1e <HAL_ADC_Init+0x92>
 8000e1c:	2300      	movs	r3, #0
 8000e1e:	2b00      	cmp	r3, #0
 8000e20:	d149      	bne.n	8000eb6 <HAL_ADC_Init+0x12a>
    /*   - internal measurement paths: Vbat, temperature sensor, Vref       */
    /*     (set into HAL_ADC_ConfigChannel() )                              */
   
    /* Configuration of ADC clock: clock source PCLK or asynchronous with 
    selectable prescaler */
    __HAL_ADC_CLOCK_PRESCALER(hadc);
 8000e22:	687b      	ldr	r3, [r7, #4]
 8000e24:	685a      	ldr	r2, [r3, #4]
 8000e26:	23c0      	movs	r3, #192	; 0xc0
 8000e28:	061b      	lsls	r3, r3, #24
 8000e2a:	429a      	cmp	r2, r3
 8000e2c:	d00b      	beq.n	8000e46 <HAL_ADC_Init+0xba>
 8000e2e:	687b      	ldr	r3, [r7, #4]
 8000e30:	685a      	ldr	r2, [r3, #4]
 8000e32:	2380      	movs	r3, #128	; 0x80
 8000e34:	05db      	lsls	r3, r3, #23
 8000e36:	429a      	cmp	r2, r3
 8000e38:	d005      	beq.n	8000e46 <HAL_ADC_Init+0xba>
 8000e3a:	687b      	ldr	r3, [r7, #4]
 8000e3c:	685a      	ldr	r2, [r3, #4]
 8000e3e:	2380      	movs	r3, #128	; 0x80
 8000e40:	061b      	lsls	r3, r3, #24
 8000e42:	429a      	cmp	r2, r3
 8000e44:	d111      	bne.n	8000e6a <HAL_ADC_Init+0xde>
 8000e46:	687b      	ldr	r3, [r7, #4]
 8000e48:	681b      	ldr	r3, [r3, #0]
 8000e4a:	691a      	ldr	r2, [r3, #16]
 8000e4c:	687b      	ldr	r3, [r7, #4]
 8000e4e:	681b      	ldr	r3, [r3, #0]
 8000e50:	0092      	lsls	r2, r2, #2
 8000e52:	0892      	lsrs	r2, r2, #2
 8000e54:	611a      	str	r2, [r3, #16]
 8000e56:	687b      	ldr	r3, [r7, #4]
 8000e58:	681b      	ldr	r3, [r3, #0]
 8000e5a:	6919      	ldr	r1, [r3, #16]
 8000e5c:	687b      	ldr	r3, [r7, #4]
 8000e5e:	685a      	ldr	r2, [r3, #4]
 8000e60:	687b      	ldr	r3, [r7, #4]
 8000e62:	681b      	ldr	r3, [r3, #0]
 8000e64:	430a      	orrs	r2, r1
 8000e66:	611a      	str	r2, [r3, #16]
 8000e68:	e014      	b.n	8000e94 <HAL_ADC_Init+0x108>
 8000e6a:	687b      	ldr	r3, [r7, #4]
 8000e6c:	681b      	ldr	r3, [r3, #0]
 8000e6e:	691a      	ldr	r2, [r3, #16]
 8000e70:	687b      	ldr	r3, [r7, #4]
 8000e72:	681b      	ldr	r3, [r3, #0]
 8000e74:	0092      	lsls	r2, r2, #2
 8000e76:	0892      	lsrs	r2, r2, #2
 8000e78:	611a      	str	r2, [r3, #16]
 8000e7a:	4b79      	ldr	r3, [pc, #484]	; (8001060 <HAL_ADC_Init+0x2d4>)
 8000e7c:	681a      	ldr	r2, [r3, #0]
 8000e7e:	4b78      	ldr	r3, [pc, #480]	; (8001060 <HAL_ADC_Init+0x2d4>)
 8000e80:	4978      	ldr	r1, [pc, #480]	; (8001064 <HAL_ADC_Init+0x2d8>)
 8000e82:	400a      	ands	r2, r1
 8000e84:	601a      	str	r2, [r3, #0]
 8000e86:	4b76      	ldr	r3, [pc, #472]	; (8001060 <HAL_ADC_Init+0x2d4>)
 8000e88:	6819      	ldr	r1, [r3, #0]
 8000e8a:	687b      	ldr	r3, [r7, #4]
 8000e8c:	685a      	ldr	r2, [r3, #4]
 8000e8e:	4b74      	ldr	r3, [pc, #464]	; (8001060 <HAL_ADC_Init+0x2d4>)
 8000e90:	430a      	orrs	r2, r1
 8000e92:	601a      	str	r2, [r3, #0]
    
    /* Configuration of ADC:                                                */
    /*  - Resolution                                                        */
    hadc->Instance->CFGR1 &= ~( ADC_CFGR1_RES);
 8000e94:	687b      	ldr	r3, [r7, #4]
 8000e96:	681b      	ldr	r3, [r3, #0]
 8000e98:	68da      	ldr	r2, [r3, #12]
 8000e9a:	687b      	ldr	r3, [r7, #4]
 8000e9c:	681b      	ldr	r3, [r3, #0]
 8000e9e:	2118      	movs	r1, #24
 8000ea0:	438a      	bics	r2, r1
 8000ea2:	60da      	str	r2, [r3, #12]
    hadc->Instance->CFGR1 |= hadc->Init.Resolution;    
 8000ea4:	687b      	ldr	r3, [r7, #4]
 8000ea6:	681b      	ldr	r3, [r3, #0]
 8000ea8:	68d9      	ldr	r1, [r3, #12]
 8000eaa:	687b      	ldr	r3, [r7, #4]
 8000eac:	689a      	ldr	r2, [r3, #8]
 8000eae:	687b      	ldr	r3, [r7, #4]
 8000eb0:	681b      	ldr	r3, [r3, #0]
 8000eb2:	430a      	orrs	r2, r1
 8000eb4:	60da      	str	r2, [r3, #12]
  }
  
  /* Set the Low Frequency mode */
  ADC->CCR &= (uint32_t)~ADC_CCR_LFMEN;
 8000eb6:	4b6a      	ldr	r3, [pc, #424]	; (8001060 <HAL_ADC_Init+0x2d4>)
 8000eb8:	681a      	ldr	r2, [r3, #0]
 8000eba:	4b69      	ldr	r3, [pc, #420]	; (8001060 <HAL_ADC_Init+0x2d4>)
 8000ebc:	496a      	ldr	r1, [pc, #424]	; (8001068 <HAL_ADC_Init+0x2dc>)
 8000ebe:	400a      	ands	r2, r1
 8000ec0:	601a      	str	r2, [r3, #0]
  ADC->CCR |=__HAL_ADC_CCR_LOWFREQUENCY(hadc->Init.LowPowerFrequencyMode);  
 8000ec2:	4b67      	ldr	r3, [pc, #412]	; (8001060 <HAL_ADC_Init+0x2d4>)
 8000ec4:	6819      	ldr	r1, [r3, #0]
 8000ec6:	687b      	ldr	r3, [r7, #4]
 8000ec8:	6b5b      	ldr	r3, [r3, #52]	; 0x34
 8000eca:	065a      	lsls	r2, r3, #25
 8000ecc:	4b64      	ldr	r3, [pc, #400]	; (8001060 <HAL_ADC_Init+0x2d4>)
 8000ece:	430a      	orrs	r2, r1
 8000ed0:	601a      	str	r2, [r3, #0]
   
  /* Enable voltage regulator (if disabled at this step) */
  if (HAL_IS_BIT_CLR(hadc->Instance->CR, ADC_CR_ADVREGEN))
 8000ed2:	687b      	ldr	r3, [r7, #4]
 8000ed4:	681b      	ldr	r3, [r3, #0]
 8000ed6:	689a      	ldr	r2, [r3, #8]
 8000ed8:	2380      	movs	r3, #128	; 0x80
 8000eda:	055b      	lsls	r3, r3, #21
 8000edc:	4013      	ands	r3, r2
 8000ede:	d108      	bne.n	8000ef2 <HAL_ADC_Init+0x166>
  {
    /* Set ADVREGEN bit */
    hadc->Instance->CR |= ADC_CR_ADVREGEN;
 8000ee0:	687b      	ldr	r3, [r7, #4]
 8000ee2:	681b      	ldr	r3, [r3, #0]
 8000ee4:	689a      	ldr	r2, [r3, #8]
 8000ee6:	687b      	ldr	r3, [r7, #4]
 8000ee8:	681b      	ldr	r3, [r3, #0]
 8000eea:	2180      	movs	r1, #128	; 0x80
 8000eec:	0549      	lsls	r1, r1, #21
 8000eee:	430a      	orrs	r2, r1
 8000ef0:	609a      	str	r2, [r3, #8]
  /*  - Continuous conversion mode                                            */
  /*  - DMA continuous request                                                */
  /*  - Overrun                                                               */
  /*  - AutoDelay feature                                                     */
  /*  - Discontinuous mode                                                    */
  hadc->Instance->CFGR1 &= ~(ADC_CFGR1_ALIGN   |
 8000ef2:	687b      	ldr	r3, [r7, #4]
 8000ef4:	681b      	ldr	r3, [r3, #0]
 8000ef6:	68da      	ldr	r2, [r3, #12]
 8000ef8:	687b      	ldr	r3, [r7, #4]
 8000efa:	681b      	ldr	r3, [r3, #0]
 8000efc:	495b      	ldr	r1, [pc, #364]	; (800106c <HAL_ADC_Init+0x2e0>)
 8000efe:	400a      	ands	r2, r1
 8000f00:	60da      	str	r2, [r3, #12]
                             ADC_CFGR1_OVRMOD  |
                             ADC_CFGR1_AUTDLY  |
                             ADC_CFGR1_AUTOFF  |
                             ADC_CFGR1_DISCEN   );
  
  hadc->Instance->CFGR1 |= (hadc->Init.DataAlign                             |
 8000f02:	687b      	ldr	r3, [r7, #4]
 8000f04:	681b      	ldr	r3, [r3, #0]
 8000f06:	68d9      	ldr	r1, [r3, #12]
 8000f08:	687b      	ldr	r3, [r7, #4]
 8000f0a:	68da      	ldr	r2, [r3, #12]
                            ADC_SCANDIR(hadc->Init.ScanConvMode)             |
 8000f0c:	687b      	ldr	r3, [r7, #4]
 8000f0e:	691b      	ldr	r3, [r3, #16]
 8000f10:	2b02      	cmp	r3, #2
 8000f12:	d101      	bne.n	8000f18 <HAL_ADC_Init+0x18c>
 8000f14:	2304      	movs	r3, #4
 8000f16:	e000      	b.n	8000f1a <HAL_ADC_Init+0x18e>
 8000f18:	2300      	movs	r3, #0
  hadc->Instance->CFGR1 |= (hadc->Init.DataAlign                             |
 8000f1a:	431a      	orrs	r2, r3
                            ADC_CONTINUOUS((uint32_t)hadc->Init.ContinuousConvMode)    |
 8000f1c:	687b      	ldr	r3, [r7, #4]
 8000f1e:	2020      	movs	r0, #32
 8000f20:	5c1b      	ldrb	r3, [r3, r0]
 8000f22:	035b      	lsls	r3, r3, #13
                            ADC_SCANDIR(hadc->Init.ScanConvMode)             |
 8000f24:	431a      	orrs	r2, r3
                            ADC_DMACONTREQ((uint32_t)hadc->Init.DMAContinuousRequests) |
 8000f26:	687b      	ldr	r3, [r7, #4]
 8000f28:	202c      	movs	r0, #44	; 0x2c
 8000f2a:	5c1b      	ldrb	r3, [r3, r0]
 8000f2c:	005b      	lsls	r3, r3, #1
                            ADC_CONTINUOUS((uint32_t)hadc->Init.ContinuousConvMode)    |
 8000f2e:	431a      	orrs	r2, r3
                            hadc->Init.Overrun                               |
 8000f30:	687b      	ldr	r3, [r7, #4]
 8000f32:	6b1b      	ldr	r3, [r3, #48]	; 0x30
                            ADC_DMACONTREQ((uint32_t)hadc->Init.DMAContinuousRequests) |
 8000f34:	431a      	orrs	r2, r3
                            __HAL_ADC_CFGR1_AutoDelay(hadc->Init.LowPowerAutoWait) |
 8000f36:	687b      	ldr	r3, [r7, #4]
 8000f38:	699b      	ldr	r3, [r3, #24]
 8000f3a:	039b      	lsls	r3, r3, #14
                            hadc->Init.Overrun                               |
 8000f3c:	431a      	orrs	r2, r3
                            __HAL_ADC_CFGR1_AUTOFF(hadc->Init.LowPowerAutoPowerOff));
 8000f3e:	687b      	ldr	r3, [r7, #4]
 8000f40:	69db      	ldr	r3, [r3, #28]
 8000f42:	03db      	lsls	r3, r3, #15
                            __HAL_ADC_CFGR1_AutoDelay(hadc->Init.LowPowerAutoWait) |
 8000f44:	431a      	orrs	r2, r3
  hadc->Instance->CFGR1 |= (hadc->Init.DataAlign                             |
 8000f46:	687b      	ldr	r3, [r7, #4]
 8000f48:	681b      	ldr	r3, [r3, #0]
 8000f4a:	430a      	orrs	r2, r1
 8000f4c:	60da      	str	r2, [r3, #12]
  /* Enable external trigger if trigger selection is different of software  */
  /* start.                                                                 */
  /* Note: This configuration keeps the hardware feature of parameter       */
  /*       ExternalTrigConvEdge "trigger edge none" equivalent to           */
  /*       software start.                                                  */
  if (hadc->Init.ExternalTrigConv != ADC_SOFTWARE_START)
 8000f4e:	687b      	ldr	r3, [r7, #4]
 8000f50:	6a5a      	ldr	r2, [r3, #36]	; 0x24
 8000f52:	23c2      	movs	r3, #194	; 0xc2
 8000f54:	33ff      	adds	r3, #255	; 0xff
 8000f56:	429a      	cmp	r2, r3
 8000f58:	d00b      	beq.n	8000f72 <HAL_ADC_Init+0x1e6>
  {
    hadc->Instance->CFGR1 |= hadc->Init.ExternalTrigConv |
 8000f5a:	687b      	ldr	r3, [r7, #4]
 8000f5c:	681b      	ldr	r3, [r3, #0]
 8000f5e:	68d9      	ldr	r1, [r3, #12]
 8000f60:	687b      	ldr	r3, [r7, #4]
 8000f62:	6a5a      	ldr	r2, [r3, #36]	; 0x24
                             hadc->Init.ExternalTrigConvEdge;
 8000f64:	687b      	ldr	r3, [r7, #4]
 8000f66:	6a9b      	ldr	r3, [r3, #40]	; 0x28
    hadc->Instance->CFGR1 |= hadc->Init.ExternalTrigConv |
 8000f68:	431a      	orrs	r2, r3
 8000f6a:	687b      	ldr	r3, [r7, #4]
 8000f6c:	681b      	ldr	r3, [r3, #0]
 8000f6e:	430a      	orrs	r2, r1
 8000f70:	60da      	str	r2, [r3, #12]
  }
  
  /* Enable discontinuous mode only if continuous mode is disabled */
  if (hadc->Init.DiscontinuousConvMode == ENABLE)
 8000f72:	687b      	ldr	r3, [r7, #4]
 8000f74:	2221      	movs	r2, #33	; 0x21
 8000f76:	5c9b      	ldrb	r3, [r3, r2]
 8000f78:	2b01      	cmp	r3, #1
 8000f7a:	d11a      	bne.n	8000fb2 <HAL_ADC_Init+0x226>
  {
    if (hadc->Init.ContinuousConvMode == DISABLE)
 8000f7c:	687b      	ldr	r3, [r7, #4]
 8000f7e:	2220      	movs	r2, #32
 8000f80:	5c9b      	ldrb	r3, [r3, r2]
 8000f82:	2b00      	cmp	r3, #0
 8000f84:	d109      	bne.n	8000f9a <HAL_ADC_Init+0x20e>
    {
      /* Enable the selected ADC group regular discontinuous mode */
      hadc->Instance->CFGR1 |= (ADC_CFGR1_DISCEN);
 8000f86:	687b      	ldr	r3, [r7, #4]
 8000f88:	681b      	ldr	r3, [r3, #0]
 8000f8a:	68da      	ldr	r2, [r3, #12]
 8000f8c:	687b      	ldr	r3, [r7, #4]
 8000f8e:	681b      	ldr	r3, [r3, #0]
 8000f90:	2180      	movs	r1, #128	; 0x80
 8000f92:	0249      	lsls	r1, r1, #9
 8000f94:	430a      	orrs	r2, r1
 8000f96:	60da      	str	r2, [r3, #12]
 8000f98:	e00b      	b.n	8000fb2 <HAL_ADC_Init+0x226>
      /* ADC regular group discontinuous was intended to be enabled,        */
      /* but ADC regular group modes continuous and sequencer discontinuous */
      /* cannot be enabled simultaneously.                                  */
      
      /* Update ADC state machine to error */
      SET_BIT(hadc->State, HAL_ADC_STATE_ERROR_CONFIG);
 8000f9a:	687b      	ldr	r3, [r7, #4]
 8000f9c:	6d5b      	ldr	r3, [r3, #84]	; 0x54
 8000f9e:	2220      	movs	r2, #32
 8000fa0:	431a      	orrs	r2, r3
 8000fa2:	687b      	ldr	r3, [r7, #4]
 8000fa4:	655a      	str	r2, [r3, #84]	; 0x54
      
      /* Set ADC error code to ADC peripheral internal error */
      SET_BIT(hadc->ErrorCode, HAL_ADC_ERROR_INTERNAL);
 8000fa6:	687b      	ldr	r3, [r7, #4]
 8000fa8:	6d9b      	ldr	r3, [r3, #88]	; 0x58
 8000faa:	2201      	movs	r2, #1
 8000fac:	431a      	orrs	r2, r3
 8000fae:	687b      	ldr	r3, [r7, #4]
 8000fb0:	659a      	str	r2, [r3, #88]	; 0x58
    }
  }
  
  if (hadc->Init.OversamplingMode == ENABLE)
 8000fb2:	687b      	ldr	r3, [r7, #4]
 8000fb4:	6bdb      	ldr	r3, [r3, #60]	; 0x3c
 8000fb6:	2b01      	cmp	r3, #1
 8000fb8:	d11f      	bne.n	8000ffa <HAL_ADC_Init+0x26e>
    /* Configuration of Oversampler:                                          */
    /*  - Oversampling Ratio                                                  */
    /*  - Right bit shift                                                     */
    /*  - Triggered mode                                                      */
    
    hadc->Instance->CFGR2 &= ~( ADC_CFGR2_OVSR |
 8000fba:	687b      	ldr	r3, [r7, #4]
 8000fbc:	681b      	ldr	r3, [r3, #0]
 8000fbe:	691a      	ldr	r2, [r3, #16]
 8000fc0:	687b      	ldr	r3, [r7, #4]
 8000fc2:	681b      	ldr	r3, [r3, #0]
 8000fc4:	492a      	ldr	r1, [pc, #168]	; (8001070 <HAL_ADC_Init+0x2e4>)
 8000fc6:	400a      	ands	r2, r1
 8000fc8:	611a      	str	r2, [r3, #16]
                                ADC_CFGR2_OVSS |
                                ADC_CFGR2_TOVS );
    
    hadc->Instance->CFGR2 |= ( hadc->Init.Oversample.Ratio         |
 8000fca:	687b      	ldr	r3, [r7, #4]
 8000fcc:	681b      	ldr	r3, [r3, #0]
 8000fce:	6919      	ldr	r1, [r3, #16]
 8000fd0:	687b      	ldr	r3, [r7, #4]
 8000fd2:	6c1a      	ldr	r2, [r3, #64]	; 0x40
                               hadc->Init.Oversample.RightBitShift             |
 8000fd4:	687b      	ldr	r3, [r7, #4]
 8000fd6:	6c5b      	ldr	r3, [r3, #68]	; 0x44
    hadc->Instance->CFGR2 |= ( hadc->Init.Oversample.Ratio         |
 8000fd8:	431a      	orrs	r2, r3
                               hadc->Init.Oversample.TriggeredMode );
 8000fda:	687b      	ldr	r3, [r7, #4]
 8000fdc:	6c9b      	ldr	r3, [r3, #72]	; 0x48
                               hadc->Init.Oversample.RightBitShift             |
 8000fde:	431a      	orrs	r2, r3
    hadc->Instance->CFGR2 |= ( hadc->Init.Oversample.Ratio         |
 8000fe0:	687b      	ldr	r3, [r7, #4]
 8000fe2:	681b      	ldr	r3, [r3, #0]
 8000fe4:	430a      	orrs	r2, r1
 8000fe6:	611a      	str	r2, [r3, #16]
    
    /* Enable OverSampling mode */
     hadc->Instance->CFGR2 |= ADC_CFGR2_OVSE;
 8000fe8:	687b      	ldr	r3, [r7, #4]
 8000fea:	681b      	ldr	r3, [r3, #0]
 8000fec:	691a      	ldr	r2, [r3, #16]
 8000fee:	687b      	ldr	r3, [r7, #4]
 8000ff0:	681b      	ldr	r3, [r3, #0]
 8000ff2:	2101      	movs	r1, #1
 8000ff4:	430a      	orrs	r2, r1
 8000ff6:	611a      	str	r2, [r3, #16]
 8000ff8:	e00e      	b.n	8001018 <HAL_ADC_Init+0x28c>
  }
  else
  {
    if(HAL_IS_BIT_SET(hadc->Instance->CFGR2, ADC_CFGR2_OVSE))
 8000ffa:	687b      	ldr	r3, [r7, #4]
 8000ffc:	681b      	ldr	r3, [r3, #0]
 8000ffe:	691b      	ldr	r3, [r3, #16]
 8001000:	2201      	movs	r2, #1
 8001002:	4013      	ands	r3, r2
 8001004:	2b01      	cmp	r3, #1
 8001006:	d107      	bne.n	8001018 <HAL_ADC_Init+0x28c>
    {
      /* Disable OverSampling mode if needed */
      hadc->Instance->CFGR2 &= ~ADC_CFGR2_OVSE;
 8001008:	687b      	ldr	r3, [r7, #4]
 800100a:	681b      	ldr	r3, [r3, #0]
 800100c:	691a      	ldr	r2, [r3, #16]
 800100e:	687b      	ldr	r3, [r7, #4]
 8001010:	681b      	ldr	r3, [r3, #0]
 8001012:	2101      	movs	r1, #1
 8001014:	438a      	bics	r2, r1
 8001016:	611a      	str	r2, [r3, #16]
    }
  }    
  
  /* Clear the old sampling time */
  hadc->Instance->SMPR &= (uint32_t)(~ADC_SMPR_SMPR);
 8001018:	687b      	ldr	r3, [r7, #4]
 800101a:	681b      	ldr	r3, [r3, #0]
 800101c:	695a      	ldr	r2, [r3, #20]
 800101e:	687b      	ldr	r3, [r7, #4]
 8001020:	681b      	ldr	r3, [r3, #0]
 8001022:	2107      	movs	r1, #7
 8001024:	438a      	bics	r2, r1
 8001026:	615a      	str	r2, [r3, #20]
  
  /* Set the new sample time */
  hadc->Instance->SMPR |= hadc->Init.SamplingTime;
 8001028:	687b      	ldr	r3, [r7, #4]
 800102a:	681b      	ldr	r3, [r3, #0]
 800102c:	6959      	ldr	r1, [r3, #20]
 800102e:	687b      	ldr	r3, [r7, #4]
 8001030:	6b9a      	ldr	r2, [r3, #56]	; 0x38
 8001032:	687b      	ldr	r3, [r7, #4]
 8001034:	681b      	ldr	r3, [r3, #0]
 8001036:	430a      	orrs	r2, r1
 8001038:	615a      	str	r2, [r3, #20]
  
  /* Clear ADC error code */
  ADC_CLEAR_ERRORCODE(hadc);
 800103a:	687b      	ldr	r3, [r7, #4]
 800103c:	2200      	movs	r2, #0
 800103e:	659a      	str	r2, [r3, #88]	; 0x58

  /* Set the ADC state */
  ADC_STATE_CLR_SET(hadc->State,
 8001040:	687b      	ldr	r3, [r7, #4]
 8001042:	6d5b      	ldr	r3, [r3, #84]	; 0x54
 8001044:	2203      	movs	r2, #3
 8001046:	4393      	bics	r3, r2
 8001048:	2201      	movs	r2, #1
 800104a:	431a      	orrs	r2, r3
 800104c:	687b      	ldr	r3, [r7, #4]
 800104e:	655a      	str	r2, [r3, #84]	; 0x54
                    HAL_ADC_STATE_BUSY_INTERNAL,
                    HAL_ADC_STATE_READY);


  /* Return function status */
  return HAL_OK;
 8001050:	2300      	movs	r3, #0
}
 8001052:	0018      	movs	r0, r3
 8001054:	46bd      	mov	sp, r7
 8001056:	b002      	add	sp, #8
 8001058:	bd80      	pop	{r7, pc}
 800105a:	46c0      	nop			; (mov r8, r8)
 800105c:	fffffefd 	.word	0xfffffefd
 8001060:	40012708 	.word	0x40012708
 8001064:	ffc3ffff 	.word	0xffc3ffff
 8001068:	fdffffff 	.word	0xfdffffff
 800106c:	fffe0219 	.word	0xfffe0219
 8001070:	fffffc03 	.word	0xfffffc03

08001074 <HAL_ADC_Start_DMA>:
  * @param  pData Destination Buffer address.
  * @param  Length Length of data to be transferred from ADC peripheral to memory (in bytes)
  * @retval HAL status.
  */
HAL_StatusTypeDef HAL_ADC_Start_DMA(ADC_HandleTypeDef* hadc, uint32_t* pData, uint32_t Length)
{
 8001074:	b590      	push	{r4, r7, lr}
 8001076:	b087      	sub	sp, #28
 8001078:	af00      	add	r7, sp, #0
 800107a:	60f8      	str	r0, [r7, #12]
 800107c:	60b9      	str	r1, [r7, #8]
 800107e:	607a      	str	r2, [r7, #4]
  HAL_StatusTypeDef tmp_hal_status = HAL_OK;
 8001080:	2317      	movs	r3, #23
 8001082:	18fb      	adds	r3, r7, r3
 8001084:	2200      	movs	r2, #0
 8001086:	701a      	strb	r2, [r3, #0]
  
  /* Check the parameters */
  assert_param(IS_ADC_ALL_INSTANCE(hadc->Instance));
  
  /* Perform ADC enable and conversion start if no conversion is on going */
  if (ADC_IS_CONVERSION_ONGOING_REGULAR(hadc) == RESET)
 8001088:	68fb      	ldr	r3, [r7, #12]
 800108a:	681b      	ldr	r3, [r3, #0]
 800108c:	689b      	ldr	r3, [r3, #8]
 800108e:	2204      	movs	r2, #4
 8001090:	4013      	ands	r3, r2
 8001092:	d15e      	bne.n	8001152 <HAL_ADC_Start_DMA+0xde>
  {
    /* Process locked */
    __HAL_LOCK(hadc);
 8001094:	68fb      	ldr	r3, [r7, #12]
 8001096:	2250      	movs	r2, #80	; 0x50
 8001098:	5c9b      	ldrb	r3, [r3, r2]
 800109a:	2b01      	cmp	r3, #1
 800109c:	d101      	bne.n	80010a2 <HAL_ADC_Start_DMA+0x2e>
 800109e:	2302      	movs	r3, #2
 80010a0:	e05e      	b.n	8001160 <HAL_ADC_Start_DMA+0xec>
 80010a2:	68fb      	ldr	r3, [r7, #12]
 80010a4:	2250      	movs	r2, #80	; 0x50
 80010a6:	2101      	movs	r1, #1
 80010a8:	5499      	strb	r1, [r3, r2]

    /* Enable the ADC peripheral */
    /* If low power mode AutoPowerOff is enabled, power-on/off phases are       */
    /* performed automatically by hardware.                                     */
    if (hadc->Init.LowPowerAutoPowerOff != ENABLE)
 80010aa:	68fb      	ldr	r3, [r7, #12]
 80010ac:	69db      	ldr	r3, [r3, #28]
 80010ae:	2b01      	cmp	r3, #1
 80010b0:	d007      	beq.n	80010c2 <HAL_ADC_Start_DMA+0x4e>
    {
      tmp_hal_status = ADC_Enable(hadc);
 80010b2:	2317      	movs	r3, #23
 80010b4:	18fc      	adds	r4, r7, r3
 80010b6:	68fb      	ldr	r3, [r7, #12]
 80010b8:	0018      	movs	r0, r3
 80010ba:	f000 f8fb 	bl	80012b4 <ADC_Enable>
 80010be:	0003      	movs	r3, r0
 80010c0:	7023      	strb	r3, [r4, #0]
    }
    
    /* Start conversion if ADC is effectively enabled */
    if (tmp_hal_status == HAL_OK)
 80010c2:	2317      	movs	r3, #23
 80010c4:	18fb      	adds	r3, r7, r3
 80010c6:	781b      	ldrb	r3, [r3, #0]
 80010c8:	2b00      	cmp	r3, #0
 80010ca:	d146      	bne.n	800115a <HAL_ADC_Start_DMA+0xe6>
    {
      /* Set ADC state                                                        */
      /* - Clear state bitfield related to regular group conversion results   */
      /* - Set state bitfield related to regular operation                    */
      ADC_STATE_CLR_SET(hadc->State,
 80010cc:	68fb      	ldr	r3, [r7, #12]
 80010ce:	6d5b      	ldr	r3, [r3, #84]	; 0x54
 80010d0:	4a25      	ldr	r2, [pc, #148]	; (8001168 <HAL_ADC_Start_DMA+0xf4>)
 80010d2:	4013      	ands	r3, r2
 80010d4:	2280      	movs	r2, #128	; 0x80
 80010d6:	0052      	lsls	r2, r2, #1
 80010d8:	431a      	orrs	r2, r3
 80010da:	68fb      	ldr	r3, [r7, #12]
 80010dc:	655a      	str	r2, [r3, #84]	; 0x54
                        HAL_ADC_STATE_READY | HAL_ADC_STATE_REG_EOC | HAL_ADC_STATE_REG_OVR | HAL_ADC_STATE_REG_EOSMP,
                        HAL_ADC_STATE_REG_BUSY);
      
      /* Reset ADC all error code fields */
      ADC_CLEAR_ERRORCODE(hadc);
 80010de:	68fb      	ldr	r3, [r7, #12]
 80010e0:	2200      	movs	r2, #0
 80010e2:	659a      	str	r2, [r3, #88]	; 0x58
      
      /* Process unlocked */
      /* Unlock before starting ADC conversions: in case of potential         */
      /* interruption, to let the process to ADC IRQ Handler.                 */
      __HAL_UNLOCK(hadc);
 80010e4:	68fb      	ldr	r3, [r7, #12]
 80010e6:	2250      	movs	r2, #80	; 0x50
 80010e8:	2100      	movs	r1, #0
 80010ea:	5499      	strb	r1, [r3, r2]

      /* Set the DMA transfer complete callback */
      hadc->DMA_Handle->XferCpltCallback = ADC_DMAConvCplt;
 80010ec:	68fb      	ldr	r3, [r7, #12]
 80010ee:	6cdb      	ldr	r3, [r3, #76]	; 0x4c
 80010f0:	4a1e      	ldr	r2, [pc, #120]	; (800116c <HAL_ADC_Start_DMA+0xf8>)
 80010f2:	62da      	str	r2, [r3, #44]	; 0x2c
      
      /* Set the DMA half transfer complete callback */
      hadc->DMA_Handle->XferHalfCpltCallback = ADC_DMAHalfConvCplt;
 80010f4:	68fb      	ldr	r3, [r7, #12]
 80010f6:	6cdb      	ldr	r3, [r3, #76]	; 0x4c
 80010f8:	4a1d      	ldr	r2, [pc, #116]	; (8001170 <HAL_ADC_Start_DMA+0xfc>)
 80010fa:	631a      	str	r2, [r3, #48]	; 0x30
      
      /* Set the DMA error callback */
      hadc->DMA_Handle->XferErrorCallback = ADC_DMAError;
 80010fc:	68fb      	ldr	r3, [r7, #12]
 80010fe:	6cdb      	ldr	r3, [r3, #76]	; 0x4c
 8001100:	4a1c      	ldr	r2, [pc, #112]	; (8001174 <HAL_ADC_Start_DMA+0x100>)
 8001102:	635a      	str	r2, [r3, #52]	; 0x34
      /* start (in case of SW start):                                         */
      
      /* Clear regular group conversion flag and overrun flag */
      /* (To ensure of no unknown state from potential previous ADC           */
      /* operations)                                                          */
      __HAL_ADC_CLEAR_FLAG(hadc, (ADC_FLAG_EOC | ADC_FLAG_EOS | ADC_FLAG_OVR));
 8001104:	68fb      	ldr	r3, [r7, #12]
 8001106:	681b      	ldr	r3, [r3, #0]
 8001108:	221c      	movs	r2, #28
 800110a:	601a      	str	r2, [r3, #0]
      
      /* Enable ADC overrun interrupt */
      __HAL_ADC_ENABLE_IT(hadc, ADC_IT_OVR);
 800110c:	68fb      	ldr	r3, [r7, #12]
 800110e:	681b      	ldr	r3, [r3, #0]
 8001110:	685a      	ldr	r2, [r3, #4]
 8001112:	68fb      	ldr	r3, [r7, #12]
 8001114:	681b      	ldr	r3, [r3, #0]
 8001116:	2110      	movs	r1, #16
 8001118:	430a      	orrs	r2, r1
 800111a:	605a      	str	r2, [r3, #4]
      
      /* Enable ADC DMA mode */
      hadc->Instance->CFGR1 |= ADC_CFGR1_DMAEN;
 800111c:	68fb      	ldr	r3, [r7, #12]
 800111e:	681b      	ldr	r3, [r3, #0]
 8001120:	68da      	ldr	r2, [r3, #12]
 8001122:	68fb      	ldr	r3, [r7, #12]
 8001124:	681b      	ldr	r3, [r3, #0]
 8001126:	2101      	movs	r1, #1
 8001128:	430a      	orrs	r2, r1
 800112a:	60da      	str	r2, [r3, #12]
      
      /* Start the DMA channel */
      HAL_DMA_Start_IT(hadc->DMA_Handle, (uint32_t)&hadc->Instance->DR, (uint32_t)pData, Length);
 800112c:	68fb      	ldr	r3, [r7, #12]
 800112e:	6cd8      	ldr	r0, [r3, #76]	; 0x4c
 8001130:	68fb      	ldr	r3, [r7, #12]
 8001132:	681b      	ldr	r3, [r3, #0]
 8001134:	3340      	adds	r3, #64	; 0x40
 8001136:	0019      	movs	r1, r3
 8001138:	68ba      	ldr	r2, [r7, #8]
 800113a:	687b      	ldr	r3, [r7, #4]
 800113c:	f000 fb0e 	bl	800175c <HAL_DMA_Start_IT>
      
      /* Enable conversion of regular group.                                  */
      /* If software start has been selected, conversion starts immediately.  */
      /* If external trigger has been selected, conversion will start at next */
      /* trigger event.                                                       */
      hadc->Instance->CR |= ADC_CR_ADSTART;
 8001140:	68fb      	ldr	r3, [r7, #12]
 8001142:	681b      	ldr	r3, [r3, #0]
 8001144:	689a      	ldr	r2, [r3, #8]
 8001146:	68fb      	ldr	r3, [r7, #12]
 8001148:	681b      	ldr	r3, [r3, #0]
 800114a:	2104      	movs	r1, #4
 800114c:	430a      	orrs	r2, r1
 800114e:	609a      	str	r2, [r3, #8]
 8001150:	e003      	b.n	800115a <HAL_ADC_Start_DMA+0xe6>
    }
  }
  else
  {
    tmp_hal_status = HAL_BUSY;
 8001152:	2317      	movs	r3, #23
 8001154:	18fb      	adds	r3, r7, r3
 8001156:	2202      	movs	r2, #2
 8001158:	701a      	strb	r2, [r3, #0]
  }
  
  /* Return function status */
  return tmp_hal_status;
 800115a:	2317      	movs	r3, #23
 800115c:	18fb      	adds	r3, r7, r3
 800115e:	781b      	ldrb	r3, [r3, #0]
}
 8001160:	0018      	movs	r0, r3
 8001162:	46bd      	mov	sp, r7
 8001164:	b007      	add	sp, #28
 8001166:	bd90      	pop	{r4, r7, pc}
 8001168:	fffff0fe 	.word	0xfffff0fe
 800116c:	08001375 	.word	0x08001375
 8001170:	08001429 	.word	0x08001429
 8001174:	08001447 	.word	0x08001447

08001178 <HAL_ADC_ConvCpltCallback>:
  * @brief  Conversion complete callback in non-blocking mode.
  * @param  hadc ADC handle
  * @retval None
  */
__weak void HAL_ADC_ConvCpltCallback(ADC_HandleTypeDef* hadc)
{
 8001178:	b580      	push	{r7, lr}
 800117a:	b082      	sub	sp, #8
 800117c:	af00      	add	r7, sp, #0
 800117e:	6078      	str	r0, [r7, #4]
  UNUSED(hadc);

  /* NOTE : This function should not be modified. When the callback is needed,
            function HAL_ADC_ConvCpltCallback must be implemented in the user file.
   */
}
 8001180:	46c0      	nop			; (mov r8, r8)
 8001182:	46bd      	mov	sp, r7
 8001184:	b002      	add	sp, #8
 8001186:	bd80      	pop	{r7, pc}

08001188 <HAL_ADC_ConvHalfCpltCallback>:
  * @brief  Conversion DMA half-transfer callback in non-blocking mode.
  * @param  hadc ADC handle
  * @retval None
  */
__weak void HAL_ADC_ConvHalfCpltCallback(ADC_HandleTypeDef* hadc)
{
 8001188:	b580      	push	{r7, lr}
 800118a:	b082      	sub	sp, #8
 800118c:	af00      	add	r7, sp, #0
 800118e:	6078      	str	r0, [r7, #4]
  UNUSED(hadc);

  /* NOTE : This function should not be modified. When the callback is needed,
            function HAL_ADC_ConvHalfCpltCallback must be implemented in the user file.
  */
}
 8001190:	46c0      	nop			; (mov r8, r8)
 8001192:	46bd      	mov	sp, r7
 8001194:	b002      	add	sp, #8
 8001196:	bd80      	pop	{r7, pc}

08001198 <HAL_ADC_ErrorCallback>:
  *           (this function is also clearing overrun flag)
  * @param  hadc ADC handle
  * @retval None
  */
__weak void HAL_ADC_ErrorCallback(ADC_HandleTypeDef *hadc)
{
 8001198:	b580      	push	{r7, lr}
 800119a:	b082      	sub	sp, #8
 800119c:	af00      	add	r7, sp, #0
 800119e:	6078      	str	r0, [r7, #4]
  UNUSED(hadc);

  /* NOTE : This function should not be modified. When the callback is needed,
            function HAL_ADC_ErrorCallback must be implemented in the user file.
  */
}
 80011a0:	46c0      	nop			; (mov r8, r8)
 80011a2:	46bd      	mov	sp, r7
 80011a4:	b002      	add	sp, #8
 80011a6:	bd80      	pop	{r7, pc}

080011a8 <HAL_ADC_ConfigChannel>:
  * @param  hadc ADC handle
  * @param  sConfig Structure of ADC channel assigned to ADC group regular.
  * @retval HAL status
  */
HAL_StatusTypeDef HAL_ADC_ConfigChannel(ADC_HandleTypeDef* hadc, ADC_ChannelConfTypeDef* sConfig)
{
 80011a8:	b580      	push	{r7, lr}
 80011aa:	b082      	sub	sp, #8
 80011ac:	af00      	add	r7, sp, #0
 80011ae:	6078      	str	r0, [r7, #4]
 80011b0:	6039      	str	r1, [r7, #0]
  assert_param(IS_ADC_ALL_INSTANCE(hadc->Instance));
  assert_param(IS_ADC_CHANNEL(sConfig->Channel));
  assert_param(IS_ADC_RANK(sConfig->Rank));
  
  /* Process locked */
  __HAL_LOCK(hadc);
 80011b2:	687b      	ldr	r3, [r7, #4]
 80011b4:	2250      	movs	r2, #80	; 0x50
 80011b6:	5c9b      	ldrb	r3, [r3, r2]
 80011b8:	2b01      	cmp	r3, #1
 80011ba:	d101      	bne.n	80011c0 <HAL_ADC_ConfigChannel+0x18>
 80011bc:	2302      	movs	r3, #2
 80011be:	e06c      	b.n	800129a <HAL_ADC_ConfigChannel+0xf2>
 80011c0:	687b      	ldr	r3, [r7, #4]
 80011c2:	2250      	movs	r2, #80	; 0x50
 80011c4:	2101      	movs	r1, #1
 80011c6:	5499      	strb	r1, [r3, r2]
  /* Parameters update conditioned to ADC state:                              */
  /* Parameters that can be updated when ADC is disabled or enabled without   */
  /* conversion on going on regular group:                                    */
  /*  - Channel number                                                        */
  /*  - Management of internal measurement channels: Vbat/VrefInt/TempSensor  */
  if (ADC_IS_CONVERSION_ONGOING_REGULAR(hadc) != RESET)
 80011c8:	687b      	ldr	r3, [r7, #4]
 80011ca:	681b      	ldr	r3, [r3, #0]
 80011cc:	689b      	ldr	r3, [r3, #8]
 80011ce:	2204      	movs	r2, #4
 80011d0:	4013      	ands	r3, r2
 80011d2:	d00b      	beq.n	80011ec <HAL_ADC_ConfigChannel+0x44>
  {
    /* Update ADC state machine to error */
    SET_BIT(hadc->State, HAL_ADC_STATE_ERROR_CONFIG);
 80011d4:	687b      	ldr	r3, [r7, #4]
 80011d6:	6d5b      	ldr	r3, [r3, #84]	; 0x54
 80011d8:	2220      	movs	r2, #32
 80011da:	431a      	orrs	r2, r3
 80011dc:	687b      	ldr	r3, [r7, #4]
 80011de:	655a      	str	r2, [r3, #84]	; 0x54
    /* Process unlocked */
    __HAL_UNLOCK(hadc);
 80011e0:	687b      	ldr	r3, [r7, #4]
 80011e2:	2250      	movs	r2, #80	; 0x50
 80011e4:	2100      	movs	r1, #0
 80011e6:	5499      	strb	r1, [r3, r2]
    return HAL_ERROR;
 80011e8:	2301      	movs	r3, #1
 80011ea:	e056      	b.n	800129a <HAL_ADC_ConfigChannel+0xf2>
  }
  
  if (sConfig->Rank != ADC_RANK_NONE)
 80011ec:	683b      	ldr	r3, [r7, #0]
 80011ee:	685b      	ldr	r3, [r3, #4]
 80011f0:	4a2c      	ldr	r2, [pc, #176]	; (80012a4 <HAL_ADC_ConfigChannel+0xfc>)
 80011f2:	4293      	cmp	r3, r2
 80011f4:	d028      	beq.n	8001248 <HAL_ADC_ConfigChannel+0xa0>
  {
    /* Enable selected channels */
    hadc->Instance->CHSELR |= (uint32_t)(sConfig->Channel & ADC_CHANNEL_MASK);
 80011f6:	687b      	ldr	r3, [r7, #4]
 80011f8:	681b      	ldr	r3, [r3, #0]
 80011fa:	6a99      	ldr	r1, [r3, #40]	; 0x28
 80011fc:	683b      	ldr	r3, [r7, #0]
 80011fe:	681b      	ldr	r3, [r3, #0]
 8001200:	035b      	lsls	r3, r3, #13
 8001202:	0b5a      	lsrs	r2, r3, #13
 8001204:	687b      	ldr	r3, [r7, #4]
 8001206:	681b      	ldr	r3, [r3, #0]
 8001208:	430a      	orrs	r2, r1
 800120a:	629a      	str	r2, [r3, #40]	; 0x28
    /* dedicated internal buffers and path.                                     */
    
    #if defined(ADC_CCR_TSEN)
    /* If Temperature sensor channel is selected, then enable the internal      */
    /* buffers and path  */
    if (((sConfig->Channel & ADC_CHANNEL_MASK) & ADC_CHANNEL_TEMPSENSOR ) == (ADC_CHANNEL_TEMPSENSOR & ADC_CHANNEL_MASK))
 800120c:	683b      	ldr	r3, [r7, #0]
 800120e:	681a      	ldr	r2, [r3, #0]
 8001210:	2380      	movs	r3, #128	; 0x80
 8001212:	02db      	lsls	r3, r3, #11
 8001214:	4013      	ands	r3, r2
 8001216:	d009      	beq.n	800122c <HAL_ADC_ConfigChannel+0x84>
    {
      ADC->CCR |= ADC_CCR_TSEN;   
 8001218:	4b23      	ldr	r3, [pc, #140]	; (80012a8 <HAL_ADC_ConfigChannel+0x100>)
 800121a:	681a      	ldr	r2, [r3, #0]
 800121c:	4b22      	ldr	r3, [pc, #136]	; (80012a8 <HAL_ADC_ConfigChannel+0x100>)
 800121e:	2180      	movs	r1, #128	; 0x80
 8001220:	0409      	lsls	r1, r1, #16
 8001222:	430a      	orrs	r2, r1
 8001224:	601a      	str	r2, [r3, #0]
      
      /* Delay for temperature sensor stabilization time */
      ADC_DelayMicroSecond(ADC_TEMPSENSOR_DELAY_US);
 8001226:	200a      	movs	r0, #10
 8001228:	f000 f928 	bl	800147c <ADC_DelayMicroSecond>
    }
    #endif
    
    /* If VRefInt channel is selected, then enable the internal buffers and path   */
    if (((sConfig->Channel & ADC_CHANNEL_MASK) & ADC_CHANNEL_VREFINT) == (ADC_CHANNEL_VREFINT & ADC_CHANNEL_MASK))
 800122c:	683b      	ldr	r3, [r7, #0]
 800122e:	681a      	ldr	r2, [r3, #0]
 8001230:	2380      	movs	r3, #128	; 0x80
 8001232:	029b      	lsls	r3, r3, #10
 8001234:	4013      	ands	r3, r2
 8001236:	d02b      	beq.n	8001290 <HAL_ADC_ConfigChannel+0xe8>
    {
      ADC->CCR |= ADC_CCR_VREFEN;   
 8001238:	4b1b      	ldr	r3, [pc, #108]	; (80012a8 <HAL_ADC_ConfigChannel+0x100>)
 800123a:	681a      	ldr	r2, [r3, #0]
 800123c:	4b1a      	ldr	r3, [pc, #104]	; (80012a8 <HAL_ADC_ConfigChannel+0x100>)
 800123e:	2180      	movs	r1, #128	; 0x80
 8001240:	03c9      	lsls	r1, r1, #15
 8001242:	430a      	orrs	r2, r1
 8001244:	601a      	str	r2, [r3, #0]
 8001246:	e023      	b.n	8001290 <HAL_ADC_ConfigChannel+0xe8>
  }
  else
  {
    /* Regular sequence configuration */
    /* Reset the channel selection register from the selected channel */
    hadc->Instance->CHSELR &= ~((uint32_t)(sConfig->Channel & ADC_CHANNEL_MASK));
 8001248:	687b      	ldr	r3, [r7, #4]
 800124a:	681b      	ldr	r3, [r3, #0]
 800124c:	6a9a      	ldr	r2, [r3, #40]	; 0x28
 800124e:	683b      	ldr	r3, [r7, #0]
 8001250:	681b      	ldr	r3, [r3, #0]
 8001252:	035b      	lsls	r3, r3, #13
 8001254:	0b5b      	lsrs	r3, r3, #13
 8001256:	43d9      	mvns	r1, r3
 8001258:	687b      	ldr	r3, [r7, #4]
 800125a:	681b      	ldr	r3, [r3, #0]
 800125c:	400a      	ands	r2, r1
 800125e:	629a      	str	r2, [r3, #40]	; 0x28
    
    /* Management of internal measurement channels: VrefInt/TempSensor/Vbat */
    /* internal measurement paths disable: If internal channel selected,    */
    /* disable dedicated internal buffers and path.                         */
    #if defined(ADC_CCR_TSEN)
    if (((sConfig->Channel & ADC_CHANNEL_MASK) & ADC_CHANNEL_TEMPSENSOR ) == (ADC_CHANNEL_TEMPSENSOR & ADC_CHANNEL_MASK))
 8001260:	683b      	ldr	r3, [r7, #0]
 8001262:	681a      	ldr	r2, [r3, #0]
 8001264:	2380      	movs	r3, #128	; 0x80
 8001266:	02db      	lsls	r3, r3, #11
 8001268:	4013      	ands	r3, r2
 800126a:	d005      	beq.n	8001278 <HAL_ADC_ConfigChannel+0xd0>
    {
      ADC->CCR &= ~ADC_CCR_TSEN;   
 800126c:	4b0e      	ldr	r3, [pc, #56]	; (80012a8 <HAL_ADC_ConfigChannel+0x100>)
 800126e:	681a      	ldr	r2, [r3, #0]
 8001270:	4b0d      	ldr	r3, [pc, #52]	; (80012a8 <HAL_ADC_ConfigChannel+0x100>)
 8001272:	490e      	ldr	r1, [pc, #56]	; (80012ac <HAL_ADC_ConfigChannel+0x104>)
 8001274:	400a      	ands	r2, r1
 8001276:	601a      	str	r2, [r3, #0]
    }
    #endif
    
    /* If VRefInt channel is selected, then enable the internal buffers and path   */
    if (((sConfig->Channel & ADC_CHANNEL_MASK) & ADC_CHANNEL_VREFINT) == (ADC_CHANNEL_VREFINT & ADC_CHANNEL_MASK))
 8001278:	683b      	ldr	r3, [r7, #0]
 800127a:	681a      	ldr	r2, [r3, #0]
 800127c:	2380      	movs	r3, #128	; 0x80
 800127e:	029b      	lsls	r3, r3, #10
 8001280:	4013      	ands	r3, r2
 8001282:	d005      	beq.n	8001290 <HAL_ADC_ConfigChannel+0xe8>
    {
      ADC->CCR &= ~ADC_CCR_VREFEN;   
 8001284:	4b08      	ldr	r3, [pc, #32]	; (80012a8 <HAL_ADC_ConfigChannel+0x100>)
 8001286:	681a      	ldr	r2, [r3, #0]
 8001288:	4b07      	ldr	r3, [pc, #28]	; (80012a8 <HAL_ADC_ConfigChannel+0x100>)
 800128a:	4909      	ldr	r1, [pc, #36]	; (80012b0 <HAL_ADC_ConfigChannel+0x108>)
 800128c:	400a      	ands	r2, r1
 800128e:	601a      	str	r2, [r3, #0]
    }
#endif
  }
  
  /* Process unlocked */
  __HAL_UNLOCK(hadc);
 8001290:	687b      	ldr	r3, [r7, #4]
 8001292:	2250      	movs	r2, #80	; 0x50
 8001294:	2100      	movs	r1, #0
 8001296:	5499      	strb	r1, [r3, r2]
  
  /* Return function status */
  return HAL_OK;
 8001298:	2300      	movs	r3, #0
}
 800129a:	0018      	movs	r0, r3
 800129c:	46bd      	mov	sp, r7
 800129e:	b002      	add	sp, #8
 80012a0:	bd80      	pop	{r7, pc}
 80012a2:	46c0      	nop			; (mov r8, r8)
 80012a4:	00001001 	.word	0x00001001
 80012a8:	40012708 	.word	0x40012708
 80012ac:	ff7fffff 	.word	0xff7fffff
 80012b0:	ffbfffff 	.word	0xffbfffff

080012b4 <ADC_Enable>:
  *         "if (hadc->Init.LowPowerAutoPowerOff != ENABLE)".
  * @param  hadc ADC handle
  * @retval HAL status.
  */
static HAL_StatusTypeDef ADC_Enable(ADC_HandleTypeDef* hadc)
{
 80012b4:	b580      	push	{r7, lr}
 80012b6:	b084      	sub	sp, #16
 80012b8:	af00      	add	r7, sp, #0
 80012ba:	6078      	str	r0, [r7, #4]
  uint32_t tickstart = 0U;
 80012bc:	2300      	movs	r3, #0
 80012be:	60fb      	str	r3, [r7, #12]

  /* ADC enable and wait for ADC ready (in case of ADC is disabled or         */
  /* enabling phase not yet completed: flag ADC ready not yet set).           */
  /* Timeout implemented to not be stuck if ADC cannot be enabled (possible   */
  /* causes: ADC clock not running, ...).                                     */
  if (ADC_IS_ENABLE(hadc) == RESET)
 80012c0:	687b      	ldr	r3, [r7, #4]
 80012c2:	681b      	ldr	r3, [r3, #0]
 80012c4:	689b      	ldr	r3, [r3, #8]
 80012c6:	2203      	movs	r2, #3
 80012c8:	4013      	ands	r3, r2
 80012ca:	2b01      	cmp	r3, #1
 80012cc:	d108      	bne.n	80012e0 <ADC_Enable+0x2c>
 80012ce:	687b      	ldr	r3, [r7, #4]
 80012d0:	681b      	ldr	r3, [r3, #0]
 80012d2:	681b      	ldr	r3, [r3, #0]
 80012d4:	2201      	movs	r2, #1
 80012d6:	4013      	ands	r3, r2
 80012d8:	2b01      	cmp	r3, #1
 80012da:	d101      	bne.n	80012e0 <ADC_Enable+0x2c>
 80012dc:	2301      	movs	r3, #1
 80012de:	e000      	b.n	80012e2 <ADC_Enable+0x2e>
 80012e0:	2300      	movs	r3, #0
 80012e2:	2b00      	cmp	r3, #0
 80012e4:	d13f      	bne.n	8001366 <ADC_Enable+0xb2>
  {
    /* Check if conditions to enable the ADC are fulfilled */
    if (ADC_ENABLING_CONDITIONS(hadc) == RESET)
 80012e6:	687b      	ldr	r3, [r7, #4]
 80012e8:	681b      	ldr	r3, [r3, #0]
 80012ea:	689b      	ldr	r3, [r3, #8]
 80012ec:	4a20      	ldr	r2, [pc, #128]	; (8001370 <ADC_Enable+0xbc>)
 80012ee:	4013      	ands	r3, r2
 80012f0:	d00d      	beq.n	800130e <ADC_Enable+0x5a>
    {
      /* Update ADC state machine to error */
      SET_BIT(hadc->State, HAL_ADC_STATE_ERROR_INTERNAL);
 80012f2:	687b      	ldr	r3, [r7, #4]
 80012f4:	6d5b      	ldr	r3, [r3, #84]	; 0x54
 80012f6:	2210      	movs	r2, #16
 80012f8:	431a      	orrs	r2, r3
 80012fa:	687b      	ldr	r3, [r7, #4]
 80012fc:	655a      	str	r2, [r3, #84]	; 0x54
      
      /* Set ADC error code to ADC peripheral internal error */
      SET_BIT(hadc->ErrorCode, HAL_ADC_ERROR_INTERNAL);
 80012fe:	687b      	ldr	r3, [r7, #4]
 8001300:	6d9b      	ldr	r3, [r3, #88]	; 0x58
 8001302:	2201      	movs	r2, #1
 8001304:	431a      	orrs	r2, r3
 8001306:	687b      	ldr	r3, [r7, #4]
 8001308:	659a      	str	r2, [r3, #88]	; 0x58
      
      return HAL_ERROR;
 800130a:	2301      	movs	r3, #1
 800130c:	e02c      	b.n	8001368 <ADC_Enable+0xb4>
    }
    
    /* Enable the ADC peripheral */
    __HAL_ADC_ENABLE(hadc);
 800130e:	687b      	ldr	r3, [r7, #4]
 8001310:	681b      	ldr	r3, [r3, #0]
 8001312:	689a      	ldr	r2, [r3, #8]
 8001314:	687b      	ldr	r3, [r7, #4]
 8001316:	681b      	ldr	r3, [r3, #0]
 8001318:	2101      	movs	r1, #1
 800131a:	430a      	orrs	r2, r1
 800131c:	609a      	str	r2, [r3, #8]
    
    /* Delay for ADC stabilization time. */
    ADC_DelayMicroSecond(ADC_STAB_DELAY_US);
 800131e:	2001      	movs	r0, #1
 8001320:	f000 f8ac 	bl	800147c <ADC_DelayMicroSecond>

    /* Get tick count */
    tickstart = HAL_GetTick();
 8001324:	f7ff fd28 	bl	8000d78 <HAL_GetTick>
 8001328:	0003      	movs	r3, r0
 800132a:	60fb      	str	r3, [r7, #12]
    
    /* Wait for ADC effectively enabled */
    while(__HAL_ADC_GET_FLAG(hadc, ADC_FLAG_RDY) == RESET)
 800132c:	e014      	b.n	8001358 <ADC_Enable+0xa4>
    {
      if((HAL_GetTick() - tickstart) > ADC_ENABLE_TIMEOUT)
 800132e:	f7ff fd23 	bl	8000d78 <HAL_GetTick>
 8001332:	0002      	movs	r2, r0
 8001334:	68fb      	ldr	r3, [r7, #12]
 8001336:	1ad3      	subs	r3, r2, r3
 8001338:	2b0a      	cmp	r3, #10
 800133a:	d90d      	bls.n	8001358 <ADC_Enable+0xa4>
      {
        /* Update ADC state machine to error */
        SET_BIT(hadc->State, HAL_ADC_STATE_ERROR_INTERNAL);
 800133c:	687b      	ldr	r3, [r7, #4]
 800133e:	6d5b      	ldr	r3, [r3, #84]	; 0x54
 8001340:	2210      	movs	r2, #16
 8001342:	431a      	orrs	r2, r3
 8001344:	687b      	ldr	r3, [r7, #4]
 8001346:	655a      	str	r2, [r3, #84]	; 0x54
        
        /* Set ADC error code to ADC peripheral internal error */
        SET_BIT(hadc->ErrorCode, HAL_ADC_ERROR_INTERNAL);
 8001348:	687b      	ldr	r3, [r7, #4]
 800134a:	6d9b      	ldr	r3, [r3, #88]	; 0x58
 800134c:	2201      	movs	r2, #1
 800134e:	431a      	orrs	r2, r3
 8001350:	687b      	ldr	r3, [r7, #4]
 8001352:	659a      	str	r2, [r3, #88]	; 0x58
        
        return HAL_ERROR;
 8001354:	2301      	movs	r3, #1
 8001356:	e007      	b.n	8001368 <ADC_Enable+0xb4>
    while(__HAL_ADC_GET_FLAG(hadc, ADC_FLAG_RDY) == RESET)
 8001358:	687b      	ldr	r3, [r7, #4]
 800135a:	681b      	ldr	r3, [r3, #0]
 800135c:	681b      	ldr	r3, [r3, #0]
 800135e:	2201      	movs	r2, #1
 8001360:	4013      	ands	r3, r2
 8001362:	2b01      	cmp	r3, #1
 8001364:	d1e3      	bne.n	800132e <ADC_Enable+0x7a>
      }
    }
  }
   
  /* Return HAL status */
  return HAL_OK;
 8001366:	2300      	movs	r3, #0
}
 8001368:	0018      	movs	r0, r3
 800136a:	46bd      	mov	sp, r7
 800136c:	b004      	add	sp, #16
 800136e:	bd80      	pop	{r7, pc}
 8001370:	80000017 	.word	0x80000017

08001374 <ADC_DMAConvCplt>:
  * @brief  DMA transfer complete callback. 
  * @param  hdma pointer to DMA handle.
  * @retval None
  */
static void ADC_DMAConvCplt(DMA_HandleTypeDef *hdma)
{
 8001374:	b580      	push	{r7, lr}
 8001376:	b084      	sub	sp, #16
 8001378:	af00      	add	r7, sp, #0
 800137a:	6078      	str	r0, [r7, #4]
  /* Retrieve ADC handle corresponding to current DMA handle */
  ADC_HandleTypeDef* hadc = ( ADC_HandleTypeDef* )((DMA_HandleTypeDef* )hdma)->Parent;
 800137c:	687b      	ldr	r3, [r7, #4]
 800137e:	6a9b      	ldr	r3, [r3, #40]	; 0x28
 8001380:	60fb      	str	r3, [r7, #12]
  
  /* Update state machine on conversion status if not in error state */
  if (HAL_IS_BIT_CLR(hadc->State, HAL_ADC_STATE_ERROR_INTERNAL | HAL_ADC_STATE_ERROR_DMA))
 8001382:	68fb      	ldr	r3, [r7, #12]
 8001384:	6d5b      	ldr	r3, [r3, #84]	; 0x54
 8001386:	2250      	movs	r2, #80	; 0x50
 8001388:	4013      	ands	r3, r2
 800138a:	d141      	bne.n	8001410 <ADC_DMAConvCplt+0x9c>
  {
    /* Set ADC state */
    SET_BIT(hadc->State, HAL_ADC_STATE_REG_EOC);
 800138c:	68fb      	ldr	r3, [r7, #12]
 800138e:	6d5b      	ldr	r3, [r3, #84]	; 0x54
 8001390:	2280      	movs	r2, #128	; 0x80
 8001392:	0092      	lsls	r2, r2, #2
 8001394:	431a      	orrs	r2, r3
 8001396:	68fb      	ldr	r3, [r7, #12]
 8001398:	655a      	str	r2, [r3, #84]	; 0x54
    
    /* Determine whether any further conversion upcoming on group regular     */
    /* by external trigger, continuous mode or scan sequence on going.        */
    if(ADC_IS_SOFTWARE_START_REGULAR(hadc)        && 
 800139a:	68fb      	ldr	r3, [r7, #12]
 800139c:	681b      	ldr	r3, [r3, #0]
 800139e:	68da      	ldr	r2, [r3, #12]
 80013a0:	23c0      	movs	r3, #192	; 0xc0
 80013a2:	011b      	lsls	r3, r3, #4
 80013a4:	4013      	ands	r3, r2
 80013a6:	d12e      	bne.n	8001406 <ADC_DMAConvCplt+0x92>
       (hadc->Init.ContinuousConvMode == DISABLE)   )
 80013a8:	68fb      	ldr	r3, [r7, #12]
 80013aa:	2220      	movs	r2, #32
 80013ac:	5c9b      	ldrb	r3, [r3, r2]
    if(ADC_IS_SOFTWARE_START_REGULAR(hadc)        && 
 80013ae:	2b00      	cmp	r3, #0
 80013b0:	d129      	bne.n	8001406 <ADC_DMAConvCplt+0x92>
    {
      /* If End of Sequence is reached, disable interrupts */
      if( __HAL_ADC_GET_FLAG(hadc, ADC_FLAG_EOS) )
 80013b2:	68fb      	ldr	r3, [r7, #12]
 80013b4:	681b      	ldr	r3, [r3, #0]
 80013b6:	681b      	ldr	r3, [r3, #0]
 80013b8:	2208      	movs	r2, #8
 80013ba:	4013      	ands	r3, r2
 80013bc:	2b08      	cmp	r3, #8
 80013be:	d122      	bne.n	8001406 <ADC_DMAConvCplt+0x92>
      {
        /* Allowed to modify bits ADC_IT_EOC/ADC_IT_EOS only if bit           */
        /* ADSTART==0 (no conversion on going)                                */
        if (ADC_IS_CONVERSION_ONGOING_REGULAR(hadc) == RESET)
 80013c0:	68fb      	ldr	r3, [r7, #12]
 80013c2:	681b      	ldr	r3, [r3, #0]
 80013c4:	689b      	ldr	r3, [r3, #8]
 80013c6:	2204      	movs	r2, #4
 80013c8:	4013      	ands	r3, r2
 80013ca:	d110      	bne.n	80013ee <ADC_DMAConvCplt+0x7a>
        {
          /* Disable ADC end of single conversion interrupt on group regular */
          /* Note: Overrun interrupt was enabled with EOC interrupt in        */
          /* HAL_Start_IT(), but is not disabled here because can be used     */
          /* by overrun IRQ process below.                                    */
          __HAL_ADC_DISABLE_IT(hadc, ADC_IT_EOC | ADC_IT_EOS);
 80013cc:	68fb      	ldr	r3, [r7, #12]
 80013ce:	681b      	ldr	r3, [r3, #0]
 80013d0:	685a      	ldr	r2, [r3, #4]
 80013d2:	68fb      	ldr	r3, [r7, #12]
 80013d4:	681b      	ldr	r3, [r3, #0]
 80013d6:	210c      	movs	r1, #12
 80013d8:	438a      	bics	r2, r1
 80013da:	605a      	str	r2, [r3, #4]
          
          /* Set ADC state */
          ADC_STATE_CLR_SET(hadc->State,
 80013dc:	68fb      	ldr	r3, [r7, #12]
 80013de:	6d5b      	ldr	r3, [r3, #84]	; 0x54
 80013e0:	4a10      	ldr	r2, [pc, #64]	; (8001424 <ADC_DMAConvCplt+0xb0>)
 80013e2:	4013      	ands	r3, r2
 80013e4:	2201      	movs	r2, #1
 80013e6:	431a      	orrs	r2, r3
 80013e8:	68fb      	ldr	r3, [r7, #12]
 80013ea:	655a      	str	r2, [r3, #84]	; 0x54
 80013ec:	e00b      	b.n	8001406 <ADC_DMAConvCplt+0x92>
                            HAL_ADC_STATE_READY);
        }
        else
        {
          /* Change ADC state to error state */
          SET_BIT(hadc->State, HAL_ADC_STATE_ERROR_CONFIG);
 80013ee:	68fb      	ldr	r3, [r7, #12]
 80013f0:	6d5b      	ldr	r3, [r3, #84]	; 0x54
 80013f2:	2220      	movs	r2, #32
 80013f4:	431a      	orrs	r2, r3
 80013f6:	68fb      	ldr	r3, [r7, #12]
 80013f8:	655a      	str	r2, [r3, #84]	; 0x54
          
          /* Set ADC error code to ADC peripheral internal error */
          SET_BIT(hadc->ErrorCode, HAL_ADC_ERROR_INTERNAL);
 80013fa:	68fb      	ldr	r3, [r7, #12]
 80013fc:	6d9b      	ldr	r3, [r3, #88]	; 0x58
 80013fe:	2201      	movs	r2, #1
 8001400:	431a      	orrs	r2, r3
 8001402:	68fb      	ldr	r3, [r7, #12]
 8001404:	659a      	str	r2, [r3, #88]	; 0x58

    /* Conversion complete callback */
#if (USE_HAL_ADC_REGISTER_CALLBACKS == 1)
    hadc->ConvCpltCallback(hadc);
#else
    HAL_ADC_ConvCpltCallback(hadc);
 8001406:	68fb      	ldr	r3, [r7, #12]
 8001408:	0018      	movs	r0, r3
 800140a:	f7ff feb5 	bl	8001178 <HAL_ADC_ConvCpltCallback>
  else
  {
    /* Call DMA error callback */
    hadc->DMA_Handle->XferErrorCallback(hdma);
  }
}
 800140e:	e005      	b.n	800141c <ADC_DMAConvCplt+0xa8>
    hadc->DMA_Handle->XferErrorCallback(hdma);
 8001410:	68fb      	ldr	r3, [r7, #12]
 8001412:	6cdb      	ldr	r3, [r3, #76]	; 0x4c
 8001414:	6b5b      	ldr	r3, [r3, #52]	; 0x34
 8001416:	687a      	ldr	r2, [r7, #4]
 8001418:	0010      	movs	r0, r2
 800141a:	4798      	blx	r3
}
 800141c:	46c0      	nop			; (mov r8, r8)
 800141e:	46bd      	mov	sp, r7
 8001420:	b004      	add	sp, #16
 8001422:	bd80      	pop	{r7, pc}
 8001424:	fffffefe 	.word	0xfffffefe

08001428 <ADC_DMAHalfConvCplt>:
  * @brief  DMA half transfer complete callback. 
  * @param  hdma pointer to DMA handle.
  * @retval None
  */
static void ADC_DMAHalfConvCplt(DMA_HandleTypeDef *hdma)
{
 8001428:	b580      	push	{r7, lr}
 800142a:	b084      	sub	sp, #16
 800142c:	af00      	add	r7, sp, #0
 800142e:	6078      	str	r0, [r7, #4]
  /* Retrieve ADC handle corresponding to current DMA handle */
  ADC_HandleTypeDef* hadc = ( ADC_HandleTypeDef* )((DMA_HandleTypeDef* )hdma)->Parent;
 8001430:	687b      	ldr	r3, [r7, #4]
 8001432:	6a9b      	ldr	r3, [r3, #40]	; 0x28
 8001434:	60fb      	str	r3, [r7, #12]
  
  /* Half conversion callback */
#if (USE_HAL_ADC_REGISTER_CALLBACKS == 1)
    hadc->ConvHalfCpltCallback(hadc);
#else
  HAL_ADC_ConvHalfCpltCallback(hadc); 
 8001436:	68fb      	ldr	r3, [r7, #12]
 8001438:	0018      	movs	r0, r3
 800143a:	f7ff fea5 	bl	8001188 <HAL_ADC_ConvHalfCpltCallback>
#endif /* USE_HAL_ADC_REGISTER_CALLBACKS */
}
 800143e:	46c0      	nop			; (mov r8, r8)
 8001440:	46bd      	mov	sp, r7
 8001442:	b004      	add	sp, #16
 8001444:	bd80      	pop	{r7, pc}

08001446 <ADC_DMAError>:
  * @brief  DMA error callback.
  * @param  hdma pointer to DMA handle.
  * @retval None
  */
static void ADC_DMAError(DMA_HandleTypeDef *hdma)
{
 8001446:	b580      	push	{r7, lr}
 8001448:	b084      	sub	sp, #16
 800144a:	af00      	add	r7, sp, #0
 800144c:	6078      	str	r0, [r7, #4]
  /* Retrieve ADC handle corresponding to current DMA handle */
  ADC_HandleTypeDef* hadc = ( ADC_HandleTypeDef* )((DMA_HandleTypeDef* )hdma)->Parent;
 800144e:	687b      	ldr	r3, [r7, #4]
 8001450:	6a9b      	ldr	r3, [r3, #40]	; 0x28
 8001452:	60fb      	str	r3, [r7, #12]
  
  /* Set ADC state */
  SET_BIT(hadc->State, HAL_ADC_STATE_ERROR_DMA);
 8001454:	68fb      	ldr	r3, [r7, #12]
 8001456:	6d5b      	ldr	r3, [r3, #84]	; 0x54
 8001458:	2240      	movs	r2, #64	; 0x40
 800145a:	431a      	orrs	r2, r3
 800145c:	68fb      	ldr	r3, [r7, #12]
 800145e:	655a      	str	r2, [r3, #84]	; 0x54
  
  /* Set ADC error code to DMA error */
  SET_BIT(hadc->ErrorCode, HAL_ADC_ERROR_DMA);
 8001460:	68fb      	ldr	r3, [r7, #12]
 8001462:	6d9b      	ldr	r3, [r3, #88]	; 0x58
 8001464:	2204      	movs	r2, #4
 8001466:	431a      	orrs	r2, r3
 8001468:	68fb      	ldr	r3, [r7, #12]
 800146a:	659a      	str	r2, [r3, #88]	; 0x58
  
  /* Error callback */
#if (USE_HAL_ADC_REGISTER_CALLBACKS == 1)
  hadc->ErrorCallback(hadc);
#else
  HAL_ADC_ErrorCallback(hadc); 
 800146c:	68fb      	ldr	r3, [r7, #12]
 800146e:	0018      	movs	r0, r3
 8001470:	f7ff fe92 	bl	8001198 <HAL_ADC_ErrorCallback>
#endif /* USE_HAL_ADC_REGISTER_CALLBACKS */
}
 8001474:	46c0      	nop			; (mov r8, r8)
 8001476:	46bd      	mov	sp, r7
 8001478:	b004      	add	sp, #16
 800147a:	bd80      	pop	{r7, pc}

0800147c <ADC_DelayMicroSecond>:
  * @brief  Delay micro seconds 
  * @param  microSecond  delay
  * @retval None
  */
static void ADC_DelayMicroSecond(uint32_t microSecond)
{
 800147c:	b580      	push	{r7, lr}
 800147e:	b084      	sub	sp, #16
 8001480:	af00      	add	r7, sp, #0
 8001482:	6078      	str	r0, [r7, #4]
  /* Compute number of CPU cycles to wait for */
  __IO uint32_t waitLoopIndex = (microSecond * (SystemCoreClock / 1000000U));
 8001484:	4b0a      	ldr	r3, [pc, #40]	; (80014b0 <ADC_DelayMicroSecond+0x34>)
 8001486:	681b      	ldr	r3, [r3, #0]
 8001488:	490a      	ldr	r1, [pc, #40]	; (80014b4 <ADC_DelayMicroSecond+0x38>)
 800148a:	0018      	movs	r0, r3
 800148c:	f7fe fe3c 	bl	8000108 <__udivsi3>
 8001490:	0003      	movs	r3, r0
 8001492:	001a      	movs	r2, r3
 8001494:	687b      	ldr	r3, [r7, #4]
 8001496:	4353      	muls	r3, r2
 8001498:	60fb      	str	r3, [r7, #12]

  while(waitLoopIndex != 0U)
 800149a:	e002      	b.n	80014a2 <ADC_DelayMicroSecond+0x26>
  {
    waitLoopIndex--;
 800149c:	68fb      	ldr	r3, [r7, #12]
 800149e:	3b01      	subs	r3, #1
 80014a0:	60fb      	str	r3, [r7, #12]
  while(waitLoopIndex != 0U)
 80014a2:	68fb      	ldr	r3, [r7, #12]
 80014a4:	2b00      	cmp	r3, #0
 80014a6:	d1f9      	bne.n	800149c <ADC_DelayMicroSecond+0x20>
  } 
}
 80014a8:	46c0      	nop			; (mov r8, r8)
 80014aa:	46bd      	mov	sp, r7
 80014ac:	b004      	add	sp, #16
 80014ae:	bd80      	pop	{r7, pc}
 80014b0:	20000004 	.word	0x20000004
 80014b4:	000f4240 	.word	0x000f4240

080014b8 <NVIC_EnableIRQ>:
  \brief   Enable External Interrupt
  \details Enables a device-specific interrupt in the NVIC interrupt controller.
  \param [in]      IRQn  External interrupt number. Value cannot be negative.
 */
__STATIC_INLINE void NVIC_EnableIRQ(IRQn_Type IRQn)
{
 80014b8:	b580      	push	{r7, lr}
 80014ba:	b082      	sub	sp, #8
 80014bc:	af00      	add	r7, sp, #0
 80014be:	0002      	movs	r2, r0
 80014c0:	1dfb      	adds	r3, r7, #7
 80014c2:	701a      	strb	r2, [r3, #0]
  NVIC->ISER[0U] = (uint32_t)(1UL << (((uint32_t)(int32_t)IRQn) & 0x1FUL));
 80014c4:	1dfb      	adds	r3, r7, #7
 80014c6:	781b      	ldrb	r3, [r3, #0]
 80014c8:	001a      	movs	r2, r3
 80014ca:	231f      	movs	r3, #31
 80014cc:	401a      	ands	r2, r3
 80014ce:	4b04      	ldr	r3, [pc, #16]	; (80014e0 <NVIC_EnableIRQ+0x28>)
 80014d0:	2101      	movs	r1, #1
 80014d2:	4091      	lsls	r1, r2
 80014d4:	000a      	movs	r2, r1
 80014d6:	601a      	str	r2, [r3, #0]
}
 80014d8:	46c0      	nop			; (mov r8, r8)
 80014da:	46bd      	mov	sp, r7
 80014dc:	b002      	add	sp, #8
 80014de:	bd80      	pop	{r7, pc}
 80014e0:	e000e100 	.word	0xe000e100

080014e4 <NVIC_SetPriority>:
  \note    The priority cannot be set for every core interrupt.
  \param [in]      IRQn  Interrupt number.
  \param [in]  priority  Priority to set.
 */
__STATIC_INLINE void NVIC_SetPriority(IRQn_Type IRQn, uint32_t priority)
{
 80014e4:	b590      	push	{r4, r7, lr}
 80014e6:	b083      	sub	sp, #12
 80014e8:	af00      	add	r7, sp, #0
 80014ea:	0002      	movs	r2, r0
 80014ec:	6039      	str	r1, [r7, #0]
 80014ee:	1dfb      	adds	r3, r7, #7
 80014f0:	701a      	strb	r2, [r3, #0]
  if ((int32_t)(IRQn) < 0)
 80014f2:	1dfb      	adds	r3, r7, #7
 80014f4:	781b      	ldrb	r3, [r3, #0]
 80014f6:	2b7f      	cmp	r3, #127	; 0x7f
 80014f8:	d932      	bls.n	8001560 <NVIC_SetPriority+0x7c>
  {
    SCB->SHP[_SHP_IDX(IRQn)] = ((uint32_t)(SCB->SHP[_SHP_IDX(IRQn)] & ~(0xFFUL << _BIT_SHIFT(IRQn))) |
 80014fa:	4a2f      	ldr	r2, [pc, #188]	; (80015b8 <NVIC_SetPriority+0xd4>)
 80014fc:	1dfb      	adds	r3, r7, #7
 80014fe:	781b      	ldrb	r3, [r3, #0]
 8001500:	0019      	movs	r1, r3
 8001502:	230f      	movs	r3, #15
 8001504:	400b      	ands	r3, r1
 8001506:	3b08      	subs	r3, #8
 8001508:	089b      	lsrs	r3, r3, #2
 800150a:	3306      	adds	r3, #6
 800150c:	009b      	lsls	r3, r3, #2
 800150e:	18d3      	adds	r3, r2, r3
 8001510:	3304      	adds	r3, #4
 8001512:	681b      	ldr	r3, [r3, #0]
 8001514:	1dfa      	adds	r2, r7, #7
 8001516:	7812      	ldrb	r2, [r2, #0]
 8001518:	0011      	movs	r1, r2
 800151a:	2203      	movs	r2, #3
 800151c:	400a      	ands	r2, r1
 800151e:	00d2      	lsls	r2, r2, #3
 8001520:	21ff      	movs	r1, #255	; 0xff
 8001522:	4091      	lsls	r1, r2
 8001524:	000a      	movs	r2, r1
 8001526:	43d2      	mvns	r2, r2
 8001528:	401a      	ands	r2, r3
 800152a:	0011      	movs	r1, r2
       (((priority << (8U - __NVIC_PRIO_BITS)) & (uint32_t)0xFFUL) << _BIT_SHIFT(IRQn)));
 800152c:	683b      	ldr	r3, [r7, #0]
 800152e:	019b      	lsls	r3, r3, #6
 8001530:	22ff      	movs	r2, #255	; 0xff
 8001532:	401a      	ands	r2, r3
 8001534:	1dfb      	adds	r3, r7, #7
 8001536:	781b      	ldrb	r3, [r3, #0]
 8001538:	0018      	movs	r0, r3
 800153a:	2303      	movs	r3, #3
 800153c:	4003      	ands	r3, r0
 800153e:	00db      	lsls	r3, r3, #3
 8001540:	409a      	lsls	r2, r3
    SCB->SHP[_SHP_IDX(IRQn)] = ((uint32_t)(SCB->SHP[_SHP_IDX(IRQn)] & ~(0xFFUL << _BIT_SHIFT(IRQn))) |
 8001542:	481d      	ldr	r0, [pc, #116]	; (80015b8 <NVIC_SetPriority+0xd4>)
 8001544:	1dfb      	adds	r3, r7, #7
 8001546:	781b      	ldrb	r3, [r3, #0]
 8001548:	001c      	movs	r4, r3
 800154a:	230f      	movs	r3, #15
 800154c:	4023      	ands	r3, r4
 800154e:	3b08      	subs	r3, #8
 8001550:	089b      	lsrs	r3, r3, #2
 8001552:	430a      	orrs	r2, r1
 8001554:	3306      	adds	r3, #6
 8001556:	009b      	lsls	r3, r3, #2
 8001558:	18c3      	adds	r3, r0, r3
 800155a:	3304      	adds	r3, #4
 800155c:	601a      	str	r2, [r3, #0]
  else
  {
    NVIC->IP[_IP_IDX(IRQn)]  = ((uint32_t)(NVIC->IP[_IP_IDX(IRQn)]  & ~(0xFFUL << _BIT_SHIFT(IRQn))) |
       (((priority << (8U - __NVIC_PRIO_BITS)) & (uint32_t)0xFFUL) << _BIT_SHIFT(IRQn)));
  }
}
 800155e:	e027      	b.n	80015b0 <NVIC_SetPriority+0xcc>
    NVIC->IP[_IP_IDX(IRQn)]  = ((uint32_t)(NVIC->IP[_IP_IDX(IRQn)]  & ~(0xFFUL << _BIT_SHIFT(IRQn))) |
 8001560:	4a16      	ldr	r2, [pc, #88]	; (80015bc <NVIC_SetPriority+0xd8>)
 8001562:	1dfb      	adds	r3, r7, #7
 8001564:	781b      	ldrb	r3, [r3, #0]
 8001566:	b25b      	sxtb	r3, r3
 8001568:	089b      	lsrs	r3, r3, #2
 800156a:	33c0      	adds	r3, #192	; 0xc0
 800156c:	009b      	lsls	r3, r3, #2
 800156e:	589b      	ldr	r3, [r3, r2]
 8001570:	1dfa      	adds	r2, r7, #7
 8001572:	7812      	ldrb	r2, [r2, #0]
 8001574:	0011      	movs	r1, r2
 8001576:	2203      	movs	r2, #3
 8001578:	400a      	ands	r2, r1
 800157a:	00d2      	lsls	r2, r2, #3
 800157c:	21ff      	movs	r1, #255	; 0xff
 800157e:	4091      	lsls	r1, r2
 8001580:	000a      	movs	r2, r1
 8001582:	43d2      	mvns	r2, r2
 8001584:	401a      	ands	r2, r3
 8001586:	0011      	movs	r1, r2
       (((priority << (8U - __NVIC_PRIO_BITS)) & (uint32_t)0xFFUL) << _BIT_SHIFT(IRQn)));
 8001588:	683b      	ldr	r3, [r7, #0]
 800158a:	019b      	lsls	r3, r3, #6
 800158c:	22ff      	movs	r2, #255	; 0xff
 800158e:	401a      	ands	r2, r3
 8001590:	1dfb      	adds	r3, r7, #7
 8001592:	781b      	ldrb	r3, [r3, #0]
 8001594:	0018      	movs	r0, r3
 8001596:	2303      	movs	r3, #3
 8001598:	4003      	ands	r3, r0
 800159a:	00db      	lsls	r3, r3, #3
 800159c:	409a      	lsls	r2, r3
    NVIC->IP[_IP_IDX(IRQn)]  = ((uint32_t)(NVIC->IP[_IP_IDX(IRQn)]  & ~(0xFFUL << _BIT_SHIFT(IRQn))) |
 800159e:	4807      	ldr	r0, [pc, #28]	; (80015bc <NVIC_SetPriority+0xd8>)
 80015a0:	1dfb      	adds	r3, r7, #7
 80015a2:	781b      	ldrb	r3, [r3, #0]
 80015a4:	b25b      	sxtb	r3, r3
 80015a6:	089b      	lsrs	r3, r3, #2
 80015a8:	430a      	orrs	r2, r1
 80015aa:	33c0      	adds	r3, #192	; 0xc0
 80015ac:	009b      	lsls	r3, r3, #2
 80015ae:	501a      	str	r2, [r3, r0]
}
 80015b0:	46c0      	nop			; (mov r8, r8)
 80015b2:	46bd      	mov	sp, r7
 80015b4:	b003      	add	sp, #12
 80015b6:	bd90      	pop	{r4, r7, pc}
 80015b8:	e000ed00 	.word	0xe000ed00
 80015bc:	e000e100 	.word	0xe000e100

080015c0 <SysTick_Config>:
  \note    When the variable <b>__Vendor_SysTickConfig</b> is set to 1, then the
           function <b>SysTick_Config</b> is not included. In this case, the file <b><i>device</i>.h</b>
           must contain a vendor-specific implementation of this function.
 */
__STATIC_INLINE uint32_t SysTick_Config(uint32_t ticks)
{
 80015c0:	b580      	push	{r7, lr}
 80015c2:	b082      	sub	sp, #8
 80015c4:	af00      	add	r7, sp, #0
 80015c6:	6078      	str	r0, [r7, #4]
  if ((ticks - 1UL) > SysTick_LOAD_RELOAD_Msk)
 80015c8:	687b      	ldr	r3, [r7, #4]
 80015ca:	3b01      	subs	r3, #1
 80015cc:	4a0c      	ldr	r2, [pc, #48]	; (8001600 <SysTick_Config+0x40>)
 80015ce:	4293      	cmp	r3, r2
 80015d0:	d901      	bls.n	80015d6 <SysTick_Config+0x16>
  {
    return (1UL);                                                   /* Reload value impossible */
 80015d2:	2301      	movs	r3, #1
 80015d4:	e010      	b.n	80015f8 <SysTick_Config+0x38>
  }

  SysTick->LOAD  = (uint32_t)(ticks - 1UL);                         /* set reload register */
 80015d6:	4b0b      	ldr	r3, [pc, #44]	; (8001604 <SysTick_Config+0x44>)
 80015d8:	687a      	ldr	r2, [r7, #4]
 80015da:	3a01      	subs	r2, #1
 80015dc:	605a      	str	r2, [r3, #4]
  NVIC_SetPriority (SysTick_IRQn, (1UL << __NVIC_PRIO_BITS) - 1UL); /* set Priority for Systick Interrupt */
 80015de:	2301      	movs	r3, #1
 80015e0:	425b      	negs	r3, r3
 80015e2:	2103      	movs	r1, #3
 80015e4:	0018      	movs	r0, r3
 80015e6:	f7ff ff7d 	bl	80014e4 <NVIC_SetPriority>
  SysTick->VAL   = 0UL;                                             /* Load the SysTick Counter Value */
 80015ea:	4b06      	ldr	r3, [pc, #24]	; (8001604 <SysTick_Config+0x44>)
 80015ec:	2200      	movs	r2, #0
 80015ee:	609a      	str	r2, [r3, #8]
  SysTick->CTRL  = SysTick_CTRL_CLKSOURCE_Msk |
 80015f0:	4b04      	ldr	r3, [pc, #16]	; (8001604 <SysTick_Config+0x44>)
 80015f2:	2207      	movs	r2, #7
 80015f4:	601a      	str	r2, [r3, #0]
                   SysTick_CTRL_TICKINT_Msk   |
                   SysTick_CTRL_ENABLE_Msk;                         /* Enable SysTick IRQ and SysTick Timer */
  return (0UL);                                                     /* Function successful */
 80015f6:	2300      	movs	r3, #0
}
 80015f8:	0018      	movs	r0, r3
 80015fa:	46bd      	mov	sp, r7
 80015fc:	b002      	add	sp, #8
 80015fe:	bd80      	pop	{r7, pc}
 8001600:	00ffffff 	.word	0x00ffffff
 8001604:	e000e010 	.word	0xe000e010

08001608 <HAL_NVIC_SetPriority>:
  *         with stm32l0xx devices, this parameter is a dummy value and it is ignored, because 
  *         no subpriority supported in Cortex M0+ based products.   
  * @retval None
  */
void HAL_NVIC_SetPriority(IRQn_Type IRQn, uint32_t PreemptPriority, uint32_t SubPriority)
{ 
 8001608:	b580      	push	{r7, lr}
 800160a:	b084      	sub	sp, #16
 800160c:	af00      	add	r7, sp, #0
 800160e:	60b9      	str	r1, [r7, #8]
 8001610:	607a      	str	r2, [r7, #4]
 8001612:	210f      	movs	r1, #15
 8001614:	187b      	adds	r3, r7, r1
 8001616:	1c02      	adds	r2, r0, #0
 8001618:	701a      	strb	r2, [r3, #0]
    /* Check the parameters */
  assert_param(IS_NVIC_PREEMPTION_PRIORITY(PreemptPriority));
  NVIC_SetPriority(IRQn,PreemptPriority);
 800161a:	68ba      	ldr	r2, [r7, #8]
 800161c:	187b      	adds	r3, r7, r1
 800161e:	781b      	ldrb	r3, [r3, #0]
 8001620:	b25b      	sxtb	r3, r3
 8001622:	0011      	movs	r1, r2
 8001624:	0018      	movs	r0, r3
 8001626:	f7ff ff5d 	bl	80014e4 <NVIC_SetPriority>
}
 800162a:	46c0      	nop			; (mov r8, r8)
 800162c:	46bd      	mov	sp, r7
 800162e:	b004      	add	sp, #16
 8001630:	bd80      	pop	{r7, pc}

08001632 <HAL_NVIC_EnableIRQ>:
  *         This parameter can be an enumerator of  IRQn_Type enumeration
  *         (For the complete STM32 Devices IRQ Channels list, please refer to stm32l0xx.h file)  
  * @retval None
  */
void HAL_NVIC_EnableIRQ(IRQn_Type IRQn)
{
 8001632:	b580      	push	{r7, lr}
 8001634:	b082      	sub	sp, #8
 8001636:	af00      	add	r7, sp, #0
 8001638:	0002      	movs	r2, r0
 800163a:	1dfb      	adds	r3, r7, #7
 800163c:	701a      	strb	r2, [r3, #0]
  /* Check the parameters */
  assert_param(IS_NVIC_DEVICE_IRQ(IRQn));
  
  /* Enable interrupt */
  NVIC_EnableIRQ(IRQn);
 800163e:	1dfb      	adds	r3, r7, #7
 8001640:	781b      	ldrb	r3, [r3, #0]
 8001642:	b25b      	sxtb	r3, r3
 8001644:	0018      	movs	r0, r3
 8001646:	f7ff ff37 	bl	80014b8 <NVIC_EnableIRQ>
}
 800164a:	46c0      	nop			; (mov r8, r8)
 800164c:	46bd      	mov	sp, r7
 800164e:	b002      	add	sp, #8
 8001650:	bd80      	pop	{r7, pc}

08001652 <HAL_SYSTICK_Config>:
  * @param  TicksNumb Specifies the ticks Number of ticks between two interrupts.
  * @retval status:  - 0  Function succeeded.
  *                  - 1  Function failed.
  */
uint32_t HAL_SYSTICK_Config(uint32_t TicksNumb)
{
 8001652:	b580      	push	{r7, lr}
 8001654:	b082      	sub	sp, #8
 8001656:	af00      	add	r7, sp, #0
 8001658:	6078      	str	r0, [r7, #4]
   return SysTick_Config(TicksNumb);
 800165a:	687b      	ldr	r3, [r7, #4]
 800165c:	0018      	movs	r0, r3
 800165e:	f7ff ffaf 	bl	80015c0 <SysTick_Config>
 8001662:	0003      	movs	r3, r0
}
 8001664:	0018      	movs	r0, r3
 8001666:	46bd      	mov	sp, r7
 8001668:	b002      	add	sp, #8
 800166a:	bd80      	pop	{r7, pc}

0800166c <HAL_DMA_Init>:
  * @param  hdma Pointer to a DMA_HandleTypeDef structure that contains
  *               the configuration information for the specified DMA Channel.
  * @retval HAL status
  */
HAL_StatusTypeDef HAL_DMA_Init(DMA_HandleTypeDef *hdma)
{
 800166c:	b580      	push	{r7, lr}
 800166e:	b084      	sub	sp, #16
 8001670:	af00      	add	r7, sp, #0
 8001672:	6078      	str	r0, [r7, #4]
  uint32_t tmp;

  /* Check the DMA handle allocation */
  if(hdma == NULL)
 8001674:	687b      	ldr	r3, [r7, #4]
 8001676:	2b00      	cmp	r3, #0
 8001678:	d101      	bne.n	800167e <HAL_DMA_Init+0x12>
  {
    return HAL_ERROR;
 800167a:	2301      	movs	r3, #1
 800167c:	e061      	b.n	8001742 <HAL_DMA_Init+0xd6>
  assert_param(IS_DMA_MODE(hdma->Init.Mode));
  assert_param(IS_DMA_PRIORITY(hdma->Init.Priority));

  /* Compute the channel index */
  /* Only one DMA: DMA1 */
  hdma->ChannelIndex = (((uint32_t)hdma->Instance - (uint32_t)DMA1_Channel1) / ((uint32_t)DMA1_Channel2 - (uint32_t)DMA1_Channel1)) << 2;
 800167e:	687b      	ldr	r3, [r7, #4]
 8001680:	681b      	ldr	r3, [r3, #0]
 8001682:	4a32      	ldr	r2, [pc, #200]	; (800174c <HAL_DMA_Init+0xe0>)
 8001684:	4694      	mov	ip, r2
 8001686:	4463      	add	r3, ip
 8001688:	2114      	movs	r1, #20
 800168a:	0018      	movs	r0, r3
 800168c:	f7fe fd3c 	bl	8000108 <__udivsi3>
 8001690:	0003      	movs	r3, r0
 8001692:	009a      	lsls	r2, r3, #2
 8001694:	687b      	ldr	r3, [r7, #4]
 8001696:	645a      	str	r2, [r3, #68]	; 0x44
  hdma->DmaBaseAddress = DMA1;
 8001698:	687b      	ldr	r3, [r7, #4]
 800169a:	4a2d      	ldr	r2, [pc, #180]	; (8001750 <HAL_DMA_Init+0xe4>)
 800169c:	641a      	str	r2, [r3, #64]	; 0x40

  /* Change DMA peripheral state */
  hdma->State = HAL_DMA_STATE_BUSY;
 800169e:	687b      	ldr	r3, [r7, #4]
 80016a0:	2225      	movs	r2, #37	; 0x25
 80016a2:	2102      	movs	r1, #2
 80016a4:	5499      	strb	r1, [r3, r2]

  /* Get the CR register value */
  tmp = hdma->Instance->CCR;
 80016a6:	687b      	ldr	r3, [r7, #4]
 80016a8:	681b      	ldr	r3, [r3, #0]
 80016aa:	681b      	ldr	r3, [r3, #0]
 80016ac:	60fb      	str	r3, [r7, #12]

  /* Clear PL, MSIZE, PSIZE, MINC, PINC, CIRC, DIR and MEM2MEM bits */
  tmp &= ((uint32_t)~(DMA_CCR_PL    | DMA_CCR_MSIZE  | DMA_CCR_PSIZE  |
 80016ae:	68fb      	ldr	r3, [r7, #12]
 80016b0:	4a28      	ldr	r2, [pc, #160]	; (8001754 <HAL_DMA_Init+0xe8>)
 80016b2:	4013      	ands	r3, r2
 80016b4:	60fb      	str	r3, [r7, #12]
                      DMA_CCR_MINC  | DMA_CCR_PINC   | DMA_CCR_CIRC   |
                      DMA_CCR_DIR   | DMA_CCR_MEM2MEM));

  /* Prepare the DMA Channel configuration */
  tmp |=  hdma->Init.Direction        |
 80016b6:	687b      	ldr	r3, [r7, #4]
 80016b8:	689a      	ldr	r2, [r3, #8]
          hdma->Init.PeriphInc           | hdma->Init.MemInc           |
 80016ba:	687b      	ldr	r3, [r7, #4]
 80016bc:	68db      	ldr	r3, [r3, #12]
  tmp |=  hdma->Init.Direction        |
 80016be:	431a      	orrs	r2, r3
          hdma->Init.PeriphInc           | hdma->Init.MemInc           |
 80016c0:	687b      	ldr	r3, [r7, #4]
 80016c2:	691b      	ldr	r3, [r3, #16]
 80016c4:	431a      	orrs	r2, r3
          hdma->Init.PeriphDataAlignment | hdma->Init.MemDataAlignment |
 80016c6:	687b      	ldr	r3, [r7, #4]
 80016c8:	695b      	ldr	r3, [r3, #20]
          hdma->Init.PeriphInc           | hdma->Init.MemInc           |
 80016ca:	431a      	orrs	r2, r3
          hdma->Init.PeriphDataAlignment | hdma->Init.MemDataAlignment |
 80016cc:	687b      	ldr	r3, [r7, #4]
 80016ce:	699b      	ldr	r3, [r3, #24]
 80016d0:	431a      	orrs	r2, r3
          hdma->Init.Mode                | hdma->Init.Priority;
 80016d2:	687b      	ldr	r3, [r7, #4]
 80016d4:	69db      	ldr	r3, [r3, #28]
          hdma->Init.PeriphDataAlignment | hdma->Init.MemDataAlignment |
 80016d6:	431a      	orrs	r2, r3
          hdma->Init.Mode                | hdma->Init.Priority;
 80016d8:	687b      	ldr	r3, [r7, #4]
 80016da:	6a1b      	ldr	r3, [r3, #32]
 80016dc:	4313      	orrs	r3, r2
  tmp |=  hdma->Init.Direction        |
 80016de:	68fa      	ldr	r2, [r7, #12]
 80016e0:	4313      	orrs	r3, r2
 80016e2:	60fb      	str	r3, [r7, #12]

  /* Write to DMA Channel CR register */
  hdma->Instance->CCR = tmp;
 80016e4:	687b      	ldr	r3, [r7, #4]
 80016e6:	681b      	ldr	r3, [r3, #0]
 80016e8:	68fa      	ldr	r2, [r7, #12]
 80016ea:	601a      	str	r2, [r3, #0]

  /* Set request selection */
  if(hdma->Init.Direction != DMA_MEMORY_TO_MEMORY)
 80016ec:	687b      	ldr	r3, [r7, #4]
 80016ee:	689a      	ldr	r2, [r3, #8]
 80016f0:	2380      	movs	r3, #128	; 0x80
 80016f2:	01db      	lsls	r3, r3, #7
 80016f4:	429a      	cmp	r2, r3
 80016f6:	d018      	beq.n	800172a <HAL_DMA_Init+0xbe>
  {
    /* Write to DMA channel selection register */
    /* Reset request selection for DMA1 Channelx */
    DMA1_CSELR->CSELR &= ~(DMA_CSELR_C1S << (hdma->ChannelIndex & 0x1cU));
 80016f8:	4b17      	ldr	r3, [pc, #92]	; (8001758 <HAL_DMA_Init+0xec>)
 80016fa:	681a      	ldr	r2, [r3, #0]
 80016fc:	687b      	ldr	r3, [r7, #4]
 80016fe:	6c5b      	ldr	r3, [r3, #68]	; 0x44
 8001700:	211c      	movs	r1, #28
 8001702:	400b      	ands	r3, r1
 8001704:	210f      	movs	r1, #15
 8001706:	4099      	lsls	r1, r3
 8001708:	000b      	movs	r3, r1
 800170a:	43d9      	mvns	r1, r3
 800170c:	4b12      	ldr	r3, [pc, #72]	; (8001758 <HAL_DMA_Init+0xec>)
 800170e:	400a      	ands	r2, r1
 8001710:	601a      	str	r2, [r3, #0]

    /* Configure request selection for DMA1 Channelx */
    DMA1_CSELR->CSELR |= (uint32_t) (hdma->Init.Request << (hdma->ChannelIndex & 0x1cU));
 8001712:	4b11      	ldr	r3, [pc, #68]	; (8001758 <HAL_DMA_Init+0xec>)
 8001714:	6819      	ldr	r1, [r3, #0]
 8001716:	687b      	ldr	r3, [r7, #4]
 8001718:	685a      	ldr	r2, [r3, #4]
 800171a:	687b      	ldr	r3, [r7, #4]
 800171c:	6c5b      	ldr	r3, [r3, #68]	; 0x44
 800171e:	201c      	movs	r0, #28
 8001720:	4003      	ands	r3, r0
 8001722:	409a      	lsls	r2, r3
 8001724:	4b0c      	ldr	r3, [pc, #48]	; (8001758 <HAL_DMA_Init+0xec>)
 8001726:	430a      	orrs	r2, r1
 8001728:	601a      	str	r2, [r3, #0]
  }

  /* Initialise the error code */
  hdma->ErrorCode = HAL_DMA_ERROR_NONE;
 800172a:	687b      	ldr	r3, [r7, #4]
 800172c:	2200      	movs	r2, #0
 800172e:	63da      	str	r2, [r3, #60]	; 0x3c

  /* Initialize the DMA state*/
  hdma->State  = HAL_DMA_STATE_READY;
 8001730:	687b      	ldr	r3, [r7, #4]
 8001732:	2225      	movs	r2, #37	; 0x25
 8001734:	2101      	movs	r1, #1
 8001736:	5499      	strb	r1, [r3, r2]

  /* Allocate lock resource and initialize it */
  hdma->Lock = HAL_UNLOCKED;
 8001738:	687b      	ldr	r3, [r7, #4]
 800173a:	2224      	movs	r2, #36	; 0x24
 800173c:	2100      	movs	r1, #0
 800173e:	5499      	strb	r1, [r3, r2]

  return HAL_OK;
 8001740:	2300      	movs	r3, #0
}
 8001742:	0018      	movs	r0, r3
 8001744:	46bd      	mov	sp, r7
 8001746:	b004      	add	sp, #16
 8001748:	bd80      	pop	{r7, pc}
 800174a:	46c0      	nop			; (mov r8, r8)
 800174c:	bffdfff8 	.word	0xbffdfff8
 8001750:	40020000 	.word	0x40020000
 8001754:	ffff800f 	.word	0xffff800f
 8001758:	400200a8 	.word	0x400200a8

0800175c <HAL_DMA_Start_IT>:
  * @param  DstAddress The destination memory Buffer address
  * @param  DataLength The length of data to be transferred from source to destination
  * @retval HAL status
  */
HAL_StatusTypeDef HAL_DMA_Start_IT(DMA_HandleTypeDef *hdma, uint32_t SrcAddress, uint32_t DstAddress, uint32_t DataLength)
{
 800175c:	b580      	push	{r7, lr}
 800175e:	b086      	sub	sp, #24
 8001760:	af00      	add	r7, sp, #0
 8001762:	60f8      	str	r0, [r7, #12]
 8001764:	60b9      	str	r1, [r7, #8]
 8001766:	607a      	str	r2, [r7, #4]
 8001768:	603b      	str	r3, [r7, #0]
  HAL_StatusTypeDef status = HAL_OK;
 800176a:	2317      	movs	r3, #23
 800176c:	18fb      	adds	r3, r7, r3
 800176e:	2200      	movs	r2, #0
 8001770:	701a      	strb	r2, [r3, #0]

  /* Check the parameters */
  assert_param(IS_DMA_BUFFER_SIZE(DataLength));

  /* Process locked */
  __HAL_LOCK(hdma);
 8001772:	68fb      	ldr	r3, [r7, #12]
 8001774:	2224      	movs	r2, #36	; 0x24
 8001776:	5c9b      	ldrb	r3, [r3, r2]
 8001778:	2b01      	cmp	r3, #1
 800177a:	d101      	bne.n	8001780 <HAL_DMA_Start_IT+0x24>
 800177c:	2302      	movs	r3, #2
 800177e:	e04f      	b.n	8001820 <HAL_DMA_Start_IT+0xc4>
 8001780:	68fb      	ldr	r3, [r7, #12]
 8001782:	2224      	movs	r2, #36	; 0x24
 8001784:	2101      	movs	r1, #1
 8001786:	5499      	strb	r1, [r3, r2]

  if(HAL_DMA_STATE_READY == hdma->State)
 8001788:	68fb      	ldr	r3, [r7, #12]
 800178a:	2225      	movs	r2, #37	; 0x25
 800178c:	5c9b      	ldrb	r3, [r3, r2]
 800178e:	b2db      	uxtb	r3, r3
 8001790:	2b01      	cmp	r3, #1
 8001792:	d13a      	bne.n	800180a <HAL_DMA_Start_IT+0xae>
  {
    /* Change DMA peripheral state */
    hdma->State = HAL_DMA_STATE_BUSY;
 8001794:	68fb      	ldr	r3, [r7, #12]
 8001796:	2225      	movs	r2, #37	; 0x25
 8001798:	2102      	movs	r1, #2
 800179a:	5499      	strb	r1, [r3, r2]
    hdma->ErrorCode = HAL_DMA_ERROR_NONE;
 800179c:	68fb      	ldr	r3, [r7, #12]
 800179e:	2200      	movs	r2, #0
 80017a0:	63da      	str	r2, [r3, #60]	; 0x3c

    /* Disable the peripheral */
    __HAL_DMA_DISABLE(hdma);
 80017a2:	68fb      	ldr	r3, [r7, #12]
 80017a4:	681b      	ldr	r3, [r3, #0]
 80017a6:	681a      	ldr	r2, [r3, #0]
 80017a8:	68fb      	ldr	r3, [r7, #12]
 80017aa:	681b      	ldr	r3, [r3, #0]
 80017ac:	2101      	movs	r1, #1
 80017ae:	438a      	bics	r2, r1
 80017b0:	601a      	str	r2, [r3, #0]

    /* Configure the source, destination address and the data length & clear flags*/
    DMA_SetConfig(hdma, SrcAddress, DstAddress, DataLength);
 80017b2:	683b      	ldr	r3, [r7, #0]
 80017b4:	687a      	ldr	r2, [r7, #4]
 80017b6:	68b9      	ldr	r1, [r7, #8]
 80017b8:	68f8      	ldr	r0, [r7, #12]
 80017ba:	f000 f8e3 	bl	8001984 <DMA_SetConfig>

    /* Enable the transfer complete interrupt */
    /* Enable the transfer Error interrupt */
    if(NULL != hdma->XferHalfCpltCallback )
 80017be:	68fb      	ldr	r3, [r7, #12]
 80017c0:	6b1b      	ldr	r3, [r3, #48]	; 0x30
 80017c2:	2b00      	cmp	r3, #0
 80017c4:	d008      	beq.n	80017d8 <HAL_DMA_Start_IT+0x7c>
    {
      /* Enable the Half transfer complete interrupt as well */
      __HAL_DMA_ENABLE_IT(hdma, (DMA_IT_TC | DMA_IT_HT | DMA_IT_TE));
 80017c6:	68fb      	ldr	r3, [r7, #12]
 80017c8:	681b      	ldr	r3, [r3, #0]
 80017ca:	681a      	ldr	r2, [r3, #0]
 80017cc:	68fb      	ldr	r3, [r7, #12]
 80017ce:	681b      	ldr	r3, [r3, #0]
 80017d0:	210e      	movs	r1, #14
 80017d2:	430a      	orrs	r2, r1
 80017d4:	601a      	str	r2, [r3, #0]
 80017d6:	e00f      	b.n	80017f8 <HAL_DMA_Start_IT+0x9c>
    }
    else
    {
      __HAL_DMA_DISABLE_IT(hdma, DMA_IT_HT);
 80017d8:	68fb      	ldr	r3, [r7, #12]
 80017da:	681b      	ldr	r3, [r3, #0]
 80017dc:	681a      	ldr	r2, [r3, #0]
 80017de:	68fb      	ldr	r3, [r7, #12]
 80017e0:	681b      	ldr	r3, [r3, #0]
 80017e2:	2104      	movs	r1, #4
 80017e4:	438a      	bics	r2, r1
 80017e6:	601a      	str	r2, [r3, #0]
      __HAL_DMA_ENABLE_IT(hdma, (DMA_IT_TC | DMA_IT_TE));
 80017e8:	68fb      	ldr	r3, [r7, #12]
 80017ea:	681b      	ldr	r3, [r3, #0]
 80017ec:	681a      	ldr	r2, [r3, #0]
 80017ee:	68fb      	ldr	r3, [r7, #12]
 80017f0:	681b      	ldr	r3, [r3, #0]
 80017f2:	210a      	movs	r1, #10
 80017f4:	430a      	orrs	r2, r1
 80017f6:	601a      	str	r2, [r3, #0]
    }

    /* Enable the Peripheral */
    __HAL_DMA_ENABLE(hdma);
 80017f8:	68fb      	ldr	r3, [r7, #12]
 80017fa:	681b      	ldr	r3, [r3, #0]
 80017fc:	681a      	ldr	r2, [r3, #0]
 80017fe:	68fb      	ldr	r3, [r7, #12]
 8001800:	681b      	ldr	r3, [r3, #0]
 8001802:	2101      	movs	r1, #1
 8001804:	430a      	orrs	r2, r1
 8001806:	601a      	str	r2, [r3, #0]
 8001808:	e007      	b.n	800181a <HAL_DMA_Start_IT+0xbe>
  }
  else
  {
    /* Process Unlocked */
    __HAL_UNLOCK(hdma);
 800180a:	68fb      	ldr	r3, [r7, #12]
 800180c:	2224      	movs	r2, #36	; 0x24
 800180e:	2100      	movs	r1, #0
 8001810:	5499      	strb	r1, [r3, r2]

    /* Remain BUSY */
    status = HAL_BUSY;
 8001812:	2317      	movs	r3, #23
 8001814:	18fb      	adds	r3, r7, r3
 8001816:	2202      	movs	r2, #2
 8001818:	701a      	strb	r2, [r3, #0]
  }
  return status;
 800181a:	2317      	movs	r3, #23
 800181c:	18fb      	adds	r3, r7, r3
 800181e:	781b      	ldrb	r3, [r3, #0]
}
 8001820:	0018      	movs	r0, r3
 8001822:	46bd      	mov	sp, r7
 8001824:	b006      	add	sp, #24
 8001826:	bd80      	pop	{r7, pc}

08001828 <HAL_DMA_IRQHandler>:
  * @param  hdma pointer to a DMA_HandleTypeDef structure that contains
  *               the configuration information for the specified DMA Channel.
  * @retval None
  */
void HAL_DMA_IRQHandler(DMA_HandleTypeDef *hdma)
{
 8001828:	b580      	push	{r7, lr}
 800182a:	b084      	sub	sp, #16
 800182c:	af00      	add	r7, sp, #0
 800182e:	6078      	str	r0, [r7, #4]
  uint32_t flag_it = hdma->DmaBaseAddress->ISR;
 8001830:	687b      	ldr	r3, [r7, #4]
 8001832:	6c1b      	ldr	r3, [r3, #64]	; 0x40
 8001834:	681b      	ldr	r3, [r3, #0]
 8001836:	60fb      	str	r3, [r7, #12]
  uint32_t source_it = hdma->Instance->CCR;
 8001838:	687b      	ldr	r3, [r7, #4]
 800183a:	681b      	ldr	r3, [r3, #0]
 800183c:	681b      	ldr	r3, [r3, #0]
 800183e:	60bb      	str	r3, [r7, #8]

  /* Half Transfer Complete Interrupt management ******************************/
  if ((0U != (flag_it & (DMA_FLAG_HT1 << (hdma->ChannelIndex & 0x1cU)))) && (0U != (source_it & DMA_IT_HT)))
 8001840:	687b      	ldr	r3, [r7, #4]
 8001842:	6c5b      	ldr	r3, [r3, #68]	; 0x44
 8001844:	221c      	movs	r2, #28
 8001846:	4013      	ands	r3, r2
 8001848:	2204      	movs	r2, #4
 800184a:	409a      	lsls	r2, r3
 800184c:	0013      	movs	r3, r2
 800184e:	68fa      	ldr	r2, [r7, #12]
 8001850:	4013      	ands	r3, r2
 8001852:	d026      	beq.n	80018a2 <HAL_DMA_IRQHandler+0x7a>
 8001854:	68bb      	ldr	r3, [r7, #8]
 8001856:	2204      	movs	r2, #4
 8001858:	4013      	ands	r3, r2
 800185a:	d022      	beq.n	80018a2 <HAL_DMA_IRQHandler+0x7a>
  {
      /* Disable the half transfer interrupt if the DMA mode is not CIRCULAR */
      if((hdma->Instance->CCR & DMA_CCR_CIRC) == 0U)
 800185c:	687b      	ldr	r3, [r7, #4]
 800185e:	681b      	ldr	r3, [r3, #0]
 8001860:	681b      	ldr	r3, [r3, #0]
 8001862:	2220      	movs	r2, #32
 8001864:	4013      	ands	r3, r2
 8001866:	d107      	bne.n	8001878 <HAL_DMA_IRQHandler+0x50>
      {
        /* Disable the half transfer interrupt */
        __HAL_DMA_DISABLE_IT(hdma, DMA_IT_HT);
 8001868:	687b      	ldr	r3, [r7, #4]
 800186a:	681b      	ldr	r3, [r3, #0]
 800186c:	681a      	ldr	r2, [r3, #0]
 800186e:	687b      	ldr	r3, [r7, #4]
 8001870:	681b      	ldr	r3, [r3, #0]
 8001872:	2104      	movs	r1, #4
 8001874:	438a      	bics	r2, r1
 8001876:	601a      	str	r2, [r3, #0]
      }
      /* Clear the half transfer complete flag */
      hdma->DmaBaseAddress->IFCR = DMA_ISR_HTIF1 << (hdma->ChannelIndex & 0x1cU);
 8001878:	687b      	ldr	r3, [r7, #4]
 800187a:	6c5b      	ldr	r3, [r3, #68]	; 0x44
 800187c:	221c      	movs	r2, #28
 800187e:	401a      	ands	r2, r3
 8001880:	687b      	ldr	r3, [r7, #4]
 8001882:	6c1b      	ldr	r3, [r3, #64]	; 0x40
 8001884:	2104      	movs	r1, #4
 8001886:	4091      	lsls	r1, r2
 8001888:	000a      	movs	r2, r1
 800188a:	605a      	str	r2, [r3, #4]

      /* DMA peripheral state is not updated in Half Transfer */
      /* but in Transfer Complete case */

     if(hdma->XferHalfCpltCallback != NULL)
 800188c:	687b      	ldr	r3, [r7, #4]
 800188e:	6b1b      	ldr	r3, [r3, #48]	; 0x30
 8001890:	2b00      	cmp	r3, #0
 8001892:	d100      	bne.n	8001896 <HAL_DMA_IRQHandler+0x6e>
 8001894:	e071      	b.n	800197a <HAL_DMA_IRQHandler+0x152>
      {
        /* Half transfer callback */
        hdma->XferHalfCpltCallback(hdma);
 8001896:	687b      	ldr	r3, [r7, #4]
 8001898:	6b1b      	ldr	r3, [r3, #48]	; 0x30
 800189a:	687a      	ldr	r2, [r7, #4]
 800189c:	0010      	movs	r0, r2
 800189e:	4798      	blx	r3
     if(hdma->XferHalfCpltCallback != NULL)
 80018a0:	e06b      	b.n	800197a <HAL_DMA_IRQHandler+0x152>
      }
  }

  /* Transfer Complete Interrupt management ***********************************/
  else if ((0U != (flag_it & (DMA_FLAG_TC1 << (hdma->ChannelIndex & 0x1cU)))) && (0U != (source_it & DMA_IT_TC)))
 80018a2:	687b      	ldr	r3, [r7, #4]
 80018a4:	6c5b      	ldr	r3, [r3, #68]	; 0x44
 80018a6:	221c      	movs	r2, #28
 80018a8:	4013      	ands	r3, r2
 80018aa:	2202      	movs	r2, #2
 80018ac:	409a      	lsls	r2, r3
 80018ae:	0013      	movs	r3, r2
 80018b0:	68fa      	ldr	r2, [r7, #12]
 80018b2:	4013      	ands	r3, r2
 80018b4:	d02d      	beq.n	8001912 <HAL_DMA_IRQHandler+0xea>
 80018b6:	68bb      	ldr	r3, [r7, #8]
 80018b8:	2202      	movs	r2, #2
 80018ba:	4013      	ands	r3, r2
 80018bc:	d029      	beq.n	8001912 <HAL_DMA_IRQHandler+0xea>
  {
    if((hdma->Instance->CCR & DMA_CCR_CIRC) == 0U)
 80018be:	687b      	ldr	r3, [r7, #4]
 80018c0:	681b      	ldr	r3, [r3, #0]
 80018c2:	681b      	ldr	r3, [r3, #0]
 80018c4:	2220      	movs	r2, #32
 80018c6:	4013      	ands	r3, r2
 80018c8:	d10b      	bne.n	80018e2 <HAL_DMA_IRQHandler+0xba>
    {
      /* Disable the transfer complete and error interrupt */
      __HAL_DMA_DISABLE_IT(hdma, DMA_IT_TE | DMA_IT_TC);
 80018ca:	687b      	ldr	r3, [r7, #4]
 80018cc:	681b      	ldr	r3, [r3, #0]
 80018ce:	681a      	ldr	r2, [r3, #0]
 80018d0:	687b      	ldr	r3, [r7, #4]
 80018d2:	681b      	ldr	r3, [r3, #0]
 80018d4:	210a      	movs	r1, #10
 80018d6:	438a      	bics	r2, r1
 80018d8:	601a      	str	r2, [r3, #0]

      /* Change the DMA state */
      hdma->State = HAL_DMA_STATE_READY;
 80018da:	687b      	ldr	r3, [r7, #4]
 80018dc:	2225      	movs	r2, #37	; 0x25
 80018de:	2101      	movs	r1, #1
 80018e0:	5499      	strb	r1, [r3, r2]
    }
    /* Clear the transfer complete flag */
    hdma->DmaBaseAddress->IFCR = (DMA_ISR_TCIF1 << (hdma->ChannelIndex & 0x1cU));
 80018e2:	687b      	ldr	r3, [r7, #4]
 80018e4:	6c5b      	ldr	r3, [r3, #68]	; 0x44
 80018e6:	221c      	movs	r2, #28
 80018e8:	401a      	ands	r2, r3
 80018ea:	687b      	ldr	r3, [r7, #4]
 80018ec:	6c1b      	ldr	r3, [r3, #64]	; 0x40
 80018ee:	2102      	movs	r1, #2
 80018f0:	4091      	lsls	r1, r2
 80018f2:	000a      	movs	r2, r1
 80018f4:	605a      	str	r2, [r3, #4]

    /* Process Unlocked */
    __HAL_UNLOCK(hdma);
 80018f6:	687b      	ldr	r3, [r7, #4]
 80018f8:	2224      	movs	r2, #36	; 0x24
 80018fa:	2100      	movs	r1, #0
 80018fc:	5499      	strb	r1, [r3, r2]

    if(hdma->XferCpltCallback != NULL)
 80018fe:	687b      	ldr	r3, [r7, #4]
 8001900:	6adb      	ldr	r3, [r3, #44]	; 0x2c
 8001902:	2b00      	cmp	r3, #0
 8001904:	d039      	beq.n	800197a <HAL_DMA_IRQHandler+0x152>
    {
      /* Transfer complete callback */
      hdma->XferCpltCallback(hdma);
 8001906:	687b      	ldr	r3, [r7, #4]
 8001908:	6adb      	ldr	r3, [r3, #44]	; 0x2c
 800190a:	687a      	ldr	r2, [r7, #4]
 800190c:	0010      	movs	r0, r2
 800190e:	4798      	blx	r3
    if(hdma->XferCpltCallback != NULL)
 8001910:	e033      	b.n	800197a <HAL_DMA_IRQHandler+0x152>
    }
  }

  /* Transfer Error Interrupt management **************************************/
  else if ((0U != (flag_it & (DMA_FLAG_TE1 << (hdma->ChannelIndex & 0x1cU)))) && (0U != (source_it & DMA_IT_TE)))
 8001912:	687b      	ldr	r3, [r7, #4]
 8001914:	6c5b      	ldr	r3, [r3, #68]	; 0x44
 8001916:	221c      	movs	r2, #28
 8001918:	4013      	ands	r3, r2
 800191a:	2208      	movs	r2, #8
 800191c:	409a      	lsls	r2, r3
 800191e:	0013      	movs	r3, r2
 8001920:	68fa      	ldr	r2, [r7, #12]
 8001922:	4013      	ands	r3, r2
 8001924:	d02a      	beq.n	800197c <HAL_DMA_IRQHandler+0x154>
 8001926:	68bb      	ldr	r3, [r7, #8]
 8001928:	2208      	movs	r2, #8
 800192a:	4013      	ands	r3, r2
 800192c:	d026      	beq.n	800197c <HAL_DMA_IRQHandler+0x154>
  {
    /* When a DMA transfer error occurs */
    /* A hardware clear of its EN bits is performed */
    /* Disable ALL DMA IT */
    __HAL_DMA_DISABLE_IT(hdma, (DMA_IT_TC | DMA_IT_HT | DMA_IT_TE));
 800192e:	687b      	ldr	r3, [r7, #4]
 8001930:	681b      	ldr	r3, [r3, #0]
 8001932:	681a      	ldr	r2, [r3, #0]
 8001934:	687b      	ldr	r3, [r7, #4]
 8001936:	681b      	ldr	r3, [r3, #0]
 8001938:	210e      	movs	r1, #14
 800193a:	438a      	bics	r2, r1
 800193c:	601a      	str	r2, [r3, #0]

    /* Clear all flags */
    hdma->DmaBaseAddress->IFCR = (DMA_ISR_GIF1 << (hdma->ChannelIndex & 0x1cU));
 800193e:	687b      	ldr	r3, [r7, #4]
 8001940:	6c5b      	ldr	r3, [r3, #68]	; 0x44
 8001942:	221c      	movs	r2, #28
 8001944:	401a      	ands	r2, r3
 8001946:	687b      	ldr	r3, [r7, #4]
 8001948:	6c1b      	ldr	r3, [r3, #64]	; 0x40
 800194a:	2101      	movs	r1, #1
 800194c:	4091      	lsls	r1, r2
 800194e:	000a      	movs	r2, r1
 8001950:	605a      	str	r2, [r3, #4]

    /* Update error code */
    hdma->ErrorCode = HAL_DMA_ERROR_TE;
 8001952:	687b      	ldr	r3, [r7, #4]
 8001954:	2201      	movs	r2, #1
 8001956:	63da      	str	r2, [r3, #60]	; 0x3c

    /* Change the DMA state */
    hdma->State = HAL_DMA_STATE_READY;
 8001958:	687b      	ldr	r3, [r7, #4]
 800195a:	2225      	movs	r2, #37	; 0x25
 800195c:	2101      	movs	r1, #1
 800195e:	5499      	strb	r1, [r3, r2]

    /* Process Unlocked */
    __HAL_UNLOCK(hdma);
 8001960:	687b      	ldr	r3, [r7, #4]
 8001962:	2224      	movs	r2, #36	; 0x24
 8001964:	2100      	movs	r1, #0
 8001966:	5499      	strb	r1, [r3, r2]

    if (hdma->XferErrorCallback != NULL)
 8001968:	687b      	ldr	r3, [r7, #4]
 800196a:	6b5b      	ldr	r3, [r3, #52]	; 0x34
 800196c:	2b00      	cmp	r3, #0
 800196e:	d005      	beq.n	800197c <HAL_DMA_IRQHandler+0x154>
    {
      /* Transfer error callback */
      hdma->XferErrorCallback(hdma);
 8001970:	687b      	ldr	r3, [r7, #4]
 8001972:	6b5b      	ldr	r3, [r3, #52]	; 0x34
 8001974:	687a      	ldr	r2, [r7, #4]
 8001976:	0010      	movs	r0, r2
 8001978:	4798      	blx	r3
  }
  else
  {
    /* Nothing To Do */
  }
  return;
 800197a:	46c0      	nop			; (mov r8, r8)
 800197c:	46c0      	nop			; (mov r8, r8)
}
 800197e:	46bd      	mov	sp, r7
 8001980:	b004      	add	sp, #16
 8001982:	bd80      	pop	{r7, pc}

08001984 <DMA_SetConfig>:
  * @param  DstAddress The destination memory Buffer address
  * @param  DataLength The length of data to be transferred from source to destination
  * @retval HAL status
  */
static void DMA_SetConfig(DMA_HandleTypeDef *hdma, uint32_t SrcAddress, uint32_t DstAddress, uint32_t DataLength)
{
 8001984:	b580      	push	{r7, lr}
 8001986:	b084      	sub	sp, #16
 8001988:	af00      	add	r7, sp, #0
 800198a:	60f8      	str	r0, [r7, #12]
 800198c:	60b9      	str	r1, [r7, #8]
 800198e:	607a      	str	r2, [r7, #4]
 8001990:	603b      	str	r3, [r7, #0]
  /* Clear all flags */
  hdma->DmaBaseAddress->IFCR = (DMA_ISR_GIF1 << (hdma->ChannelIndex & 0x1cU));
 8001992:	68fb      	ldr	r3, [r7, #12]
 8001994:	6c5b      	ldr	r3, [r3, #68]	; 0x44
 8001996:	221c      	movs	r2, #28
 8001998:	401a      	ands	r2, r3
 800199a:	68fb      	ldr	r3, [r7, #12]
 800199c:	6c1b      	ldr	r3, [r3, #64]	; 0x40
 800199e:	2101      	movs	r1, #1
 80019a0:	4091      	lsls	r1, r2
 80019a2:	000a      	movs	r2, r1
 80019a4:	605a      	str	r2, [r3, #4]

  /* Configure DMA Channel data length */
  hdma->Instance->CNDTR = DataLength;
 80019a6:	68fb      	ldr	r3, [r7, #12]
 80019a8:	681b      	ldr	r3, [r3, #0]
 80019aa:	683a      	ldr	r2, [r7, #0]
 80019ac:	605a      	str	r2, [r3, #4]

  /* Memory to Peripheral */
  if((hdma->Init.Direction) == DMA_MEMORY_TO_PERIPH)
 80019ae:	68fb      	ldr	r3, [r7, #12]
 80019b0:	689b      	ldr	r3, [r3, #8]
 80019b2:	2b10      	cmp	r3, #16
 80019b4:	d108      	bne.n	80019c8 <DMA_SetConfig+0x44>
  {
    /* Configure DMA Channel destination address */
    hdma->Instance->CPAR = DstAddress;
 80019b6:	68fb      	ldr	r3, [r7, #12]
 80019b8:	681b      	ldr	r3, [r3, #0]
 80019ba:	687a      	ldr	r2, [r7, #4]
 80019bc:	609a      	str	r2, [r3, #8]

    /* Configure DMA Channel source address */
    hdma->Instance->CMAR = SrcAddress;
 80019be:	68fb      	ldr	r3, [r7, #12]
 80019c0:	681b      	ldr	r3, [r3, #0]
 80019c2:	68ba      	ldr	r2, [r7, #8]
 80019c4:	60da      	str	r2, [r3, #12]
    hdma->Instance->CPAR = SrcAddress;

    /* Configure DMA Channel destination address */
    hdma->Instance->CMAR = DstAddress;
  }
}
 80019c6:	e007      	b.n	80019d8 <DMA_SetConfig+0x54>
    hdma->Instance->CPAR = SrcAddress;
 80019c8:	68fb      	ldr	r3, [r7, #12]
 80019ca:	681b      	ldr	r3, [r3, #0]
 80019cc:	68ba      	ldr	r2, [r7, #8]
 80019ce:	609a      	str	r2, [r3, #8]
    hdma->Instance->CMAR = DstAddress;
 80019d0:	68fb      	ldr	r3, [r7, #12]
 80019d2:	681b      	ldr	r3, [r3, #0]
 80019d4:	687a      	ldr	r2, [r7, #4]
 80019d6:	60da      	str	r2, [r3, #12]
}
 80019d8:	46c0      	nop			; (mov r8, r8)
 80019da:	46bd      	mov	sp, r7
 80019dc:	b004      	add	sp, #16
 80019de:	bd80      	pop	{r7, pc}

080019e0 <HAL_GPIO_Init>:
  * @param  GPIO_Init pointer to a GPIO_InitTypeDef structure that contains
  *                    the configuration information for the specified GPIO peripheral.
  * @retval None
  */
void HAL_GPIO_Init(GPIO_TypeDef  *GPIOx, GPIO_InitTypeDef *GPIO_Init)
{
 80019e0:	b580      	push	{r7, lr}
 80019e2:	b086      	sub	sp, #24
 80019e4:	af00      	add	r7, sp, #0
 80019e6:	6078      	str	r0, [r7, #4]
 80019e8:	6039      	str	r1, [r7, #0]
  uint32_t position = 0x00U;
 80019ea:	2300      	movs	r3, #0
 80019ec:	617b      	str	r3, [r7, #20]
  uint32_t iocurrent = 0x00U;
 80019ee:	2300      	movs	r3, #0
 80019f0:	60fb      	str	r3, [r7, #12]
  uint32_t temp = 0x00U;
 80019f2:	2300      	movs	r3, #0
 80019f4:	613b      	str	r3, [r7, #16]
  assert_param(IS_GPIO_MODE(GPIO_Init->Mode));
  assert_param(IS_GPIO_PULL(GPIO_Init->Pull));
  assert_param(IS_GPIO_PIN_AVAILABLE(GPIOx,(GPIO_Init->Pin)));

  /* Configure the port pins */
  while (((GPIO_Init->Pin) >> position) != 0)
 80019f6:	e143      	b.n	8001c80 <HAL_GPIO_Init+0x2a0>
  {
    /* Get the IO position */
    iocurrent = (GPIO_Init->Pin) & (1U << position);
 80019f8:	683b      	ldr	r3, [r7, #0]
 80019fa:	681b      	ldr	r3, [r3, #0]
 80019fc:	2101      	movs	r1, #1
 80019fe:	697a      	ldr	r2, [r7, #20]
 8001a00:	4091      	lsls	r1, r2
 8001a02:	000a      	movs	r2, r1
 8001a04:	4013      	ands	r3, r2
 8001a06:	60fb      	str	r3, [r7, #12]
    
    if(iocurrent)
 8001a08:	68fb      	ldr	r3, [r7, #12]
 8001a0a:	2b00      	cmp	r3, #0
 8001a0c:	d100      	bne.n	8001a10 <HAL_GPIO_Init+0x30>
 8001a0e:	e134      	b.n	8001c7a <HAL_GPIO_Init+0x29a>
    {
      /*--------------------- GPIO Mode Configuration ------------------------*/
      /* In case of Alternate function mode selection */
      if((GPIO_Init->Mode == GPIO_MODE_AF_PP) || (GPIO_Init->Mode == GPIO_MODE_AF_OD)) 
 8001a10:	683b      	ldr	r3, [r7, #0]
 8001a12:	685b      	ldr	r3, [r3, #4]
 8001a14:	2b02      	cmp	r3, #2
 8001a16:	d003      	beq.n	8001a20 <HAL_GPIO_Init+0x40>
 8001a18:	683b      	ldr	r3, [r7, #0]
 8001a1a:	685b      	ldr	r3, [r3, #4]
 8001a1c:	2b12      	cmp	r3, #18
 8001a1e:	d123      	bne.n	8001a68 <HAL_GPIO_Init+0x88>
        /* Check the Alternate function parameters */
        assert_param(IS_GPIO_AF_INSTANCE(GPIOx));
        assert_param(IS_GPIO_AF(GPIO_Init->Alternate));

        /* Configure Alternate function mapped with the current IO */ 
        temp = GPIOx->AFR[position >> 3U];
 8001a20:	697b      	ldr	r3, [r7, #20]
 8001a22:	08da      	lsrs	r2, r3, #3
 8001a24:	687b      	ldr	r3, [r7, #4]
 8001a26:	3208      	adds	r2, #8
 8001a28:	0092      	lsls	r2, r2, #2
 8001a2a:	58d3      	ldr	r3, [r2, r3]
 8001a2c:	613b      	str	r3, [r7, #16]
        temp &= ~((uint32_t)0xFU << ((uint32_t)(position & (uint32_t)0x07U) * 4U)) ;
 8001a2e:	697b      	ldr	r3, [r7, #20]
 8001a30:	2207      	movs	r2, #7
 8001a32:	4013      	ands	r3, r2
 8001a34:	009b      	lsls	r3, r3, #2
 8001a36:	220f      	movs	r2, #15
 8001a38:	409a      	lsls	r2, r3
 8001a3a:	0013      	movs	r3, r2
 8001a3c:	43da      	mvns	r2, r3
 8001a3e:	693b      	ldr	r3, [r7, #16]
 8001a40:	4013      	ands	r3, r2
 8001a42:	613b      	str	r3, [r7, #16]
        temp |= ((uint32_t)(GPIO_Init->Alternate) << (((uint32_t)position & (uint32_t)0x07U) * 4U)) ;
 8001a44:	683b      	ldr	r3, [r7, #0]
 8001a46:	691a      	ldr	r2, [r3, #16]
 8001a48:	697b      	ldr	r3, [r7, #20]
 8001a4a:	2107      	movs	r1, #7
 8001a4c:	400b      	ands	r3, r1
 8001a4e:	009b      	lsls	r3, r3, #2
 8001a50:	409a      	lsls	r2, r3
 8001a52:	0013      	movs	r3, r2
 8001a54:	693a      	ldr	r2, [r7, #16]
 8001a56:	4313      	orrs	r3, r2
 8001a58:	613b      	str	r3, [r7, #16]
        GPIOx->AFR[position >> 3U] = temp;
 8001a5a:	697b      	ldr	r3, [r7, #20]
 8001a5c:	08da      	lsrs	r2, r3, #3
 8001a5e:	687b      	ldr	r3, [r7, #4]
 8001a60:	3208      	adds	r2, #8
 8001a62:	0092      	lsls	r2, r2, #2
 8001a64:	6939      	ldr	r1, [r7, #16]
 8001a66:	50d1      	str	r1, [r2, r3]
      } 

      /* In case of Output or Alternate function mode selection */
      if((GPIO_Init->Mode == GPIO_MODE_OUTPUT_PP) || (GPIO_Init->Mode == GPIO_MODE_AF_PP) ||
 8001a68:	683b      	ldr	r3, [r7, #0]
 8001a6a:	685b      	ldr	r3, [r3, #4]
 8001a6c:	2b01      	cmp	r3, #1
 8001a6e:	d00b      	beq.n	8001a88 <HAL_GPIO_Init+0xa8>
 8001a70:	683b      	ldr	r3, [r7, #0]
 8001a72:	685b      	ldr	r3, [r3, #4]
 8001a74:	2b02      	cmp	r3, #2
 8001a76:	d007      	beq.n	8001a88 <HAL_GPIO_Init+0xa8>
         (GPIO_Init->Mode == GPIO_MODE_OUTPUT_OD) || (GPIO_Init->Mode == GPIO_MODE_AF_OD))
 8001a78:	683b      	ldr	r3, [r7, #0]
 8001a7a:	685b      	ldr	r3, [r3, #4]
      if((GPIO_Init->Mode == GPIO_MODE_OUTPUT_PP) || (GPIO_Init->Mode == GPIO_MODE_AF_PP) ||
 8001a7c:	2b11      	cmp	r3, #17
 8001a7e:	d003      	beq.n	8001a88 <HAL_GPIO_Init+0xa8>
         (GPIO_Init->Mode == GPIO_MODE_OUTPUT_OD) || (GPIO_Init->Mode == GPIO_MODE_AF_OD))
 8001a80:	683b      	ldr	r3, [r7, #0]
 8001a82:	685b      	ldr	r3, [r3, #4]
 8001a84:	2b12      	cmp	r3, #18
 8001a86:	d130      	bne.n	8001aea <HAL_GPIO_Init+0x10a>
      {
        /* Check the Speed parameter */
        assert_param(IS_GPIO_SPEED(GPIO_Init->Speed));
        /* Configure the IO Speed */
        temp = GPIOx->OSPEEDR;
 8001a88:	687b      	ldr	r3, [r7, #4]
 8001a8a:	689b      	ldr	r3, [r3, #8]
 8001a8c:	613b      	str	r3, [r7, #16]
        temp &= ~(GPIO_OSPEEDER_OSPEED0 << (position * 2U));
 8001a8e:	697b      	ldr	r3, [r7, #20]
 8001a90:	005b      	lsls	r3, r3, #1
 8001a92:	2203      	movs	r2, #3
 8001a94:	409a      	lsls	r2, r3
 8001a96:	0013      	movs	r3, r2
 8001a98:	43da      	mvns	r2, r3
 8001a9a:	693b      	ldr	r3, [r7, #16]
 8001a9c:	4013      	ands	r3, r2
 8001a9e:	613b      	str	r3, [r7, #16]
        temp |= (GPIO_Init->Speed << (position * 2U));
 8001aa0:	683b      	ldr	r3, [r7, #0]
 8001aa2:	68da      	ldr	r2, [r3, #12]
 8001aa4:	697b      	ldr	r3, [r7, #20]
 8001aa6:	005b      	lsls	r3, r3, #1
 8001aa8:	409a      	lsls	r2, r3
 8001aaa:	0013      	movs	r3, r2
 8001aac:	693a      	ldr	r2, [r7, #16]
 8001aae:	4313      	orrs	r3, r2
 8001ab0:	613b      	str	r3, [r7, #16]
        GPIOx->OSPEEDR = temp;
 8001ab2:	687b      	ldr	r3, [r7, #4]
 8001ab4:	693a      	ldr	r2, [r7, #16]
 8001ab6:	609a      	str	r2, [r3, #8]

        /* Configure the IO Output Type */
        temp= GPIOx->OTYPER;
 8001ab8:	687b      	ldr	r3, [r7, #4]
 8001aba:	685b      	ldr	r3, [r3, #4]
 8001abc:	613b      	str	r3, [r7, #16]
        temp &= ~(GPIO_OTYPER_OT_0 << position) ;
 8001abe:	2201      	movs	r2, #1
 8001ac0:	697b      	ldr	r3, [r7, #20]
 8001ac2:	409a      	lsls	r2, r3
 8001ac4:	0013      	movs	r3, r2
 8001ac6:	43da      	mvns	r2, r3
 8001ac8:	693b      	ldr	r3, [r7, #16]
 8001aca:	4013      	ands	r3, r2
 8001acc:	613b      	str	r3, [r7, #16]
        temp |= (((GPIO_Init->Mode & GPIO_OUTPUT_TYPE) >> 4U) << position);
 8001ace:	683b      	ldr	r3, [r7, #0]
 8001ad0:	685b      	ldr	r3, [r3, #4]
 8001ad2:	091b      	lsrs	r3, r3, #4
 8001ad4:	2201      	movs	r2, #1
 8001ad6:	401a      	ands	r2, r3
 8001ad8:	697b      	ldr	r3, [r7, #20]
 8001ada:	409a      	lsls	r2, r3
 8001adc:	0013      	movs	r3, r2
 8001ade:	693a      	ldr	r2, [r7, #16]
 8001ae0:	4313      	orrs	r3, r2
 8001ae2:	613b      	str	r3, [r7, #16]
        GPIOx->OTYPER = temp;
 8001ae4:	687b      	ldr	r3, [r7, #4]
 8001ae6:	693a      	ldr	r2, [r7, #16]
 8001ae8:	605a      	str	r2, [r3, #4]
      }

      /* Configure IO Direction mode (Input, Output, Alternate or Analog) */
      temp = GPIOx->MODER;
 8001aea:	687b      	ldr	r3, [r7, #4]
 8001aec:	681b      	ldr	r3, [r3, #0]
 8001aee:	613b      	str	r3, [r7, #16]
      temp &= ~(GPIO_MODER_MODE0 << (position * 2U));
 8001af0:	697b      	ldr	r3, [r7, #20]
 8001af2:	005b      	lsls	r3, r3, #1
 8001af4:	2203      	movs	r2, #3
 8001af6:	409a      	lsls	r2, r3
 8001af8:	0013      	movs	r3, r2
 8001afa:	43da      	mvns	r2, r3
 8001afc:	693b      	ldr	r3, [r7, #16]
 8001afe:	4013      	ands	r3, r2
 8001b00:	613b      	str	r3, [r7, #16]
      temp |= ((GPIO_Init->Mode & GPIO_MODE) << (position * 2U));
 8001b02:	683b      	ldr	r3, [r7, #0]
 8001b04:	685b      	ldr	r3, [r3, #4]
 8001b06:	2203      	movs	r2, #3
 8001b08:	401a      	ands	r2, r3
 8001b0a:	697b      	ldr	r3, [r7, #20]
 8001b0c:	005b      	lsls	r3, r3, #1
 8001b0e:	409a      	lsls	r2, r3
 8001b10:	0013      	movs	r3, r2
 8001b12:	693a      	ldr	r2, [r7, #16]
 8001b14:	4313      	orrs	r3, r2
 8001b16:	613b      	str	r3, [r7, #16]
      GPIOx->MODER = temp;
 8001b18:	687b      	ldr	r3, [r7, #4]
 8001b1a:	693a      	ldr	r2, [r7, #16]
 8001b1c:	601a      	str	r2, [r3, #0]

      /* Activate the Pull-up or Pull down resistor for the current IO */
      temp = GPIOx->PUPDR;
 8001b1e:	687b      	ldr	r3, [r7, #4]
 8001b20:	68db      	ldr	r3, [r3, #12]
 8001b22:	613b      	str	r3, [r7, #16]
      temp &= ~(GPIO_PUPDR_PUPD0 << (position * 2U));
 8001b24:	697b      	ldr	r3, [r7, #20]
 8001b26:	005b      	lsls	r3, r3, #1
 8001b28:	2203      	movs	r2, #3
 8001b2a:	409a      	lsls	r2, r3
 8001b2c:	0013      	movs	r3, r2
 8001b2e:	43da      	mvns	r2, r3
 8001b30:	693b      	ldr	r3, [r7, #16]
 8001b32:	4013      	ands	r3, r2
 8001b34:	613b      	str	r3, [r7, #16]
      temp |= ((GPIO_Init->Pull) << (position * 2U)); 
 8001b36:	683b      	ldr	r3, [r7, #0]
 8001b38:	689a      	ldr	r2, [r3, #8]
 8001b3a:	697b      	ldr	r3, [r7, #20]
 8001b3c:	005b      	lsls	r3, r3, #1
 8001b3e:	409a      	lsls	r2, r3
 8001b40:	0013      	movs	r3, r2
 8001b42:	693a      	ldr	r2, [r7, #16]
 8001b44:	4313      	orrs	r3, r2
 8001b46:	613b      	str	r3, [r7, #16]
      GPIOx->PUPDR = temp;
 8001b48:	687b      	ldr	r3, [r7, #4]
 8001b4a:	693a      	ldr	r2, [r7, #16]
 8001b4c:	60da      	str	r2, [r3, #12]

      /*--------------------- EXTI Mode Configuration ------------------------*/
      /* Configure the External Interrupt or event for the current IO */
      if((GPIO_Init->Mode & EXTI_MODE) == EXTI_MODE) 
 8001b4e:	683b      	ldr	r3, [r7, #0]
 8001b50:	685a      	ldr	r2, [r3, #4]
 8001b52:	2380      	movs	r3, #128	; 0x80
 8001b54:	055b      	lsls	r3, r3, #21
 8001b56:	4013      	ands	r3, r2
 8001b58:	d100      	bne.n	8001b5c <HAL_GPIO_Init+0x17c>
 8001b5a:	e08e      	b.n	8001c7a <HAL_GPIO_Init+0x29a>
      {
        /* Enable SYSCFG Clock */
        __HAL_RCC_SYSCFG_CLK_ENABLE();
 8001b5c:	4b4e      	ldr	r3, [pc, #312]	; (8001c98 <HAL_GPIO_Init+0x2b8>)
 8001b5e:	6b5a      	ldr	r2, [r3, #52]	; 0x34
 8001b60:	4b4d      	ldr	r3, [pc, #308]	; (8001c98 <HAL_GPIO_Init+0x2b8>)
 8001b62:	2101      	movs	r1, #1
 8001b64:	430a      	orrs	r2, r1
 8001b66:	635a      	str	r2, [r3, #52]	; 0x34
        
        temp = SYSCFG->EXTICR[position >> 2U];
 8001b68:	4a4c      	ldr	r2, [pc, #304]	; (8001c9c <HAL_GPIO_Init+0x2bc>)
 8001b6a:	697b      	ldr	r3, [r7, #20]
 8001b6c:	089b      	lsrs	r3, r3, #2
 8001b6e:	3302      	adds	r3, #2
 8001b70:	009b      	lsls	r3, r3, #2
 8001b72:	589b      	ldr	r3, [r3, r2]
 8001b74:	613b      	str	r3, [r7, #16]
        CLEAR_BIT(temp, ((uint32_t)0x0FU) << (4U * (position & 0x03U)));
 8001b76:	697b      	ldr	r3, [r7, #20]
 8001b78:	2203      	movs	r2, #3
 8001b7a:	4013      	ands	r3, r2
 8001b7c:	009b      	lsls	r3, r3, #2
 8001b7e:	220f      	movs	r2, #15
 8001b80:	409a      	lsls	r2, r3
 8001b82:	0013      	movs	r3, r2
 8001b84:	43da      	mvns	r2, r3
 8001b86:	693b      	ldr	r3, [r7, #16]
 8001b88:	4013      	ands	r3, r2
 8001b8a:	613b      	str	r3, [r7, #16]
        SET_BIT(temp, (GPIO_GET_INDEX(GPIOx)) << (4 * (position & 0x03U)));
 8001b8c:	687a      	ldr	r2, [r7, #4]
 8001b8e:	23a0      	movs	r3, #160	; 0xa0
 8001b90:	05db      	lsls	r3, r3, #23
 8001b92:	429a      	cmp	r2, r3
 8001b94:	d00d      	beq.n	8001bb2 <HAL_GPIO_Init+0x1d2>
 8001b96:	687b      	ldr	r3, [r7, #4]
 8001b98:	4a41      	ldr	r2, [pc, #260]	; (8001ca0 <HAL_GPIO_Init+0x2c0>)
 8001b9a:	4293      	cmp	r3, r2
 8001b9c:	d007      	beq.n	8001bae <HAL_GPIO_Init+0x1ce>
 8001b9e:	687b      	ldr	r3, [r7, #4]
 8001ba0:	4a40      	ldr	r2, [pc, #256]	; (8001ca4 <HAL_GPIO_Init+0x2c4>)
 8001ba2:	4293      	cmp	r3, r2
 8001ba4:	d101      	bne.n	8001baa <HAL_GPIO_Init+0x1ca>
 8001ba6:	2302      	movs	r3, #2
 8001ba8:	e004      	b.n	8001bb4 <HAL_GPIO_Init+0x1d4>
 8001baa:	2306      	movs	r3, #6
 8001bac:	e002      	b.n	8001bb4 <HAL_GPIO_Init+0x1d4>
 8001bae:	2301      	movs	r3, #1
 8001bb0:	e000      	b.n	8001bb4 <HAL_GPIO_Init+0x1d4>
 8001bb2:	2300      	movs	r3, #0
 8001bb4:	697a      	ldr	r2, [r7, #20]
 8001bb6:	2103      	movs	r1, #3
 8001bb8:	400a      	ands	r2, r1
 8001bba:	0092      	lsls	r2, r2, #2
 8001bbc:	4093      	lsls	r3, r2
 8001bbe:	693a      	ldr	r2, [r7, #16]
 8001bc0:	4313      	orrs	r3, r2
 8001bc2:	613b      	str	r3, [r7, #16]
        SYSCFG->EXTICR[position >> 2U] = temp;
 8001bc4:	4935      	ldr	r1, [pc, #212]	; (8001c9c <HAL_GPIO_Init+0x2bc>)
 8001bc6:	697b      	ldr	r3, [r7, #20]
 8001bc8:	089b      	lsrs	r3, r3, #2
 8001bca:	3302      	adds	r3, #2
 8001bcc:	009b      	lsls	r3, r3, #2
 8001bce:	693a      	ldr	r2, [r7, #16]
 8001bd0:	505a      	str	r2, [r3, r1]
                  
        /* Clear EXTI line configuration */
        temp = EXTI->IMR;
 8001bd2:	4b35      	ldr	r3, [pc, #212]	; (8001ca8 <HAL_GPIO_Init+0x2c8>)
 8001bd4:	681b      	ldr	r3, [r3, #0]
 8001bd6:	613b      	str	r3, [r7, #16]
        temp &= ~((uint32_t)iocurrent);
 8001bd8:	68fb      	ldr	r3, [r7, #12]
 8001bda:	43da      	mvns	r2, r3
 8001bdc:	693b      	ldr	r3, [r7, #16]
 8001bde:	4013      	ands	r3, r2
 8001be0:	613b      	str	r3, [r7, #16]
        if((GPIO_Init->Mode & GPIO_MODE_IT) == GPIO_MODE_IT)
 8001be2:	683b      	ldr	r3, [r7, #0]
 8001be4:	685a      	ldr	r2, [r3, #4]
 8001be6:	2380      	movs	r3, #128	; 0x80
 8001be8:	025b      	lsls	r3, r3, #9
 8001bea:	4013      	ands	r3, r2
 8001bec:	d003      	beq.n	8001bf6 <HAL_GPIO_Init+0x216>
        {
          temp |= iocurrent;
 8001bee:	693a      	ldr	r2, [r7, #16]
 8001bf0:	68fb      	ldr	r3, [r7, #12]
 8001bf2:	4313      	orrs	r3, r2
 8001bf4:	613b      	str	r3, [r7, #16]
        }
        EXTI->IMR = temp;
 8001bf6:	4b2c      	ldr	r3, [pc, #176]	; (8001ca8 <HAL_GPIO_Init+0x2c8>)
 8001bf8:	693a      	ldr	r2, [r7, #16]
 8001bfa:	601a      	str	r2, [r3, #0]

        temp = EXTI->EMR;
 8001bfc:	4b2a      	ldr	r3, [pc, #168]	; (8001ca8 <HAL_GPIO_Init+0x2c8>)
 8001bfe:	685b      	ldr	r3, [r3, #4]
 8001c00:	613b      	str	r3, [r7, #16]
        temp &= ~((uint32_t)iocurrent);
 8001c02:	68fb      	ldr	r3, [r7, #12]
 8001c04:	43da      	mvns	r2, r3
 8001c06:	693b      	ldr	r3, [r7, #16]
 8001c08:	4013      	ands	r3, r2
 8001c0a:	613b      	str	r3, [r7, #16]
        if((GPIO_Init->Mode & GPIO_MODE_EVT) == GPIO_MODE_EVT)
 8001c0c:	683b      	ldr	r3, [r7, #0]
 8001c0e:	685a      	ldr	r2, [r3, #4]
 8001c10:	2380      	movs	r3, #128	; 0x80
 8001c12:	029b      	lsls	r3, r3, #10
 8001c14:	4013      	ands	r3, r2
 8001c16:	d003      	beq.n	8001c20 <HAL_GPIO_Init+0x240>
        {
          temp |= iocurrent;
 8001c18:	693a      	ldr	r2, [r7, #16]
 8001c1a:	68fb      	ldr	r3, [r7, #12]
 8001c1c:	4313      	orrs	r3, r2
 8001c1e:	613b      	str	r3, [r7, #16]
        }
        EXTI->EMR = temp;
 8001c20:	4b21      	ldr	r3, [pc, #132]	; (8001ca8 <HAL_GPIO_Init+0x2c8>)
 8001c22:	693a      	ldr	r2, [r7, #16]
 8001c24:	605a      	str	r2, [r3, #4]

        /* Clear Rising Falling edge configuration */
        temp = EXTI->RTSR;
 8001c26:	4b20      	ldr	r3, [pc, #128]	; (8001ca8 <HAL_GPIO_Init+0x2c8>)
 8001c28:	689b      	ldr	r3, [r3, #8]
 8001c2a:	613b      	str	r3, [r7, #16]
        temp &= ~((uint32_t)iocurrent);
 8001c2c:	68fb      	ldr	r3, [r7, #12]
 8001c2e:	43da      	mvns	r2, r3
 8001c30:	693b      	ldr	r3, [r7, #16]
 8001c32:	4013      	ands	r3, r2
 8001c34:	613b      	str	r3, [r7, #16]
        if((GPIO_Init->Mode & RISING_EDGE) == RISING_EDGE)
 8001c36:	683b      	ldr	r3, [r7, #0]
 8001c38:	685a      	ldr	r2, [r3, #4]
 8001c3a:	2380      	movs	r3, #128	; 0x80
 8001c3c:	035b      	lsls	r3, r3, #13
 8001c3e:	4013      	ands	r3, r2
 8001c40:	d003      	beq.n	8001c4a <HAL_GPIO_Init+0x26a>
        {
          temp |= iocurrent;
 8001c42:	693a      	ldr	r2, [r7, #16]
 8001c44:	68fb      	ldr	r3, [r7, #12]
 8001c46:	4313      	orrs	r3, r2
 8001c48:	613b      	str	r3, [r7, #16]
        }
        EXTI->RTSR = temp;
 8001c4a:	4b17      	ldr	r3, [pc, #92]	; (8001ca8 <HAL_GPIO_Init+0x2c8>)
 8001c4c:	693a      	ldr	r2, [r7, #16]
 8001c4e:	609a      	str	r2, [r3, #8]

        temp = EXTI->FTSR;
 8001c50:	4b15      	ldr	r3, [pc, #84]	; (8001ca8 <HAL_GPIO_Init+0x2c8>)
 8001c52:	68db      	ldr	r3, [r3, #12]
 8001c54:	613b      	str	r3, [r7, #16]
        temp &= ~((uint32_t)iocurrent);
 8001c56:	68fb      	ldr	r3, [r7, #12]
 8001c58:	43da      	mvns	r2, r3
 8001c5a:	693b      	ldr	r3, [r7, #16]
 8001c5c:	4013      	ands	r3, r2
 8001c5e:	613b      	str	r3, [r7, #16]
        if((GPIO_Init->Mode & FALLING_EDGE) == FALLING_EDGE)
 8001c60:	683b      	ldr	r3, [r7, #0]
 8001c62:	685a      	ldr	r2, [r3, #4]
 8001c64:	2380      	movs	r3, #128	; 0x80
 8001c66:	039b      	lsls	r3, r3, #14
 8001c68:	4013      	ands	r3, r2
 8001c6a:	d003      	beq.n	8001c74 <HAL_GPIO_Init+0x294>
        {
          temp |= iocurrent;
 8001c6c:	693a      	ldr	r2, [r7, #16]
 8001c6e:	68fb      	ldr	r3, [r7, #12]
 8001c70:	4313      	orrs	r3, r2
 8001c72:	613b      	str	r3, [r7, #16]
        }
        EXTI->FTSR = temp;
 8001c74:	4b0c      	ldr	r3, [pc, #48]	; (8001ca8 <HAL_GPIO_Init+0x2c8>)
 8001c76:	693a      	ldr	r2, [r7, #16]
 8001c78:	60da      	str	r2, [r3, #12]
      }
    }
    position++;
 8001c7a:	697b      	ldr	r3, [r7, #20]
 8001c7c:	3301      	adds	r3, #1
 8001c7e:	617b      	str	r3, [r7, #20]
  while (((GPIO_Init->Pin) >> position) != 0)
 8001c80:	683b      	ldr	r3, [r7, #0]
 8001c82:	681a      	ldr	r2, [r3, #0]
 8001c84:	697b      	ldr	r3, [r7, #20]
 8001c86:	40da      	lsrs	r2, r3
 8001c88:	1e13      	subs	r3, r2, #0
 8001c8a:	d000      	beq.n	8001c8e <HAL_GPIO_Init+0x2ae>
 8001c8c:	e6b4      	b.n	80019f8 <HAL_GPIO_Init+0x18>
  }
}
 8001c8e:	46c0      	nop			; (mov r8, r8)
 8001c90:	46bd      	mov	sp, r7
 8001c92:	b006      	add	sp, #24
 8001c94:	bd80      	pop	{r7, pc}
 8001c96:	46c0      	nop			; (mov r8, r8)
 8001c98:	40021000 	.word	0x40021000
 8001c9c:	40010000 	.word	0x40010000
 8001ca0:	50000400 	.word	0x50000400
 8001ca4:	50000800 	.word	0x50000800
 8001ca8:	40010400 	.word	0x40010400

08001cac <HAL_GPIO_WritePin>:
  *                        GPIO_PIN_RESET: to clear the port pin
  *                        GPIO_PIN_SET: to set the port pin
  * @retval None
  */
void HAL_GPIO_WritePin(GPIO_TypeDef* GPIOx, uint16_t GPIO_Pin, GPIO_PinState PinState)
{
 8001cac:	b580      	push	{r7, lr}
 8001cae:	b082      	sub	sp, #8
 8001cb0:	af00      	add	r7, sp, #0
 8001cb2:	6078      	str	r0, [r7, #4]
 8001cb4:	0008      	movs	r0, r1
 8001cb6:	0011      	movs	r1, r2
 8001cb8:	1cbb      	adds	r3, r7, #2
 8001cba:	1c02      	adds	r2, r0, #0
 8001cbc:	801a      	strh	r2, [r3, #0]
 8001cbe:	1c7b      	adds	r3, r7, #1
 8001cc0:	1c0a      	adds	r2, r1, #0
 8001cc2:	701a      	strb	r2, [r3, #0]
  /* Check the parameters */
  assert_param(IS_GPIO_PIN_AVAILABLE(GPIOx,GPIO_Pin));
  assert_param(IS_GPIO_PIN_ACTION(PinState));
  
  if(PinState != GPIO_PIN_RESET)
 8001cc4:	1c7b      	adds	r3, r7, #1
 8001cc6:	781b      	ldrb	r3, [r3, #0]
 8001cc8:	2b00      	cmp	r3, #0
 8001cca:	d004      	beq.n	8001cd6 <HAL_GPIO_WritePin+0x2a>
  {
    GPIOx->BSRR = GPIO_Pin;
 8001ccc:	1cbb      	adds	r3, r7, #2
 8001cce:	881a      	ldrh	r2, [r3, #0]
 8001cd0:	687b      	ldr	r3, [r7, #4]
 8001cd2:	619a      	str	r2, [r3, #24]
  }
  else
  {
    GPIOx->BRR = GPIO_Pin ;
  }
}
 8001cd4:	e003      	b.n	8001cde <HAL_GPIO_WritePin+0x32>
    GPIOx->BRR = GPIO_Pin ;
 8001cd6:	1cbb      	adds	r3, r7, #2
 8001cd8:	881a      	ldrh	r2, [r3, #0]
 8001cda:	687b      	ldr	r3, [r7, #4]
 8001cdc:	629a      	str	r2, [r3, #40]	; 0x28
}
 8001cde:	46c0      	nop			; (mov r8, r8)
 8001ce0:	46bd      	mov	sp, r7
 8001ce2:	b002      	add	sp, #8
 8001ce4:	bd80      	pop	{r7, pc}

08001ce6 <HAL_GPIO_TogglePin>:
  *                All port bits are not necessarily available on all GPIOs.
  * @param  GPIO_Pin Specifies the pins to be toggled.
  * @retval None
  */
void HAL_GPIO_TogglePin(GPIO_TypeDef* GPIOx, uint16_t GPIO_Pin)
{
 8001ce6:	b580      	push	{r7, lr}
 8001ce8:	b082      	sub	sp, #8
 8001cea:	af00      	add	r7, sp, #0
 8001cec:	6078      	str	r0, [r7, #4]
 8001cee:	000a      	movs	r2, r1
 8001cf0:	1cbb      	adds	r3, r7, #2
 8001cf2:	801a      	strh	r2, [r3, #0]
  /* Check the parameters */
  assert_param(IS_GPIO_PIN_AVAILABLE(GPIOx,GPIO_Pin));

  GPIOx->ODR ^= GPIO_Pin;
 8001cf4:	687b      	ldr	r3, [r7, #4]
 8001cf6:	695a      	ldr	r2, [r3, #20]
 8001cf8:	1cbb      	adds	r3, r7, #2
 8001cfa:	881b      	ldrh	r3, [r3, #0]
 8001cfc:	405a      	eors	r2, r3
 8001cfe:	687b      	ldr	r3, [r7, #4]
 8001d00:	615a      	str	r2, [r3, #20]
}
 8001d02:	46c0      	nop			; (mov r8, r8)
 8001d04:	46bd      	mov	sp, r7
 8001d06:	b002      	add	sp, #8
 8001d08:	bd80      	pop	{r7, pc}
	...

08001d0c <HAL_GPIO_EXTI_IRQHandler>:
  * @brief  This function handles EXTI interrupt request.
  * @param  GPIO_Pin Specifies the pins connected to the EXTI line.
  * @retval None
  */
void HAL_GPIO_EXTI_IRQHandler(uint16_t GPIO_Pin)
{
 8001d0c:	b580      	push	{r7, lr}
 8001d0e:	b082      	sub	sp, #8
 8001d10:	af00      	add	r7, sp, #0
 8001d12:	0002      	movs	r2, r0
 8001d14:	1dbb      	adds	r3, r7, #6
 8001d16:	801a      	strh	r2, [r3, #0]
  /* EXTI line interrupt detected */
  if(__HAL_GPIO_EXTI_GET_IT(GPIO_Pin) != RESET) 
 8001d18:	4b09      	ldr	r3, [pc, #36]	; (8001d40 <HAL_GPIO_EXTI_IRQHandler+0x34>)
 8001d1a:	695b      	ldr	r3, [r3, #20]
 8001d1c:	1dba      	adds	r2, r7, #6
 8001d1e:	8812      	ldrh	r2, [r2, #0]
 8001d20:	4013      	ands	r3, r2
 8001d22:	d008      	beq.n	8001d36 <HAL_GPIO_EXTI_IRQHandler+0x2a>
  { 
    __HAL_GPIO_EXTI_CLEAR_IT(GPIO_Pin);
 8001d24:	4b06      	ldr	r3, [pc, #24]	; (8001d40 <HAL_GPIO_EXTI_IRQHandler+0x34>)
 8001d26:	1dba      	adds	r2, r7, #6
 8001d28:	8812      	ldrh	r2, [r2, #0]
 8001d2a:	615a      	str	r2, [r3, #20]
    HAL_GPIO_EXTI_Callback(GPIO_Pin);
 8001d2c:	1dbb      	adds	r3, r7, #6
 8001d2e:	881b      	ldrh	r3, [r3, #0]
 8001d30:	0018      	movs	r0, r3
 8001d32:	f000 f807 	bl	8001d44 <HAL_GPIO_EXTI_Callback>
  }
}
 8001d36:	46c0      	nop			; (mov r8, r8)
 8001d38:	46bd      	mov	sp, r7
 8001d3a:	b002      	add	sp, #8
 8001d3c:	bd80      	pop	{r7, pc}
 8001d3e:	46c0      	nop			; (mov r8, r8)
 8001d40:	40010400 	.word	0x40010400

08001d44 <HAL_GPIO_EXTI_Callback>:
  * @brief  EXTI line detection callbacks.
  * @param  GPIO_Pin Specifies the pins connected to the EXTI line.
  * @retval None
  */
__weak void HAL_GPIO_EXTI_Callback(uint16_t GPIO_Pin)
{
 8001d44:	b580      	push	{r7, lr}
 8001d46:	b082      	sub	sp, #8
 8001d48:	af00      	add	r7, sp, #0
 8001d4a:	0002      	movs	r2, r0
 8001d4c:	1dbb      	adds	r3, r7, #6
 8001d4e:	801a      	strh	r2, [r3, #0]
  UNUSED(GPIO_Pin);

  /* NOTE: This function Should not be modified, when the callback is needed,
           the HAL_GPIO_EXTI_Callback could be implemented in the user file
   */ 
}
 8001d50:	46c0      	nop			; (mov r8, r8)
 8001d52:	46bd      	mov	sp, r7
 8001d54:	b002      	add	sp, #8
 8001d56:	bd80      	pop	{r7, pc}

08001d58 <HAL_LPTIM_Init>:
  *         LPTIM_InitTypeDef and initialize the associated handle.
  * @param  hlptim LPTIM handle
  * @retval HAL status
  */
HAL_StatusTypeDef HAL_LPTIM_Init(LPTIM_HandleTypeDef *hlptim)
{
 8001d58:	b580      	push	{r7, lr}
 8001d5a:	b084      	sub	sp, #16
 8001d5c:	af00      	add	r7, sp, #0
 8001d5e:	6078      	str	r0, [r7, #4]
  uint32_t tmpcfgr;

  /* Check the LPTIM handle allocation */
  if (hlptim == NULL)
 8001d60:	687b      	ldr	r3, [r7, #4]
 8001d62:	2b00      	cmp	r3, #0
 8001d64:	d101      	bne.n	8001d6a <HAL_LPTIM_Init+0x12>
  {
    return HAL_ERROR;
 8001d66:	2301      	movs	r3, #1
 8001d68:	e06c      	b.n	8001e44 <HAL_LPTIM_Init+0xec>
  }
  assert_param(IS_LPTIM_OUTPUT_POLARITY(hlptim->Init.OutputPolarity));
  assert_param(IS_LPTIM_UPDATE_MODE(hlptim->Init.UpdateMode));
  assert_param(IS_LPTIM_COUNTER_SOURCE(hlptim->Init.CounterSource));

  if (hlptim->State == HAL_LPTIM_STATE_RESET)
 8001d6a:	687b      	ldr	r3, [r7, #4]
 8001d6c:	222e      	movs	r2, #46	; 0x2e
 8001d6e:	5c9b      	ldrb	r3, [r3, r2]
 8001d70:	b2db      	uxtb	r3, r3
 8001d72:	2b00      	cmp	r3, #0
 8001d74:	d107      	bne.n	8001d86 <HAL_LPTIM_Init+0x2e>
  {
    /* Allocate lock resource and initialize it */
    hlptim->Lock = HAL_UNLOCKED;
 8001d76:	687b      	ldr	r3, [r7, #4]
 8001d78:	222d      	movs	r2, #45	; 0x2d
 8001d7a:	2100      	movs	r1, #0
 8001d7c:	5499      	strb	r1, [r3, r2]

    /* Init the low level hardware : GPIO, CLOCK, NVIC */
    hlptim->MspInitCallback(hlptim);
#else
    /* Init the low level hardware : GPIO, CLOCK, NVIC */
    HAL_LPTIM_MspInit(hlptim);
 8001d7e:	687b      	ldr	r3, [r7, #4]
 8001d80:	0018      	movs	r0, r3
 8001d82:	f7fe fbc5 	bl	8000510 <HAL_LPTIM_MspInit>
#endif /* USE_HAL_LPTIM_REGISTER_CALLBACKS */
  }

  /* Change the LPTIM state */
  hlptim->State = HAL_LPTIM_STATE_BUSY;
 8001d86:	687b      	ldr	r3, [r7, #4]
 8001d88:	222e      	movs	r2, #46	; 0x2e
 8001d8a:	2102      	movs	r1, #2
 8001d8c:	5499      	strb	r1, [r3, r2]

  /* Get the LPTIMx CFGR value */
  tmpcfgr = hlptim->Instance->CFGR;
 8001d8e:	687b      	ldr	r3, [r7, #4]
 8001d90:	681b      	ldr	r3, [r3, #0]
 8001d92:	68db      	ldr	r3, [r3, #12]
 8001d94:	60fb      	str	r3, [r7, #12]

  if (((hlptim->Init.Clock.Source) == LPTIM_CLOCKSOURCE_ULPTIM) || ((hlptim->Init.CounterSource) == LPTIM_COUNTERSOURCE_EXTERNAL))
 8001d96:	687b      	ldr	r3, [r7, #4]
 8001d98:	685b      	ldr	r3, [r3, #4]
 8001d9a:	2b01      	cmp	r3, #1
 8001d9c:	d005      	beq.n	8001daa <HAL_LPTIM_Init+0x52>
 8001d9e:	687b      	ldr	r3, [r7, #4]
 8001da0:	6a9a      	ldr	r2, [r3, #40]	; 0x28
 8001da2:	2380      	movs	r3, #128	; 0x80
 8001da4:	041b      	lsls	r3, r3, #16
 8001da6:	429a      	cmp	r2, r3
 8001da8:	d103      	bne.n	8001db2 <HAL_LPTIM_Init+0x5a>
  {
    tmpcfgr &= (uint32_t)(~(LPTIM_CFGR_CKPOL | LPTIM_CFGR_CKFLT));
 8001daa:	68fb      	ldr	r3, [r7, #12]
 8001dac:	221e      	movs	r2, #30
 8001dae:	4393      	bics	r3, r2
 8001db0:	60fb      	str	r3, [r7, #12]
  }
  if ((hlptim->Init.Trigger.Source) != LPTIM_TRIGSOURCE_SOFTWARE)
 8001db2:	687b      	ldr	r3, [r7, #4]
 8001db4:	695b      	ldr	r3, [r3, #20]
 8001db6:	4a25      	ldr	r2, [pc, #148]	; (8001e4c <HAL_LPTIM_Init+0xf4>)
 8001db8:	4293      	cmp	r3, r2
 8001dba:	d003      	beq.n	8001dc4 <HAL_LPTIM_Init+0x6c>
  {
    tmpcfgr &= (uint32_t)(~(LPTIM_CFGR_TRGFLT | LPTIM_CFGR_TRIGSEL));
 8001dbc:	68fb      	ldr	r3, [r7, #12]
 8001dbe:	4a24      	ldr	r2, [pc, #144]	; (8001e50 <HAL_LPTIM_Init+0xf8>)
 8001dc0:	4013      	ands	r3, r2
 8001dc2:	60fb      	str	r3, [r7, #12]
  }

  /* Clear CKSEL, CKPOL, PRESC, TRIGEN, TRGFLT, WAVPOL, PRELOAD & COUNTMODE bits */
  tmpcfgr &= (uint32_t)(~(LPTIM_CFGR_CKSEL | LPTIM_CFGR_CKPOL | LPTIM_CFGR_TRIGEN | LPTIM_CFGR_PRELOAD |
 8001dc4:	68fb      	ldr	r3, [r7, #12]
 8001dc6:	4a23      	ldr	r2, [pc, #140]	; (8001e54 <HAL_LPTIM_Init+0xfc>)
 8001dc8:	4013      	ands	r3, r2
 8001dca:	60fb      	str	r3, [r7, #12]
                          LPTIM_CFGR_WAVPOL | LPTIM_CFGR_PRESC | LPTIM_CFGR_COUNTMODE));

  /* Set initialization parameters */
  tmpcfgr |= (hlptim->Init.Clock.Source    |
 8001dcc:	687b      	ldr	r3, [r7, #4]
 8001dce:	685a      	ldr	r2, [r3, #4]
              hlptim->Init.Clock.Prescaler |
 8001dd0:	687b      	ldr	r3, [r7, #4]
 8001dd2:	689b      	ldr	r3, [r3, #8]
  tmpcfgr |= (hlptim->Init.Clock.Source    |
 8001dd4:	431a      	orrs	r2, r3
              hlptim->Init.OutputPolarity  |
 8001dd6:	687b      	ldr	r3, [r7, #4]
 8001dd8:	6a1b      	ldr	r3, [r3, #32]
              hlptim->Init.Clock.Prescaler |
 8001dda:	431a      	orrs	r2, r3
              hlptim->Init.UpdateMode      |
 8001ddc:	687b      	ldr	r3, [r7, #4]
 8001dde:	6a5b      	ldr	r3, [r3, #36]	; 0x24
              hlptim->Init.OutputPolarity  |
 8001de0:	431a      	orrs	r2, r3
              hlptim->Init.CounterSource);
 8001de2:	687b      	ldr	r3, [r7, #4]
 8001de4:	6a9b      	ldr	r3, [r3, #40]	; 0x28
              hlptim->Init.UpdateMode      |
 8001de6:	4313      	orrs	r3, r2
  tmpcfgr |= (hlptim->Init.Clock.Source    |
 8001de8:	68fa      	ldr	r2, [r7, #12]
 8001dea:	4313      	orrs	r3, r2
 8001dec:	60fb      	str	r3, [r7, #12]

  if (((hlptim->Init.Clock.Source) == LPTIM_CLOCKSOURCE_ULPTIM) || ((hlptim->Init.CounterSource) == LPTIM_COUNTERSOURCE_EXTERNAL))
 8001dee:	687b      	ldr	r3, [r7, #4]
 8001df0:	685b      	ldr	r3, [r3, #4]
 8001df2:	2b01      	cmp	r3, #1
 8001df4:	d005      	beq.n	8001e02 <HAL_LPTIM_Init+0xaa>
 8001df6:	687b      	ldr	r3, [r7, #4]
 8001df8:	6a9a      	ldr	r2, [r3, #40]	; 0x28
 8001dfa:	2380      	movs	r3, #128	; 0x80
 8001dfc:	041b      	lsls	r3, r3, #16
 8001dfe:	429a      	cmp	r2, r3
 8001e00:	d107      	bne.n	8001e12 <HAL_LPTIM_Init+0xba>
  {
    tmpcfgr |= (hlptim->Init.UltraLowPowerClock.Polarity |
 8001e02:	687b      	ldr	r3, [r7, #4]
 8001e04:	68da      	ldr	r2, [r3, #12]
                hlptim->Init.UltraLowPowerClock.SampleTime);
 8001e06:	687b      	ldr	r3, [r7, #4]
 8001e08:	691b      	ldr	r3, [r3, #16]
    tmpcfgr |= (hlptim->Init.UltraLowPowerClock.Polarity |
 8001e0a:	4313      	orrs	r3, r2
 8001e0c:	68fa      	ldr	r2, [r7, #12]
 8001e0e:	4313      	orrs	r3, r2
 8001e10:	60fb      	str	r3, [r7, #12]
  }

  if ((hlptim->Init.Trigger.Source) != LPTIM_TRIGSOURCE_SOFTWARE)
 8001e12:	687b      	ldr	r3, [r7, #4]
 8001e14:	695b      	ldr	r3, [r3, #20]
 8001e16:	4a0d      	ldr	r2, [pc, #52]	; (8001e4c <HAL_LPTIM_Init+0xf4>)
 8001e18:	4293      	cmp	r3, r2
 8001e1a:	d00a      	beq.n	8001e32 <HAL_LPTIM_Init+0xda>
  {
    /* Enable External trigger and set the trigger source */
    tmpcfgr |= (hlptim->Init.Trigger.Source     |
 8001e1c:	687b      	ldr	r3, [r7, #4]
 8001e1e:	695a      	ldr	r2, [r3, #20]
                hlptim->Init.Trigger.ActiveEdge |
 8001e20:	687b      	ldr	r3, [r7, #4]
 8001e22:	699b      	ldr	r3, [r3, #24]
    tmpcfgr |= (hlptim->Init.Trigger.Source     |
 8001e24:	431a      	orrs	r2, r3
                hlptim->Init.Trigger.SampleTime);
 8001e26:	687b      	ldr	r3, [r7, #4]
 8001e28:	69db      	ldr	r3, [r3, #28]
                hlptim->Init.Trigger.ActiveEdge |
 8001e2a:	4313      	orrs	r3, r2
    tmpcfgr |= (hlptim->Init.Trigger.Source     |
 8001e2c:	68fa      	ldr	r2, [r7, #12]
 8001e2e:	4313      	orrs	r3, r2
 8001e30:	60fb      	str	r3, [r7, #12]
  }

  /* Write to LPTIMx CFGR */
  hlptim->Instance->CFGR = tmpcfgr;
 8001e32:	687b      	ldr	r3, [r7, #4]
 8001e34:	681b      	ldr	r3, [r3, #0]
 8001e36:	68fa      	ldr	r2, [r7, #12]
 8001e38:	60da      	str	r2, [r3, #12]

  /* Change the LPTIM state */
  hlptim->State = HAL_LPTIM_STATE_READY;
 8001e3a:	687b      	ldr	r3, [r7, #4]
 8001e3c:	222e      	movs	r2, #46	; 0x2e
 8001e3e:	2101      	movs	r1, #1
 8001e40:	5499      	strb	r1, [r3, r2]

  /* Return function status */
  return HAL_OK;
 8001e42:	2300      	movs	r3, #0
}
 8001e44:	0018      	movs	r0, r3
 8001e46:	46bd      	mov	sp, r7
 8001e48:	b004      	add	sp, #16
 8001e4a:	bd80      	pop	{r7, pc}
 8001e4c:	0000ffff 	.word	0x0000ffff
 8001e50:	ffff1f3f 	.word	0xffff1f3f
 8001e54:	ff19f1f8 	.word	0xff19f1f8

08001e58 <HAL_LPTIM_Counter_Start_IT>:
  * @param  Period Specifies the Autoreload value.
  *         This parameter must be a value between 0x0000 and 0xFFFF.
  * @retval HAL status
  */
HAL_StatusTypeDef HAL_LPTIM_Counter_Start_IT(LPTIM_HandleTypeDef *hlptim, uint32_t Period)
{
 8001e58:	b580      	push	{r7, lr}
 8001e5a:	b082      	sub	sp, #8
 8001e5c:	af00      	add	r7, sp, #0
 8001e5e:	6078      	str	r0, [r7, #4]
 8001e60:	6039      	str	r1, [r7, #0]
  /* Check the parameters */
  assert_param(IS_LPTIM_INSTANCE(hlptim->Instance));
  assert_param(IS_LPTIM_PERIOD(Period));

  /* Set the LPTIM state */
  hlptim->State = HAL_LPTIM_STATE_BUSY;
 8001e62:	687b      	ldr	r3, [r7, #4]
 8001e64:	222e      	movs	r2, #46	; 0x2e
 8001e66:	2102      	movs	r1, #2
 8001e68:	5499      	strb	r1, [r3, r2]

  /* Enable EXTI Line interrupt on the LPTIM Wake-up Timer */
  __HAL_LPTIM_WAKEUPTIMER_EXTI_ENABLE_IT();
 8001e6a:	4b23      	ldr	r3, [pc, #140]	; (8001ef8 <HAL_LPTIM_Counter_Start_IT+0xa0>)
 8001e6c:	681a      	ldr	r2, [r3, #0]
 8001e6e:	4b22      	ldr	r3, [pc, #136]	; (8001ef8 <HAL_LPTIM_Counter_Start_IT+0xa0>)
 8001e70:	2180      	movs	r1, #128	; 0x80
 8001e72:	0589      	lsls	r1, r1, #22
 8001e74:	430a      	orrs	r2, r1
 8001e76:	601a      	str	r2, [r3, #0]

  /* If clock source is not ULPTIM clock and counter source is external, then it must not be prescaled */
  if ((hlptim->Init.Clock.Source != LPTIM_CLOCKSOURCE_ULPTIM) && (hlptim->Init.CounterSource == LPTIM_COUNTERSOURCE_EXTERNAL))
 8001e78:	687b      	ldr	r3, [r7, #4]
 8001e7a:	685b      	ldr	r3, [r3, #4]
 8001e7c:	2b01      	cmp	r3, #1
 8001e7e:	d00d      	beq.n	8001e9c <HAL_LPTIM_Counter_Start_IT+0x44>
 8001e80:	687b      	ldr	r3, [r7, #4]
 8001e82:	6a9a      	ldr	r2, [r3, #40]	; 0x28
 8001e84:	2380      	movs	r3, #128	; 0x80
 8001e86:	041b      	lsls	r3, r3, #16
 8001e88:	429a      	cmp	r2, r3
 8001e8a:	d107      	bne.n	8001e9c <HAL_LPTIM_Counter_Start_IT+0x44>
  {
    /* Check if clock is prescaled */
    assert_param(IS_LPTIM_CLOCK_PRESCALERDIV1(hlptim->Init.Clock.Prescaler));
    /* Set clock prescaler to 0 */
    hlptim->Instance->CFGR &= ~LPTIM_CFGR_PRESC;
 8001e8c:	687b      	ldr	r3, [r7, #4]
 8001e8e:	681b      	ldr	r3, [r3, #0]
 8001e90:	68da      	ldr	r2, [r3, #12]
 8001e92:	687b      	ldr	r3, [r7, #4]
 8001e94:	681b      	ldr	r3, [r3, #0]
 8001e96:	4919      	ldr	r1, [pc, #100]	; (8001efc <HAL_LPTIM_Counter_Start_IT+0xa4>)
 8001e98:	400a      	ands	r2, r1
 8001e9a:	60da      	str	r2, [r3, #12]
  }

  /* Enable Autoreload write complete interrupt */
  __HAL_LPTIM_ENABLE_IT(hlptim, LPTIM_IT_ARROK);
 8001e9c:	687b      	ldr	r3, [r7, #4]
 8001e9e:	681b      	ldr	r3, [r3, #0]
 8001ea0:	689a      	ldr	r2, [r3, #8]
 8001ea2:	687b      	ldr	r3, [r7, #4]
 8001ea4:	681b      	ldr	r3, [r3, #0]
 8001ea6:	2110      	movs	r1, #16
 8001ea8:	430a      	orrs	r2, r1
 8001eaa:	609a      	str	r2, [r3, #8]

  /* Enable Autoreload match interrupt */
  __HAL_LPTIM_ENABLE_IT(hlptim, LPTIM_IT_ARRM);
 8001eac:	687b      	ldr	r3, [r7, #4]
 8001eae:	681b      	ldr	r3, [r3, #0]
 8001eb0:	689a      	ldr	r2, [r3, #8]
 8001eb2:	687b      	ldr	r3, [r7, #4]
 8001eb4:	681b      	ldr	r3, [r3, #0]
 8001eb6:	2102      	movs	r1, #2
 8001eb8:	430a      	orrs	r2, r1
 8001eba:	609a      	str	r2, [r3, #8]

  /* Enable the Peripheral */
  __HAL_LPTIM_ENABLE(hlptim);
 8001ebc:	687b      	ldr	r3, [r7, #4]
 8001ebe:	681b      	ldr	r3, [r3, #0]
 8001ec0:	691a      	ldr	r2, [r3, #16]
 8001ec2:	687b      	ldr	r3, [r7, #4]
 8001ec4:	681b      	ldr	r3, [r3, #0]
 8001ec6:	2101      	movs	r1, #1
 8001ec8:	430a      	orrs	r2, r1
 8001eca:	611a      	str	r2, [r3, #16]

  /* Load the period value in the autoreload register */
  __HAL_LPTIM_AUTORELOAD_SET(hlptim, Period);
 8001ecc:	687b      	ldr	r3, [r7, #4]
 8001ece:	681b      	ldr	r3, [r3, #0]
 8001ed0:	683a      	ldr	r2, [r7, #0]
 8001ed2:	619a      	str	r2, [r3, #24]

  /* Start timer in continuous mode */
  __HAL_LPTIM_START_CONTINUOUS(hlptim);
 8001ed4:	687b      	ldr	r3, [r7, #4]
 8001ed6:	681b      	ldr	r3, [r3, #0]
 8001ed8:	691a      	ldr	r2, [r3, #16]
 8001eda:	687b      	ldr	r3, [r7, #4]
 8001edc:	681b      	ldr	r3, [r3, #0]
 8001ede:	2104      	movs	r1, #4
 8001ee0:	430a      	orrs	r2, r1
 8001ee2:	611a      	str	r2, [r3, #16]

  /* Change the TIM state*/
  hlptim->State = HAL_LPTIM_STATE_READY;
 8001ee4:	687b      	ldr	r3, [r7, #4]
 8001ee6:	222e      	movs	r2, #46	; 0x2e
 8001ee8:	2101      	movs	r1, #1
 8001eea:	5499      	strb	r1, [r3, r2]

  /* Return function status */
  return HAL_OK;
 8001eec:	2300      	movs	r3, #0
}
 8001eee:	0018      	movs	r0, r3
 8001ef0:	46bd      	mov	sp, r7
 8001ef2:	b002      	add	sp, #8
 8001ef4:	bd80      	pop	{r7, pc}
 8001ef6:	46c0      	nop			; (mov r8, r8)
 8001ef8:	40010400 	.word	0x40010400
 8001efc:	fffff1ff 	.word	0xfffff1ff

08001f00 <HAL_LPTIM_IRQHandler>:
  * @brief  Handle LPTIM interrupt request.
  * @param  hlptim LPTIM handle
  * @retval None
  */
void HAL_LPTIM_IRQHandler(LPTIM_HandleTypeDef *hlptim)
{
 8001f00:	b580      	push	{r7, lr}
 8001f02:	b082      	sub	sp, #8
 8001f04:	af00      	add	r7, sp, #0
 8001f06:	6078      	str	r0, [r7, #4]
  /* Compare match interrupt */
  if (__HAL_LPTIM_GET_FLAG(hlptim, LPTIM_FLAG_CMPM) != RESET)
 8001f08:	687b      	ldr	r3, [r7, #4]
 8001f0a:	681b      	ldr	r3, [r3, #0]
 8001f0c:	681b      	ldr	r3, [r3, #0]
 8001f0e:	2201      	movs	r2, #1
 8001f10:	4013      	ands	r3, r2
 8001f12:	2b01      	cmp	r3, #1
 8001f14:	d10e      	bne.n	8001f34 <HAL_LPTIM_IRQHandler+0x34>
  {
    if (__HAL_LPTIM_GET_IT_SOURCE(hlptim, LPTIM_IT_CMPM) != RESET)
 8001f16:	687b      	ldr	r3, [r7, #4]
 8001f18:	681b      	ldr	r3, [r3, #0]
 8001f1a:	689b      	ldr	r3, [r3, #8]
 8001f1c:	2201      	movs	r2, #1
 8001f1e:	4013      	ands	r3, r2
 8001f20:	2b01      	cmp	r3, #1
 8001f22:	d107      	bne.n	8001f34 <HAL_LPTIM_IRQHandler+0x34>
    {
      /* Clear Compare match flag */
      __HAL_LPTIM_CLEAR_FLAG(hlptim, LPTIM_FLAG_CMPM);
 8001f24:	687b      	ldr	r3, [r7, #4]
 8001f26:	681b      	ldr	r3, [r3, #0]
 8001f28:	2201      	movs	r2, #1
 8001f2a:	605a      	str	r2, [r3, #4]

      /* Compare match Callback */
#if (USE_HAL_LPTIM_REGISTER_CALLBACKS == 1)
      hlptim->CompareMatchCallback(hlptim);
#else
      HAL_LPTIM_CompareMatchCallback(hlptim);
 8001f2c:	687b      	ldr	r3, [r7, #4]
 8001f2e:	0018      	movs	r0, r3
 8001f30:	f000 f888 	bl	8002044 <HAL_LPTIM_CompareMatchCallback>
#endif /* USE_HAL_LPTIM_REGISTER_CALLBACKS */
    }
  }

  /* Autoreload match interrupt */
  if (__HAL_LPTIM_GET_FLAG(hlptim, LPTIM_FLAG_ARRM) != RESET)
 8001f34:	687b      	ldr	r3, [r7, #4]
 8001f36:	681b      	ldr	r3, [r3, #0]
 8001f38:	681b      	ldr	r3, [r3, #0]
 8001f3a:	2202      	movs	r2, #2
 8001f3c:	4013      	ands	r3, r2
 8001f3e:	2b02      	cmp	r3, #2
 8001f40:	d10e      	bne.n	8001f60 <HAL_LPTIM_IRQHandler+0x60>
  {
    if (__HAL_LPTIM_GET_IT_SOURCE(hlptim, LPTIM_IT_ARRM) != RESET)
 8001f42:	687b      	ldr	r3, [r7, #4]
 8001f44:	681b      	ldr	r3, [r3, #0]
 8001f46:	689b      	ldr	r3, [r3, #8]
 8001f48:	2202      	movs	r2, #2
 8001f4a:	4013      	ands	r3, r2
 8001f4c:	2b02      	cmp	r3, #2
 8001f4e:	d107      	bne.n	8001f60 <HAL_LPTIM_IRQHandler+0x60>
    {
      /* Clear Autoreload match flag */
      __HAL_LPTIM_CLEAR_FLAG(hlptim, LPTIM_FLAG_ARRM);
 8001f50:	687b      	ldr	r3, [r7, #4]
 8001f52:	681b      	ldr	r3, [r3, #0]
 8001f54:	2202      	movs	r2, #2
 8001f56:	605a      	str	r2, [r3, #4]

      /* Autoreload match Callback */
#if (USE_HAL_LPTIM_REGISTER_CALLBACKS == 1)
      hlptim->AutoReloadMatchCallback(hlptim);
#else
      HAL_LPTIM_AutoReloadMatchCallback(hlptim);
 8001f58:	687b      	ldr	r3, [r7, #4]
 8001f5a:	0018      	movs	r0, r3
 8001f5c:	f000 f87a 	bl	8002054 <HAL_LPTIM_AutoReloadMatchCallback>
#endif /* USE_HAL_LPTIM_REGISTER_CALLBACKS */
    }
  }

  /* Trigger detected interrupt */
  if (__HAL_LPTIM_GET_FLAG(hlptim, LPTIM_FLAG_EXTTRIG) != RESET)
 8001f60:	687b      	ldr	r3, [r7, #4]
 8001f62:	681b      	ldr	r3, [r3, #0]
 8001f64:	681b      	ldr	r3, [r3, #0]
 8001f66:	2204      	movs	r2, #4
 8001f68:	4013      	ands	r3, r2
 8001f6a:	2b04      	cmp	r3, #4
 8001f6c:	d10e      	bne.n	8001f8c <HAL_LPTIM_IRQHandler+0x8c>
  {
    if (__HAL_LPTIM_GET_IT_SOURCE(hlptim, LPTIM_IT_EXTTRIG) != RESET)
 8001f6e:	687b      	ldr	r3, [r7, #4]
 8001f70:	681b      	ldr	r3, [r3, #0]
 8001f72:	689b      	ldr	r3, [r3, #8]
 8001f74:	2204      	movs	r2, #4
 8001f76:	4013      	ands	r3, r2
 8001f78:	2b04      	cmp	r3, #4
 8001f7a:	d107      	bne.n	8001f8c <HAL_LPTIM_IRQHandler+0x8c>
    {
      /* Clear Trigger detected flag */
      __HAL_LPTIM_CLEAR_FLAG(hlptim, LPTIM_FLAG_EXTTRIG);
 8001f7c:	687b      	ldr	r3, [r7, #4]
 8001f7e:	681b      	ldr	r3, [r3, #0]
 8001f80:	2204      	movs	r2, #4
 8001f82:	605a      	str	r2, [r3, #4]

      /* Trigger detected callback */
#if (USE_HAL_LPTIM_REGISTER_CALLBACKS == 1)
      hlptim->TriggerCallback(hlptim);
#else
      HAL_LPTIM_TriggerCallback(hlptim);
 8001f84:	687b      	ldr	r3, [r7, #4]
 8001f86:	0018      	movs	r0, r3
 8001f88:	f000 f86c 	bl	8002064 <HAL_LPTIM_TriggerCallback>
#endif /* USE_HAL_LPTIM_REGISTER_CALLBACKS */
    }
  }

  /* Compare write interrupt */
  if (__HAL_LPTIM_GET_FLAG(hlptim, LPTIM_FLAG_CMPOK) != RESET)
 8001f8c:	687b      	ldr	r3, [r7, #4]
 8001f8e:	681b      	ldr	r3, [r3, #0]
 8001f90:	681b      	ldr	r3, [r3, #0]
 8001f92:	2208      	movs	r2, #8
 8001f94:	4013      	ands	r3, r2
 8001f96:	2b08      	cmp	r3, #8
 8001f98:	d10e      	bne.n	8001fb8 <HAL_LPTIM_IRQHandler+0xb8>
  {
    if (__HAL_LPTIM_GET_IT_SOURCE(hlptim, LPTIM_IT_CMPOK) != RESET)
 8001f9a:	687b      	ldr	r3, [r7, #4]
 8001f9c:	681b      	ldr	r3, [r3, #0]
 8001f9e:	689b      	ldr	r3, [r3, #8]
 8001fa0:	2208      	movs	r2, #8
 8001fa2:	4013      	ands	r3, r2
 8001fa4:	2b08      	cmp	r3, #8
 8001fa6:	d107      	bne.n	8001fb8 <HAL_LPTIM_IRQHandler+0xb8>
    {
      /* Clear Compare write flag */
      __HAL_LPTIM_CLEAR_FLAG(hlptim, LPTIM_FLAG_CMPOK);
 8001fa8:	687b      	ldr	r3, [r7, #4]
 8001faa:	681b      	ldr	r3, [r3, #0]
 8001fac:	2208      	movs	r2, #8
 8001fae:	605a      	str	r2, [r3, #4]

      /* Compare write Callback */
#if (USE_HAL_LPTIM_REGISTER_CALLBACKS == 1)
      hlptim->CompareWriteCallback(hlptim);
#else
      HAL_LPTIM_CompareWriteCallback(hlptim);
 8001fb0:	687b      	ldr	r3, [r7, #4]
 8001fb2:	0018      	movs	r0, r3
 8001fb4:	f000 f85e 	bl	8002074 <HAL_LPTIM_CompareWriteCallback>
#endif /* USE_HAL_LPTIM_REGISTER_CALLBACKS */
    }
  }

  /* Autoreload write interrupt */
  if (__HAL_LPTIM_GET_FLAG(hlptim, LPTIM_FLAG_ARROK) != RESET)
 8001fb8:	687b      	ldr	r3, [r7, #4]
 8001fba:	681b      	ldr	r3, [r3, #0]
 8001fbc:	681b      	ldr	r3, [r3, #0]
 8001fbe:	2210      	movs	r2, #16
 8001fc0:	4013      	ands	r3, r2
 8001fc2:	2b10      	cmp	r3, #16
 8001fc4:	d10e      	bne.n	8001fe4 <HAL_LPTIM_IRQHandler+0xe4>
  {
    if (__HAL_LPTIM_GET_IT_SOURCE(hlptim, LPTIM_IT_ARROK) != RESET)
 8001fc6:	687b      	ldr	r3, [r7, #4]
 8001fc8:	681b      	ldr	r3, [r3, #0]
 8001fca:	689b      	ldr	r3, [r3, #8]
 8001fcc:	2210      	movs	r2, #16
 8001fce:	4013      	ands	r3, r2
 8001fd0:	2b10      	cmp	r3, #16
 8001fd2:	d107      	bne.n	8001fe4 <HAL_LPTIM_IRQHandler+0xe4>
    {
      /* Clear Autoreload write flag */
      __HAL_LPTIM_CLEAR_FLAG(hlptim, LPTIM_FLAG_ARROK);
 8001fd4:	687b      	ldr	r3, [r7, #4]
 8001fd6:	681b      	ldr	r3, [r3, #0]
 8001fd8:	2210      	movs	r2, #16
 8001fda:	605a      	str	r2, [r3, #4]

      /* Autoreload write Callback */
#if (USE_HAL_LPTIM_REGISTER_CALLBACKS == 1)
      hlptim->AutoReloadWriteCallback(hlptim);
#else
      HAL_LPTIM_AutoReloadWriteCallback(hlptim);
 8001fdc:	687b      	ldr	r3, [r7, #4]
 8001fde:	0018      	movs	r0, r3
 8001fe0:	f000 f850 	bl	8002084 <HAL_LPTIM_AutoReloadWriteCallback>
#endif /* USE_HAL_LPTIM_REGISTER_CALLBACKS */
    }
  }

  /* Direction counter changed from Down to Up interrupt */
  if (__HAL_LPTIM_GET_FLAG(hlptim, LPTIM_FLAG_UP) != RESET)
 8001fe4:	687b      	ldr	r3, [r7, #4]
 8001fe6:	681b      	ldr	r3, [r3, #0]
 8001fe8:	681b      	ldr	r3, [r3, #0]
 8001fea:	2220      	movs	r2, #32
 8001fec:	4013      	ands	r3, r2
 8001fee:	2b20      	cmp	r3, #32
 8001ff0:	d10e      	bne.n	8002010 <HAL_LPTIM_IRQHandler+0x110>
  {
    if (__HAL_LPTIM_GET_IT_SOURCE(hlptim, LPTIM_IT_UP) != RESET)
 8001ff2:	687b      	ldr	r3, [r7, #4]
 8001ff4:	681b      	ldr	r3, [r3, #0]
 8001ff6:	689b      	ldr	r3, [r3, #8]
 8001ff8:	2220      	movs	r2, #32
 8001ffa:	4013      	ands	r3, r2
 8001ffc:	2b20      	cmp	r3, #32
 8001ffe:	d107      	bne.n	8002010 <HAL_LPTIM_IRQHandler+0x110>
    {
      /* Clear Direction counter changed from Down to Up flag */
      __HAL_LPTIM_CLEAR_FLAG(hlptim, LPTIM_FLAG_UP);
 8002000:	687b      	ldr	r3, [r7, #4]
 8002002:	681b      	ldr	r3, [r3, #0]
 8002004:	2220      	movs	r2, #32
 8002006:	605a      	str	r2, [r3, #4]

      /* Direction counter changed from Down to Up Callback */
#if (USE_HAL_LPTIM_REGISTER_CALLBACKS == 1)
      hlptim->DirectionUpCallback(hlptim);
#else
      HAL_LPTIM_DirectionUpCallback(hlptim);
 8002008:	687b      	ldr	r3, [r7, #4]
 800200a:	0018      	movs	r0, r3
 800200c:	f000 f842 	bl	8002094 <HAL_LPTIM_DirectionUpCallback>
#endif /* USE_HAL_LPTIM_REGISTER_CALLBACKS */
    }
  }

  /* Direction counter changed from Up to Down interrupt */
  if (__HAL_LPTIM_GET_FLAG(hlptim, LPTIM_FLAG_DOWN) != RESET)
 8002010:	687b      	ldr	r3, [r7, #4]
 8002012:	681b      	ldr	r3, [r3, #0]
 8002014:	681b      	ldr	r3, [r3, #0]
 8002016:	2240      	movs	r2, #64	; 0x40
 8002018:	4013      	ands	r3, r2
 800201a:	2b40      	cmp	r3, #64	; 0x40
 800201c:	d10e      	bne.n	800203c <HAL_LPTIM_IRQHandler+0x13c>
  {
    if (__HAL_LPTIM_GET_IT_SOURCE(hlptim, LPTIM_IT_DOWN) != RESET)
 800201e:	687b      	ldr	r3, [r7, #4]
 8002020:	681b      	ldr	r3, [r3, #0]
 8002022:	689b      	ldr	r3, [r3, #8]
 8002024:	2240      	movs	r2, #64	; 0x40
 8002026:	4013      	ands	r3, r2
 8002028:	2b40      	cmp	r3, #64	; 0x40
 800202a:	d107      	bne.n	800203c <HAL_LPTIM_IRQHandler+0x13c>
    {
      /* Clear Direction counter changed from Up to Down flag */
      __HAL_LPTIM_CLEAR_FLAG(hlptim, LPTIM_FLAG_DOWN);
 800202c:	687b      	ldr	r3, [r7, #4]
 800202e:	681b      	ldr	r3, [r3, #0]
 8002030:	2240      	movs	r2, #64	; 0x40
 8002032:	605a      	str	r2, [r3, #4]

      /* Direction counter changed from Up to Down Callback */
#if (USE_HAL_LPTIM_REGISTER_CALLBACKS == 1)
      hlptim->DirectionDownCallback(hlptim);
#else
      HAL_LPTIM_DirectionDownCallback(hlptim);
 8002034:	687b      	ldr	r3, [r7, #4]
 8002036:	0018      	movs	r0, r3
 8002038:	f000 f834 	bl	80020a4 <HAL_LPTIM_DirectionDownCallback>
#endif /* USE_HAL_LPTIM_REGISTER_CALLBACKS */
    }
  }
}
 800203c:	46c0      	nop			; (mov r8, r8)
 800203e:	46bd      	mov	sp, r7
 8002040:	b002      	add	sp, #8
 8002042:	bd80      	pop	{r7, pc}

08002044 <HAL_LPTIM_CompareMatchCallback>:
  * @brief  Compare match callback in non-blocking mode.
  * @param  hlptim LPTIM handle
  * @retval None
  */
__weak void HAL_LPTIM_CompareMatchCallback(LPTIM_HandleTypeDef *hlptim)
{
 8002044:	b580      	push	{r7, lr}
 8002046:	b082      	sub	sp, #8
 8002048:	af00      	add	r7, sp, #0
 800204a:	6078      	str	r0, [r7, #4]
  UNUSED(hlptim);

  /* NOTE : This function should not be modified, when the callback is needed,
            the HAL_LPTIM_CompareMatchCallback could be implemented in the user file
   */
}
 800204c:	46c0      	nop			; (mov r8, r8)
 800204e:	46bd      	mov	sp, r7
 8002050:	b002      	add	sp, #8
 8002052:	bd80      	pop	{r7, pc}

08002054 <HAL_LPTIM_AutoReloadMatchCallback>:
  * @brief  Autoreload match callback in non-blocking mode.
  * @param  hlptim LPTIM handle
  * @retval None
  */
__weak void HAL_LPTIM_AutoReloadMatchCallback(LPTIM_HandleTypeDef *hlptim)
{
 8002054:	b580      	push	{r7, lr}
 8002056:	b082      	sub	sp, #8
 8002058:	af00      	add	r7, sp, #0
 800205a:	6078      	str	r0, [r7, #4]
  UNUSED(hlptim);

  /* NOTE : This function should not be modified, when the callback is needed,
            the HAL_LPTIM_AutoReloadMatchCallback could be implemented in the user file
   */
}
 800205c:	46c0      	nop			; (mov r8, r8)
 800205e:	46bd      	mov	sp, r7
 8002060:	b002      	add	sp, #8
 8002062:	bd80      	pop	{r7, pc}

08002064 <HAL_LPTIM_TriggerCallback>:
  * @brief  Trigger detected callback in non-blocking mode.
  * @param  hlptim LPTIM handle
  * @retval None
  */
__weak void HAL_LPTIM_TriggerCallback(LPTIM_HandleTypeDef *hlptim)
{
 8002064:	b580      	push	{r7, lr}
 8002066:	b082      	sub	sp, #8
 8002068:	af00      	add	r7, sp, #0
 800206a:	6078      	str	r0, [r7, #4]
  UNUSED(hlptim);

  /* NOTE : This function should not be modified, when the callback is needed,
            the HAL_LPTIM_TriggerCallback could be implemented in the user file
   */
}
 800206c:	46c0      	nop			; (mov r8, r8)
 800206e:	46bd      	mov	sp, r7
 8002070:	b002      	add	sp, #8
 8002072:	bd80      	pop	{r7, pc}

08002074 <HAL_LPTIM_CompareWriteCallback>:
  * @brief  Compare write callback in non-blocking mode.
  * @param  hlptim LPTIM handle
  * @retval None
  */
__weak void HAL_LPTIM_CompareWriteCallback(LPTIM_HandleTypeDef *hlptim)
{
 8002074:	b580      	push	{r7, lr}
 8002076:	b082      	sub	sp, #8
 8002078:	af00      	add	r7, sp, #0
 800207a:	6078      	str	r0, [r7, #4]
  UNUSED(hlptim);

  /* NOTE : This function should not be modified, when the callback is needed,
            the HAL_LPTIM_CompareWriteCallback could be implemented in the user file
   */
}
 800207c:	46c0      	nop			; (mov r8, r8)
 800207e:	46bd      	mov	sp, r7
 8002080:	b002      	add	sp, #8
 8002082:	bd80      	pop	{r7, pc}

08002084 <HAL_LPTIM_AutoReloadWriteCallback>:
  * @brief  Autoreload write callback in non-blocking mode.
  * @param  hlptim LPTIM handle
  * @retval None
  */
__weak void HAL_LPTIM_AutoReloadWriteCallback(LPTIM_HandleTypeDef *hlptim)
{
 8002084:	b580      	push	{r7, lr}
 8002086:	b082      	sub	sp, #8
 8002088:	af00      	add	r7, sp, #0
 800208a:	6078      	str	r0, [r7, #4]
  UNUSED(hlptim);

  /* NOTE : This function should not be modified, when the callback is needed,
            the HAL_LPTIM_AutoReloadWriteCallback could be implemented in the user file
   */
}
 800208c:	46c0      	nop			; (mov r8, r8)
 800208e:	46bd      	mov	sp, r7
 8002090:	b002      	add	sp, #8
 8002092:	bd80      	pop	{r7, pc}

08002094 <HAL_LPTIM_DirectionUpCallback>:
  * @brief  Direction counter changed from Down to Up callback in non-blocking mode.
  * @param  hlptim LPTIM handle
  * @retval None
  */
__weak void HAL_LPTIM_DirectionUpCallback(LPTIM_HandleTypeDef *hlptim)
{
 8002094:	b580      	push	{r7, lr}
 8002096:	b082      	sub	sp, #8
 8002098:	af00      	add	r7, sp, #0
 800209a:	6078      	str	r0, [r7, #4]
  UNUSED(hlptim);

  /* NOTE : This function should not be modified, when the callback is needed,
            the HAL_LPTIM_DirectionUpCallback could be implemented in the user file
   */
}
 800209c:	46c0      	nop			; (mov r8, r8)
 800209e:	46bd      	mov	sp, r7
 80020a0:	b002      	add	sp, #8
 80020a2:	bd80      	pop	{r7, pc}

080020a4 <HAL_LPTIM_DirectionDownCallback>:
  * @brief  Direction counter changed from Up to Down callback in non-blocking mode.
  * @param  hlptim LPTIM handle
  * @retval None
  */
__weak void HAL_LPTIM_DirectionDownCallback(LPTIM_HandleTypeDef *hlptim)
{
 80020a4:	b580      	push	{r7, lr}
 80020a6:	b082      	sub	sp, #8
 80020a8:	af00      	add	r7, sp, #0
 80020aa:	6078      	str	r0, [r7, #4]
  UNUSED(hlptim);

  /* NOTE : This function should not be modified, when the callback is needed,
            the HAL_LPTIM_DirectionDownCallback could be implemented in the user file
   */
}
 80020ac:	46c0      	nop			; (mov r8, r8)
 80020ae:	46bd      	mov	sp, r7
 80020b0:	b002      	add	sp, #8
 80020b2:	bd80      	pop	{r7, pc}

080020b4 <HAL_RCC_OscConfig>:
  *         supported by this macro. User should request a transition to HSE Off
  *         first and then HSE On or HSE Bypass.
  * @retval HAL status
  */
HAL_StatusTypeDef HAL_RCC_OscConfig(RCC_OscInitTypeDef  *RCC_OscInitStruct)
{
 80020b4:	b5b0      	push	{r4, r5, r7, lr}
 80020b6:	b08a      	sub	sp, #40	; 0x28
 80020b8:	af00      	add	r7, sp, #0
 80020ba:	6078      	str	r0, [r7, #4]
  uint32_t hsi_state;
  HAL_StatusTypeDef status;
  uint32_t sysclk_source, pll_config;

  /* Check the parameters */
  if(RCC_OscInitStruct == NULL)
 80020bc:	687b      	ldr	r3, [r7, #4]
 80020be:	2b00      	cmp	r3, #0
 80020c0:	d102      	bne.n	80020c8 <HAL_RCC_OscConfig+0x14>
  {
    return HAL_ERROR;
 80020c2:	2301      	movs	r3, #1
 80020c4:	f000 fb6a 	bl	800279c <HAL_RCC_OscConfig+0x6e8>
  }

  assert_param(IS_RCC_OSCILLATORTYPE(RCC_OscInitStruct->OscillatorType));

  sysclk_source = __HAL_RCC_GET_SYSCLK_SOURCE();
 80020c8:	4bc7      	ldr	r3, [pc, #796]	; (80023e8 <HAL_RCC_OscConfig+0x334>)
 80020ca:	68db      	ldr	r3, [r3, #12]
 80020cc:	220c      	movs	r2, #12
 80020ce:	4013      	ands	r3, r2
 80020d0:	61fb      	str	r3, [r7, #28]
  pll_config = __HAL_RCC_GET_PLL_OSCSOURCE();
 80020d2:	4bc5      	ldr	r3, [pc, #788]	; (80023e8 <HAL_RCC_OscConfig+0x334>)
 80020d4:	68da      	ldr	r2, [r3, #12]
 80020d6:	2380      	movs	r3, #128	; 0x80
 80020d8:	025b      	lsls	r3, r3, #9
 80020da:	4013      	ands	r3, r2
 80020dc:	61bb      	str	r3, [r7, #24]

  /*------------------------------- HSE Configuration ------------------------*/
  if(((RCC_OscInitStruct->OscillatorType) & RCC_OSCILLATORTYPE_HSE) == RCC_OSCILLATORTYPE_HSE)
 80020de:	687b      	ldr	r3, [r7, #4]
 80020e0:	681b      	ldr	r3, [r3, #0]
 80020e2:	2201      	movs	r2, #1
 80020e4:	4013      	ands	r3, r2
 80020e6:	d100      	bne.n	80020ea <HAL_RCC_OscConfig+0x36>
 80020e8:	e07d      	b.n	80021e6 <HAL_RCC_OscConfig+0x132>
  {
    /* Check the parameters */
    assert_param(IS_RCC_HSE(RCC_OscInitStruct->HSEState));

    /* When the HSE is used as system clock or clock source for PLL in these cases it is not allowed to be disabled */
    if((sysclk_source == RCC_SYSCLKSOURCE_STATUS_HSE)
 80020ea:	69fb      	ldr	r3, [r7, #28]
 80020ec:	2b08      	cmp	r3, #8
 80020ee:	d007      	beq.n	8002100 <HAL_RCC_OscConfig+0x4c>
       || ((sysclk_source == RCC_SYSCLKSOURCE_STATUS_PLLCLK) && (pll_config == RCC_PLLSOURCE_HSE)))
 80020f0:	69fb      	ldr	r3, [r7, #28]
 80020f2:	2b0c      	cmp	r3, #12
 80020f4:	d112      	bne.n	800211c <HAL_RCC_OscConfig+0x68>
 80020f6:	69ba      	ldr	r2, [r7, #24]
 80020f8:	2380      	movs	r3, #128	; 0x80
 80020fa:	025b      	lsls	r3, r3, #9
 80020fc:	429a      	cmp	r2, r3
 80020fe:	d10d      	bne.n	800211c <HAL_RCC_OscConfig+0x68>
    {
      if((__HAL_RCC_GET_FLAG(RCC_FLAG_HSERDY) != 0U) && (RCC_OscInitStruct->HSEState == RCC_HSE_OFF))
 8002100:	4bb9      	ldr	r3, [pc, #740]	; (80023e8 <HAL_RCC_OscConfig+0x334>)
 8002102:	681a      	ldr	r2, [r3, #0]
 8002104:	2380      	movs	r3, #128	; 0x80
 8002106:	029b      	lsls	r3, r3, #10
 8002108:	4013      	ands	r3, r2
 800210a:	d100      	bne.n	800210e <HAL_RCC_OscConfig+0x5a>
 800210c:	e06a      	b.n	80021e4 <HAL_RCC_OscConfig+0x130>
 800210e:	687b      	ldr	r3, [r7, #4]
 8002110:	685b      	ldr	r3, [r3, #4]
 8002112:	2b00      	cmp	r3, #0
 8002114:	d166      	bne.n	80021e4 <HAL_RCC_OscConfig+0x130>
      {
        return HAL_ERROR;
 8002116:	2301      	movs	r3, #1
 8002118:	f000 fb40 	bl	800279c <HAL_RCC_OscConfig+0x6e8>
      }
    }
    else
    {
      /* Set the new HSE configuration ---------------------------------------*/
      __HAL_RCC_HSE_CONFIG(RCC_OscInitStruct->HSEState);
 800211c:	687b      	ldr	r3, [r7, #4]
 800211e:	685a      	ldr	r2, [r3, #4]
 8002120:	2380      	movs	r3, #128	; 0x80
 8002122:	025b      	lsls	r3, r3, #9
 8002124:	429a      	cmp	r2, r3
 8002126:	d107      	bne.n	8002138 <HAL_RCC_OscConfig+0x84>
 8002128:	4baf      	ldr	r3, [pc, #700]	; (80023e8 <HAL_RCC_OscConfig+0x334>)
 800212a:	681a      	ldr	r2, [r3, #0]
 800212c:	4bae      	ldr	r3, [pc, #696]	; (80023e8 <HAL_RCC_OscConfig+0x334>)
 800212e:	2180      	movs	r1, #128	; 0x80
 8002130:	0249      	lsls	r1, r1, #9
 8002132:	430a      	orrs	r2, r1
 8002134:	601a      	str	r2, [r3, #0]
 8002136:	e027      	b.n	8002188 <HAL_RCC_OscConfig+0xd4>
 8002138:	687b      	ldr	r3, [r7, #4]
 800213a:	685a      	ldr	r2, [r3, #4]
 800213c:	23a0      	movs	r3, #160	; 0xa0
 800213e:	02db      	lsls	r3, r3, #11
 8002140:	429a      	cmp	r2, r3
 8002142:	d10e      	bne.n	8002162 <HAL_RCC_OscConfig+0xae>
 8002144:	4ba8      	ldr	r3, [pc, #672]	; (80023e8 <HAL_RCC_OscConfig+0x334>)
 8002146:	681a      	ldr	r2, [r3, #0]
 8002148:	4ba7      	ldr	r3, [pc, #668]	; (80023e8 <HAL_RCC_OscConfig+0x334>)
 800214a:	2180      	movs	r1, #128	; 0x80
 800214c:	02c9      	lsls	r1, r1, #11
 800214e:	430a      	orrs	r2, r1
 8002150:	601a      	str	r2, [r3, #0]
 8002152:	4ba5      	ldr	r3, [pc, #660]	; (80023e8 <HAL_RCC_OscConfig+0x334>)
 8002154:	681a      	ldr	r2, [r3, #0]
 8002156:	4ba4      	ldr	r3, [pc, #656]	; (80023e8 <HAL_RCC_OscConfig+0x334>)
 8002158:	2180      	movs	r1, #128	; 0x80
 800215a:	0249      	lsls	r1, r1, #9
 800215c:	430a      	orrs	r2, r1
 800215e:	601a      	str	r2, [r3, #0]
 8002160:	e012      	b.n	8002188 <HAL_RCC_OscConfig+0xd4>
 8002162:	4ba1      	ldr	r3, [pc, #644]	; (80023e8 <HAL_RCC_OscConfig+0x334>)
 8002164:	681a      	ldr	r2, [r3, #0]
 8002166:	4ba0      	ldr	r3, [pc, #640]	; (80023e8 <HAL_RCC_OscConfig+0x334>)
 8002168:	49a0      	ldr	r1, [pc, #640]	; (80023ec <HAL_RCC_OscConfig+0x338>)
 800216a:	400a      	ands	r2, r1
 800216c:	601a      	str	r2, [r3, #0]
 800216e:	4b9e      	ldr	r3, [pc, #632]	; (80023e8 <HAL_RCC_OscConfig+0x334>)
 8002170:	681a      	ldr	r2, [r3, #0]
 8002172:	2380      	movs	r3, #128	; 0x80
 8002174:	025b      	lsls	r3, r3, #9
 8002176:	4013      	ands	r3, r2
 8002178:	60fb      	str	r3, [r7, #12]
 800217a:	68fb      	ldr	r3, [r7, #12]
 800217c:	4b9a      	ldr	r3, [pc, #616]	; (80023e8 <HAL_RCC_OscConfig+0x334>)
 800217e:	681a      	ldr	r2, [r3, #0]
 8002180:	4b99      	ldr	r3, [pc, #612]	; (80023e8 <HAL_RCC_OscConfig+0x334>)
 8002182:	499b      	ldr	r1, [pc, #620]	; (80023f0 <HAL_RCC_OscConfig+0x33c>)
 8002184:	400a      	ands	r2, r1
 8002186:	601a      	str	r2, [r3, #0]

      /* Check the HSE State */
      if(RCC_OscInitStruct->HSEState != RCC_HSE_OFF)
 8002188:	687b      	ldr	r3, [r7, #4]
 800218a:	685b      	ldr	r3, [r3, #4]
 800218c:	2b00      	cmp	r3, #0
 800218e:	d014      	beq.n	80021ba <HAL_RCC_OscConfig+0x106>
      {
        /* Get Start Tick */
        tickstart = HAL_GetTick();
 8002190:	f7fe fdf2 	bl	8000d78 <HAL_GetTick>
 8002194:	0003      	movs	r3, r0
 8002196:	617b      	str	r3, [r7, #20]

        /* Wait till HSE is ready */
        while(__HAL_RCC_GET_FLAG(RCC_FLAG_HSERDY) == 0U)
 8002198:	e008      	b.n	80021ac <HAL_RCC_OscConfig+0xf8>
        {
          if((HAL_GetTick() - tickstart ) > HSE_TIMEOUT_VALUE)
 800219a:	f7fe fded 	bl	8000d78 <HAL_GetTick>
 800219e:	0002      	movs	r2, r0
 80021a0:	697b      	ldr	r3, [r7, #20]
 80021a2:	1ad3      	subs	r3, r2, r3
 80021a4:	2b64      	cmp	r3, #100	; 0x64
 80021a6:	d901      	bls.n	80021ac <HAL_RCC_OscConfig+0xf8>
          {
            return HAL_TIMEOUT;
 80021a8:	2303      	movs	r3, #3
 80021aa:	e2f7      	b.n	800279c <HAL_RCC_OscConfig+0x6e8>
        while(__HAL_RCC_GET_FLAG(RCC_FLAG_HSERDY) == 0U)
 80021ac:	4b8e      	ldr	r3, [pc, #568]	; (80023e8 <HAL_RCC_OscConfig+0x334>)
 80021ae:	681a      	ldr	r2, [r3, #0]
 80021b0:	2380      	movs	r3, #128	; 0x80
 80021b2:	029b      	lsls	r3, r3, #10
 80021b4:	4013      	ands	r3, r2
 80021b6:	d0f0      	beq.n	800219a <HAL_RCC_OscConfig+0xe6>
 80021b8:	e015      	b.n	80021e6 <HAL_RCC_OscConfig+0x132>
        }
      }
      else
      {
        /* Get Start Tick */
        tickstart = HAL_GetTick();
 80021ba:	f7fe fddd 	bl	8000d78 <HAL_GetTick>
 80021be:	0003      	movs	r3, r0
 80021c0:	617b      	str	r3, [r7, #20]

        /* Wait till HSE is disabled */
        while(__HAL_RCC_GET_FLAG(RCC_FLAG_HSERDY) != 0U)
 80021c2:	e008      	b.n	80021d6 <HAL_RCC_OscConfig+0x122>
        {
           if((HAL_GetTick() - tickstart ) > HSE_TIMEOUT_VALUE)
 80021c4:	f7fe fdd8 	bl	8000d78 <HAL_GetTick>
 80021c8:	0002      	movs	r2, r0
 80021ca:	697b      	ldr	r3, [r7, #20]
 80021cc:	1ad3      	subs	r3, r2, r3
 80021ce:	2b64      	cmp	r3, #100	; 0x64
 80021d0:	d901      	bls.n	80021d6 <HAL_RCC_OscConfig+0x122>
          {
            return HAL_TIMEOUT;
 80021d2:	2303      	movs	r3, #3
 80021d4:	e2e2      	b.n	800279c <HAL_RCC_OscConfig+0x6e8>
        while(__HAL_RCC_GET_FLAG(RCC_FLAG_HSERDY) != 0U)
 80021d6:	4b84      	ldr	r3, [pc, #528]	; (80023e8 <HAL_RCC_OscConfig+0x334>)
 80021d8:	681a      	ldr	r2, [r3, #0]
 80021da:	2380      	movs	r3, #128	; 0x80
 80021dc:	029b      	lsls	r3, r3, #10
 80021de:	4013      	ands	r3, r2
 80021e0:	d1f0      	bne.n	80021c4 <HAL_RCC_OscConfig+0x110>
 80021e2:	e000      	b.n	80021e6 <HAL_RCC_OscConfig+0x132>
      if((__HAL_RCC_GET_FLAG(RCC_FLAG_HSERDY) != 0U) && (RCC_OscInitStruct->HSEState == RCC_HSE_OFF))
 80021e4:	46c0      	nop			; (mov r8, r8)
        }
      }
    }
  }
  /*----------------------------- HSI Configuration --------------------------*/
  if(((RCC_OscInitStruct->OscillatorType) & RCC_OSCILLATORTYPE_HSI) == RCC_OSCILLATORTYPE_HSI)
 80021e6:	687b      	ldr	r3, [r7, #4]
 80021e8:	681b      	ldr	r3, [r3, #0]
 80021ea:	2202      	movs	r2, #2
 80021ec:	4013      	ands	r3, r2
 80021ee:	d100      	bne.n	80021f2 <HAL_RCC_OscConfig+0x13e>
 80021f0:	e098      	b.n	8002324 <HAL_RCC_OscConfig+0x270>
  {
    /* Check the parameters */
    assert_param(IS_RCC_HSI(RCC_OscInitStruct->HSIState));
    assert_param(IS_RCC_CALIBRATION_VALUE(RCC_OscInitStruct->HSICalibrationValue));

    hsi_state = RCC_OscInitStruct->HSIState;
 80021f2:	687b      	ldr	r3, [r7, #4]
 80021f4:	68db      	ldr	r3, [r3, #12]
 80021f6:	627b      	str	r3, [r7, #36]	; 0x24

#if defined(RCC_CR_HSIOUTEN)
    if((hsi_state & RCC_HSI_OUTEN) != 0U)
 80021f8:	6a7b      	ldr	r3, [r7, #36]	; 0x24
 80021fa:	2220      	movs	r2, #32
 80021fc:	4013      	ands	r3, r2
 80021fe:	d009      	beq.n	8002214 <HAL_RCC_OscConfig+0x160>
    {
      /* HSI Output enable for timer requested */
      SET_BIT(RCC->CR, RCC_CR_HSIOUTEN);
 8002200:	4b79      	ldr	r3, [pc, #484]	; (80023e8 <HAL_RCC_OscConfig+0x334>)
 8002202:	681a      	ldr	r2, [r3, #0]
 8002204:	4b78      	ldr	r3, [pc, #480]	; (80023e8 <HAL_RCC_OscConfig+0x334>)
 8002206:	2120      	movs	r1, #32
 8002208:	430a      	orrs	r2, r1
 800220a:	601a      	str	r2, [r3, #0]

      hsi_state &= ~RCC_CR_HSIOUTEN;
 800220c:	6a7b      	ldr	r3, [r7, #36]	; 0x24
 800220e:	2220      	movs	r2, #32
 8002210:	4393      	bics	r3, r2
 8002212:	627b      	str	r3, [r7, #36]	; 0x24
    }
#endif

    /* Check if HSI is used as system clock or as PLL source when PLL is selected as system clock */
    if((sysclk_source == RCC_SYSCLKSOURCE_STATUS_HSI)
 8002214:	69fb      	ldr	r3, [r7, #28]
 8002216:	2b04      	cmp	r3, #4
 8002218:	d005      	beq.n	8002226 <HAL_RCC_OscConfig+0x172>
       || ((sysclk_source == RCC_SYSCLKSOURCE_STATUS_PLLCLK) && (pll_config == RCC_PLLSOURCE_HSI)))
 800221a:	69fb      	ldr	r3, [r7, #28]
 800221c:	2b0c      	cmp	r3, #12
 800221e:	d13d      	bne.n	800229c <HAL_RCC_OscConfig+0x1e8>
 8002220:	69bb      	ldr	r3, [r7, #24]
 8002222:	2b00      	cmp	r3, #0
 8002224:	d13a      	bne.n	800229c <HAL_RCC_OscConfig+0x1e8>
    {
      /* When HSI is used as system clock it will not disabled */
      if((__HAL_RCC_GET_FLAG(RCC_FLAG_HSIRDY) != 0U) && (hsi_state == RCC_HSI_OFF))
 8002226:	4b70      	ldr	r3, [pc, #448]	; (80023e8 <HAL_RCC_OscConfig+0x334>)
 8002228:	681b      	ldr	r3, [r3, #0]
 800222a:	2204      	movs	r2, #4
 800222c:	4013      	ands	r3, r2
 800222e:	d004      	beq.n	800223a <HAL_RCC_OscConfig+0x186>
 8002230:	6a7b      	ldr	r3, [r7, #36]	; 0x24
 8002232:	2b00      	cmp	r3, #0
 8002234:	d101      	bne.n	800223a <HAL_RCC_OscConfig+0x186>
      {
        return HAL_ERROR;
 8002236:	2301      	movs	r3, #1
 8002238:	e2b0      	b.n	800279c <HAL_RCC_OscConfig+0x6e8>
      }
      /* Otherwise, just the calibration and HSI or HSIdiv4 are allowed */
      else
      {
        /* Adjusts the Internal High Speed oscillator (HSI) calibration value.*/
        __HAL_RCC_HSI_CALIBRATIONVALUE_ADJUST(RCC_OscInitStruct->HSICalibrationValue);
 800223a:	4b6b      	ldr	r3, [pc, #428]	; (80023e8 <HAL_RCC_OscConfig+0x334>)
 800223c:	685b      	ldr	r3, [r3, #4]
 800223e:	4a6d      	ldr	r2, [pc, #436]	; (80023f4 <HAL_RCC_OscConfig+0x340>)
 8002240:	4013      	ands	r3, r2
 8002242:	0019      	movs	r1, r3
 8002244:	687b      	ldr	r3, [r7, #4]
 8002246:	691b      	ldr	r3, [r3, #16]
 8002248:	021a      	lsls	r2, r3, #8
 800224a:	4b67      	ldr	r3, [pc, #412]	; (80023e8 <HAL_RCC_OscConfig+0x334>)
 800224c:	430a      	orrs	r2, r1
 800224e:	605a      	str	r2, [r3, #4]

        /* Enable the Internal High Speed oscillator (HSI or HSIdiv4) */
        __HAL_RCC_HSI_CONFIG(hsi_state);
 8002250:	4b65      	ldr	r3, [pc, #404]	; (80023e8 <HAL_RCC_OscConfig+0x334>)
 8002252:	681b      	ldr	r3, [r3, #0]
 8002254:	2209      	movs	r2, #9
 8002256:	4393      	bics	r3, r2
 8002258:	0019      	movs	r1, r3
 800225a:	4b63      	ldr	r3, [pc, #396]	; (80023e8 <HAL_RCC_OscConfig+0x334>)
 800225c:	6a7a      	ldr	r2, [r7, #36]	; 0x24
 800225e:	430a      	orrs	r2, r1
 8002260:	601a      	str	r2, [r3, #0]
      }

      /* Update the SystemCoreClock global variable */
      SystemCoreClock = HAL_RCC_GetSysClockFreq() >> AHBPrescTable[(RCC->CFGR & RCC_CFGR_HPRE)>> RCC_CFGR_HPRE_Pos];
 8002262:	f000 fbcb 	bl	80029fc <HAL_RCC_GetSysClockFreq>
 8002266:	0001      	movs	r1, r0
 8002268:	4b5f      	ldr	r3, [pc, #380]	; (80023e8 <HAL_RCC_OscConfig+0x334>)
 800226a:	68db      	ldr	r3, [r3, #12]
 800226c:	091b      	lsrs	r3, r3, #4
 800226e:	220f      	movs	r2, #15
 8002270:	4013      	ands	r3, r2
 8002272:	4a61      	ldr	r2, [pc, #388]	; (80023f8 <HAL_RCC_OscConfig+0x344>)
 8002274:	5cd3      	ldrb	r3, [r2, r3]
 8002276:	000a      	movs	r2, r1
 8002278:	40da      	lsrs	r2, r3
 800227a:	4b60      	ldr	r3, [pc, #384]	; (80023fc <HAL_RCC_OscConfig+0x348>)
 800227c:	601a      	str	r2, [r3, #0]

      /* Configure the source of time base considering new system clocks settings*/
      status = HAL_InitTick (TICK_INT_PRIORITY);
 800227e:	2513      	movs	r5, #19
 8002280:	197c      	adds	r4, r7, r5
 8002282:	2000      	movs	r0, #0
 8002284:	f7fe fd42 	bl	8000d0c <HAL_InitTick>
 8002288:	0003      	movs	r3, r0
 800228a:	7023      	strb	r3, [r4, #0]
      if(status != HAL_OK)
 800228c:	197b      	adds	r3, r7, r5
 800228e:	781b      	ldrb	r3, [r3, #0]
 8002290:	2b00      	cmp	r3, #0
 8002292:	d047      	beq.n	8002324 <HAL_RCC_OscConfig+0x270>
      {
        return status;
 8002294:	2313      	movs	r3, #19
 8002296:	18fb      	adds	r3, r7, r3
 8002298:	781b      	ldrb	r3, [r3, #0]
 800229a:	e27f      	b.n	800279c <HAL_RCC_OscConfig+0x6e8>
      }
    }
    else
    {
      /* Check the HSI State */
      if(hsi_state != RCC_HSI_OFF)
 800229c:	6a7b      	ldr	r3, [r7, #36]	; 0x24
 800229e:	2b00      	cmp	r3, #0
 80022a0:	d027      	beq.n	80022f2 <HAL_RCC_OscConfig+0x23e>
      {
        /* Enable the Internal High Speed oscillator (HSI or HSIdiv4) */
        __HAL_RCC_HSI_CONFIG(hsi_state);
 80022a2:	4b51      	ldr	r3, [pc, #324]	; (80023e8 <HAL_RCC_OscConfig+0x334>)
 80022a4:	681b      	ldr	r3, [r3, #0]
 80022a6:	2209      	movs	r2, #9
 80022a8:	4393      	bics	r3, r2
 80022aa:	0019      	movs	r1, r3
 80022ac:	4b4e      	ldr	r3, [pc, #312]	; (80023e8 <HAL_RCC_OscConfig+0x334>)
 80022ae:	6a7a      	ldr	r2, [r7, #36]	; 0x24
 80022b0:	430a      	orrs	r2, r1
 80022b2:	601a      	str	r2, [r3, #0]

        /* Get Start Tick */
        tickstart = HAL_GetTick();
 80022b4:	f7fe fd60 	bl	8000d78 <HAL_GetTick>
 80022b8:	0003      	movs	r3, r0
 80022ba:	617b      	str	r3, [r7, #20]

        /* Wait till HSI is ready */
        while(__HAL_RCC_GET_FLAG(RCC_FLAG_HSIRDY) == 0U)
 80022bc:	e008      	b.n	80022d0 <HAL_RCC_OscConfig+0x21c>
        {
          if((HAL_GetTick() - tickstart ) > HSI_TIMEOUT_VALUE)
 80022be:	f7fe fd5b 	bl	8000d78 <HAL_GetTick>
 80022c2:	0002      	movs	r2, r0
 80022c4:	697b      	ldr	r3, [r7, #20]
 80022c6:	1ad3      	subs	r3, r2, r3
 80022c8:	2b02      	cmp	r3, #2
 80022ca:	d901      	bls.n	80022d0 <HAL_RCC_OscConfig+0x21c>
          {
            return HAL_TIMEOUT;
 80022cc:	2303      	movs	r3, #3
 80022ce:	e265      	b.n	800279c <HAL_RCC_OscConfig+0x6e8>
        while(__HAL_RCC_GET_FLAG(RCC_FLAG_HSIRDY) == 0U)
 80022d0:	4b45      	ldr	r3, [pc, #276]	; (80023e8 <HAL_RCC_OscConfig+0x334>)
 80022d2:	681b      	ldr	r3, [r3, #0]
 80022d4:	2204      	movs	r2, #4
 80022d6:	4013      	ands	r3, r2
 80022d8:	d0f1      	beq.n	80022be <HAL_RCC_OscConfig+0x20a>
          }
        }

        /* Adjusts the Internal High Speed oscillator (HSI) calibration value.*/
        __HAL_RCC_HSI_CALIBRATIONVALUE_ADJUST(RCC_OscInitStruct->HSICalibrationValue);
 80022da:	4b43      	ldr	r3, [pc, #268]	; (80023e8 <HAL_RCC_OscConfig+0x334>)
 80022dc:	685b      	ldr	r3, [r3, #4]
 80022de:	4a45      	ldr	r2, [pc, #276]	; (80023f4 <HAL_RCC_OscConfig+0x340>)
 80022e0:	4013      	ands	r3, r2
 80022e2:	0019      	movs	r1, r3
 80022e4:	687b      	ldr	r3, [r7, #4]
 80022e6:	691b      	ldr	r3, [r3, #16]
 80022e8:	021a      	lsls	r2, r3, #8
 80022ea:	4b3f      	ldr	r3, [pc, #252]	; (80023e8 <HAL_RCC_OscConfig+0x334>)
 80022ec:	430a      	orrs	r2, r1
 80022ee:	605a      	str	r2, [r3, #4]
 80022f0:	e018      	b.n	8002324 <HAL_RCC_OscConfig+0x270>
      }
      else
      {
        /* Disable the Internal High Speed oscillator (HSI). */
        __HAL_RCC_HSI_DISABLE();
 80022f2:	4b3d      	ldr	r3, [pc, #244]	; (80023e8 <HAL_RCC_OscConfig+0x334>)
 80022f4:	681a      	ldr	r2, [r3, #0]
 80022f6:	4b3c      	ldr	r3, [pc, #240]	; (80023e8 <HAL_RCC_OscConfig+0x334>)
 80022f8:	2101      	movs	r1, #1
 80022fa:	438a      	bics	r2, r1
 80022fc:	601a      	str	r2, [r3, #0]

        /* Get Start Tick */
        tickstart = HAL_GetTick();
 80022fe:	f7fe fd3b 	bl	8000d78 <HAL_GetTick>
 8002302:	0003      	movs	r3, r0
 8002304:	617b      	str	r3, [r7, #20]

        /* Wait till HSI is disabled */
        while(__HAL_RCC_GET_FLAG(RCC_FLAG_HSIRDY) != 0U)
 8002306:	e008      	b.n	800231a <HAL_RCC_OscConfig+0x266>
        {
          if((HAL_GetTick() - tickstart ) > HSI_TIMEOUT_VALUE)
 8002308:	f7fe fd36 	bl	8000d78 <HAL_GetTick>
 800230c:	0002      	movs	r2, r0
 800230e:	697b      	ldr	r3, [r7, #20]
 8002310:	1ad3      	subs	r3, r2, r3
 8002312:	2b02      	cmp	r3, #2
 8002314:	d901      	bls.n	800231a <HAL_RCC_OscConfig+0x266>
          {
            return HAL_TIMEOUT;
 8002316:	2303      	movs	r3, #3
 8002318:	e240      	b.n	800279c <HAL_RCC_OscConfig+0x6e8>
        while(__HAL_RCC_GET_FLAG(RCC_FLAG_HSIRDY) != 0U)
 800231a:	4b33      	ldr	r3, [pc, #204]	; (80023e8 <HAL_RCC_OscConfig+0x334>)
 800231c:	681b      	ldr	r3, [r3, #0]
 800231e:	2204      	movs	r2, #4
 8002320:	4013      	ands	r3, r2
 8002322:	d1f1      	bne.n	8002308 <HAL_RCC_OscConfig+0x254>
        }
      }
    }
  }
  /*----------------------------- MSI Configuration --------------------------*/
  if(((RCC_OscInitStruct->OscillatorType) & RCC_OSCILLATORTYPE_MSI) == RCC_OSCILLATORTYPE_MSI)
 8002324:	687b      	ldr	r3, [r7, #4]
 8002326:	681b      	ldr	r3, [r3, #0]
 8002328:	2210      	movs	r2, #16
 800232a:	4013      	ands	r3, r2
 800232c:	d100      	bne.n	8002330 <HAL_RCC_OscConfig+0x27c>
 800232e:	e09e      	b.n	800246e <HAL_RCC_OscConfig+0x3ba>
  {
    /* When the MSI is used as system clock it will not be disabled */
    if((sysclk_source == RCC_CFGR_SWS_MSI) )
 8002330:	69fb      	ldr	r3, [r7, #28]
 8002332:	2b00      	cmp	r3, #0
 8002334:	d13f      	bne.n	80023b6 <HAL_RCC_OscConfig+0x302>
    {
      if((__HAL_RCC_GET_FLAG(RCC_FLAG_MSIRDY) != 0U) && (RCC_OscInitStruct->MSIState == RCC_MSI_OFF))
 8002336:	4b2c      	ldr	r3, [pc, #176]	; (80023e8 <HAL_RCC_OscConfig+0x334>)
 8002338:	681a      	ldr	r2, [r3, #0]
 800233a:	2380      	movs	r3, #128	; 0x80
 800233c:	009b      	lsls	r3, r3, #2
 800233e:	4013      	ands	r3, r2
 8002340:	d005      	beq.n	800234e <HAL_RCC_OscConfig+0x29a>
 8002342:	687b      	ldr	r3, [r7, #4]
 8002344:	699b      	ldr	r3, [r3, #24]
 8002346:	2b00      	cmp	r3, #0
 8002348:	d101      	bne.n	800234e <HAL_RCC_OscConfig+0x29a>
      {
        return HAL_ERROR;
 800234a:	2301      	movs	r3, #1
 800234c:	e226      	b.n	800279c <HAL_RCC_OscConfig+0x6e8>
        /* Check MSICalibrationValue and MSIClockRange input parameters */
        assert_param(IS_RCC_MSICALIBRATION_VALUE(RCC_OscInitStruct->MSICalibrationValue));
        assert_param(IS_RCC_MSI_CLOCK_RANGE(RCC_OscInitStruct->MSIClockRange));

        /* Selects the Multiple Speed oscillator (MSI) clock range .*/
        __HAL_RCC_MSI_RANGE_CONFIG(RCC_OscInitStruct->MSIClockRange);
 800234e:	4b26      	ldr	r3, [pc, #152]	; (80023e8 <HAL_RCC_OscConfig+0x334>)
 8002350:	685b      	ldr	r3, [r3, #4]
 8002352:	4a2b      	ldr	r2, [pc, #172]	; (8002400 <HAL_RCC_OscConfig+0x34c>)
 8002354:	4013      	ands	r3, r2
 8002356:	0019      	movs	r1, r3
 8002358:	687b      	ldr	r3, [r7, #4]
 800235a:	6a1a      	ldr	r2, [r3, #32]
 800235c:	4b22      	ldr	r3, [pc, #136]	; (80023e8 <HAL_RCC_OscConfig+0x334>)
 800235e:	430a      	orrs	r2, r1
 8002360:	605a      	str	r2, [r3, #4]
        /* Adjusts the Multiple Speed oscillator (MSI) calibration value.*/
        __HAL_RCC_MSI_CALIBRATIONVALUE_ADJUST(RCC_OscInitStruct->MSICalibrationValue);
 8002362:	4b21      	ldr	r3, [pc, #132]	; (80023e8 <HAL_RCC_OscConfig+0x334>)
 8002364:	685b      	ldr	r3, [r3, #4]
 8002366:	021b      	lsls	r3, r3, #8
 8002368:	0a19      	lsrs	r1, r3, #8
 800236a:	687b      	ldr	r3, [r7, #4]
 800236c:	69db      	ldr	r3, [r3, #28]
 800236e:	061a      	lsls	r2, r3, #24
 8002370:	4b1d      	ldr	r3, [pc, #116]	; (80023e8 <HAL_RCC_OscConfig+0x334>)
 8002372:	430a      	orrs	r2, r1
 8002374:	605a      	str	r2, [r3, #4]


        /* Update the SystemCoreClock global variable */
        SystemCoreClock =  (32768U * (1UL << ((RCC_OscInitStruct->MSIClockRange >> RCC_ICSCR_MSIRANGE_Pos) + 1U)))
 8002376:	687b      	ldr	r3, [r7, #4]
 8002378:	6a1b      	ldr	r3, [r3, #32]
 800237a:	0b5b      	lsrs	r3, r3, #13
 800237c:	3301      	adds	r3, #1
 800237e:	2280      	movs	r2, #128	; 0x80
 8002380:	0212      	lsls	r2, r2, #8
 8002382:	409a      	lsls	r2, r3
                           >> AHBPrescTable[((RCC->CFGR & RCC_CFGR_HPRE) >> RCC_CFGR_HPRE_Pos)];
 8002384:	4b18      	ldr	r3, [pc, #96]	; (80023e8 <HAL_RCC_OscConfig+0x334>)
 8002386:	68db      	ldr	r3, [r3, #12]
 8002388:	091b      	lsrs	r3, r3, #4
 800238a:	210f      	movs	r1, #15
 800238c:	400b      	ands	r3, r1
 800238e:	491a      	ldr	r1, [pc, #104]	; (80023f8 <HAL_RCC_OscConfig+0x344>)
 8002390:	5ccb      	ldrb	r3, [r1, r3]
 8002392:	40da      	lsrs	r2, r3
        SystemCoreClock =  (32768U * (1UL << ((RCC_OscInitStruct->MSIClockRange >> RCC_ICSCR_MSIRANGE_Pos) + 1U)))
 8002394:	4b19      	ldr	r3, [pc, #100]	; (80023fc <HAL_RCC_OscConfig+0x348>)
 8002396:	601a      	str	r2, [r3, #0]

        /* Configure the source of time base considering new system clocks settings*/
        status = HAL_InitTick (TICK_INT_PRIORITY);
 8002398:	2513      	movs	r5, #19
 800239a:	197c      	adds	r4, r7, r5
 800239c:	2000      	movs	r0, #0
 800239e:	f7fe fcb5 	bl	8000d0c <HAL_InitTick>
 80023a2:	0003      	movs	r3, r0
 80023a4:	7023      	strb	r3, [r4, #0]
        if(status != HAL_OK)
 80023a6:	197b      	adds	r3, r7, r5
 80023a8:	781b      	ldrb	r3, [r3, #0]
 80023aa:	2b00      	cmp	r3, #0
 80023ac:	d05f      	beq.n	800246e <HAL_RCC_OscConfig+0x3ba>
        {
          return status;
 80023ae:	2313      	movs	r3, #19
 80023b0:	18fb      	adds	r3, r7, r3
 80023b2:	781b      	ldrb	r3, [r3, #0]
 80023b4:	e1f2      	b.n	800279c <HAL_RCC_OscConfig+0x6e8>
    {
      /* Check MSI State */
      assert_param(IS_RCC_MSI(RCC_OscInitStruct->MSIState));

      /* Check the MSI State */
      if(RCC_OscInitStruct->MSIState != RCC_MSI_OFF)
 80023b6:	687b      	ldr	r3, [r7, #4]
 80023b8:	699b      	ldr	r3, [r3, #24]
 80023ba:	2b00      	cmp	r3, #0
 80023bc:	d03d      	beq.n	800243a <HAL_RCC_OscConfig+0x386>
      {
        /* Enable the Multi Speed oscillator (MSI). */
        __HAL_RCC_MSI_ENABLE();
 80023be:	4b0a      	ldr	r3, [pc, #40]	; (80023e8 <HAL_RCC_OscConfig+0x334>)
 80023c0:	681a      	ldr	r2, [r3, #0]
 80023c2:	4b09      	ldr	r3, [pc, #36]	; (80023e8 <HAL_RCC_OscConfig+0x334>)
 80023c4:	2180      	movs	r1, #128	; 0x80
 80023c6:	0049      	lsls	r1, r1, #1
 80023c8:	430a      	orrs	r2, r1
 80023ca:	601a      	str	r2, [r3, #0]

        /* Get Start Tick */
        tickstart = HAL_GetTick();
 80023cc:	f7fe fcd4 	bl	8000d78 <HAL_GetTick>
 80023d0:	0003      	movs	r3, r0
 80023d2:	617b      	str	r3, [r7, #20]

        /* Wait till MSI is ready */
        while(__HAL_RCC_GET_FLAG(RCC_FLAG_MSIRDY) == 0U)
 80023d4:	e016      	b.n	8002404 <HAL_RCC_OscConfig+0x350>
        {
          if((HAL_GetTick() - tickstart) > MSI_TIMEOUT_VALUE)
 80023d6:	f7fe fccf 	bl	8000d78 <HAL_GetTick>
 80023da:	0002      	movs	r2, r0
 80023dc:	697b      	ldr	r3, [r7, #20]
 80023de:	1ad3      	subs	r3, r2, r3
 80023e0:	2b02      	cmp	r3, #2
 80023e2:	d90f      	bls.n	8002404 <HAL_RCC_OscConfig+0x350>
          {
            return HAL_TIMEOUT;
 80023e4:	2303      	movs	r3, #3
 80023e6:	e1d9      	b.n	800279c <HAL_RCC_OscConfig+0x6e8>
 80023e8:	40021000 	.word	0x40021000
 80023ec:	fffeffff 	.word	0xfffeffff
 80023f0:	fffbffff 	.word	0xfffbffff
 80023f4:	ffffe0ff 	.word	0xffffe0ff
 80023f8:	080038a4 	.word	0x080038a4
 80023fc:	20000004 	.word	0x20000004
 8002400:	ffff1fff 	.word	0xffff1fff
        while(__HAL_RCC_GET_FLAG(RCC_FLAG_MSIRDY) == 0U)
 8002404:	4bca      	ldr	r3, [pc, #808]	; (8002730 <HAL_RCC_OscConfig+0x67c>)
 8002406:	681a      	ldr	r2, [r3, #0]
 8002408:	2380      	movs	r3, #128	; 0x80
 800240a:	009b      	lsls	r3, r3, #2
 800240c:	4013      	ands	r3, r2
 800240e:	d0e2      	beq.n	80023d6 <HAL_RCC_OscConfig+0x322>
        /* Check MSICalibrationValue and MSIClockRange input parameters */
        assert_param(IS_RCC_MSICALIBRATION_VALUE(RCC_OscInitStruct->MSICalibrationValue));
        assert_param(IS_RCC_MSI_CLOCK_RANGE(RCC_OscInitStruct->MSIClockRange));

        /* Selects the Multiple Speed oscillator (MSI) clock range .*/
        __HAL_RCC_MSI_RANGE_CONFIG(RCC_OscInitStruct->MSIClockRange);
 8002410:	4bc7      	ldr	r3, [pc, #796]	; (8002730 <HAL_RCC_OscConfig+0x67c>)
 8002412:	685b      	ldr	r3, [r3, #4]
 8002414:	4ac7      	ldr	r2, [pc, #796]	; (8002734 <HAL_RCC_OscConfig+0x680>)
 8002416:	4013      	ands	r3, r2
 8002418:	0019      	movs	r1, r3
 800241a:	687b      	ldr	r3, [r7, #4]
 800241c:	6a1a      	ldr	r2, [r3, #32]
 800241e:	4bc4      	ldr	r3, [pc, #784]	; (8002730 <HAL_RCC_OscConfig+0x67c>)
 8002420:	430a      	orrs	r2, r1
 8002422:	605a      	str	r2, [r3, #4]
         /* Adjusts the Multiple Speed oscillator (MSI) calibration value.*/
        __HAL_RCC_MSI_CALIBRATIONVALUE_ADJUST(RCC_OscInitStruct->MSICalibrationValue);
 8002424:	4bc2      	ldr	r3, [pc, #776]	; (8002730 <HAL_RCC_OscConfig+0x67c>)
 8002426:	685b      	ldr	r3, [r3, #4]
 8002428:	021b      	lsls	r3, r3, #8
 800242a:	0a19      	lsrs	r1, r3, #8
 800242c:	687b      	ldr	r3, [r7, #4]
 800242e:	69db      	ldr	r3, [r3, #28]
 8002430:	061a      	lsls	r2, r3, #24
 8002432:	4bbf      	ldr	r3, [pc, #764]	; (8002730 <HAL_RCC_OscConfig+0x67c>)
 8002434:	430a      	orrs	r2, r1
 8002436:	605a      	str	r2, [r3, #4]
 8002438:	e019      	b.n	800246e <HAL_RCC_OscConfig+0x3ba>
      }
      else
      {
        /* Disable the Multi Speed oscillator (MSI). */
        __HAL_RCC_MSI_DISABLE();
 800243a:	4bbd      	ldr	r3, [pc, #756]	; (8002730 <HAL_RCC_OscConfig+0x67c>)
 800243c:	681a      	ldr	r2, [r3, #0]
 800243e:	4bbc      	ldr	r3, [pc, #752]	; (8002730 <HAL_RCC_OscConfig+0x67c>)
 8002440:	49bd      	ldr	r1, [pc, #756]	; (8002738 <HAL_RCC_OscConfig+0x684>)
 8002442:	400a      	ands	r2, r1
 8002444:	601a      	str	r2, [r3, #0]

        /* Get Start Tick */
        tickstart = HAL_GetTick();
 8002446:	f7fe fc97 	bl	8000d78 <HAL_GetTick>
 800244a:	0003      	movs	r3, r0
 800244c:	617b      	str	r3, [r7, #20]

        /* Wait till MSI is ready */
        while(__HAL_RCC_GET_FLAG(RCC_FLAG_MSIRDY) != 0U)
 800244e:	e008      	b.n	8002462 <HAL_RCC_OscConfig+0x3ae>
        {
          if((HAL_GetTick() - tickstart) > MSI_TIMEOUT_VALUE)
 8002450:	f7fe fc92 	bl	8000d78 <HAL_GetTick>
 8002454:	0002      	movs	r2, r0
 8002456:	697b      	ldr	r3, [r7, #20]
 8002458:	1ad3      	subs	r3, r2, r3
 800245a:	2b02      	cmp	r3, #2
 800245c:	d901      	bls.n	8002462 <HAL_RCC_OscConfig+0x3ae>
          {
            return HAL_TIMEOUT;
 800245e:	2303      	movs	r3, #3
 8002460:	e19c      	b.n	800279c <HAL_RCC_OscConfig+0x6e8>
        while(__HAL_RCC_GET_FLAG(RCC_FLAG_MSIRDY) != 0U)
 8002462:	4bb3      	ldr	r3, [pc, #716]	; (8002730 <HAL_RCC_OscConfig+0x67c>)
 8002464:	681a      	ldr	r2, [r3, #0]
 8002466:	2380      	movs	r3, #128	; 0x80
 8002468:	009b      	lsls	r3, r3, #2
 800246a:	4013      	ands	r3, r2
 800246c:	d1f0      	bne.n	8002450 <HAL_RCC_OscConfig+0x39c>
        }
      }
    }
  }
  /*------------------------------ LSI Configuration -------------------------*/
  if(((RCC_OscInitStruct->OscillatorType) & RCC_OSCILLATORTYPE_LSI) == RCC_OSCILLATORTYPE_LSI)
 800246e:	687b      	ldr	r3, [r7, #4]
 8002470:	681b      	ldr	r3, [r3, #0]
 8002472:	2208      	movs	r2, #8
 8002474:	4013      	ands	r3, r2
 8002476:	d036      	beq.n	80024e6 <HAL_RCC_OscConfig+0x432>
  {
    /* Check the parameters */
    assert_param(IS_RCC_LSI(RCC_OscInitStruct->LSIState));

    /* Check the LSI State */
    if(RCC_OscInitStruct->LSIState != RCC_LSI_OFF)
 8002478:	687b      	ldr	r3, [r7, #4]
 800247a:	695b      	ldr	r3, [r3, #20]
 800247c:	2b00      	cmp	r3, #0
 800247e:	d019      	beq.n	80024b4 <HAL_RCC_OscConfig+0x400>
    {
      /* Enable the Internal Low Speed oscillator (LSI). */
      __HAL_RCC_LSI_ENABLE();
 8002480:	4bab      	ldr	r3, [pc, #684]	; (8002730 <HAL_RCC_OscConfig+0x67c>)
 8002482:	6d1a      	ldr	r2, [r3, #80]	; 0x50
 8002484:	4baa      	ldr	r3, [pc, #680]	; (8002730 <HAL_RCC_OscConfig+0x67c>)
 8002486:	2101      	movs	r1, #1
 8002488:	430a      	orrs	r2, r1
 800248a:	651a      	str	r2, [r3, #80]	; 0x50

      /* Get Start Tick */
      tickstart = HAL_GetTick();
 800248c:	f7fe fc74 	bl	8000d78 <HAL_GetTick>
 8002490:	0003      	movs	r3, r0
 8002492:	617b      	str	r3, [r7, #20]

      /* Wait till LSI is ready */
      while(__HAL_RCC_GET_FLAG(RCC_FLAG_LSIRDY) == 0U)
 8002494:	e008      	b.n	80024a8 <HAL_RCC_OscConfig+0x3f4>
      {
        if((HAL_GetTick() - tickstart ) > LSI_TIMEOUT_VALUE)
 8002496:	f7fe fc6f 	bl	8000d78 <HAL_GetTick>
 800249a:	0002      	movs	r2, r0
 800249c:	697b      	ldr	r3, [r7, #20]
 800249e:	1ad3      	subs	r3, r2, r3
 80024a0:	2b02      	cmp	r3, #2
 80024a2:	d901      	bls.n	80024a8 <HAL_RCC_OscConfig+0x3f4>
        {
          return HAL_TIMEOUT;
 80024a4:	2303      	movs	r3, #3
 80024a6:	e179      	b.n	800279c <HAL_RCC_OscConfig+0x6e8>
      while(__HAL_RCC_GET_FLAG(RCC_FLAG_LSIRDY) == 0U)
 80024a8:	4ba1      	ldr	r3, [pc, #644]	; (8002730 <HAL_RCC_OscConfig+0x67c>)
 80024aa:	6d1b      	ldr	r3, [r3, #80]	; 0x50
 80024ac:	2202      	movs	r2, #2
 80024ae:	4013      	ands	r3, r2
 80024b0:	d0f1      	beq.n	8002496 <HAL_RCC_OscConfig+0x3e2>
 80024b2:	e018      	b.n	80024e6 <HAL_RCC_OscConfig+0x432>
      }
    }
    else
    {
      /* Disable the Internal Low Speed oscillator (LSI). */
      __HAL_RCC_LSI_DISABLE();
 80024b4:	4b9e      	ldr	r3, [pc, #632]	; (8002730 <HAL_RCC_OscConfig+0x67c>)
 80024b6:	6d1a      	ldr	r2, [r3, #80]	; 0x50
 80024b8:	4b9d      	ldr	r3, [pc, #628]	; (8002730 <HAL_RCC_OscConfig+0x67c>)
 80024ba:	2101      	movs	r1, #1
 80024bc:	438a      	bics	r2, r1
 80024be:	651a      	str	r2, [r3, #80]	; 0x50

      /* Get Start Tick */
      tickstart = HAL_GetTick();
 80024c0:	f7fe fc5a 	bl	8000d78 <HAL_GetTick>
 80024c4:	0003      	movs	r3, r0
 80024c6:	617b      	str	r3, [r7, #20]

      /* Wait till LSI is disabled */
      while(__HAL_RCC_GET_FLAG(RCC_FLAG_LSIRDY) != 0U)
 80024c8:	e008      	b.n	80024dc <HAL_RCC_OscConfig+0x428>
      {
        if((HAL_GetTick() - tickstart ) > LSI_TIMEOUT_VALUE)
 80024ca:	f7fe fc55 	bl	8000d78 <HAL_GetTick>
 80024ce:	0002      	movs	r2, r0
 80024d0:	697b      	ldr	r3, [r7, #20]
 80024d2:	1ad3      	subs	r3, r2, r3
 80024d4:	2b02      	cmp	r3, #2
 80024d6:	d901      	bls.n	80024dc <HAL_RCC_OscConfig+0x428>
        {
          return HAL_TIMEOUT;
 80024d8:	2303      	movs	r3, #3
 80024da:	e15f      	b.n	800279c <HAL_RCC_OscConfig+0x6e8>
      while(__HAL_RCC_GET_FLAG(RCC_FLAG_LSIRDY) != 0U)
 80024dc:	4b94      	ldr	r3, [pc, #592]	; (8002730 <HAL_RCC_OscConfig+0x67c>)
 80024de:	6d1b      	ldr	r3, [r3, #80]	; 0x50
 80024e0:	2202      	movs	r2, #2
 80024e2:	4013      	ands	r3, r2
 80024e4:	d1f1      	bne.n	80024ca <HAL_RCC_OscConfig+0x416>
        }
      }
    }
  }
  /*------------------------------ LSE Configuration -------------------------*/
  if(((RCC_OscInitStruct->OscillatorType) & RCC_OSCILLATORTYPE_LSE) == RCC_OSCILLATORTYPE_LSE)
 80024e6:	687b      	ldr	r3, [r7, #4]
 80024e8:	681b      	ldr	r3, [r3, #0]
 80024ea:	2204      	movs	r2, #4
 80024ec:	4013      	ands	r3, r2
 80024ee:	d100      	bne.n	80024f2 <HAL_RCC_OscConfig+0x43e>
 80024f0:	e0af      	b.n	8002652 <HAL_RCC_OscConfig+0x59e>
  {
    FlagStatus       pwrclkchanged = RESET;
 80024f2:	2323      	movs	r3, #35	; 0x23
 80024f4:	18fb      	adds	r3, r7, r3
 80024f6:	2200      	movs	r2, #0
 80024f8:	701a      	strb	r2, [r3, #0]
    /* Check the parameters */
    assert_param(IS_RCC_LSE(RCC_OscInitStruct->LSEState));

    /* Update LSE configuration in Backup Domain control register    */
    /* Requires to enable write access to Backup Domain of necessary */
    if(__HAL_RCC_PWR_IS_CLK_DISABLED())
 80024fa:	4b8d      	ldr	r3, [pc, #564]	; (8002730 <HAL_RCC_OscConfig+0x67c>)
 80024fc:	6b9a      	ldr	r2, [r3, #56]	; 0x38
 80024fe:	2380      	movs	r3, #128	; 0x80
 8002500:	055b      	lsls	r3, r3, #21
 8002502:	4013      	ands	r3, r2
 8002504:	d10a      	bne.n	800251c <HAL_RCC_OscConfig+0x468>
    {
      __HAL_RCC_PWR_CLK_ENABLE();
 8002506:	4b8a      	ldr	r3, [pc, #552]	; (8002730 <HAL_RCC_OscConfig+0x67c>)
 8002508:	6b9a      	ldr	r2, [r3, #56]	; 0x38
 800250a:	4b89      	ldr	r3, [pc, #548]	; (8002730 <HAL_RCC_OscConfig+0x67c>)
 800250c:	2180      	movs	r1, #128	; 0x80
 800250e:	0549      	lsls	r1, r1, #21
 8002510:	430a      	orrs	r2, r1
 8002512:	639a      	str	r2, [r3, #56]	; 0x38
      pwrclkchanged = SET;
 8002514:	2323      	movs	r3, #35	; 0x23
 8002516:	18fb      	adds	r3, r7, r3
 8002518:	2201      	movs	r2, #1
 800251a:	701a      	strb	r2, [r3, #0]
    }

    if(HAL_IS_BIT_CLR(PWR->CR, PWR_CR_DBP))
 800251c:	4b87      	ldr	r3, [pc, #540]	; (800273c <HAL_RCC_OscConfig+0x688>)
 800251e:	681a      	ldr	r2, [r3, #0]
 8002520:	2380      	movs	r3, #128	; 0x80
 8002522:	005b      	lsls	r3, r3, #1
 8002524:	4013      	ands	r3, r2
 8002526:	d11a      	bne.n	800255e <HAL_RCC_OscConfig+0x4aa>
    {
      /* Enable write access to Backup domain */
      SET_BIT(PWR->CR, PWR_CR_DBP);
 8002528:	4b84      	ldr	r3, [pc, #528]	; (800273c <HAL_RCC_OscConfig+0x688>)
 800252a:	681a      	ldr	r2, [r3, #0]
 800252c:	4b83      	ldr	r3, [pc, #524]	; (800273c <HAL_RCC_OscConfig+0x688>)
 800252e:	2180      	movs	r1, #128	; 0x80
 8002530:	0049      	lsls	r1, r1, #1
 8002532:	430a      	orrs	r2, r1
 8002534:	601a      	str	r2, [r3, #0]

      /* Wait for Backup domain Write protection disable */
      tickstart = HAL_GetTick();
 8002536:	f7fe fc1f 	bl	8000d78 <HAL_GetTick>
 800253a:	0003      	movs	r3, r0
 800253c:	617b      	str	r3, [r7, #20]

      while(HAL_IS_BIT_CLR(PWR->CR, PWR_CR_DBP))
 800253e:	e008      	b.n	8002552 <HAL_RCC_OscConfig+0x49e>
      {
        if((HAL_GetTick() - tickstart) > RCC_DBP_TIMEOUT_VALUE)
 8002540:	f7fe fc1a 	bl	8000d78 <HAL_GetTick>
 8002544:	0002      	movs	r2, r0
 8002546:	697b      	ldr	r3, [r7, #20]
 8002548:	1ad3      	subs	r3, r2, r3
 800254a:	2b64      	cmp	r3, #100	; 0x64
 800254c:	d901      	bls.n	8002552 <HAL_RCC_OscConfig+0x49e>
        {
          return HAL_TIMEOUT;
 800254e:	2303      	movs	r3, #3
 8002550:	e124      	b.n	800279c <HAL_RCC_OscConfig+0x6e8>
      while(HAL_IS_BIT_CLR(PWR->CR, PWR_CR_DBP))
 8002552:	4b7a      	ldr	r3, [pc, #488]	; (800273c <HAL_RCC_OscConfig+0x688>)
 8002554:	681a      	ldr	r2, [r3, #0]
 8002556:	2380      	movs	r3, #128	; 0x80
 8002558:	005b      	lsls	r3, r3, #1
 800255a:	4013      	ands	r3, r2
 800255c:	d0f0      	beq.n	8002540 <HAL_RCC_OscConfig+0x48c>
        }
      }
    }

    /* Set the new LSE configuration -----------------------------------------*/
    __HAL_RCC_LSE_CONFIG(RCC_OscInitStruct->LSEState);
 800255e:	687b      	ldr	r3, [r7, #4]
 8002560:	689a      	ldr	r2, [r3, #8]
 8002562:	2380      	movs	r3, #128	; 0x80
 8002564:	005b      	lsls	r3, r3, #1
 8002566:	429a      	cmp	r2, r3
 8002568:	d107      	bne.n	800257a <HAL_RCC_OscConfig+0x4c6>
 800256a:	4b71      	ldr	r3, [pc, #452]	; (8002730 <HAL_RCC_OscConfig+0x67c>)
 800256c:	6d1a      	ldr	r2, [r3, #80]	; 0x50
 800256e:	4b70      	ldr	r3, [pc, #448]	; (8002730 <HAL_RCC_OscConfig+0x67c>)
 8002570:	2180      	movs	r1, #128	; 0x80
 8002572:	0049      	lsls	r1, r1, #1
 8002574:	430a      	orrs	r2, r1
 8002576:	651a      	str	r2, [r3, #80]	; 0x50
 8002578:	e031      	b.n	80025de <HAL_RCC_OscConfig+0x52a>
 800257a:	687b      	ldr	r3, [r7, #4]
 800257c:	689b      	ldr	r3, [r3, #8]
 800257e:	2b00      	cmp	r3, #0
 8002580:	d10c      	bne.n	800259c <HAL_RCC_OscConfig+0x4e8>
 8002582:	4b6b      	ldr	r3, [pc, #428]	; (8002730 <HAL_RCC_OscConfig+0x67c>)
 8002584:	6d1a      	ldr	r2, [r3, #80]	; 0x50
 8002586:	4b6a      	ldr	r3, [pc, #424]	; (8002730 <HAL_RCC_OscConfig+0x67c>)
 8002588:	496b      	ldr	r1, [pc, #428]	; (8002738 <HAL_RCC_OscConfig+0x684>)
 800258a:	400a      	ands	r2, r1
 800258c:	651a      	str	r2, [r3, #80]	; 0x50
 800258e:	4b68      	ldr	r3, [pc, #416]	; (8002730 <HAL_RCC_OscConfig+0x67c>)
 8002590:	6d1a      	ldr	r2, [r3, #80]	; 0x50
 8002592:	4b67      	ldr	r3, [pc, #412]	; (8002730 <HAL_RCC_OscConfig+0x67c>)
 8002594:	496a      	ldr	r1, [pc, #424]	; (8002740 <HAL_RCC_OscConfig+0x68c>)
 8002596:	400a      	ands	r2, r1
 8002598:	651a      	str	r2, [r3, #80]	; 0x50
 800259a:	e020      	b.n	80025de <HAL_RCC_OscConfig+0x52a>
 800259c:	687b      	ldr	r3, [r7, #4]
 800259e:	689a      	ldr	r2, [r3, #8]
 80025a0:	23a0      	movs	r3, #160	; 0xa0
 80025a2:	00db      	lsls	r3, r3, #3
 80025a4:	429a      	cmp	r2, r3
 80025a6:	d10e      	bne.n	80025c6 <HAL_RCC_OscConfig+0x512>
 80025a8:	4b61      	ldr	r3, [pc, #388]	; (8002730 <HAL_RCC_OscConfig+0x67c>)
 80025aa:	6d1a      	ldr	r2, [r3, #80]	; 0x50
 80025ac:	4b60      	ldr	r3, [pc, #384]	; (8002730 <HAL_RCC_OscConfig+0x67c>)
 80025ae:	2180      	movs	r1, #128	; 0x80
 80025b0:	00c9      	lsls	r1, r1, #3
 80025b2:	430a      	orrs	r2, r1
 80025b4:	651a      	str	r2, [r3, #80]	; 0x50
 80025b6:	4b5e      	ldr	r3, [pc, #376]	; (8002730 <HAL_RCC_OscConfig+0x67c>)
 80025b8:	6d1a      	ldr	r2, [r3, #80]	; 0x50
 80025ba:	4b5d      	ldr	r3, [pc, #372]	; (8002730 <HAL_RCC_OscConfig+0x67c>)
 80025bc:	2180      	movs	r1, #128	; 0x80
 80025be:	0049      	lsls	r1, r1, #1
 80025c0:	430a      	orrs	r2, r1
 80025c2:	651a      	str	r2, [r3, #80]	; 0x50
 80025c4:	e00b      	b.n	80025de <HAL_RCC_OscConfig+0x52a>
 80025c6:	4b5a      	ldr	r3, [pc, #360]	; (8002730 <HAL_RCC_OscConfig+0x67c>)
 80025c8:	6d1a      	ldr	r2, [r3, #80]	; 0x50
 80025ca:	4b59      	ldr	r3, [pc, #356]	; (8002730 <HAL_RCC_OscConfig+0x67c>)
 80025cc:	495a      	ldr	r1, [pc, #360]	; (8002738 <HAL_RCC_OscConfig+0x684>)
 80025ce:	400a      	ands	r2, r1
 80025d0:	651a      	str	r2, [r3, #80]	; 0x50
 80025d2:	4b57      	ldr	r3, [pc, #348]	; (8002730 <HAL_RCC_OscConfig+0x67c>)
 80025d4:	6d1a      	ldr	r2, [r3, #80]	; 0x50
 80025d6:	4b56      	ldr	r3, [pc, #344]	; (8002730 <HAL_RCC_OscConfig+0x67c>)
 80025d8:	4959      	ldr	r1, [pc, #356]	; (8002740 <HAL_RCC_OscConfig+0x68c>)
 80025da:	400a      	ands	r2, r1
 80025dc:	651a      	str	r2, [r3, #80]	; 0x50
    /* Check the LSE State */
    if(RCC_OscInitStruct->LSEState != RCC_LSE_OFF)
 80025de:	687b      	ldr	r3, [r7, #4]
 80025e0:	689b      	ldr	r3, [r3, #8]
 80025e2:	2b00      	cmp	r3, #0
 80025e4:	d015      	beq.n	8002612 <HAL_RCC_OscConfig+0x55e>
    {
      /* Get Start Tick */
      tickstart = HAL_GetTick();
 80025e6:	f7fe fbc7 	bl	8000d78 <HAL_GetTick>
 80025ea:	0003      	movs	r3, r0
 80025ec:	617b      	str	r3, [r7, #20]

      /* Wait till LSE is ready */
      while(__HAL_RCC_GET_FLAG(RCC_FLAG_LSERDY) == 0U)
 80025ee:	e009      	b.n	8002604 <HAL_RCC_OscConfig+0x550>
      {
        if((HAL_GetTick() - tickstart ) > RCC_LSE_TIMEOUT_VALUE)
 80025f0:	f7fe fbc2 	bl	8000d78 <HAL_GetTick>
 80025f4:	0002      	movs	r2, r0
 80025f6:	697b      	ldr	r3, [r7, #20]
 80025f8:	1ad3      	subs	r3, r2, r3
 80025fa:	4a52      	ldr	r2, [pc, #328]	; (8002744 <HAL_RCC_OscConfig+0x690>)
 80025fc:	4293      	cmp	r3, r2
 80025fe:	d901      	bls.n	8002604 <HAL_RCC_OscConfig+0x550>
        {
          return HAL_TIMEOUT;
 8002600:	2303      	movs	r3, #3
 8002602:	e0cb      	b.n	800279c <HAL_RCC_OscConfig+0x6e8>
      while(__HAL_RCC_GET_FLAG(RCC_FLAG_LSERDY) == 0U)
 8002604:	4b4a      	ldr	r3, [pc, #296]	; (8002730 <HAL_RCC_OscConfig+0x67c>)
 8002606:	6d1a      	ldr	r2, [r3, #80]	; 0x50
 8002608:	2380      	movs	r3, #128	; 0x80
 800260a:	009b      	lsls	r3, r3, #2
 800260c:	4013      	ands	r3, r2
 800260e:	d0ef      	beq.n	80025f0 <HAL_RCC_OscConfig+0x53c>
 8002610:	e014      	b.n	800263c <HAL_RCC_OscConfig+0x588>
      }
    }
    else
    {
      /* Get Start Tick */
      tickstart = HAL_GetTick();
 8002612:	f7fe fbb1 	bl	8000d78 <HAL_GetTick>
 8002616:	0003      	movs	r3, r0
 8002618:	617b      	str	r3, [r7, #20]

      /* Wait till LSE is disabled */
      while(__HAL_RCC_GET_FLAG(RCC_FLAG_LSERDY) != 0U)
 800261a:	e009      	b.n	8002630 <HAL_RCC_OscConfig+0x57c>
      {
        if((HAL_GetTick() - tickstart ) > RCC_LSE_TIMEOUT_VALUE)
 800261c:	f7fe fbac 	bl	8000d78 <HAL_GetTick>
 8002620:	0002      	movs	r2, r0
 8002622:	697b      	ldr	r3, [r7, #20]
 8002624:	1ad3      	subs	r3, r2, r3
 8002626:	4a47      	ldr	r2, [pc, #284]	; (8002744 <HAL_RCC_OscConfig+0x690>)
 8002628:	4293      	cmp	r3, r2
 800262a:	d901      	bls.n	8002630 <HAL_RCC_OscConfig+0x57c>
        {
          return HAL_TIMEOUT;
 800262c:	2303      	movs	r3, #3
 800262e:	e0b5      	b.n	800279c <HAL_RCC_OscConfig+0x6e8>
      while(__HAL_RCC_GET_FLAG(RCC_FLAG_LSERDY) != 0U)
 8002630:	4b3f      	ldr	r3, [pc, #252]	; (8002730 <HAL_RCC_OscConfig+0x67c>)
 8002632:	6d1a      	ldr	r2, [r3, #80]	; 0x50
 8002634:	2380      	movs	r3, #128	; 0x80
 8002636:	009b      	lsls	r3, r3, #2
 8002638:	4013      	ands	r3, r2
 800263a:	d1ef      	bne.n	800261c <HAL_RCC_OscConfig+0x568>
        }
      }
    }

    /* Require to disable power clock if necessary */
    if(pwrclkchanged == SET)
 800263c:	2323      	movs	r3, #35	; 0x23
 800263e:	18fb      	adds	r3, r7, r3
 8002640:	781b      	ldrb	r3, [r3, #0]
 8002642:	2b01      	cmp	r3, #1
 8002644:	d105      	bne.n	8002652 <HAL_RCC_OscConfig+0x59e>
    {
      __HAL_RCC_PWR_CLK_DISABLE();
 8002646:	4b3a      	ldr	r3, [pc, #232]	; (8002730 <HAL_RCC_OscConfig+0x67c>)
 8002648:	6b9a      	ldr	r2, [r3, #56]	; 0x38
 800264a:	4b39      	ldr	r3, [pc, #228]	; (8002730 <HAL_RCC_OscConfig+0x67c>)
 800264c:	493e      	ldr	r1, [pc, #248]	; (8002748 <HAL_RCC_OscConfig+0x694>)
 800264e:	400a      	ands	r2, r1
 8002650:	639a      	str	r2, [r3, #56]	; 0x38
#endif /* RCC_HSI48_SUPPORT */

  /*-------------------------------- PLL Configuration -----------------------*/
  /* Check the parameters */
  assert_param(IS_RCC_PLL(RCC_OscInitStruct->PLL.PLLState));
  if ((RCC_OscInitStruct->PLL.PLLState) != RCC_PLL_NONE)
 8002652:	687b      	ldr	r3, [r7, #4]
 8002654:	6a5b      	ldr	r3, [r3, #36]	; 0x24
 8002656:	2b00      	cmp	r3, #0
 8002658:	d100      	bne.n	800265c <HAL_RCC_OscConfig+0x5a8>
 800265a:	e09e      	b.n	800279a <HAL_RCC_OscConfig+0x6e6>
  {
    /* Check if the PLL is used as system clock or not */
    if(sysclk_source != RCC_SYSCLKSOURCE_STATUS_PLLCLK)
 800265c:	69fb      	ldr	r3, [r7, #28]
 800265e:	2b0c      	cmp	r3, #12
 8002660:	d100      	bne.n	8002664 <HAL_RCC_OscConfig+0x5b0>
 8002662:	e077      	b.n	8002754 <HAL_RCC_OscConfig+0x6a0>
    {
      if((RCC_OscInitStruct->PLL.PLLState) == RCC_PLL_ON)
 8002664:	687b      	ldr	r3, [r7, #4]
 8002666:	6a5b      	ldr	r3, [r3, #36]	; 0x24
 8002668:	2b02      	cmp	r3, #2
 800266a:	d145      	bne.n	80026f8 <HAL_RCC_OscConfig+0x644>
        assert_param(IS_RCC_PLLSOURCE(RCC_OscInitStruct->PLL.PLLSource));
        assert_param(IS_RCC_PLL_MUL(RCC_OscInitStruct->PLL.PLLMUL));
        assert_param(IS_RCC_PLL_DIV(RCC_OscInitStruct->PLL.PLLDIV));

        /* Disable the main PLL. */
        __HAL_RCC_PLL_DISABLE();
 800266c:	4b30      	ldr	r3, [pc, #192]	; (8002730 <HAL_RCC_OscConfig+0x67c>)
 800266e:	681a      	ldr	r2, [r3, #0]
 8002670:	4b2f      	ldr	r3, [pc, #188]	; (8002730 <HAL_RCC_OscConfig+0x67c>)
 8002672:	4936      	ldr	r1, [pc, #216]	; (800274c <HAL_RCC_OscConfig+0x698>)
 8002674:	400a      	ands	r2, r1
 8002676:	601a      	str	r2, [r3, #0]

        /* Get Start Tick */
        tickstart = HAL_GetTick();
 8002678:	f7fe fb7e 	bl	8000d78 <HAL_GetTick>
 800267c:	0003      	movs	r3, r0
 800267e:	617b      	str	r3, [r7, #20]

        /* Wait till PLL is disabled */
        while(__HAL_RCC_GET_FLAG(RCC_FLAG_PLLRDY)  != 0U)
 8002680:	e008      	b.n	8002694 <HAL_RCC_OscConfig+0x5e0>
        {
          if((HAL_GetTick() - tickstart ) > PLL_TIMEOUT_VALUE)
 8002682:	f7fe fb79 	bl	8000d78 <HAL_GetTick>
 8002686:	0002      	movs	r2, r0
 8002688:	697b      	ldr	r3, [r7, #20]
 800268a:	1ad3      	subs	r3, r2, r3
 800268c:	2b02      	cmp	r3, #2
 800268e:	d901      	bls.n	8002694 <HAL_RCC_OscConfig+0x5e0>
          {
            return HAL_TIMEOUT;
 8002690:	2303      	movs	r3, #3
 8002692:	e083      	b.n	800279c <HAL_RCC_OscConfig+0x6e8>
        while(__HAL_RCC_GET_FLAG(RCC_FLAG_PLLRDY)  != 0U)
 8002694:	4b26      	ldr	r3, [pc, #152]	; (8002730 <HAL_RCC_OscConfig+0x67c>)
 8002696:	681a      	ldr	r2, [r3, #0]
 8002698:	2380      	movs	r3, #128	; 0x80
 800269a:	049b      	lsls	r3, r3, #18
 800269c:	4013      	ands	r3, r2
 800269e:	d1f0      	bne.n	8002682 <HAL_RCC_OscConfig+0x5ce>
          }
        }

        /* Configure the main PLL clock source, multiplication and division factors. */
        __HAL_RCC_PLL_CONFIG(RCC_OscInitStruct->PLL.PLLSource,
 80026a0:	4b23      	ldr	r3, [pc, #140]	; (8002730 <HAL_RCC_OscConfig+0x67c>)
 80026a2:	68db      	ldr	r3, [r3, #12]
 80026a4:	4a2a      	ldr	r2, [pc, #168]	; (8002750 <HAL_RCC_OscConfig+0x69c>)
 80026a6:	4013      	ands	r3, r2
 80026a8:	0019      	movs	r1, r3
 80026aa:	687b      	ldr	r3, [r7, #4]
 80026ac:	6a9a      	ldr	r2, [r3, #40]	; 0x28
 80026ae:	687b      	ldr	r3, [r7, #4]
 80026b0:	6adb      	ldr	r3, [r3, #44]	; 0x2c
 80026b2:	431a      	orrs	r2, r3
 80026b4:	687b      	ldr	r3, [r7, #4]
 80026b6:	6b1b      	ldr	r3, [r3, #48]	; 0x30
 80026b8:	431a      	orrs	r2, r3
 80026ba:	4b1d      	ldr	r3, [pc, #116]	; (8002730 <HAL_RCC_OscConfig+0x67c>)
 80026bc:	430a      	orrs	r2, r1
 80026be:	60da      	str	r2, [r3, #12]
                             RCC_OscInitStruct->PLL.PLLMUL,
                             RCC_OscInitStruct->PLL.PLLDIV);
        /* Enable the main PLL. */
        __HAL_RCC_PLL_ENABLE();
 80026c0:	4b1b      	ldr	r3, [pc, #108]	; (8002730 <HAL_RCC_OscConfig+0x67c>)
 80026c2:	681a      	ldr	r2, [r3, #0]
 80026c4:	4b1a      	ldr	r3, [pc, #104]	; (8002730 <HAL_RCC_OscConfig+0x67c>)
 80026c6:	2180      	movs	r1, #128	; 0x80
 80026c8:	0449      	lsls	r1, r1, #17
 80026ca:	430a      	orrs	r2, r1
 80026cc:	601a      	str	r2, [r3, #0]

        /* Get Start Tick */
        tickstart = HAL_GetTick();
 80026ce:	f7fe fb53 	bl	8000d78 <HAL_GetTick>
 80026d2:	0003      	movs	r3, r0
 80026d4:	617b      	str	r3, [r7, #20]

        /* Wait till PLL is ready */
        while(__HAL_RCC_GET_FLAG(RCC_FLAG_PLLRDY)  == 0U)
 80026d6:	e008      	b.n	80026ea <HAL_RCC_OscConfig+0x636>
        {
          if((HAL_GetTick() - tickstart ) > PLL_TIMEOUT_VALUE)
 80026d8:	f7fe fb4e 	bl	8000d78 <HAL_GetTick>
 80026dc:	0002      	movs	r2, r0
 80026de:	697b      	ldr	r3, [r7, #20]
 80026e0:	1ad3      	subs	r3, r2, r3
 80026e2:	2b02      	cmp	r3, #2
 80026e4:	d901      	bls.n	80026ea <HAL_RCC_OscConfig+0x636>
          {
            return HAL_TIMEOUT;
 80026e6:	2303      	movs	r3, #3
 80026e8:	e058      	b.n	800279c <HAL_RCC_OscConfig+0x6e8>
        while(__HAL_RCC_GET_FLAG(RCC_FLAG_PLLRDY)  == 0U)
 80026ea:	4b11      	ldr	r3, [pc, #68]	; (8002730 <HAL_RCC_OscConfig+0x67c>)
 80026ec:	681a      	ldr	r2, [r3, #0]
 80026ee:	2380      	movs	r3, #128	; 0x80
 80026f0:	049b      	lsls	r3, r3, #18
 80026f2:	4013      	ands	r3, r2
 80026f4:	d0f0      	beq.n	80026d8 <HAL_RCC_OscConfig+0x624>
 80026f6:	e050      	b.n	800279a <HAL_RCC_OscConfig+0x6e6>
        }
      }
      else
      {
        /* Disable the main PLL. */
        __HAL_RCC_PLL_DISABLE();
 80026f8:	4b0d      	ldr	r3, [pc, #52]	; (8002730 <HAL_RCC_OscConfig+0x67c>)
 80026fa:	681a      	ldr	r2, [r3, #0]
 80026fc:	4b0c      	ldr	r3, [pc, #48]	; (8002730 <HAL_RCC_OscConfig+0x67c>)
 80026fe:	4913      	ldr	r1, [pc, #76]	; (800274c <HAL_RCC_OscConfig+0x698>)
 8002700:	400a      	ands	r2, r1
 8002702:	601a      	str	r2, [r3, #0]

        /* Get Start Tick */
        tickstart = HAL_GetTick();
 8002704:	f7fe fb38 	bl	8000d78 <HAL_GetTick>
 8002708:	0003      	movs	r3, r0
 800270a:	617b      	str	r3, [r7, #20]

        /* Wait till PLL is disabled */
        while(__HAL_RCC_GET_FLAG(RCC_FLAG_PLLRDY)  != 0U)
 800270c:	e008      	b.n	8002720 <HAL_RCC_OscConfig+0x66c>
        {
          if((HAL_GetTick() - tickstart ) > PLL_TIMEOUT_VALUE)
 800270e:	f7fe fb33 	bl	8000d78 <HAL_GetTick>
 8002712:	0002      	movs	r2, r0
 8002714:	697b      	ldr	r3, [r7, #20]
 8002716:	1ad3      	subs	r3, r2, r3
 8002718:	2b02      	cmp	r3, #2
 800271a:	d901      	bls.n	8002720 <HAL_RCC_OscConfig+0x66c>
          {
            return HAL_TIMEOUT;
 800271c:	2303      	movs	r3, #3
 800271e:	e03d      	b.n	800279c <HAL_RCC_OscConfig+0x6e8>
        while(__HAL_RCC_GET_FLAG(RCC_FLAG_PLLRDY)  != 0U)
 8002720:	4b03      	ldr	r3, [pc, #12]	; (8002730 <HAL_RCC_OscConfig+0x67c>)
 8002722:	681a      	ldr	r2, [r3, #0]
 8002724:	2380      	movs	r3, #128	; 0x80
 8002726:	049b      	lsls	r3, r3, #18
 8002728:	4013      	ands	r3, r2
 800272a:	d1f0      	bne.n	800270e <HAL_RCC_OscConfig+0x65a>
 800272c:	e035      	b.n	800279a <HAL_RCC_OscConfig+0x6e6>
 800272e:	46c0      	nop			; (mov r8, r8)
 8002730:	40021000 	.word	0x40021000
 8002734:	ffff1fff 	.word	0xffff1fff
 8002738:	fffffeff 	.word	0xfffffeff
 800273c:	40007000 	.word	0x40007000
 8002740:	fffffbff 	.word	0xfffffbff
 8002744:	00001388 	.word	0x00001388
 8002748:	efffffff 	.word	0xefffffff
 800274c:	feffffff 	.word	0xfeffffff
 8002750:	ff02ffff 	.word	0xff02ffff
      }
    }
    else
    {
      /* Check if there is a request to disable the PLL used as System clock source */
      if((RCC_OscInitStruct->PLL.PLLState) == RCC_PLL_OFF)
 8002754:	687b      	ldr	r3, [r7, #4]
 8002756:	6a5b      	ldr	r3, [r3, #36]	; 0x24
 8002758:	2b01      	cmp	r3, #1
 800275a:	d101      	bne.n	8002760 <HAL_RCC_OscConfig+0x6ac>
      {
        return HAL_ERROR;
 800275c:	2301      	movs	r3, #1
 800275e:	e01d      	b.n	800279c <HAL_RCC_OscConfig+0x6e8>
      }
      else
      {
        /* Do not return HAL_ERROR if request repeats the current configuration */
        pll_config = RCC->CFGR;
 8002760:	4b10      	ldr	r3, [pc, #64]	; (80027a4 <HAL_RCC_OscConfig+0x6f0>)
 8002762:	68db      	ldr	r3, [r3, #12]
 8002764:	61bb      	str	r3, [r7, #24]
        if((READ_BIT(pll_config, RCC_CFGR_PLLSRC) != RCC_OscInitStruct->PLL.PLLSource) ||
 8002766:	69ba      	ldr	r2, [r7, #24]
 8002768:	2380      	movs	r3, #128	; 0x80
 800276a:	025b      	lsls	r3, r3, #9
 800276c:	401a      	ands	r2, r3
 800276e:	687b      	ldr	r3, [r7, #4]
 8002770:	6a9b      	ldr	r3, [r3, #40]	; 0x28
 8002772:	429a      	cmp	r2, r3
 8002774:	d10f      	bne.n	8002796 <HAL_RCC_OscConfig+0x6e2>
           (READ_BIT(pll_config, RCC_CFGR_PLLMUL) != RCC_OscInitStruct->PLL.PLLMUL) ||
 8002776:	69ba      	ldr	r2, [r7, #24]
 8002778:	23f0      	movs	r3, #240	; 0xf0
 800277a:	039b      	lsls	r3, r3, #14
 800277c:	401a      	ands	r2, r3
 800277e:	687b      	ldr	r3, [r7, #4]
 8002780:	6adb      	ldr	r3, [r3, #44]	; 0x2c
        if((READ_BIT(pll_config, RCC_CFGR_PLLSRC) != RCC_OscInitStruct->PLL.PLLSource) ||
 8002782:	429a      	cmp	r2, r3
 8002784:	d107      	bne.n	8002796 <HAL_RCC_OscConfig+0x6e2>
           (READ_BIT(pll_config, RCC_CFGR_PLLDIV) != RCC_OscInitStruct->PLL.PLLDIV))
 8002786:	69ba      	ldr	r2, [r7, #24]
 8002788:	23c0      	movs	r3, #192	; 0xc0
 800278a:	041b      	lsls	r3, r3, #16
 800278c:	401a      	ands	r2, r3
 800278e:	687b      	ldr	r3, [r7, #4]
 8002790:	6b1b      	ldr	r3, [r3, #48]	; 0x30
           (READ_BIT(pll_config, RCC_CFGR_PLLMUL) != RCC_OscInitStruct->PLL.PLLMUL) ||
 8002792:	429a      	cmp	r2, r3
 8002794:	d001      	beq.n	800279a <HAL_RCC_OscConfig+0x6e6>
        {
          return HAL_ERROR;
 8002796:	2301      	movs	r3, #1
 8002798:	e000      	b.n	800279c <HAL_RCC_OscConfig+0x6e8>
        }
      }
    }
  }

  return HAL_OK;
 800279a:	2300      	movs	r3, #0
}
 800279c:	0018      	movs	r0, r3
 800279e:	46bd      	mov	sp, r7
 80027a0:	b00a      	add	sp, #40	; 0x28
 80027a2:	bdb0      	pop	{r4, r5, r7, pc}
 80027a4:	40021000 	.word	0x40021000

080027a8 <HAL_RCC_ClockConfig>:
  *         HPRE[3:0] bits to ensure that HCLK not exceed the maximum allowed frequency
  *         (for more details refer to section above "Initialization/de-initialization functions")
  * @retval HAL status
  */
HAL_StatusTypeDef HAL_RCC_ClockConfig(RCC_ClkInitTypeDef  *RCC_ClkInitStruct, uint32_t FLatency)
{
 80027a8:	b5b0      	push	{r4, r5, r7, lr}
 80027aa:	b084      	sub	sp, #16
 80027ac:	af00      	add	r7, sp, #0
 80027ae:	6078      	str	r0, [r7, #4]
 80027b0:	6039      	str	r1, [r7, #0]
  uint32_t tickstart;
  HAL_StatusTypeDef status;

  /* Check the parameters */
  if(RCC_ClkInitStruct == NULL)
 80027b2:	687b      	ldr	r3, [r7, #4]
 80027b4:	2b00      	cmp	r3, #0
 80027b6:	d101      	bne.n	80027bc <HAL_RCC_ClockConfig+0x14>
  {
    return HAL_ERROR;
 80027b8:	2301      	movs	r3, #1
 80027ba:	e10d      	b.n	80029d8 <HAL_RCC_ClockConfig+0x230>
  /* To correctly read data from FLASH memory, the number of wait states (LATENCY)
  must be correctly programmed according to the frequency of the CPU clock
  (HCLK) and the supply voltage of the device. */

  /* Increasing the number of wait states because of higher CPU frequency */
  if(FLatency > __HAL_FLASH_GET_LATENCY())
 80027bc:	4b88      	ldr	r3, [pc, #544]	; (80029e0 <HAL_RCC_ClockConfig+0x238>)
 80027be:	681b      	ldr	r3, [r3, #0]
 80027c0:	2201      	movs	r2, #1
 80027c2:	4013      	ands	r3, r2
 80027c4:	683a      	ldr	r2, [r7, #0]
 80027c6:	429a      	cmp	r2, r3
 80027c8:	d911      	bls.n	80027ee <HAL_RCC_ClockConfig+0x46>
  {
    /* Program the new number of wait states to the LATENCY bits in the FLASH_ACR register */
    __HAL_FLASH_SET_LATENCY(FLatency);
 80027ca:	4b85      	ldr	r3, [pc, #532]	; (80029e0 <HAL_RCC_ClockConfig+0x238>)
 80027cc:	681b      	ldr	r3, [r3, #0]
 80027ce:	2201      	movs	r2, #1
 80027d0:	4393      	bics	r3, r2
 80027d2:	0019      	movs	r1, r3
 80027d4:	4b82      	ldr	r3, [pc, #520]	; (80029e0 <HAL_RCC_ClockConfig+0x238>)
 80027d6:	683a      	ldr	r2, [r7, #0]
 80027d8:	430a      	orrs	r2, r1
 80027da:	601a      	str	r2, [r3, #0]

    /* Check that the new number of wait states is taken into account to access the Flash
    memory by reading the FLASH_ACR register */
    if(__HAL_FLASH_GET_LATENCY() != FLatency)
 80027dc:	4b80      	ldr	r3, [pc, #512]	; (80029e0 <HAL_RCC_ClockConfig+0x238>)
 80027de:	681b      	ldr	r3, [r3, #0]
 80027e0:	2201      	movs	r2, #1
 80027e2:	4013      	ands	r3, r2
 80027e4:	683a      	ldr	r2, [r7, #0]
 80027e6:	429a      	cmp	r2, r3
 80027e8:	d001      	beq.n	80027ee <HAL_RCC_ClockConfig+0x46>
    {
      return HAL_ERROR;
 80027ea:	2301      	movs	r3, #1
 80027ec:	e0f4      	b.n	80029d8 <HAL_RCC_ClockConfig+0x230>
    }
  }

  /*-------------------------- HCLK Configuration --------------------------*/
  if(((RCC_ClkInitStruct->ClockType) & RCC_CLOCKTYPE_HCLK) == RCC_CLOCKTYPE_HCLK)
 80027ee:	687b      	ldr	r3, [r7, #4]
 80027f0:	681b      	ldr	r3, [r3, #0]
 80027f2:	2202      	movs	r2, #2
 80027f4:	4013      	ands	r3, r2
 80027f6:	d009      	beq.n	800280c <HAL_RCC_ClockConfig+0x64>
  {
    assert_param(IS_RCC_HCLK(RCC_ClkInitStruct->AHBCLKDivider));
    MODIFY_REG(RCC->CFGR, RCC_CFGR_HPRE, RCC_ClkInitStruct->AHBCLKDivider);
 80027f8:	4b7a      	ldr	r3, [pc, #488]	; (80029e4 <HAL_RCC_ClockConfig+0x23c>)
 80027fa:	68db      	ldr	r3, [r3, #12]
 80027fc:	22f0      	movs	r2, #240	; 0xf0
 80027fe:	4393      	bics	r3, r2
 8002800:	0019      	movs	r1, r3
 8002802:	687b      	ldr	r3, [r7, #4]
 8002804:	689a      	ldr	r2, [r3, #8]
 8002806:	4b77      	ldr	r3, [pc, #476]	; (80029e4 <HAL_RCC_ClockConfig+0x23c>)
 8002808:	430a      	orrs	r2, r1
 800280a:	60da      	str	r2, [r3, #12]
  }

  /*------------------------- SYSCLK Configuration ---------------------------*/
  if(((RCC_ClkInitStruct->ClockType) & RCC_CLOCKTYPE_SYSCLK) == RCC_CLOCKTYPE_SYSCLK)
 800280c:	687b      	ldr	r3, [r7, #4]
 800280e:	681b      	ldr	r3, [r3, #0]
 8002810:	2201      	movs	r2, #1
 8002812:	4013      	ands	r3, r2
 8002814:	d100      	bne.n	8002818 <HAL_RCC_ClockConfig+0x70>
 8002816:	e089      	b.n	800292c <HAL_RCC_ClockConfig+0x184>
  {
    assert_param(IS_RCC_SYSCLKSOURCE(RCC_ClkInitStruct->SYSCLKSource));

    /* HSE is selected as System Clock Source */
    if(RCC_ClkInitStruct->SYSCLKSource == RCC_SYSCLKSOURCE_HSE)
 8002818:	687b      	ldr	r3, [r7, #4]
 800281a:	685b      	ldr	r3, [r3, #4]
 800281c:	2b02      	cmp	r3, #2
 800281e:	d107      	bne.n	8002830 <HAL_RCC_ClockConfig+0x88>
    {
      /* Check the HSE ready flag */
      if(__HAL_RCC_GET_FLAG(RCC_FLAG_HSERDY) == 0U)
 8002820:	4b70      	ldr	r3, [pc, #448]	; (80029e4 <HAL_RCC_ClockConfig+0x23c>)
 8002822:	681a      	ldr	r2, [r3, #0]
 8002824:	2380      	movs	r3, #128	; 0x80
 8002826:	029b      	lsls	r3, r3, #10
 8002828:	4013      	ands	r3, r2
 800282a:	d120      	bne.n	800286e <HAL_RCC_ClockConfig+0xc6>
      {
        return HAL_ERROR;
 800282c:	2301      	movs	r3, #1
 800282e:	e0d3      	b.n	80029d8 <HAL_RCC_ClockConfig+0x230>
      }
    }
    /* PLL is selected as System Clock Source */
    else if(RCC_ClkInitStruct->SYSCLKSource == RCC_SYSCLKSOURCE_PLLCLK)
 8002830:	687b      	ldr	r3, [r7, #4]
 8002832:	685b      	ldr	r3, [r3, #4]
 8002834:	2b03      	cmp	r3, #3
 8002836:	d107      	bne.n	8002848 <HAL_RCC_ClockConfig+0xa0>
    {
      /* Check the PLL ready flag */
      if(__HAL_RCC_GET_FLAG(RCC_FLAG_PLLRDY) == 0U)
 8002838:	4b6a      	ldr	r3, [pc, #424]	; (80029e4 <HAL_RCC_ClockConfig+0x23c>)
 800283a:	681a      	ldr	r2, [r3, #0]
 800283c:	2380      	movs	r3, #128	; 0x80
 800283e:	049b      	lsls	r3, r3, #18
 8002840:	4013      	ands	r3, r2
 8002842:	d114      	bne.n	800286e <HAL_RCC_ClockConfig+0xc6>
      {
        return HAL_ERROR;
 8002844:	2301      	movs	r3, #1
 8002846:	e0c7      	b.n	80029d8 <HAL_RCC_ClockConfig+0x230>
      }
    }
    /* HSI is selected as System Clock Source */
    else if(RCC_ClkInitStruct->SYSCLKSource == RCC_SYSCLKSOURCE_HSI)
 8002848:	687b      	ldr	r3, [r7, #4]
 800284a:	685b      	ldr	r3, [r3, #4]
 800284c:	2b01      	cmp	r3, #1
 800284e:	d106      	bne.n	800285e <HAL_RCC_ClockConfig+0xb6>
    {
      /* Check the HSI ready flag */
      if(__HAL_RCC_GET_FLAG(RCC_FLAG_HSIRDY) == 0U)
 8002850:	4b64      	ldr	r3, [pc, #400]	; (80029e4 <HAL_RCC_ClockConfig+0x23c>)
 8002852:	681b      	ldr	r3, [r3, #0]
 8002854:	2204      	movs	r2, #4
 8002856:	4013      	ands	r3, r2
 8002858:	d109      	bne.n	800286e <HAL_RCC_ClockConfig+0xc6>
      {
        return HAL_ERROR;
 800285a:	2301      	movs	r3, #1
 800285c:	e0bc      	b.n	80029d8 <HAL_RCC_ClockConfig+0x230>
    }
    /* MSI is selected as System Clock Source */
    else
    {
      /* Check the MSI ready flag */
      if(__HAL_RCC_GET_FLAG(RCC_FLAG_MSIRDY) == 0U)
 800285e:	4b61      	ldr	r3, [pc, #388]	; (80029e4 <HAL_RCC_ClockConfig+0x23c>)
 8002860:	681a      	ldr	r2, [r3, #0]
 8002862:	2380      	movs	r3, #128	; 0x80
 8002864:	009b      	lsls	r3, r3, #2
 8002866:	4013      	ands	r3, r2
 8002868:	d101      	bne.n	800286e <HAL_RCC_ClockConfig+0xc6>
      {
        return HAL_ERROR;
 800286a:	2301      	movs	r3, #1
 800286c:	e0b4      	b.n	80029d8 <HAL_RCC_ClockConfig+0x230>
      }
    }
    __HAL_RCC_SYSCLK_CONFIG(RCC_ClkInitStruct->SYSCLKSource);
 800286e:	4b5d      	ldr	r3, [pc, #372]	; (80029e4 <HAL_RCC_ClockConfig+0x23c>)
 8002870:	68db      	ldr	r3, [r3, #12]
 8002872:	2203      	movs	r2, #3
 8002874:	4393      	bics	r3, r2
 8002876:	0019      	movs	r1, r3
 8002878:	687b      	ldr	r3, [r7, #4]
 800287a:	685a      	ldr	r2, [r3, #4]
 800287c:	4b59      	ldr	r3, [pc, #356]	; (80029e4 <HAL_RCC_ClockConfig+0x23c>)
 800287e:	430a      	orrs	r2, r1
 8002880:	60da      	str	r2, [r3, #12]

    /* Get Start Tick */
    tickstart = HAL_GetTick();
 8002882:	f7fe fa79 	bl	8000d78 <HAL_GetTick>
 8002886:	0003      	movs	r3, r0
 8002888:	60fb      	str	r3, [r7, #12]

    if(RCC_ClkInitStruct->SYSCLKSource == RCC_SYSCLKSOURCE_HSE)
 800288a:	687b      	ldr	r3, [r7, #4]
 800288c:	685b      	ldr	r3, [r3, #4]
 800288e:	2b02      	cmp	r3, #2
 8002890:	d111      	bne.n	80028b6 <HAL_RCC_ClockConfig+0x10e>
    {
      while (__HAL_RCC_GET_SYSCLK_SOURCE() != RCC_SYSCLKSOURCE_STATUS_HSE)
 8002892:	e009      	b.n	80028a8 <HAL_RCC_ClockConfig+0x100>
      {
        if((HAL_GetTick() - tickstart ) > CLOCKSWITCH_TIMEOUT_VALUE)
 8002894:	f7fe fa70 	bl	8000d78 <HAL_GetTick>
 8002898:	0002      	movs	r2, r0
 800289a:	68fb      	ldr	r3, [r7, #12]
 800289c:	1ad3      	subs	r3, r2, r3
 800289e:	4a52      	ldr	r2, [pc, #328]	; (80029e8 <HAL_RCC_ClockConfig+0x240>)
 80028a0:	4293      	cmp	r3, r2
 80028a2:	d901      	bls.n	80028a8 <HAL_RCC_ClockConfig+0x100>
        {
          return HAL_TIMEOUT;
 80028a4:	2303      	movs	r3, #3
 80028a6:	e097      	b.n	80029d8 <HAL_RCC_ClockConfig+0x230>
      while (__HAL_RCC_GET_SYSCLK_SOURCE() != RCC_SYSCLKSOURCE_STATUS_HSE)
 80028a8:	4b4e      	ldr	r3, [pc, #312]	; (80029e4 <HAL_RCC_ClockConfig+0x23c>)
 80028aa:	68db      	ldr	r3, [r3, #12]
 80028ac:	220c      	movs	r2, #12
 80028ae:	4013      	ands	r3, r2
 80028b0:	2b08      	cmp	r3, #8
 80028b2:	d1ef      	bne.n	8002894 <HAL_RCC_ClockConfig+0xec>
 80028b4:	e03a      	b.n	800292c <HAL_RCC_ClockConfig+0x184>
        }
      }
    }
    else if(RCC_ClkInitStruct->SYSCLKSource == RCC_SYSCLKSOURCE_PLLCLK)
 80028b6:	687b      	ldr	r3, [r7, #4]
 80028b8:	685b      	ldr	r3, [r3, #4]
 80028ba:	2b03      	cmp	r3, #3
 80028bc:	d111      	bne.n	80028e2 <HAL_RCC_ClockConfig+0x13a>
    {
      while (__HAL_RCC_GET_SYSCLK_SOURCE() != RCC_SYSCLKSOURCE_STATUS_PLLCLK)
 80028be:	e009      	b.n	80028d4 <HAL_RCC_ClockConfig+0x12c>
      {
        if((HAL_GetTick() - tickstart ) > CLOCKSWITCH_TIMEOUT_VALUE)
 80028c0:	f7fe fa5a 	bl	8000d78 <HAL_GetTick>
 80028c4:	0002      	movs	r2, r0
 80028c6:	68fb      	ldr	r3, [r7, #12]
 80028c8:	1ad3      	subs	r3, r2, r3
 80028ca:	4a47      	ldr	r2, [pc, #284]	; (80029e8 <HAL_RCC_ClockConfig+0x240>)
 80028cc:	4293      	cmp	r3, r2
 80028ce:	d901      	bls.n	80028d4 <HAL_RCC_ClockConfig+0x12c>
        {
          return HAL_TIMEOUT;
 80028d0:	2303      	movs	r3, #3
 80028d2:	e081      	b.n	80029d8 <HAL_RCC_ClockConfig+0x230>
      while (__HAL_RCC_GET_SYSCLK_SOURCE() != RCC_SYSCLKSOURCE_STATUS_PLLCLK)
 80028d4:	4b43      	ldr	r3, [pc, #268]	; (80029e4 <HAL_RCC_ClockConfig+0x23c>)
 80028d6:	68db      	ldr	r3, [r3, #12]
 80028d8:	220c      	movs	r2, #12
 80028da:	4013      	ands	r3, r2
 80028dc:	2b0c      	cmp	r3, #12
 80028de:	d1ef      	bne.n	80028c0 <HAL_RCC_ClockConfig+0x118>
 80028e0:	e024      	b.n	800292c <HAL_RCC_ClockConfig+0x184>
        }
      }
    }
    else if(RCC_ClkInitStruct->SYSCLKSource == RCC_SYSCLKSOURCE_HSI)
 80028e2:	687b      	ldr	r3, [r7, #4]
 80028e4:	685b      	ldr	r3, [r3, #4]
 80028e6:	2b01      	cmp	r3, #1
 80028e8:	d11b      	bne.n	8002922 <HAL_RCC_ClockConfig+0x17a>
    {
      while (__HAL_RCC_GET_SYSCLK_SOURCE() != RCC_SYSCLKSOURCE_STATUS_HSI)
 80028ea:	e009      	b.n	8002900 <HAL_RCC_ClockConfig+0x158>
      {
        if((HAL_GetTick() - tickstart ) > CLOCKSWITCH_TIMEOUT_VALUE)
 80028ec:	f7fe fa44 	bl	8000d78 <HAL_GetTick>
 80028f0:	0002      	movs	r2, r0
 80028f2:	68fb      	ldr	r3, [r7, #12]
 80028f4:	1ad3      	subs	r3, r2, r3
 80028f6:	4a3c      	ldr	r2, [pc, #240]	; (80029e8 <HAL_RCC_ClockConfig+0x240>)
 80028f8:	4293      	cmp	r3, r2
 80028fa:	d901      	bls.n	8002900 <HAL_RCC_ClockConfig+0x158>
        {
          return HAL_TIMEOUT;
 80028fc:	2303      	movs	r3, #3
 80028fe:	e06b      	b.n	80029d8 <HAL_RCC_ClockConfig+0x230>
      while (__HAL_RCC_GET_SYSCLK_SOURCE() != RCC_SYSCLKSOURCE_STATUS_HSI)
 8002900:	4b38      	ldr	r3, [pc, #224]	; (80029e4 <HAL_RCC_ClockConfig+0x23c>)
 8002902:	68db      	ldr	r3, [r3, #12]
 8002904:	220c      	movs	r2, #12
 8002906:	4013      	ands	r3, r2
 8002908:	2b04      	cmp	r3, #4
 800290a:	d1ef      	bne.n	80028ec <HAL_RCC_ClockConfig+0x144>
 800290c:	e00e      	b.n	800292c <HAL_RCC_ClockConfig+0x184>
    }
    else
    {
      while(__HAL_RCC_GET_SYSCLK_SOURCE() != RCC_SYSCLKSOURCE_STATUS_MSI)
      {
        if((HAL_GetTick() - tickstart ) > CLOCKSWITCH_TIMEOUT_VALUE)
 800290e:	f7fe fa33 	bl	8000d78 <HAL_GetTick>
 8002912:	0002      	movs	r2, r0
 8002914:	68fb      	ldr	r3, [r7, #12]
 8002916:	1ad3      	subs	r3, r2, r3
 8002918:	4a33      	ldr	r2, [pc, #204]	; (80029e8 <HAL_RCC_ClockConfig+0x240>)
 800291a:	4293      	cmp	r3, r2
 800291c:	d901      	bls.n	8002922 <HAL_RCC_ClockConfig+0x17a>
        {
          return HAL_TIMEOUT;
 800291e:	2303      	movs	r3, #3
 8002920:	e05a      	b.n	80029d8 <HAL_RCC_ClockConfig+0x230>
      while(__HAL_RCC_GET_SYSCLK_SOURCE() != RCC_SYSCLKSOURCE_STATUS_MSI)
 8002922:	4b30      	ldr	r3, [pc, #192]	; (80029e4 <HAL_RCC_ClockConfig+0x23c>)
 8002924:	68db      	ldr	r3, [r3, #12]
 8002926:	220c      	movs	r2, #12
 8002928:	4013      	ands	r3, r2
 800292a:	d1f0      	bne.n	800290e <HAL_RCC_ClockConfig+0x166>
        }
      }
    }
  }
  /* Decreasing the number of wait states because of lower CPU frequency */
  if(FLatency < __HAL_FLASH_GET_LATENCY())
 800292c:	4b2c      	ldr	r3, [pc, #176]	; (80029e0 <HAL_RCC_ClockConfig+0x238>)
 800292e:	681b      	ldr	r3, [r3, #0]
 8002930:	2201      	movs	r2, #1
 8002932:	4013      	ands	r3, r2
 8002934:	683a      	ldr	r2, [r7, #0]
 8002936:	429a      	cmp	r2, r3
 8002938:	d211      	bcs.n	800295e <HAL_RCC_ClockConfig+0x1b6>
  {
    /* Program the new number of wait states to the LATENCY bits in the FLASH_ACR register */
    __HAL_FLASH_SET_LATENCY(FLatency);
 800293a:	4b29      	ldr	r3, [pc, #164]	; (80029e0 <HAL_RCC_ClockConfig+0x238>)
 800293c:	681b      	ldr	r3, [r3, #0]
 800293e:	2201      	movs	r2, #1
 8002940:	4393      	bics	r3, r2
 8002942:	0019      	movs	r1, r3
 8002944:	4b26      	ldr	r3, [pc, #152]	; (80029e0 <HAL_RCC_ClockConfig+0x238>)
 8002946:	683a      	ldr	r2, [r7, #0]
 8002948:	430a      	orrs	r2, r1
 800294a:	601a      	str	r2, [r3, #0]

    /* Check that the new number of wait states is taken into account to access the Flash
    memory by reading the FLASH_ACR register */
    if(__HAL_FLASH_GET_LATENCY() != FLatency)
 800294c:	4b24      	ldr	r3, [pc, #144]	; (80029e0 <HAL_RCC_ClockConfig+0x238>)
 800294e:	681b      	ldr	r3, [r3, #0]
 8002950:	2201      	movs	r2, #1
 8002952:	4013      	ands	r3, r2
 8002954:	683a      	ldr	r2, [r7, #0]
 8002956:	429a      	cmp	r2, r3
 8002958:	d001      	beq.n	800295e <HAL_RCC_ClockConfig+0x1b6>
    {
      return HAL_ERROR;
 800295a:	2301      	movs	r3, #1
 800295c:	e03c      	b.n	80029d8 <HAL_RCC_ClockConfig+0x230>
    }
  }

  /*-------------------------- PCLK1 Configuration ---------------------------*/
  if(((RCC_ClkInitStruct->ClockType) & RCC_CLOCKTYPE_PCLK1) == RCC_CLOCKTYPE_PCLK1)
 800295e:	687b      	ldr	r3, [r7, #4]
 8002960:	681b      	ldr	r3, [r3, #0]
 8002962:	2204      	movs	r2, #4
 8002964:	4013      	ands	r3, r2
 8002966:	d009      	beq.n	800297c <HAL_RCC_ClockConfig+0x1d4>
  {
    assert_param(IS_RCC_PCLK(RCC_ClkInitStruct->APB1CLKDivider));
    MODIFY_REG(RCC->CFGR, RCC_CFGR_PPRE1, RCC_ClkInitStruct->APB1CLKDivider);
 8002968:	4b1e      	ldr	r3, [pc, #120]	; (80029e4 <HAL_RCC_ClockConfig+0x23c>)
 800296a:	68db      	ldr	r3, [r3, #12]
 800296c:	4a1f      	ldr	r2, [pc, #124]	; (80029ec <HAL_RCC_ClockConfig+0x244>)
 800296e:	4013      	ands	r3, r2
 8002970:	0019      	movs	r1, r3
 8002972:	687b      	ldr	r3, [r7, #4]
 8002974:	68da      	ldr	r2, [r3, #12]
 8002976:	4b1b      	ldr	r3, [pc, #108]	; (80029e4 <HAL_RCC_ClockConfig+0x23c>)
 8002978:	430a      	orrs	r2, r1
 800297a:	60da      	str	r2, [r3, #12]
  }

  /*-------------------------- PCLK2 Configuration ---------------------------*/
  if(((RCC_ClkInitStruct->ClockType) & RCC_CLOCKTYPE_PCLK2) == RCC_CLOCKTYPE_PCLK2)
 800297c:	687b      	ldr	r3, [r7, #4]
 800297e:	681b      	ldr	r3, [r3, #0]
 8002980:	2208      	movs	r2, #8
 8002982:	4013      	ands	r3, r2
 8002984:	d00a      	beq.n	800299c <HAL_RCC_ClockConfig+0x1f4>
  {
    assert_param(IS_RCC_PCLK(RCC_ClkInitStruct->APB2CLKDivider));
    MODIFY_REG(RCC->CFGR, RCC_CFGR_PPRE2, ((RCC_ClkInitStruct->APB2CLKDivider) << 3));
 8002986:	4b17      	ldr	r3, [pc, #92]	; (80029e4 <HAL_RCC_ClockConfig+0x23c>)
 8002988:	68db      	ldr	r3, [r3, #12]
 800298a:	4a19      	ldr	r2, [pc, #100]	; (80029f0 <HAL_RCC_ClockConfig+0x248>)
 800298c:	4013      	ands	r3, r2
 800298e:	0019      	movs	r1, r3
 8002990:	687b      	ldr	r3, [r7, #4]
 8002992:	691b      	ldr	r3, [r3, #16]
 8002994:	00da      	lsls	r2, r3, #3
 8002996:	4b13      	ldr	r3, [pc, #76]	; (80029e4 <HAL_RCC_ClockConfig+0x23c>)
 8002998:	430a      	orrs	r2, r1
 800299a:	60da      	str	r2, [r3, #12]
  }

  /* Update the SystemCoreClock global variable */
  SystemCoreClock = HAL_RCC_GetSysClockFreq() >> AHBPrescTable[(RCC->CFGR & RCC_CFGR_HPRE)>> RCC_CFGR_HPRE_Pos];
 800299c:	f000 f82e 	bl	80029fc <HAL_RCC_GetSysClockFreq>
 80029a0:	0001      	movs	r1, r0
 80029a2:	4b10      	ldr	r3, [pc, #64]	; (80029e4 <HAL_RCC_ClockConfig+0x23c>)
 80029a4:	68db      	ldr	r3, [r3, #12]
 80029a6:	091b      	lsrs	r3, r3, #4
 80029a8:	220f      	movs	r2, #15
 80029aa:	4013      	ands	r3, r2
 80029ac:	4a11      	ldr	r2, [pc, #68]	; (80029f4 <HAL_RCC_ClockConfig+0x24c>)
 80029ae:	5cd3      	ldrb	r3, [r2, r3]
 80029b0:	000a      	movs	r2, r1
 80029b2:	40da      	lsrs	r2, r3
 80029b4:	4b10      	ldr	r3, [pc, #64]	; (80029f8 <HAL_RCC_ClockConfig+0x250>)
 80029b6:	601a      	str	r2, [r3, #0]

  /* Configure the source of time base considering new system clocks settings*/
  status = HAL_InitTick(TICK_INT_PRIORITY);
 80029b8:	250b      	movs	r5, #11
 80029ba:	197c      	adds	r4, r7, r5
 80029bc:	2000      	movs	r0, #0
 80029be:	f7fe f9a5 	bl	8000d0c <HAL_InitTick>
 80029c2:	0003      	movs	r3, r0
 80029c4:	7023      	strb	r3, [r4, #0]
  if(status != HAL_OK)
 80029c6:	197b      	adds	r3, r7, r5
 80029c8:	781b      	ldrb	r3, [r3, #0]
 80029ca:	2b00      	cmp	r3, #0
 80029cc:	d003      	beq.n	80029d6 <HAL_RCC_ClockConfig+0x22e>
  {
    return status;
 80029ce:	230b      	movs	r3, #11
 80029d0:	18fb      	adds	r3, r7, r3
 80029d2:	781b      	ldrb	r3, [r3, #0]
 80029d4:	e000      	b.n	80029d8 <HAL_RCC_ClockConfig+0x230>
  }

  return HAL_OK;
 80029d6:	2300      	movs	r3, #0
}
 80029d8:	0018      	movs	r0, r3
 80029da:	46bd      	mov	sp, r7
 80029dc:	b004      	add	sp, #16
 80029de:	bdb0      	pop	{r4, r5, r7, pc}
 80029e0:	40022000 	.word	0x40022000
 80029e4:	40021000 	.word	0x40021000
 80029e8:	00001388 	.word	0x00001388
 80029ec:	fffff8ff 	.word	0xfffff8ff
 80029f0:	ffffc7ff 	.word	0xffffc7ff
 80029f4:	080038a4 	.word	0x080038a4
 80029f8:	20000004 	.word	0x20000004

080029fc <HAL_RCC_GetSysClockFreq>:
  *         right SYSCLK value. Otherwise, any configuration based on this function will be incorrect.
  *
  * @retval SYSCLK frequency
  */
uint32_t HAL_RCC_GetSysClockFreq(void)
{
 80029fc:	b580      	push	{r7, lr}
 80029fe:	b086      	sub	sp, #24
 8002a00:	af00      	add	r7, sp, #0
  uint32_t tmpreg, pllm, plld, pllvco, msiclkrange;    /* no init needed */
  uint32_t sysclockfreq;

  tmpreg = RCC->CFGR;
 8002a02:	4b3b      	ldr	r3, [pc, #236]	; (8002af0 <HAL_RCC_GetSysClockFreq+0xf4>)
 8002a04:	68db      	ldr	r3, [r3, #12]
 8002a06:	60fb      	str	r3, [r7, #12]

  /* Get SYSCLK source -------------------------------------------------------*/
  switch (tmpreg & RCC_CFGR_SWS)
 8002a08:	68fb      	ldr	r3, [r7, #12]
 8002a0a:	220c      	movs	r2, #12
 8002a0c:	4013      	ands	r3, r2
 8002a0e:	2b08      	cmp	r3, #8
 8002a10:	d00e      	beq.n	8002a30 <HAL_RCC_GetSysClockFreq+0x34>
 8002a12:	2b0c      	cmp	r3, #12
 8002a14:	d00f      	beq.n	8002a36 <HAL_RCC_GetSysClockFreq+0x3a>
 8002a16:	2b04      	cmp	r3, #4
 8002a18:	d157      	bne.n	8002aca <HAL_RCC_GetSysClockFreq+0xce>
  {
    case RCC_SYSCLKSOURCE_STATUS_HSI:  /* HSI used as system clock source */
    {
      if ((RCC->CR & RCC_CR_HSIDIVF) != 0U)
 8002a1a:	4b35      	ldr	r3, [pc, #212]	; (8002af0 <HAL_RCC_GetSysClockFreq+0xf4>)
 8002a1c:	681b      	ldr	r3, [r3, #0]
 8002a1e:	2210      	movs	r2, #16
 8002a20:	4013      	ands	r3, r2
 8002a22:	d002      	beq.n	8002a2a <HAL_RCC_GetSysClockFreq+0x2e>
      {
        sysclockfreq =  (HSI_VALUE >> 2);
 8002a24:	4b33      	ldr	r3, [pc, #204]	; (8002af4 <HAL_RCC_GetSysClockFreq+0xf8>)
 8002a26:	613b      	str	r3, [r7, #16]
      }
      else
      {
        sysclockfreq =  HSI_VALUE;
      }
      break;
 8002a28:	e05d      	b.n	8002ae6 <HAL_RCC_GetSysClockFreq+0xea>
        sysclockfreq =  HSI_VALUE;
 8002a2a:	4b33      	ldr	r3, [pc, #204]	; (8002af8 <HAL_RCC_GetSysClockFreq+0xfc>)
 8002a2c:	613b      	str	r3, [r7, #16]
      break;
 8002a2e:	e05a      	b.n	8002ae6 <HAL_RCC_GetSysClockFreq+0xea>
    }
    case RCC_SYSCLKSOURCE_STATUS_HSE:  /* HSE used as system clock */
    {
      sysclockfreq = HSE_VALUE;
 8002a30:	4b32      	ldr	r3, [pc, #200]	; (8002afc <HAL_RCC_GetSysClockFreq+0x100>)
 8002a32:	613b      	str	r3, [r7, #16]
      break;
 8002a34:	e057      	b.n	8002ae6 <HAL_RCC_GetSysClockFreq+0xea>
    }
    case RCC_SYSCLKSOURCE_STATUS_PLLCLK:  /* PLL used as system clock */
    {
      pllm = PLLMulTable[(uint32_t)(tmpreg & RCC_CFGR_PLLMUL) >> RCC_CFGR_PLLMUL_Pos];
 8002a36:	68fb      	ldr	r3, [r7, #12]
 8002a38:	0c9b      	lsrs	r3, r3, #18
 8002a3a:	220f      	movs	r2, #15
 8002a3c:	4013      	ands	r3, r2
 8002a3e:	4a30      	ldr	r2, [pc, #192]	; (8002b00 <HAL_RCC_GetSysClockFreq+0x104>)
 8002a40:	5cd3      	ldrb	r3, [r2, r3]
 8002a42:	60bb      	str	r3, [r7, #8]
      plld = ((uint32_t)(tmpreg & RCC_CFGR_PLLDIV) >> RCC_CFGR_PLLDIV_Pos) + 1U;
 8002a44:	68fb      	ldr	r3, [r7, #12]
 8002a46:	0d9b      	lsrs	r3, r3, #22
 8002a48:	2203      	movs	r2, #3
 8002a4a:	4013      	ands	r3, r2
 8002a4c:	3301      	adds	r3, #1
 8002a4e:	607b      	str	r3, [r7, #4]
      if (__HAL_RCC_GET_PLL_OSCSOURCE() != RCC_PLLSOURCE_HSI)
 8002a50:	4b27      	ldr	r3, [pc, #156]	; (8002af0 <HAL_RCC_GetSysClockFreq+0xf4>)
 8002a52:	68da      	ldr	r2, [r3, #12]
 8002a54:	2380      	movs	r3, #128	; 0x80
 8002a56:	025b      	lsls	r3, r3, #9
 8002a58:	4013      	ands	r3, r2
 8002a5a:	d00f      	beq.n	8002a7c <HAL_RCC_GetSysClockFreq+0x80>
      {
        /* HSE used as PLL clock source */
        pllvco = (HSE_VALUE * pllm) / plld;
 8002a5c:	68b9      	ldr	r1, [r7, #8]
 8002a5e:	000a      	movs	r2, r1
 8002a60:	0152      	lsls	r2, r2, #5
 8002a62:	1a52      	subs	r2, r2, r1
 8002a64:	0193      	lsls	r3, r2, #6
 8002a66:	1a9b      	subs	r3, r3, r2
 8002a68:	00db      	lsls	r3, r3, #3
 8002a6a:	185b      	adds	r3, r3, r1
 8002a6c:	025b      	lsls	r3, r3, #9
 8002a6e:	6879      	ldr	r1, [r7, #4]
 8002a70:	0018      	movs	r0, r3
 8002a72:	f7fd fb49 	bl	8000108 <__udivsi3>
 8002a76:	0003      	movs	r3, r0
 8002a78:	617b      	str	r3, [r7, #20]
 8002a7a:	e023      	b.n	8002ac4 <HAL_RCC_GetSysClockFreq+0xc8>
      }
      else
      {
        if ((RCC->CR & RCC_CR_HSIDIVF) != 0U)
 8002a7c:	4b1c      	ldr	r3, [pc, #112]	; (8002af0 <HAL_RCC_GetSysClockFreq+0xf4>)
 8002a7e:	681b      	ldr	r3, [r3, #0]
 8002a80:	2210      	movs	r2, #16
 8002a82:	4013      	ands	r3, r2
 8002a84:	d00f      	beq.n	8002aa6 <HAL_RCC_GetSysClockFreq+0xaa>
        {
          pllvco = ((HSI_VALUE >> 2) * pllm) / plld;
 8002a86:	68b9      	ldr	r1, [r7, #8]
 8002a88:	000a      	movs	r2, r1
 8002a8a:	0152      	lsls	r2, r2, #5
 8002a8c:	1a52      	subs	r2, r2, r1
 8002a8e:	0193      	lsls	r3, r2, #6
 8002a90:	1a9b      	subs	r3, r3, r2
 8002a92:	00db      	lsls	r3, r3, #3
 8002a94:	185b      	adds	r3, r3, r1
 8002a96:	021b      	lsls	r3, r3, #8
 8002a98:	6879      	ldr	r1, [r7, #4]
 8002a9a:	0018      	movs	r0, r3
 8002a9c:	f7fd fb34 	bl	8000108 <__udivsi3>
 8002aa0:	0003      	movs	r3, r0
 8002aa2:	617b      	str	r3, [r7, #20]
 8002aa4:	e00e      	b.n	8002ac4 <HAL_RCC_GetSysClockFreq+0xc8>
        }
        else
        {
         pllvco = (HSI_VALUE * pllm) / plld;
 8002aa6:	68b9      	ldr	r1, [r7, #8]
 8002aa8:	000a      	movs	r2, r1
 8002aaa:	0152      	lsls	r2, r2, #5
 8002aac:	1a52      	subs	r2, r2, r1
 8002aae:	0193      	lsls	r3, r2, #6
 8002ab0:	1a9b      	subs	r3, r3, r2
 8002ab2:	00db      	lsls	r3, r3, #3
 8002ab4:	185b      	adds	r3, r3, r1
 8002ab6:	029b      	lsls	r3, r3, #10
 8002ab8:	6879      	ldr	r1, [r7, #4]
 8002aba:	0018      	movs	r0, r3
 8002abc:	f7fd fb24 	bl	8000108 <__udivsi3>
 8002ac0:	0003      	movs	r3, r0
 8002ac2:	617b      	str	r3, [r7, #20]
        }
      }
      sysclockfreq = pllvco;
 8002ac4:	697b      	ldr	r3, [r7, #20]
 8002ac6:	613b      	str	r3, [r7, #16]
      break;
 8002ac8:	e00d      	b.n	8002ae6 <HAL_RCC_GetSysClockFreq+0xea>
    }
    case RCC_SYSCLKSOURCE_STATUS_MSI:  /* MSI used as system clock source */
    default: /* MSI used as system clock */
    {
      msiclkrange = (RCC->ICSCR & RCC_ICSCR_MSIRANGE ) >> RCC_ICSCR_MSIRANGE_Pos;
 8002aca:	4b09      	ldr	r3, [pc, #36]	; (8002af0 <HAL_RCC_GetSysClockFreq+0xf4>)
 8002acc:	685b      	ldr	r3, [r3, #4]
 8002ace:	0b5b      	lsrs	r3, r3, #13
 8002ad0:	2207      	movs	r2, #7
 8002ad2:	4013      	ands	r3, r2
 8002ad4:	603b      	str	r3, [r7, #0]
      sysclockfreq = (32768U * (1UL << (msiclkrange + 1U)));
 8002ad6:	683b      	ldr	r3, [r7, #0]
 8002ad8:	3301      	adds	r3, #1
 8002ada:	2280      	movs	r2, #128	; 0x80
 8002adc:	0212      	lsls	r2, r2, #8
 8002ade:	409a      	lsls	r2, r3
 8002ae0:	0013      	movs	r3, r2
 8002ae2:	613b      	str	r3, [r7, #16]
      break;
 8002ae4:	46c0      	nop			; (mov r8, r8)
    }
  }
  return sysclockfreq;
 8002ae6:	693b      	ldr	r3, [r7, #16]
}
 8002ae8:	0018      	movs	r0, r3
 8002aea:	46bd      	mov	sp, r7
 8002aec:	b006      	add	sp, #24
 8002aee:	bd80      	pop	{r7, pc}
 8002af0:	40021000 	.word	0x40021000
 8002af4:	003d0900 	.word	0x003d0900
 8002af8:	00f42400 	.word	0x00f42400
 8002afc:	007a1200 	.word	0x007a1200
 8002b00:	080038b4 	.word	0x080038b4

08002b04 <HAL_RCCEx_PeriphCLKConfig>:
  * @retval HAL status
  * @note   If HAL_ERROR returned, first switch-OFF HSE clock oscillator with @ref HAL_RCC_OscConfig()
  *         to possibly update HSE divider.
  */
HAL_StatusTypeDef HAL_RCCEx_PeriphCLKConfig(RCC_PeriphCLKInitTypeDef  *PeriphClkInit)
{
 8002b04:	b580      	push	{r7, lr}
 8002b06:	b086      	sub	sp, #24
 8002b08:	af00      	add	r7, sp, #0
 8002b0a:	6078      	str	r0, [r7, #4]

  /* Check the parameters */
  assert_param(IS_RCC_PERIPHCLOCK(PeriphClkInit->PeriphClockSelection));

  /*------------------------------- RTC/LCD Configuration ------------------------*/
  if ((((PeriphClkInit->PeriphClockSelection) & RCC_PERIPHCLK_RTC) == RCC_PERIPHCLK_RTC)
 8002b0c:	687b      	ldr	r3, [r7, #4]
 8002b0e:	681b      	ldr	r3, [r3, #0]
 8002b10:	2220      	movs	r2, #32
 8002b12:	4013      	ands	r3, r2
 8002b14:	d100      	bne.n	8002b18 <HAL_RCCEx_PeriphCLKConfig+0x14>
 8002b16:	e0c7      	b.n	8002ca8 <HAL_RCCEx_PeriphCLKConfig+0x1a4>
    {
      assert_param(IS_RCC_RTCCLKSOURCE(PeriphClkInit->LCDClockSelection));
    }
#endif /* LCD */

    FlagStatus       pwrclkchanged = RESET;
 8002b18:	2317      	movs	r3, #23
 8002b1a:	18fb      	adds	r3, r7, r3
 8002b1c:	2200      	movs	r2, #0
 8002b1e:	701a      	strb	r2, [r3, #0]

    /* As soon as function is called to change RTC clock source, activation of the
       power domain is done. */
    /* Requires to enable write access to Backup Domain of necessary */
    if(__HAL_RCC_PWR_IS_CLK_DISABLED())
 8002b20:	4b82      	ldr	r3, [pc, #520]	; (8002d2c <HAL_RCCEx_PeriphCLKConfig+0x228>)
 8002b22:	6b9a      	ldr	r2, [r3, #56]	; 0x38
 8002b24:	2380      	movs	r3, #128	; 0x80
 8002b26:	055b      	lsls	r3, r3, #21
 8002b28:	4013      	ands	r3, r2
 8002b2a:	d10a      	bne.n	8002b42 <HAL_RCCEx_PeriphCLKConfig+0x3e>
    {
      __HAL_RCC_PWR_CLK_ENABLE();
 8002b2c:	4b7f      	ldr	r3, [pc, #508]	; (8002d2c <HAL_RCCEx_PeriphCLKConfig+0x228>)
 8002b2e:	6b9a      	ldr	r2, [r3, #56]	; 0x38
 8002b30:	4b7e      	ldr	r3, [pc, #504]	; (8002d2c <HAL_RCCEx_PeriphCLKConfig+0x228>)
 8002b32:	2180      	movs	r1, #128	; 0x80
 8002b34:	0549      	lsls	r1, r1, #21
 8002b36:	430a      	orrs	r2, r1
 8002b38:	639a      	str	r2, [r3, #56]	; 0x38
      pwrclkchanged = SET;
 8002b3a:	2317      	movs	r3, #23
 8002b3c:	18fb      	adds	r3, r7, r3
 8002b3e:	2201      	movs	r2, #1
 8002b40:	701a      	strb	r2, [r3, #0]
    }

    if(HAL_IS_BIT_CLR(PWR->CR, PWR_CR_DBP))
 8002b42:	4b7b      	ldr	r3, [pc, #492]	; (8002d30 <HAL_RCCEx_PeriphCLKConfig+0x22c>)
 8002b44:	681a      	ldr	r2, [r3, #0]
 8002b46:	2380      	movs	r3, #128	; 0x80
 8002b48:	005b      	lsls	r3, r3, #1
 8002b4a:	4013      	ands	r3, r2
 8002b4c:	d11a      	bne.n	8002b84 <HAL_RCCEx_PeriphCLKConfig+0x80>
    {
      /* Enable write access to Backup domain */
      SET_BIT(PWR->CR, PWR_CR_DBP);
 8002b4e:	4b78      	ldr	r3, [pc, #480]	; (8002d30 <HAL_RCCEx_PeriphCLKConfig+0x22c>)
 8002b50:	681a      	ldr	r2, [r3, #0]
 8002b52:	4b77      	ldr	r3, [pc, #476]	; (8002d30 <HAL_RCCEx_PeriphCLKConfig+0x22c>)
 8002b54:	2180      	movs	r1, #128	; 0x80
 8002b56:	0049      	lsls	r1, r1, #1
 8002b58:	430a      	orrs	r2, r1
 8002b5a:	601a      	str	r2, [r3, #0]

      /* Wait for Backup domain Write protection disable */
      tickstart = HAL_GetTick();
 8002b5c:	f7fe f90c 	bl	8000d78 <HAL_GetTick>
 8002b60:	0003      	movs	r3, r0
 8002b62:	613b      	str	r3, [r7, #16]

      while(HAL_IS_BIT_CLR(PWR->CR, PWR_CR_DBP))
 8002b64:	e008      	b.n	8002b78 <HAL_RCCEx_PeriphCLKConfig+0x74>
      {
        if((HAL_GetTick() - tickstart) > RCC_DBP_TIMEOUT_VALUE)
 8002b66:	f7fe f907 	bl	8000d78 <HAL_GetTick>
 8002b6a:	0002      	movs	r2, r0
 8002b6c:	693b      	ldr	r3, [r7, #16]
 8002b6e:	1ad3      	subs	r3, r2, r3
 8002b70:	2b64      	cmp	r3, #100	; 0x64
 8002b72:	d901      	bls.n	8002b78 <HAL_RCCEx_PeriphCLKConfig+0x74>
        {
          return HAL_TIMEOUT;
 8002b74:	2303      	movs	r3, #3
 8002b76:	e0d4      	b.n	8002d22 <HAL_RCCEx_PeriphCLKConfig+0x21e>
      while(HAL_IS_BIT_CLR(PWR->CR, PWR_CR_DBP))
 8002b78:	4b6d      	ldr	r3, [pc, #436]	; (8002d30 <HAL_RCCEx_PeriphCLKConfig+0x22c>)
 8002b7a:	681a      	ldr	r2, [r3, #0]
 8002b7c:	2380      	movs	r3, #128	; 0x80
 8002b7e:	005b      	lsls	r3, r3, #1
 8002b80:	4013      	ands	r3, r2
 8002b82:	d0f0      	beq.n	8002b66 <HAL_RCCEx_PeriphCLKConfig+0x62>
        }
      }
    }

    /* Check if user wants to change HSE RTC prescaler whereas HSE is enabled */
    temp_reg = (RCC->CR & RCC_CR_RTCPRE);
 8002b84:	4b69      	ldr	r3, [pc, #420]	; (8002d2c <HAL_RCCEx_PeriphCLKConfig+0x228>)
 8002b86:	681a      	ldr	r2, [r3, #0]
 8002b88:	23c0      	movs	r3, #192	; 0xc0
 8002b8a:	039b      	lsls	r3, r3, #14
 8002b8c:	4013      	ands	r3, r2
 8002b8e:	60fb      	str	r3, [r7, #12]
    if ((temp_reg != (PeriphClkInit->RTCClockSelection & RCC_CR_RTCPRE))
 8002b90:	687b      	ldr	r3, [r7, #4]
 8002b92:	685a      	ldr	r2, [r3, #4]
 8002b94:	23c0      	movs	r3, #192	; 0xc0
 8002b96:	039b      	lsls	r3, r3, #14
 8002b98:	4013      	ands	r3, r2
 8002b9a:	68fa      	ldr	r2, [r7, #12]
 8002b9c:	429a      	cmp	r2, r3
 8002b9e:	d013      	beq.n	8002bc8 <HAL_RCCEx_PeriphCLKConfig+0xc4>
#if defined (LCD)
     || (temp_reg != (PeriphClkInit->LCDClockSelection & RCC_CR_RTCPRE))
#endif /* LCD */
       )
    { /* Check HSE State */
      if ((PeriphClkInit->RTCClockSelection & RCC_CSR_RTCSEL) == RCC_CSR_RTCSEL_HSE)
 8002ba0:	687b      	ldr	r3, [r7, #4]
 8002ba2:	685a      	ldr	r2, [r3, #4]
 8002ba4:	23c0      	movs	r3, #192	; 0xc0
 8002ba6:	029b      	lsls	r3, r3, #10
 8002ba8:	401a      	ands	r2, r3
 8002baa:	23c0      	movs	r3, #192	; 0xc0
 8002bac:	029b      	lsls	r3, r3, #10
 8002bae:	429a      	cmp	r2, r3
 8002bb0:	d10a      	bne.n	8002bc8 <HAL_RCCEx_PeriphCLKConfig+0xc4>
      {
        if (HAL_IS_BIT_SET(RCC->CR, RCC_CR_HSERDY))
 8002bb2:	4b5e      	ldr	r3, [pc, #376]	; (8002d2c <HAL_RCCEx_PeriphCLKConfig+0x228>)
 8002bb4:	681a      	ldr	r2, [r3, #0]
 8002bb6:	2380      	movs	r3, #128	; 0x80
 8002bb8:	029b      	lsls	r3, r3, #10
 8002bba:	401a      	ands	r2, r3
 8002bbc:	2380      	movs	r3, #128	; 0x80
 8002bbe:	029b      	lsls	r3, r3, #10
 8002bc0:	429a      	cmp	r2, r3
 8002bc2:	d101      	bne.n	8002bc8 <HAL_RCCEx_PeriphCLKConfig+0xc4>
        {
          /* To update HSE divider, first switch-OFF HSE clock oscillator*/
          return HAL_ERROR;
 8002bc4:	2301      	movs	r3, #1
 8002bc6:	e0ac      	b.n	8002d22 <HAL_RCCEx_PeriphCLKConfig+0x21e>
        }
      }
    }

    /* Reset the Backup domain only if the RTC Clock source selection is modified from reset value */
    temp_reg = (RCC->CSR & RCC_CSR_RTCSEL);
 8002bc8:	4b58      	ldr	r3, [pc, #352]	; (8002d2c <HAL_RCCEx_PeriphCLKConfig+0x228>)
 8002bca:	6d1a      	ldr	r2, [r3, #80]	; 0x50
 8002bcc:	23c0      	movs	r3, #192	; 0xc0
 8002bce:	029b      	lsls	r3, r3, #10
 8002bd0:	4013      	ands	r3, r2
 8002bd2:	60fb      	str	r3, [r7, #12]

    if((temp_reg != 0x00000000U) && (((temp_reg != (PeriphClkInit->RTCClockSelection & RCC_CSR_RTCSEL)) \
 8002bd4:	68fb      	ldr	r3, [r7, #12]
 8002bd6:	2b00      	cmp	r3, #0
 8002bd8:	d03b      	beq.n	8002c52 <HAL_RCCEx_PeriphCLKConfig+0x14e>
 8002bda:	687b      	ldr	r3, [r7, #4]
 8002bdc:	685a      	ldr	r2, [r3, #4]
 8002bde:	23c0      	movs	r3, #192	; 0xc0
 8002be0:	029b      	lsls	r3, r3, #10
 8002be2:	4013      	ands	r3, r2
 8002be4:	68fa      	ldr	r2, [r7, #12]
 8002be6:	429a      	cmp	r2, r3
 8002be8:	d033      	beq.n	8002c52 <HAL_RCCEx_PeriphCLKConfig+0x14e>
      && (((PeriphClkInit->PeriphClockSelection) & RCC_PERIPHCLK_RTC) == RCC_PERIPHCLK_RTC))
 8002bea:	687b      	ldr	r3, [r7, #4]
 8002bec:	681b      	ldr	r3, [r3, #0]
 8002bee:	2220      	movs	r2, #32
 8002bf0:	4013      	ands	r3, r2
 8002bf2:	d02e      	beq.n	8002c52 <HAL_RCCEx_PeriphCLKConfig+0x14e>
       && (((PeriphClkInit->PeriphClockSelection) & RCC_PERIPHCLK_LCD) == RCC_PERIPHCLK_LCD))
#endif /* LCD */
     ))
    {
      /* Store the content of CSR register before the reset of Backup Domain */
      temp_reg = (RCC->CSR & ~(RCC_CSR_RTCSEL));
 8002bf4:	4b4d      	ldr	r3, [pc, #308]	; (8002d2c <HAL_RCCEx_PeriphCLKConfig+0x228>)
 8002bf6:	6d1b      	ldr	r3, [r3, #80]	; 0x50
 8002bf8:	4a4e      	ldr	r2, [pc, #312]	; (8002d34 <HAL_RCCEx_PeriphCLKConfig+0x230>)
 8002bfa:	4013      	ands	r3, r2
 8002bfc:	60fb      	str	r3, [r7, #12]

      /* RTC Clock selection can be changed only if the Backup Domain is reset */
      __HAL_RCC_BACKUPRESET_FORCE();
 8002bfe:	4b4b      	ldr	r3, [pc, #300]	; (8002d2c <HAL_RCCEx_PeriphCLKConfig+0x228>)
 8002c00:	6d1a      	ldr	r2, [r3, #80]	; 0x50
 8002c02:	4b4a      	ldr	r3, [pc, #296]	; (8002d2c <HAL_RCCEx_PeriphCLKConfig+0x228>)
 8002c04:	2180      	movs	r1, #128	; 0x80
 8002c06:	0309      	lsls	r1, r1, #12
 8002c08:	430a      	orrs	r2, r1
 8002c0a:	651a      	str	r2, [r3, #80]	; 0x50
      __HAL_RCC_BACKUPRESET_RELEASE();
 8002c0c:	4b47      	ldr	r3, [pc, #284]	; (8002d2c <HAL_RCCEx_PeriphCLKConfig+0x228>)
 8002c0e:	6d1a      	ldr	r2, [r3, #80]	; 0x50
 8002c10:	4b46      	ldr	r3, [pc, #280]	; (8002d2c <HAL_RCCEx_PeriphCLKConfig+0x228>)
 8002c12:	4949      	ldr	r1, [pc, #292]	; (8002d38 <HAL_RCCEx_PeriphCLKConfig+0x234>)
 8002c14:	400a      	ands	r2, r1
 8002c16:	651a      	str	r2, [r3, #80]	; 0x50

      /* Restore the Content of CSR register */
      RCC->CSR = temp_reg;
 8002c18:	4b44      	ldr	r3, [pc, #272]	; (8002d2c <HAL_RCCEx_PeriphCLKConfig+0x228>)
 8002c1a:	68fa      	ldr	r2, [r7, #12]
 8002c1c:	651a      	str	r2, [r3, #80]	; 0x50

       /* Wait for LSERDY if LSE was enabled */
      if (HAL_IS_BIT_SET(temp_reg, RCC_CSR_LSEON))
 8002c1e:	68fa      	ldr	r2, [r7, #12]
 8002c20:	2380      	movs	r3, #128	; 0x80
 8002c22:	005b      	lsls	r3, r3, #1
 8002c24:	4013      	ands	r3, r2
 8002c26:	d014      	beq.n	8002c52 <HAL_RCCEx_PeriphCLKConfig+0x14e>
      {
        /* Get Start Tick */
        tickstart = HAL_GetTick();
 8002c28:	f7fe f8a6 	bl	8000d78 <HAL_GetTick>
 8002c2c:	0003      	movs	r3, r0
 8002c2e:	613b      	str	r3, [r7, #16]

        /* Wait till LSE is ready */
        while(__HAL_RCC_GET_FLAG(RCC_FLAG_LSERDY) == 0U)
 8002c30:	e009      	b.n	8002c46 <HAL_RCCEx_PeriphCLKConfig+0x142>
        {
          if((HAL_GetTick() - tickstart ) > RCC_LSE_TIMEOUT_VALUE)
 8002c32:	f7fe f8a1 	bl	8000d78 <HAL_GetTick>
 8002c36:	0002      	movs	r2, r0
 8002c38:	693b      	ldr	r3, [r7, #16]
 8002c3a:	1ad3      	subs	r3, r2, r3
 8002c3c:	4a3f      	ldr	r2, [pc, #252]	; (8002d3c <HAL_RCCEx_PeriphCLKConfig+0x238>)
 8002c3e:	4293      	cmp	r3, r2
 8002c40:	d901      	bls.n	8002c46 <HAL_RCCEx_PeriphCLKConfig+0x142>
          {
            return HAL_TIMEOUT;
 8002c42:	2303      	movs	r3, #3
 8002c44:	e06d      	b.n	8002d22 <HAL_RCCEx_PeriphCLKConfig+0x21e>
        while(__HAL_RCC_GET_FLAG(RCC_FLAG_LSERDY) == 0U)
 8002c46:	4b39      	ldr	r3, [pc, #228]	; (8002d2c <HAL_RCCEx_PeriphCLKConfig+0x228>)
 8002c48:	6d1a      	ldr	r2, [r3, #80]	; 0x50
 8002c4a:	2380      	movs	r3, #128	; 0x80
 8002c4c:	009b      	lsls	r3, r3, #2
 8002c4e:	4013      	ands	r3, r2
 8002c50:	d0ef      	beq.n	8002c32 <HAL_RCCEx_PeriphCLKConfig+0x12e>
          }
        }
      }
    }
    __HAL_RCC_RTC_CONFIG(PeriphClkInit->RTCClockSelection);
 8002c52:	687b      	ldr	r3, [r7, #4]
 8002c54:	685a      	ldr	r2, [r3, #4]
 8002c56:	23c0      	movs	r3, #192	; 0xc0
 8002c58:	029b      	lsls	r3, r3, #10
 8002c5a:	401a      	ands	r2, r3
 8002c5c:	23c0      	movs	r3, #192	; 0xc0
 8002c5e:	029b      	lsls	r3, r3, #10
 8002c60:	429a      	cmp	r2, r3
 8002c62:	d10c      	bne.n	8002c7e <HAL_RCCEx_PeriphCLKConfig+0x17a>
 8002c64:	4b31      	ldr	r3, [pc, #196]	; (8002d2c <HAL_RCCEx_PeriphCLKConfig+0x228>)
 8002c66:	681b      	ldr	r3, [r3, #0]
 8002c68:	4a35      	ldr	r2, [pc, #212]	; (8002d40 <HAL_RCCEx_PeriphCLKConfig+0x23c>)
 8002c6a:	4013      	ands	r3, r2
 8002c6c:	0019      	movs	r1, r3
 8002c6e:	687b      	ldr	r3, [r7, #4]
 8002c70:	685a      	ldr	r2, [r3, #4]
 8002c72:	23c0      	movs	r3, #192	; 0xc0
 8002c74:	039b      	lsls	r3, r3, #14
 8002c76:	401a      	ands	r2, r3
 8002c78:	4b2c      	ldr	r3, [pc, #176]	; (8002d2c <HAL_RCCEx_PeriphCLKConfig+0x228>)
 8002c7a:	430a      	orrs	r2, r1
 8002c7c:	601a      	str	r2, [r3, #0]
 8002c7e:	4b2b      	ldr	r3, [pc, #172]	; (8002d2c <HAL_RCCEx_PeriphCLKConfig+0x228>)
 8002c80:	6d19      	ldr	r1, [r3, #80]	; 0x50
 8002c82:	687b      	ldr	r3, [r7, #4]
 8002c84:	685a      	ldr	r2, [r3, #4]
 8002c86:	23c0      	movs	r3, #192	; 0xc0
 8002c88:	029b      	lsls	r3, r3, #10
 8002c8a:	401a      	ands	r2, r3
 8002c8c:	4b27      	ldr	r3, [pc, #156]	; (8002d2c <HAL_RCCEx_PeriphCLKConfig+0x228>)
 8002c8e:	430a      	orrs	r2, r1
 8002c90:	651a      	str	r2, [r3, #80]	; 0x50

    /* Require to disable power clock if necessary */
    if(pwrclkchanged == SET)
 8002c92:	2317      	movs	r3, #23
 8002c94:	18fb      	adds	r3, r7, r3
 8002c96:	781b      	ldrb	r3, [r3, #0]
 8002c98:	2b01      	cmp	r3, #1
 8002c9a:	d105      	bne.n	8002ca8 <HAL_RCCEx_PeriphCLKConfig+0x1a4>
    {
      __HAL_RCC_PWR_CLK_DISABLE();
 8002c9c:	4b23      	ldr	r3, [pc, #140]	; (8002d2c <HAL_RCCEx_PeriphCLKConfig+0x228>)
 8002c9e:	6b9a      	ldr	r2, [r3, #56]	; 0x38
 8002ca0:	4b22      	ldr	r3, [pc, #136]	; (8002d2c <HAL_RCCEx_PeriphCLKConfig+0x228>)
 8002ca2:	4928      	ldr	r1, [pc, #160]	; (8002d44 <HAL_RCCEx_PeriphCLKConfig+0x240>)
 8002ca4:	400a      	ands	r2, r1
 8002ca6:	639a      	str	r2, [r3, #56]	; 0x38
    __HAL_RCC_USART1_CONFIG(PeriphClkInit->Usart1ClockSelection);
  }
#endif /* RCC_CCIPR_USART1SEL */

  /*----------------------------- USART2 Configuration --------------------------*/
  if(((PeriphClkInit->PeriphClockSelection) & RCC_PERIPHCLK_USART2) == RCC_PERIPHCLK_USART2)
 8002ca8:	687b      	ldr	r3, [r7, #4]
 8002caa:	681b      	ldr	r3, [r3, #0]
 8002cac:	2202      	movs	r2, #2
 8002cae:	4013      	ands	r3, r2
 8002cb0:	d009      	beq.n	8002cc6 <HAL_RCCEx_PeriphCLKConfig+0x1c2>
  {
    /* Check the parameters */
    assert_param(IS_RCC_USART2CLKSOURCE(PeriphClkInit->Usart2ClockSelection));

    /* Configure the USART2 clock source */
    __HAL_RCC_USART2_CONFIG(PeriphClkInit->Usart2ClockSelection);
 8002cb2:	4b1e      	ldr	r3, [pc, #120]	; (8002d2c <HAL_RCCEx_PeriphCLKConfig+0x228>)
 8002cb4:	6cdb      	ldr	r3, [r3, #76]	; 0x4c
 8002cb6:	220c      	movs	r2, #12
 8002cb8:	4393      	bics	r3, r2
 8002cba:	0019      	movs	r1, r3
 8002cbc:	687b      	ldr	r3, [r7, #4]
 8002cbe:	689a      	ldr	r2, [r3, #8]
 8002cc0:	4b1a      	ldr	r3, [pc, #104]	; (8002d2c <HAL_RCCEx_PeriphCLKConfig+0x228>)
 8002cc2:	430a      	orrs	r2, r1
 8002cc4:	64da      	str	r2, [r3, #76]	; 0x4c
  }

  /*------------------------------ LPUART1 Configuration ------------------------*/
  if(((PeriphClkInit->PeriphClockSelection) & RCC_PERIPHCLK_LPUART1) == RCC_PERIPHCLK_LPUART1)
 8002cc6:	687b      	ldr	r3, [r7, #4]
 8002cc8:	681b      	ldr	r3, [r3, #0]
 8002cca:	2204      	movs	r2, #4
 8002ccc:	4013      	ands	r3, r2
 8002cce:	d009      	beq.n	8002ce4 <HAL_RCCEx_PeriphCLKConfig+0x1e0>
  {
    /* Check the parameters */
    assert_param(IS_RCC_LPUART1CLKSOURCE(PeriphClkInit->Lpuart1ClockSelection));

    /* Configure the LPUAR1 clock source */
    __HAL_RCC_LPUART1_CONFIG(PeriphClkInit->Lpuart1ClockSelection);
 8002cd0:	4b16      	ldr	r3, [pc, #88]	; (8002d2c <HAL_RCCEx_PeriphCLKConfig+0x228>)
 8002cd2:	6cdb      	ldr	r3, [r3, #76]	; 0x4c
 8002cd4:	4a1c      	ldr	r2, [pc, #112]	; (8002d48 <HAL_RCCEx_PeriphCLKConfig+0x244>)
 8002cd6:	4013      	ands	r3, r2
 8002cd8:	0019      	movs	r1, r3
 8002cda:	687b      	ldr	r3, [r7, #4]
 8002cdc:	68da      	ldr	r2, [r3, #12]
 8002cde:	4b13      	ldr	r3, [pc, #76]	; (8002d2c <HAL_RCCEx_PeriphCLKConfig+0x228>)
 8002ce0:	430a      	orrs	r2, r1
 8002ce2:	64da      	str	r2, [r3, #76]	; 0x4c
  }

  /*------------------------------ I2C1 Configuration ------------------------*/
  if(((PeriphClkInit->PeriphClockSelection) & RCC_PERIPHCLK_I2C1) == RCC_PERIPHCLK_I2C1)
 8002ce4:	687b      	ldr	r3, [r7, #4]
 8002ce6:	681b      	ldr	r3, [r3, #0]
 8002ce8:	2208      	movs	r2, #8
 8002cea:	4013      	ands	r3, r2
 8002cec:	d009      	beq.n	8002d02 <HAL_RCCEx_PeriphCLKConfig+0x1fe>
  {
    /* Check the parameters */
    assert_param(IS_RCC_I2C1CLKSOURCE(PeriphClkInit->I2c1ClockSelection));

    /* Configure the I2C1 clock source */
    __HAL_RCC_I2C1_CONFIG(PeriphClkInit->I2c1ClockSelection);
 8002cee:	4b0f      	ldr	r3, [pc, #60]	; (8002d2c <HAL_RCCEx_PeriphCLKConfig+0x228>)
 8002cf0:	6cdb      	ldr	r3, [r3, #76]	; 0x4c
 8002cf2:	4a16      	ldr	r2, [pc, #88]	; (8002d4c <HAL_RCCEx_PeriphCLKConfig+0x248>)
 8002cf4:	4013      	ands	r3, r2
 8002cf6:	0019      	movs	r1, r3
 8002cf8:	687b      	ldr	r3, [r7, #4]
 8002cfa:	691a      	ldr	r2, [r3, #16]
 8002cfc:	4b0b      	ldr	r3, [pc, #44]	; (8002d2c <HAL_RCCEx_PeriphCLKConfig+0x228>)
 8002cfe:	430a      	orrs	r2, r1
 8002d00:	64da      	str	r2, [r3, #76]	; 0x4c
    __HAL_RCC_USB_CONFIG(PeriphClkInit->UsbClockSelection);
  }
#endif /* USB */

  /*---------------------------- LPTIM1 configuration ------------------------*/
  if(((PeriphClkInit->PeriphClockSelection) & RCC_PERIPHCLK_LPTIM1) == (RCC_PERIPHCLK_LPTIM1))
 8002d02:	687b      	ldr	r3, [r7, #4]
 8002d04:	681b      	ldr	r3, [r3, #0]
 8002d06:	2280      	movs	r2, #128	; 0x80
 8002d08:	4013      	ands	r3, r2
 8002d0a:	d009      	beq.n	8002d20 <HAL_RCCEx_PeriphCLKConfig+0x21c>
  {
    assert_param(IS_RCC_LPTIMCLK(PeriphClkInit->LptimClockSelection));
    __HAL_RCC_LPTIM1_CONFIG(PeriphClkInit->LptimClockSelection);
 8002d0c:	4b07      	ldr	r3, [pc, #28]	; (8002d2c <HAL_RCCEx_PeriphCLKConfig+0x228>)
 8002d0e:	6cdb      	ldr	r3, [r3, #76]	; 0x4c
 8002d10:	4a0f      	ldr	r2, [pc, #60]	; (8002d50 <HAL_RCCEx_PeriphCLKConfig+0x24c>)
 8002d12:	4013      	ands	r3, r2
 8002d14:	0019      	movs	r1, r3
 8002d16:	687b      	ldr	r3, [r7, #4]
 8002d18:	695a      	ldr	r2, [r3, #20]
 8002d1a:	4b04      	ldr	r3, [pc, #16]	; (8002d2c <HAL_RCCEx_PeriphCLKConfig+0x228>)
 8002d1c:	430a      	orrs	r2, r1
 8002d1e:	64da      	str	r2, [r3, #76]	; 0x4c
  }

  return HAL_OK;
 8002d20:	2300      	movs	r3, #0
}
 8002d22:	0018      	movs	r0, r3
 8002d24:	46bd      	mov	sp, r7
 8002d26:	b006      	add	sp, #24
 8002d28:	bd80      	pop	{r7, pc}
 8002d2a:	46c0      	nop			; (mov r8, r8)
 8002d2c:	40021000 	.word	0x40021000
 8002d30:	40007000 	.word	0x40007000
 8002d34:	fffcffff 	.word	0xfffcffff
 8002d38:	fff7ffff 	.word	0xfff7ffff
 8002d3c:	00001388 	.word	0x00001388
 8002d40:	ffcfffff 	.word	0xffcfffff
 8002d44:	efffffff 	.word	0xefffffff
 8002d48:	fffff3ff 	.word	0xfffff3ff
 8002d4c:	ffffcfff 	.word	0xffffcfff
 8002d50:	fff3ffff 	.word	0xfff3ffff

08002d54 <HAL_TIM_Base_Init>:
  *         Ex: call @ref HAL_TIM_Base_DeInit() before HAL_TIM_Base_Init()
  * @param  htim TIM Base handle
  * @retval HAL status
  */
HAL_StatusTypeDef HAL_TIM_Base_Init(TIM_HandleTypeDef *htim)
{
 8002d54:	b580      	push	{r7, lr}
 8002d56:	b082      	sub	sp, #8
 8002d58:	af00      	add	r7, sp, #0
 8002d5a:	6078      	str	r0, [r7, #4]
  /* Check the TIM handle allocation */
  if (htim == NULL)
 8002d5c:	687b      	ldr	r3, [r7, #4]
 8002d5e:	2b00      	cmp	r3, #0
 8002d60:	d101      	bne.n	8002d66 <HAL_TIM_Base_Init+0x12>
  {
    return HAL_ERROR;
 8002d62:	2301      	movs	r3, #1
 8002d64:	e01e      	b.n	8002da4 <HAL_TIM_Base_Init+0x50>
  assert_param(IS_TIM_CLOCKDIVISION_DIV(htim->Init.ClockDivision));
  assert_param(IS_TIM_PERIOD(htim->Init.Period));
  assert_param(IS_TIM_PRESCALER(htim->Init.Prescaler));
  assert_param(IS_TIM_AUTORELOAD_PRELOAD(htim->Init.AutoReloadPreload));

  if (htim->State == HAL_TIM_STATE_RESET)
 8002d66:	687b      	ldr	r3, [r7, #4]
 8002d68:	2239      	movs	r2, #57	; 0x39
 8002d6a:	5c9b      	ldrb	r3, [r3, r2]
 8002d6c:	b2db      	uxtb	r3, r3
 8002d6e:	2b00      	cmp	r3, #0
 8002d70:	d107      	bne.n	8002d82 <HAL_TIM_Base_Init+0x2e>
  {
    /* Allocate lock resource and initialize it */
    htim->Lock = HAL_UNLOCKED;
 8002d72:	687b      	ldr	r3, [r7, #4]
 8002d74:	2238      	movs	r2, #56	; 0x38
 8002d76:	2100      	movs	r1, #0
 8002d78:	5499      	strb	r1, [r3, r2]
    }
    /* Init the low level hardware : GPIO, CLOCK, NVIC */
    htim->Base_MspInitCallback(htim);
#else
    /* Init the low level hardware : GPIO, CLOCK, NVIC */
    HAL_TIM_Base_MspInit(htim);
 8002d7a:	687b      	ldr	r3, [r7, #4]
 8002d7c:	0018      	movs	r0, r3
 8002d7e:	f7fd feef 	bl	8000b60 <HAL_TIM_Base_MspInit>
#endif /* USE_HAL_TIM_REGISTER_CALLBACKS */
  }

  /* Set the TIM state */
  htim->State = HAL_TIM_STATE_BUSY;
 8002d82:	687b      	ldr	r3, [r7, #4]
 8002d84:	2239      	movs	r2, #57	; 0x39
 8002d86:	2102      	movs	r1, #2
 8002d88:	5499      	strb	r1, [r3, r2]

  /* Set the Time Base configuration */
  TIM_Base_SetConfig(htim->Instance, &htim->Init);
 8002d8a:	687b      	ldr	r3, [r7, #4]
 8002d8c:	681a      	ldr	r2, [r3, #0]
 8002d8e:	687b      	ldr	r3, [r7, #4]
 8002d90:	3304      	adds	r3, #4
 8002d92:	0019      	movs	r1, r3
 8002d94:	0010      	movs	r0, r2
 8002d96:	f000 faff 	bl	8003398 <TIM_Base_SetConfig>

  /* Initialize the TIM state*/
  htim->State = HAL_TIM_STATE_READY;
 8002d9a:	687b      	ldr	r3, [r7, #4]
 8002d9c:	2239      	movs	r2, #57	; 0x39
 8002d9e:	2101      	movs	r1, #1
 8002da0:	5499      	strb	r1, [r3, r2]

  return HAL_OK;
 8002da2:	2300      	movs	r3, #0
}
 8002da4:	0018      	movs	r0, r3
 8002da6:	46bd      	mov	sp, r7
 8002da8:	b002      	add	sp, #8
 8002daa:	bd80      	pop	{r7, pc}

08002dac <HAL_TIM_Base_Start_IT>:
  * @brief  Starts the TIM Base generation in interrupt mode.
  * @param  htim TIM Base handle
  * @retval HAL status
  */
HAL_StatusTypeDef HAL_TIM_Base_Start_IT(TIM_HandleTypeDef *htim)
{
 8002dac:	b580      	push	{r7, lr}
 8002dae:	b084      	sub	sp, #16
 8002db0:	af00      	add	r7, sp, #0
 8002db2:	6078      	str	r0, [r7, #4]

  /* Check the parameters */
  assert_param(IS_TIM_INSTANCE(htim->Instance));

  /* Enable the TIM Update interrupt */
  __HAL_TIM_ENABLE_IT(htim, TIM_IT_UPDATE);
 8002db4:	687b      	ldr	r3, [r7, #4]
 8002db6:	681b      	ldr	r3, [r3, #0]
 8002db8:	68da      	ldr	r2, [r3, #12]
 8002dba:	687b      	ldr	r3, [r7, #4]
 8002dbc:	681b      	ldr	r3, [r3, #0]
 8002dbe:	2101      	movs	r1, #1
 8002dc0:	430a      	orrs	r2, r1
 8002dc2:	60da      	str	r2, [r3, #12]

  /* Enable the Peripheral, except in trigger mode where enable is automatically done with trigger */
  tmpsmcr = htim->Instance->SMCR & TIM_SMCR_SMS;
 8002dc4:	687b      	ldr	r3, [r7, #4]
 8002dc6:	681b      	ldr	r3, [r3, #0]
 8002dc8:	689b      	ldr	r3, [r3, #8]
 8002dca:	2207      	movs	r2, #7
 8002dcc:	4013      	ands	r3, r2
 8002dce:	60fb      	str	r3, [r7, #12]
  if (!IS_TIM_SLAVEMODE_TRIGGER_ENABLED(tmpsmcr))
 8002dd0:	68fb      	ldr	r3, [r7, #12]
 8002dd2:	2b06      	cmp	r3, #6
 8002dd4:	d007      	beq.n	8002de6 <HAL_TIM_Base_Start_IT+0x3a>
  {
    __HAL_TIM_ENABLE(htim);
 8002dd6:	687b      	ldr	r3, [r7, #4]
 8002dd8:	681b      	ldr	r3, [r3, #0]
 8002dda:	681a      	ldr	r2, [r3, #0]
 8002ddc:	687b      	ldr	r3, [r7, #4]
 8002dde:	681b      	ldr	r3, [r3, #0]
 8002de0:	2101      	movs	r1, #1
 8002de2:	430a      	orrs	r2, r1
 8002de4:	601a      	str	r2, [r3, #0]
  }

  /* Return function status */
  return HAL_OK;
 8002de6:	2300      	movs	r3, #0
}
 8002de8:	0018      	movs	r0, r3
 8002dea:	46bd      	mov	sp, r7
 8002dec:	b004      	add	sp, #16
 8002dee:	bd80      	pop	{r7, pc}

08002df0 <HAL_TIM_PWM_Init>:
  *         Ex: call @ref HAL_TIM_PWM_DeInit() before HAL_TIM_PWM_Init()
  * @param  htim TIM PWM handle
  * @retval HAL status
  */
HAL_StatusTypeDef HAL_TIM_PWM_Init(TIM_HandleTypeDef *htim)
{
 8002df0:	b580      	push	{r7, lr}
 8002df2:	b082      	sub	sp, #8
 8002df4:	af00      	add	r7, sp, #0
 8002df6:	6078      	str	r0, [r7, #4]
  /* Check the TIM handle allocation */
  if (htim == NULL)
 8002df8:	687b      	ldr	r3, [r7, #4]
 8002dfa:	2b00      	cmp	r3, #0
 8002dfc:	d101      	bne.n	8002e02 <HAL_TIM_PWM_Init+0x12>
  {
    return HAL_ERROR;
 8002dfe:	2301      	movs	r3, #1
 8002e00:	e01e      	b.n	8002e40 <HAL_TIM_PWM_Init+0x50>
  assert_param(IS_TIM_CLOCKDIVISION_DIV(htim->Init.ClockDivision));
  assert_param(IS_TIM_PERIOD(htim->Init.Period));
  assert_param(IS_TIM_PRESCALER(htim->Init.Prescaler));
  assert_param(IS_TIM_AUTORELOAD_PRELOAD(htim->Init.AutoReloadPreload));

  if (htim->State == HAL_TIM_STATE_RESET)
 8002e02:	687b      	ldr	r3, [r7, #4]
 8002e04:	2239      	movs	r2, #57	; 0x39
 8002e06:	5c9b      	ldrb	r3, [r3, r2]
 8002e08:	b2db      	uxtb	r3, r3
 8002e0a:	2b00      	cmp	r3, #0
 8002e0c:	d107      	bne.n	8002e1e <HAL_TIM_PWM_Init+0x2e>
  {
    /* Allocate lock resource and initialize it */
    htim->Lock = HAL_UNLOCKED;
 8002e0e:	687b      	ldr	r3, [r7, #4]
 8002e10:	2238      	movs	r2, #56	; 0x38
 8002e12:	2100      	movs	r1, #0
 8002e14:	5499      	strb	r1, [r3, r2]
    }
    /* Init the low level hardware : GPIO, CLOCK, NVIC */
    htim->PWM_MspInitCallback(htim);
#else
    /* Init the low level hardware : GPIO, CLOCK, NVIC and DMA */
    HAL_TIM_PWM_MspInit(htim);
 8002e16:	687b      	ldr	r3, [r7, #4]
 8002e18:	0018      	movs	r0, r3
 8002e1a:	f7fd fe8b 	bl	8000b34 <HAL_TIM_PWM_MspInit>
#endif /* USE_HAL_TIM_REGISTER_CALLBACKS */
  }

  /* Set the TIM state */
  htim->State = HAL_TIM_STATE_BUSY;
 8002e1e:	687b      	ldr	r3, [r7, #4]
 8002e20:	2239      	movs	r2, #57	; 0x39
 8002e22:	2102      	movs	r1, #2
 8002e24:	5499      	strb	r1, [r3, r2]

  /* Init the base time for the PWM */
  TIM_Base_SetConfig(htim->Instance, &htim->Init);
 8002e26:	687b      	ldr	r3, [r7, #4]
 8002e28:	681a      	ldr	r2, [r3, #0]
 8002e2a:	687b      	ldr	r3, [r7, #4]
 8002e2c:	3304      	adds	r3, #4
 8002e2e:	0019      	movs	r1, r3
 8002e30:	0010      	movs	r0, r2
 8002e32:	f000 fab1 	bl	8003398 <TIM_Base_SetConfig>

  /* Initialize the TIM state*/
  htim->State = HAL_TIM_STATE_READY;
 8002e36:	687b      	ldr	r3, [r7, #4]
 8002e38:	2239      	movs	r2, #57	; 0x39
 8002e3a:	2101      	movs	r1, #1
 8002e3c:	5499      	strb	r1, [r3, r2]

  return HAL_OK;
 8002e3e:	2300      	movs	r3, #0
}
 8002e40:	0018      	movs	r0, r3
 8002e42:	46bd      	mov	sp, r7
 8002e44:	b002      	add	sp, #8
 8002e46:	bd80      	pop	{r7, pc}

08002e48 <HAL_TIM_PWM_Start>:
  *            @arg TIM_CHANNEL_3: TIM Channel 3 selected
  *            @arg TIM_CHANNEL_4: TIM Channel 4 selected
  * @retval HAL status
  */
HAL_StatusTypeDef HAL_TIM_PWM_Start(TIM_HandleTypeDef *htim, uint32_t Channel)
{
 8002e48:	b580      	push	{r7, lr}
 8002e4a:	b084      	sub	sp, #16
 8002e4c:	af00      	add	r7, sp, #0
 8002e4e:	6078      	str	r0, [r7, #4]
 8002e50:	6039      	str	r1, [r7, #0]

  /* Check the parameters */
  assert_param(IS_TIM_CCX_INSTANCE(htim->Instance, Channel));

  /* Enable the Capture compare channel */
  TIM_CCxChannelCmd(htim->Instance, Channel, TIM_CCx_ENABLE);
 8002e52:	687b      	ldr	r3, [r7, #4]
 8002e54:	681b      	ldr	r3, [r3, #0]
 8002e56:	6839      	ldr	r1, [r7, #0]
 8002e58:	2201      	movs	r2, #1
 8002e5a:	0018      	movs	r0, r3
 8002e5c:	f000 fc84 	bl	8003768 <TIM_CCxChannelCmd>

  /* Enable the Peripheral, except in trigger mode where enable is automatically done with trigger */
  tmpsmcr = htim->Instance->SMCR & TIM_SMCR_SMS;
 8002e60:	687b      	ldr	r3, [r7, #4]
 8002e62:	681b      	ldr	r3, [r3, #0]
 8002e64:	689b      	ldr	r3, [r3, #8]
 8002e66:	2207      	movs	r2, #7
 8002e68:	4013      	ands	r3, r2
 8002e6a:	60fb      	str	r3, [r7, #12]
  if (!IS_TIM_SLAVEMODE_TRIGGER_ENABLED(tmpsmcr))
 8002e6c:	68fb      	ldr	r3, [r7, #12]
 8002e6e:	2b06      	cmp	r3, #6
 8002e70:	d007      	beq.n	8002e82 <HAL_TIM_PWM_Start+0x3a>
  {
    __HAL_TIM_ENABLE(htim);
 8002e72:	687b      	ldr	r3, [r7, #4]
 8002e74:	681b      	ldr	r3, [r3, #0]
 8002e76:	681a      	ldr	r2, [r3, #0]
 8002e78:	687b      	ldr	r3, [r7, #4]
 8002e7a:	681b      	ldr	r3, [r3, #0]
 8002e7c:	2101      	movs	r1, #1
 8002e7e:	430a      	orrs	r2, r1
 8002e80:	601a      	str	r2, [r3, #0]
  }

  /* Return function status */
  return HAL_OK;
 8002e82:	2300      	movs	r3, #0
}
 8002e84:	0018      	movs	r0, r3
 8002e86:	46bd      	mov	sp, r7
 8002e88:	b004      	add	sp, #16
 8002e8a:	bd80      	pop	{r7, pc}

08002e8c <HAL_TIM_IRQHandler>:
  * @brief  This function handles TIM interrupts requests.
  * @param  htim TIM  handle
  * @retval None
  */
void HAL_TIM_IRQHandler(TIM_HandleTypeDef *htim)
{
 8002e8c:	b580      	push	{r7, lr}
 8002e8e:	b082      	sub	sp, #8
 8002e90:	af00      	add	r7, sp, #0
 8002e92:	6078      	str	r0, [r7, #4]
  /* Capture compare 1 event */
  if (__HAL_TIM_GET_FLAG(htim, TIM_FLAG_CC1) != RESET)
 8002e94:	687b      	ldr	r3, [r7, #4]
 8002e96:	681b      	ldr	r3, [r3, #0]
 8002e98:	691b      	ldr	r3, [r3, #16]
 8002e9a:	2202      	movs	r2, #2
 8002e9c:	4013      	ands	r3, r2
 8002e9e:	2b02      	cmp	r3, #2
 8002ea0:	d124      	bne.n	8002eec <HAL_TIM_IRQHandler+0x60>
  {
    if (__HAL_TIM_GET_IT_SOURCE(htim, TIM_IT_CC1) != RESET)
 8002ea2:	687b      	ldr	r3, [r7, #4]
 8002ea4:	681b      	ldr	r3, [r3, #0]
 8002ea6:	68db      	ldr	r3, [r3, #12]
 8002ea8:	2202      	movs	r2, #2
 8002eaa:	4013      	ands	r3, r2
 8002eac:	2b02      	cmp	r3, #2
 8002eae:	d11d      	bne.n	8002eec <HAL_TIM_IRQHandler+0x60>
    {
      {
        __HAL_TIM_CLEAR_IT(htim, TIM_IT_CC1);
 8002eb0:	687b      	ldr	r3, [r7, #4]
 8002eb2:	681b      	ldr	r3, [r3, #0]
 8002eb4:	2203      	movs	r2, #3
 8002eb6:	4252      	negs	r2, r2
 8002eb8:	611a      	str	r2, [r3, #16]
        htim->Channel = HAL_TIM_ACTIVE_CHANNEL_1;
 8002eba:	687b      	ldr	r3, [r7, #4]
 8002ebc:	2201      	movs	r2, #1
 8002ebe:	761a      	strb	r2, [r3, #24]

        /* Input capture event */
        if ((htim->Instance->CCMR1 & TIM_CCMR1_CC1S) != 0x00U)
 8002ec0:	687b      	ldr	r3, [r7, #4]
 8002ec2:	681b      	ldr	r3, [r3, #0]
 8002ec4:	699b      	ldr	r3, [r3, #24]
 8002ec6:	2203      	movs	r2, #3
 8002ec8:	4013      	ands	r3, r2
 8002eca:	d004      	beq.n	8002ed6 <HAL_TIM_IRQHandler+0x4a>
        {
#if (USE_HAL_TIM_REGISTER_CALLBACKS == 1)
          htim->IC_CaptureCallback(htim);
#else
          HAL_TIM_IC_CaptureCallback(htim);
 8002ecc:	687b      	ldr	r3, [r7, #4]
 8002ece:	0018      	movs	r0, r3
 8002ed0:	f000 fa4a 	bl	8003368 <HAL_TIM_IC_CaptureCallback>
 8002ed4:	e007      	b.n	8002ee6 <HAL_TIM_IRQHandler+0x5a>
        {
#if (USE_HAL_TIM_REGISTER_CALLBACKS == 1)
          htim->OC_DelayElapsedCallback(htim);
          htim->PWM_PulseFinishedCallback(htim);
#else
          HAL_TIM_OC_DelayElapsedCallback(htim);
 8002ed6:	687b      	ldr	r3, [r7, #4]
 8002ed8:	0018      	movs	r0, r3
 8002eda:	f000 fa3d 	bl	8003358 <HAL_TIM_OC_DelayElapsedCallback>
          HAL_TIM_PWM_PulseFinishedCallback(htim);
 8002ede:	687b      	ldr	r3, [r7, #4]
 8002ee0:	0018      	movs	r0, r3
 8002ee2:	f000 fa49 	bl	8003378 <HAL_TIM_PWM_PulseFinishedCallback>
#endif /* USE_HAL_TIM_REGISTER_CALLBACKS */
        }
        htim->Channel = HAL_TIM_ACTIVE_CHANNEL_CLEARED;
 8002ee6:	687b      	ldr	r3, [r7, #4]
 8002ee8:	2200      	movs	r2, #0
 8002eea:	761a      	strb	r2, [r3, #24]
      }
    }
  }
  /* Capture compare 2 event */
  if (__HAL_TIM_GET_FLAG(htim, TIM_FLAG_CC2) != RESET)
 8002eec:	687b      	ldr	r3, [r7, #4]
 8002eee:	681b      	ldr	r3, [r3, #0]
 8002ef0:	691b      	ldr	r3, [r3, #16]
 8002ef2:	2204      	movs	r2, #4
 8002ef4:	4013      	ands	r3, r2
 8002ef6:	2b04      	cmp	r3, #4
 8002ef8:	d125      	bne.n	8002f46 <HAL_TIM_IRQHandler+0xba>
  {
    if (__HAL_TIM_GET_IT_SOURCE(htim, TIM_IT_CC2) != RESET)
 8002efa:	687b      	ldr	r3, [r7, #4]
 8002efc:	681b      	ldr	r3, [r3, #0]
 8002efe:	68db      	ldr	r3, [r3, #12]
 8002f00:	2204      	movs	r2, #4
 8002f02:	4013      	ands	r3, r2
 8002f04:	2b04      	cmp	r3, #4
 8002f06:	d11e      	bne.n	8002f46 <HAL_TIM_IRQHandler+0xba>
    {
      __HAL_TIM_CLEAR_IT(htim, TIM_IT_CC2);
 8002f08:	687b      	ldr	r3, [r7, #4]
 8002f0a:	681b      	ldr	r3, [r3, #0]
 8002f0c:	2205      	movs	r2, #5
 8002f0e:	4252      	negs	r2, r2
 8002f10:	611a      	str	r2, [r3, #16]
      htim->Channel = HAL_TIM_ACTIVE_CHANNEL_2;
 8002f12:	687b      	ldr	r3, [r7, #4]
 8002f14:	2202      	movs	r2, #2
 8002f16:	761a      	strb	r2, [r3, #24]
      /* Input capture event */
      if ((htim->Instance->CCMR1 & TIM_CCMR1_CC2S) != 0x00U)
 8002f18:	687b      	ldr	r3, [r7, #4]
 8002f1a:	681b      	ldr	r3, [r3, #0]
 8002f1c:	699a      	ldr	r2, [r3, #24]
 8002f1e:	23c0      	movs	r3, #192	; 0xc0
 8002f20:	009b      	lsls	r3, r3, #2
 8002f22:	4013      	ands	r3, r2
 8002f24:	d004      	beq.n	8002f30 <HAL_TIM_IRQHandler+0xa4>
      {
#if (USE_HAL_TIM_REGISTER_CALLBACKS == 1)
        htim->IC_CaptureCallback(htim);
#else
        HAL_TIM_IC_CaptureCallback(htim);
 8002f26:	687b      	ldr	r3, [r7, #4]
 8002f28:	0018      	movs	r0, r3
 8002f2a:	f000 fa1d 	bl	8003368 <HAL_TIM_IC_CaptureCallback>
 8002f2e:	e007      	b.n	8002f40 <HAL_TIM_IRQHandler+0xb4>
      {
#if (USE_HAL_TIM_REGISTER_CALLBACKS == 1)
        htim->OC_DelayElapsedCallback(htim);
        htim->PWM_PulseFinishedCallback(htim);
#else
        HAL_TIM_OC_DelayElapsedCallback(htim);
 8002f30:	687b      	ldr	r3, [r7, #4]
 8002f32:	0018      	movs	r0, r3
 8002f34:	f000 fa10 	bl	8003358 <HAL_TIM_OC_DelayElapsedCallback>
        HAL_TIM_PWM_PulseFinishedCallback(htim);
 8002f38:	687b      	ldr	r3, [r7, #4]
 8002f3a:	0018      	movs	r0, r3
 8002f3c:	f000 fa1c 	bl	8003378 <HAL_TIM_PWM_PulseFinishedCallback>
#endif /* USE_HAL_TIM_REGISTER_CALLBACKS */
      }
      htim->Channel = HAL_TIM_ACTIVE_CHANNEL_CLEARED;
 8002f40:	687b      	ldr	r3, [r7, #4]
 8002f42:	2200      	movs	r2, #0
 8002f44:	761a      	strb	r2, [r3, #24]
    }
  }
  /* Capture compare 3 event */
  if (__HAL_TIM_GET_FLAG(htim, TIM_FLAG_CC3) != RESET)
 8002f46:	687b      	ldr	r3, [r7, #4]
 8002f48:	681b      	ldr	r3, [r3, #0]
 8002f4a:	691b      	ldr	r3, [r3, #16]
 8002f4c:	2208      	movs	r2, #8
 8002f4e:	4013      	ands	r3, r2
 8002f50:	2b08      	cmp	r3, #8
 8002f52:	d124      	bne.n	8002f9e <HAL_TIM_IRQHandler+0x112>
  {
    if (__HAL_TIM_GET_IT_SOURCE(htim, TIM_IT_CC3) != RESET)
 8002f54:	687b      	ldr	r3, [r7, #4]
 8002f56:	681b      	ldr	r3, [r3, #0]
 8002f58:	68db      	ldr	r3, [r3, #12]
 8002f5a:	2208      	movs	r2, #8
 8002f5c:	4013      	ands	r3, r2
 8002f5e:	2b08      	cmp	r3, #8
 8002f60:	d11d      	bne.n	8002f9e <HAL_TIM_IRQHandler+0x112>
    {
      __HAL_TIM_CLEAR_IT(htim, TIM_IT_CC3);
 8002f62:	687b      	ldr	r3, [r7, #4]
 8002f64:	681b      	ldr	r3, [r3, #0]
 8002f66:	2209      	movs	r2, #9
 8002f68:	4252      	negs	r2, r2
 8002f6a:	611a      	str	r2, [r3, #16]
      htim->Channel = HAL_TIM_ACTIVE_CHANNEL_3;
 8002f6c:	687b      	ldr	r3, [r7, #4]
 8002f6e:	2204      	movs	r2, #4
 8002f70:	761a      	strb	r2, [r3, #24]
      /* Input capture event */
      if ((htim->Instance->CCMR2 & TIM_CCMR2_CC3S) != 0x00U)
 8002f72:	687b      	ldr	r3, [r7, #4]
 8002f74:	681b      	ldr	r3, [r3, #0]
 8002f76:	69db      	ldr	r3, [r3, #28]
 8002f78:	2203      	movs	r2, #3
 8002f7a:	4013      	ands	r3, r2
 8002f7c:	d004      	beq.n	8002f88 <HAL_TIM_IRQHandler+0xfc>
      {
#if (USE_HAL_TIM_REGISTER_CALLBACKS == 1)
        htim->IC_CaptureCallback(htim);
#else
        HAL_TIM_IC_CaptureCallback(htim);
 8002f7e:	687b      	ldr	r3, [r7, #4]
 8002f80:	0018      	movs	r0, r3
 8002f82:	f000 f9f1 	bl	8003368 <HAL_TIM_IC_CaptureCallback>
 8002f86:	e007      	b.n	8002f98 <HAL_TIM_IRQHandler+0x10c>
      {
#if (USE_HAL_TIM_REGISTER_CALLBACKS == 1)
        htim->OC_DelayElapsedCallback(htim);
        htim->PWM_PulseFinishedCallback(htim);
#else
        HAL_TIM_OC_DelayElapsedCallback(htim);
 8002f88:	687b      	ldr	r3, [r7, #4]
 8002f8a:	0018      	movs	r0, r3
 8002f8c:	f000 f9e4 	bl	8003358 <HAL_TIM_OC_DelayElapsedCallback>
        HAL_TIM_PWM_PulseFinishedCallback(htim);
 8002f90:	687b      	ldr	r3, [r7, #4]
 8002f92:	0018      	movs	r0, r3
 8002f94:	f000 f9f0 	bl	8003378 <HAL_TIM_PWM_PulseFinishedCallback>
#endif /* USE_HAL_TIM_REGISTER_CALLBACKS */
      }
      htim->Channel = HAL_TIM_ACTIVE_CHANNEL_CLEARED;
 8002f98:	687b      	ldr	r3, [r7, #4]
 8002f9a:	2200      	movs	r2, #0
 8002f9c:	761a      	strb	r2, [r3, #24]
    }
  }
  /* Capture compare 4 event */
  if (__HAL_TIM_GET_FLAG(htim, TIM_FLAG_CC4) != RESET)
 8002f9e:	687b      	ldr	r3, [r7, #4]
 8002fa0:	681b      	ldr	r3, [r3, #0]
 8002fa2:	691b      	ldr	r3, [r3, #16]
 8002fa4:	2210      	movs	r2, #16
 8002fa6:	4013      	ands	r3, r2
 8002fa8:	2b10      	cmp	r3, #16
 8002faa:	d125      	bne.n	8002ff8 <HAL_TIM_IRQHandler+0x16c>
  {
    if (__HAL_TIM_GET_IT_SOURCE(htim, TIM_IT_CC4) != RESET)
 8002fac:	687b      	ldr	r3, [r7, #4]
 8002fae:	681b      	ldr	r3, [r3, #0]
 8002fb0:	68db      	ldr	r3, [r3, #12]
 8002fb2:	2210      	movs	r2, #16
 8002fb4:	4013      	ands	r3, r2
 8002fb6:	2b10      	cmp	r3, #16
 8002fb8:	d11e      	bne.n	8002ff8 <HAL_TIM_IRQHandler+0x16c>
    {
      __HAL_TIM_CLEAR_IT(htim, TIM_IT_CC4);
 8002fba:	687b      	ldr	r3, [r7, #4]
 8002fbc:	681b      	ldr	r3, [r3, #0]
 8002fbe:	2211      	movs	r2, #17
 8002fc0:	4252      	negs	r2, r2
 8002fc2:	611a      	str	r2, [r3, #16]
      htim->Channel = HAL_TIM_ACTIVE_CHANNEL_4;
 8002fc4:	687b      	ldr	r3, [r7, #4]
 8002fc6:	2208      	movs	r2, #8
 8002fc8:	761a      	strb	r2, [r3, #24]
      /* Input capture event */
      if ((htim->Instance->CCMR2 & TIM_CCMR2_CC4S) != 0x00U)
 8002fca:	687b      	ldr	r3, [r7, #4]
 8002fcc:	681b      	ldr	r3, [r3, #0]
 8002fce:	69da      	ldr	r2, [r3, #28]
 8002fd0:	23c0      	movs	r3, #192	; 0xc0
 8002fd2:	009b      	lsls	r3, r3, #2
 8002fd4:	4013      	ands	r3, r2
 8002fd6:	d004      	beq.n	8002fe2 <HAL_TIM_IRQHandler+0x156>
      {
#if (USE_HAL_TIM_REGISTER_CALLBACKS == 1)
        htim->IC_CaptureCallback(htim);
#else
        HAL_TIM_IC_CaptureCallback(htim);
 8002fd8:	687b      	ldr	r3, [r7, #4]
 8002fda:	0018      	movs	r0, r3
 8002fdc:	f000 f9c4 	bl	8003368 <HAL_TIM_IC_CaptureCallback>
 8002fe0:	e007      	b.n	8002ff2 <HAL_TIM_IRQHandler+0x166>
      {
#if (USE_HAL_TIM_REGISTER_CALLBACKS == 1)
        htim->OC_DelayElapsedCallback(htim);
        htim->PWM_PulseFinishedCallback(htim);
#else
        HAL_TIM_OC_DelayElapsedCallback(htim);
 8002fe2:	687b      	ldr	r3, [r7, #4]
 8002fe4:	0018      	movs	r0, r3
 8002fe6:	f000 f9b7 	bl	8003358 <HAL_TIM_OC_DelayElapsedCallback>
        HAL_TIM_PWM_PulseFinishedCallback(htim);
 8002fea:	687b      	ldr	r3, [r7, #4]
 8002fec:	0018      	movs	r0, r3
 8002fee:	f000 f9c3 	bl	8003378 <HAL_TIM_PWM_PulseFinishedCallback>
#endif /* USE_HAL_TIM_REGISTER_CALLBACKS */
      }
      htim->Channel = HAL_TIM_ACTIVE_CHANNEL_CLEARED;
 8002ff2:	687b      	ldr	r3, [r7, #4]
 8002ff4:	2200      	movs	r2, #0
 8002ff6:	761a      	strb	r2, [r3, #24]
    }
  }
  /* TIM Update event */
  if (__HAL_TIM_GET_FLAG(htim, TIM_FLAG_UPDATE) != RESET)
 8002ff8:	687b      	ldr	r3, [r7, #4]
 8002ffa:	681b      	ldr	r3, [r3, #0]
 8002ffc:	691b      	ldr	r3, [r3, #16]
 8002ffe:	2201      	movs	r2, #1
 8003000:	4013      	ands	r3, r2
 8003002:	2b01      	cmp	r3, #1
 8003004:	d10f      	bne.n	8003026 <HAL_TIM_IRQHandler+0x19a>
  {
    if (__HAL_TIM_GET_IT_SOURCE(htim, TIM_IT_UPDATE) != RESET)
 8003006:	687b      	ldr	r3, [r7, #4]
 8003008:	681b      	ldr	r3, [r3, #0]
 800300a:	68db      	ldr	r3, [r3, #12]
 800300c:	2201      	movs	r2, #1
 800300e:	4013      	ands	r3, r2
 8003010:	2b01      	cmp	r3, #1
 8003012:	d108      	bne.n	8003026 <HAL_TIM_IRQHandler+0x19a>
    {
      __HAL_TIM_CLEAR_IT(htim, TIM_IT_UPDATE);
 8003014:	687b      	ldr	r3, [r7, #4]
 8003016:	681b      	ldr	r3, [r3, #0]
 8003018:	2202      	movs	r2, #2
 800301a:	4252      	negs	r2, r2
 800301c:	611a      	str	r2, [r3, #16]
#if (USE_HAL_TIM_REGISTER_CALLBACKS == 1)
      htim->PeriodElapsedCallback(htim);
#else
      HAL_TIM_PeriodElapsedCallback(htim);
 800301e:	687b      	ldr	r3, [r7, #4]
 8003020:	0018      	movs	r0, r3
 8003022:	f000 f991 	bl	8003348 <HAL_TIM_PeriodElapsedCallback>
#endif /* USE_HAL_TIM_REGISTER_CALLBACKS */
    }
  }
  /* TIM Trigger detection event */
  if (__HAL_TIM_GET_FLAG(htim, TIM_FLAG_TRIGGER) != RESET)
 8003026:	687b      	ldr	r3, [r7, #4]
 8003028:	681b      	ldr	r3, [r3, #0]
 800302a:	691b      	ldr	r3, [r3, #16]
 800302c:	2240      	movs	r2, #64	; 0x40
 800302e:	4013      	ands	r3, r2
 8003030:	2b40      	cmp	r3, #64	; 0x40
 8003032:	d10f      	bne.n	8003054 <HAL_TIM_IRQHandler+0x1c8>
  {
    if (__HAL_TIM_GET_IT_SOURCE(htim, TIM_IT_TRIGGER) != RESET)
 8003034:	687b      	ldr	r3, [r7, #4]
 8003036:	681b      	ldr	r3, [r3, #0]
 8003038:	68db      	ldr	r3, [r3, #12]
 800303a:	2240      	movs	r2, #64	; 0x40
 800303c:	4013      	ands	r3, r2
 800303e:	2b40      	cmp	r3, #64	; 0x40
 8003040:	d108      	bne.n	8003054 <HAL_TIM_IRQHandler+0x1c8>
    {
      __HAL_TIM_CLEAR_IT(htim, TIM_IT_TRIGGER);
 8003042:	687b      	ldr	r3, [r7, #4]
 8003044:	681b      	ldr	r3, [r3, #0]
 8003046:	2241      	movs	r2, #65	; 0x41
 8003048:	4252      	negs	r2, r2
 800304a:	611a      	str	r2, [r3, #16]
#if (USE_HAL_TIM_REGISTER_CALLBACKS == 1)
      htim->TriggerCallback(htim);
#else
      HAL_TIM_TriggerCallback(htim);
 800304c:	687b      	ldr	r3, [r7, #4]
 800304e:	0018      	movs	r0, r3
 8003050:	f000 f99a 	bl	8003388 <HAL_TIM_TriggerCallback>
#endif /* USE_HAL_TIM_REGISTER_CALLBACKS */
    }
  }
}
 8003054:	46c0      	nop			; (mov r8, r8)
 8003056:	46bd      	mov	sp, r7
 8003058:	b002      	add	sp, #8
 800305a:	bd80      	pop	{r7, pc}

0800305c <HAL_TIM_PWM_ConfigChannel>:
  * @retval HAL status
  */
HAL_StatusTypeDef HAL_TIM_PWM_ConfigChannel(TIM_HandleTypeDef *htim,
                                            TIM_OC_InitTypeDef *sConfig,
                                            uint32_t Channel)
{
 800305c:	b580      	push	{r7, lr}
 800305e:	b084      	sub	sp, #16
 8003060:	af00      	add	r7, sp, #0
 8003062:	60f8      	str	r0, [r7, #12]
 8003064:	60b9      	str	r1, [r7, #8]
 8003066:	607a      	str	r2, [r7, #4]
  assert_param(IS_TIM_PWM_MODE(sConfig->OCMode));
  assert_param(IS_TIM_OC_POLARITY(sConfig->OCPolarity));
  assert_param(IS_TIM_FAST_STATE(sConfig->OCFastMode));

  /* Process Locked */
  __HAL_LOCK(htim);
 8003068:	68fb      	ldr	r3, [r7, #12]
 800306a:	2238      	movs	r2, #56	; 0x38
 800306c:	5c9b      	ldrb	r3, [r3, r2]
 800306e:	2b01      	cmp	r3, #1
 8003070:	d101      	bne.n	8003076 <HAL_TIM_PWM_ConfigChannel+0x1a>
 8003072:	2302      	movs	r3, #2
 8003074:	e0a4      	b.n	80031c0 <HAL_TIM_PWM_ConfigChannel+0x164>
 8003076:	68fb      	ldr	r3, [r7, #12]
 8003078:	2238      	movs	r2, #56	; 0x38
 800307a:	2101      	movs	r1, #1
 800307c:	5499      	strb	r1, [r3, r2]

  htim->State = HAL_TIM_STATE_BUSY;
 800307e:	68fb      	ldr	r3, [r7, #12]
 8003080:	2239      	movs	r2, #57	; 0x39
 8003082:	2102      	movs	r1, #2
 8003084:	5499      	strb	r1, [r3, r2]

  switch (Channel)
 8003086:	687b      	ldr	r3, [r7, #4]
 8003088:	2b04      	cmp	r3, #4
 800308a:	d029      	beq.n	80030e0 <HAL_TIM_PWM_ConfigChannel+0x84>
 800308c:	d802      	bhi.n	8003094 <HAL_TIM_PWM_ConfigChannel+0x38>
 800308e:	2b00      	cmp	r3, #0
 8003090:	d005      	beq.n	800309e <HAL_TIM_PWM_ConfigChannel+0x42>
      htim->Instance->CCMR2 |= sConfig->OCFastMode << 8U;
      break;
    }

    default:
      break;
 8003092:	e08c      	b.n	80031ae <HAL_TIM_PWM_ConfigChannel+0x152>
  switch (Channel)
 8003094:	2b08      	cmp	r3, #8
 8003096:	d046      	beq.n	8003126 <HAL_TIM_PWM_ConfigChannel+0xca>
 8003098:	2b0c      	cmp	r3, #12
 800309a:	d065      	beq.n	8003168 <HAL_TIM_PWM_ConfigChannel+0x10c>
      break;
 800309c:	e087      	b.n	80031ae <HAL_TIM_PWM_ConfigChannel+0x152>
      TIM_OC1_SetConfig(htim->Instance, sConfig);
 800309e:	68fb      	ldr	r3, [r7, #12]
 80030a0:	681b      	ldr	r3, [r3, #0]
 80030a2:	68ba      	ldr	r2, [r7, #8]
 80030a4:	0011      	movs	r1, r2
 80030a6:	0018      	movs	r0, r3
 80030a8:	f000 f9c0 	bl	800342c <TIM_OC1_SetConfig>
      htim->Instance->CCMR1 |= TIM_CCMR1_OC1PE;
 80030ac:	68fb      	ldr	r3, [r7, #12]
 80030ae:	681b      	ldr	r3, [r3, #0]
 80030b0:	699a      	ldr	r2, [r3, #24]
 80030b2:	68fb      	ldr	r3, [r7, #12]
 80030b4:	681b      	ldr	r3, [r3, #0]
 80030b6:	2108      	movs	r1, #8
 80030b8:	430a      	orrs	r2, r1
 80030ba:	619a      	str	r2, [r3, #24]
      htim->Instance->CCMR1 &= ~TIM_CCMR1_OC1FE;
 80030bc:	68fb      	ldr	r3, [r7, #12]
 80030be:	681b      	ldr	r3, [r3, #0]
 80030c0:	699a      	ldr	r2, [r3, #24]
 80030c2:	68fb      	ldr	r3, [r7, #12]
 80030c4:	681b      	ldr	r3, [r3, #0]
 80030c6:	2104      	movs	r1, #4
 80030c8:	438a      	bics	r2, r1
 80030ca:	619a      	str	r2, [r3, #24]
      htim->Instance->CCMR1 |= sConfig->OCFastMode;
 80030cc:	68fb      	ldr	r3, [r7, #12]
 80030ce:	681b      	ldr	r3, [r3, #0]
 80030d0:	6999      	ldr	r1, [r3, #24]
 80030d2:	68bb      	ldr	r3, [r7, #8]
 80030d4:	68da      	ldr	r2, [r3, #12]
 80030d6:	68fb      	ldr	r3, [r7, #12]
 80030d8:	681b      	ldr	r3, [r3, #0]
 80030da:	430a      	orrs	r2, r1
 80030dc:	619a      	str	r2, [r3, #24]
      break;
 80030de:	e066      	b.n	80031ae <HAL_TIM_PWM_ConfigChannel+0x152>
      TIM_OC2_SetConfig(htim->Instance, sConfig);
 80030e0:	68fb      	ldr	r3, [r7, #12]
 80030e2:	681b      	ldr	r3, [r3, #0]
 80030e4:	68ba      	ldr	r2, [r7, #8]
 80030e6:	0011      	movs	r1, r2
 80030e8:	0018      	movs	r0, r3
 80030ea:	f000 f9db 	bl	80034a4 <TIM_OC2_SetConfig>
      htim->Instance->CCMR1 |= TIM_CCMR1_OC2PE;
 80030ee:	68fb      	ldr	r3, [r7, #12]
 80030f0:	681b      	ldr	r3, [r3, #0]
 80030f2:	699a      	ldr	r2, [r3, #24]
 80030f4:	68fb      	ldr	r3, [r7, #12]
 80030f6:	681b      	ldr	r3, [r3, #0]
 80030f8:	2180      	movs	r1, #128	; 0x80
 80030fa:	0109      	lsls	r1, r1, #4
 80030fc:	430a      	orrs	r2, r1
 80030fe:	619a      	str	r2, [r3, #24]
      htim->Instance->CCMR1 &= ~TIM_CCMR1_OC2FE;
 8003100:	68fb      	ldr	r3, [r7, #12]
 8003102:	681b      	ldr	r3, [r3, #0]
 8003104:	699a      	ldr	r2, [r3, #24]
 8003106:	68fb      	ldr	r3, [r7, #12]
 8003108:	681b      	ldr	r3, [r3, #0]
 800310a:	492f      	ldr	r1, [pc, #188]	; (80031c8 <HAL_TIM_PWM_ConfigChannel+0x16c>)
 800310c:	400a      	ands	r2, r1
 800310e:	619a      	str	r2, [r3, #24]
      htim->Instance->CCMR1 |= sConfig->OCFastMode << 8U;
 8003110:	68fb      	ldr	r3, [r7, #12]
 8003112:	681b      	ldr	r3, [r3, #0]
 8003114:	6999      	ldr	r1, [r3, #24]
 8003116:	68bb      	ldr	r3, [r7, #8]
 8003118:	68db      	ldr	r3, [r3, #12]
 800311a:	021a      	lsls	r2, r3, #8
 800311c:	68fb      	ldr	r3, [r7, #12]
 800311e:	681b      	ldr	r3, [r3, #0]
 8003120:	430a      	orrs	r2, r1
 8003122:	619a      	str	r2, [r3, #24]
      break;
 8003124:	e043      	b.n	80031ae <HAL_TIM_PWM_ConfigChannel+0x152>
      TIM_OC3_SetConfig(htim->Instance, sConfig);
 8003126:	68fb      	ldr	r3, [r7, #12]
 8003128:	681b      	ldr	r3, [r3, #0]
 800312a:	68ba      	ldr	r2, [r7, #8]
 800312c:	0011      	movs	r1, r2
 800312e:	0018      	movs	r0, r3
 8003130:	f000 f9fa 	bl	8003528 <TIM_OC3_SetConfig>
      htim->Instance->CCMR2 |= TIM_CCMR2_OC3PE;
 8003134:	68fb      	ldr	r3, [r7, #12]
 8003136:	681b      	ldr	r3, [r3, #0]
 8003138:	69da      	ldr	r2, [r3, #28]
 800313a:	68fb      	ldr	r3, [r7, #12]
 800313c:	681b      	ldr	r3, [r3, #0]
 800313e:	2108      	movs	r1, #8
 8003140:	430a      	orrs	r2, r1
 8003142:	61da      	str	r2, [r3, #28]
      htim->Instance->CCMR2 &= ~TIM_CCMR2_OC3FE;
 8003144:	68fb      	ldr	r3, [r7, #12]
 8003146:	681b      	ldr	r3, [r3, #0]
 8003148:	69da      	ldr	r2, [r3, #28]
 800314a:	68fb      	ldr	r3, [r7, #12]
 800314c:	681b      	ldr	r3, [r3, #0]
 800314e:	2104      	movs	r1, #4
 8003150:	438a      	bics	r2, r1
 8003152:	61da      	str	r2, [r3, #28]
      htim->Instance->CCMR2 |= sConfig->OCFastMode;
 8003154:	68fb      	ldr	r3, [r7, #12]
 8003156:	681b      	ldr	r3, [r3, #0]
 8003158:	69d9      	ldr	r1, [r3, #28]
 800315a:	68bb      	ldr	r3, [r7, #8]
 800315c:	68da      	ldr	r2, [r3, #12]
 800315e:	68fb      	ldr	r3, [r7, #12]
 8003160:	681b      	ldr	r3, [r3, #0]
 8003162:	430a      	orrs	r2, r1
 8003164:	61da      	str	r2, [r3, #28]
      break;
 8003166:	e022      	b.n	80031ae <HAL_TIM_PWM_ConfigChannel+0x152>
      TIM_OC4_SetConfig(htim->Instance, sConfig);
 8003168:	68fb      	ldr	r3, [r7, #12]
 800316a:	681b      	ldr	r3, [r3, #0]
 800316c:	68ba      	ldr	r2, [r7, #8]
 800316e:	0011      	movs	r1, r2
 8003170:	0018      	movs	r0, r3
 8003172:	f000 fa19 	bl	80035a8 <TIM_OC4_SetConfig>
      htim->Instance->CCMR2 |= TIM_CCMR2_OC4PE;
 8003176:	68fb      	ldr	r3, [r7, #12]
 8003178:	681b      	ldr	r3, [r3, #0]
 800317a:	69da      	ldr	r2, [r3, #28]
 800317c:	68fb      	ldr	r3, [r7, #12]
 800317e:	681b      	ldr	r3, [r3, #0]
 8003180:	2180      	movs	r1, #128	; 0x80
 8003182:	0109      	lsls	r1, r1, #4
 8003184:	430a      	orrs	r2, r1
 8003186:	61da      	str	r2, [r3, #28]
      htim->Instance->CCMR2 &= ~TIM_CCMR2_OC4FE;
 8003188:	68fb      	ldr	r3, [r7, #12]
 800318a:	681b      	ldr	r3, [r3, #0]
 800318c:	69da      	ldr	r2, [r3, #28]
 800318e:	68fb      	ldr	r3, [r7, #12]
 8003190:	681b      	ldr	r3, [r3, #0]
 8003192:	490d      	ldr	r1, [pc, #52]	; (80031c8 <HAL_TIM_PWM_ConfigChannel+0x16c>)
 8003194:	400a      	ands	r2, r1
 8003196:	61da      	str	r2, [r3, #28]
      htim->Instance->CCMR2 |= sConfig->OCFastMode << 8U;
 8003198:	68fb      	ldr	r3, [r7, #12]
 800319a:	681b      	ldr	r3, [r3, #0]
 800319c:	69d9      	ldr	r1, [r3, #28]
 800319e:	68bb      	ldr	r3, [r7, #8]
 80031a0:	68db      	ldr	r3, [r3, #12]
 80031a2:	021a      	lsls	r2, r3, #8
 80031a4:	68fb      	ldr	r3, [r7, #12]
 80031a6:	681b      	ldr	r3, [r3, #0]
 80031a8:	430a      	orrs	r2, r1
 80031aa:	61da      	str	r2, [r3, #28]
      break;
 80031ac:	46c0      	nop			; (mov r8, r8)
  }

  htim->State = HAL_TIM_STATE_READY;
 80031ae:	68fb      	ldr	r3, [r7, #12]
 80031b0:	2239      	movs	r2, #57	; 0x39
 80031b2:	2101      	movs	r1, #1
 80031b4:	5499      	strb	r1, [r3, r2]

  __HAL_UNLOCK(htim);
 80031b6:	68fb      	ldr	r3, [r7, #12]
 80031b8:	2238      	movs	r2, #56	; 0x38
 80031ba:	2100      	movs	r1, #0
 80031bc:	5499      	strb	r1, [r3, r2]

  return HAL_OK;
 80031be:	2300      	movs	r3, #0
}
 80031c0:	0018      	movs	r0, r3
 80031c2:	46bd      	mov	sp, r7
 80031c4:	b004      	add	sp, #16
 80031c6:	bd80      	pop	{r7, pc}
 80031c8:	fffffbff 	.word	0xfffffbff

080031cc <HAL_TIM_ConfigClockSource>:
  * @param  sClockSourceConfig pointer to a TIM_ClockConfigTypeDef structure that
  *         contains the clock source information for the TIM peripheral.
  * @retval HAL status
  */
HAL_StatusTypeDef HAL_TIM_ConfigClockSource(TIM_HandleTypeDef *htim, TIM_ClockConfigTypeDef *sClockSourceConfig)
{
 80031cc:	b580      	push	{r7, lr}
 80031ce:	b084      	sub	sp, #16
 80031d0:	af00      	add	r7, sp, #0
 80031d2:	6078      	str	r0, [r7, #4]
 80031d4:	6039      	str	r1, [r7, #0]
  uint32_t tmpsmcr;

  /* Process Locked */
  __HAL_LOCK(htim);
 80031d6:	687b      	ldr	r3, [r7, #4]
 80031d8:	2238      	movs	r2, #56	; 0x38
 80031da:	5c9b      	ldrb	r3, [r3, r2]
 80031dc:	2b01      	cmp	r3, #1
 80031de:	d101      	bne.n	80031e4 <HAL_TIM_ConfigClockSource+0x18>
 80031e0:	2302      	movs	r3, #2
 80031e2:	e0ab      	b.n	800333c <HAL_TIM_ConfigClockSource+0x170>
 80031e4:	687b      	ldr	r3, [r7, #4]
 80031e6:	2238      	movs	r2, #56	; 0x38
 80031e8:	2101      	movs	r1, #1
 80031ea:	5499      	strb	r1, [r3, r2]

  htim->State = HAL_TIM_STATE_BUSY;
 80031ec:	687b      	ldr	r3, [r7, #4]
 80031ee:	2239      	movs	r2, #57	; 0x39
 80031f0:	2102      	movs	r1, #2
 80031f2:	5499      	strb	r1, [r3, r2]

  /* Check the parameters */
  assert_param(IS_TIM_CLOCKSOURCE(sClockSourceConfig->ClockSource));

  /* Reset the SMS, TS, ECE, ETPS and ETRF bits */
  tmpsmcr = htim->Instance->SMCR;
 80031f4:	687b      	ldr	r3, [r7, #4]
 80031f6:	681b      	ldr	r3, [r3, #0]
 80031f8:	689b      	ldr	r3, [r3, #8]
 80031fa:	60fb      	str	r3, [r7, #12]
  tmpsmcr &= ~(TIM_SMCR_SMS | TIM_SMCR_TS);
 80031fc:	68fb      	ldr	r3, [r7, #12]
 80031fe:	2277      	movs	r2, #119	; 0x77
 8003200:	4393      	bics	r3, r2
 8003202:	60fb      	str	r3, [r7, #12]
  tmpsmcr &= ~(TIM_SMCR_ETF | TIM_SMCR_ETPS | TIM_SMCR_ECE | TIM_SMCR_ETP);
 8003204:	68fb      	ldr	r3, [r7, #12]
 8003206:	4a4f      	ldr	r2, [pc, #316]	; (8003344 <HAL_TIM_ConfigClockSource+0x178>)
 8003208:	4013      	ands	r3, r2
 800320a:	60fb      	str	r3, [r7, #12]
  htim->Instance->SMCR = tmpsmcr;
 800320c:	687b      	ldr	r3, [r7, #4]
 800320e:	681b      	ldr	r3, [r3, #0]
 8003210:	68fa      	ldr	r2, [r7, #12]
 8003212:	609a      	str	r2, [r3, #8]

  switch (sClockSourceConfig->ClockSource)
 8003214:	683b      	ldr	r3, [r7, #0]
 8003216:	681b      	ldr	r3, [r3, #0]
 8003218:	2b40      	cmp	r3, #64	; 0x40
 800321a:	d100      	bne.n	800321e <HAL_TIM_ConfigClockSource+0x52>
 800321c:	e06b      	b.n	80032f6 <HAL_TIM_ConfigClockSource+0x12a>
 800321e:	d80e      	bhi.n	800323e <HAL_TIM_ConfigClockSource+0x72>
 8003220:	2b10      	cmp	r3, #16
 8003222:	d100      	bne.n	8003226 <HAL_TIM_ConfigClockSource+0x5a>
 8003224:	e077      	b.n	8003316 <HAL_TIM_ConfigClockSource+0x14a>
 8003226:	d803      	bhi.n	8003230 <HAL_TIM_ConfigClockSource+0x64>
 8003228:	2b00      	cmp	r3, #0
 800322a:	d100      	bne.n	800322e <HAL_TIM_ConfigClockSource+0x62>
 800322c:	e073      	b.n	8003316 <HAL_TIM_ConfigClockSource+0x14a>
      TIM_ITRx_SetConfig(htim->Instance, sClockSourceConfig->ClockSource);
      break;
    }

    default:
      break;
 800322e:	e07c      	b.n	800332a <HAL_TIM_ConfigClockSource+0x15e>
  switch (sClockSourceConfig->ClockSource)
 8003230:	2b20      	cmp	r3, #32
 8003232:	d100      	bne.n	8003236 <HAL_TIM_ConfigClockSource+0x6a>
 8003234:	e06f      	b.n	8003316 <HAL_TIM_ConfigClockSource+0x14a>
 8003236:	2b30      	cmp	r3, #48	; 0x30
 8003238:	d100      	bne.n	800323c <HAL_TIM_ConfigClockSource+0x70>
 800323a:	e06c      	b.n	8003316 <HAL_TIM_ConfigClockSource+0x14a>
      break;
 800323c:	e075      	b.n	800332a <HAL_TIM_ConfigClockSource+0x15e>
  switch (sClockSourceConfig->ClockSource)
 800323e:	2b70      	cmp	r3, #112	; 0x70
 8003240:	d00e      	beq.n	8003260 <HAL_TIM_ConfigClockSource+0x94>
 8003242:	d804      	bhi.n	800324e <HAL_TIM_ConfigClockSource+0x82>
 8003244:	2b50      	cmp	r3, #80	; 0x50
 8003246:	d036      	beq.n	80032b6 <HAL_TIM_ConfigClockSource+0xea>
 8003248:	2b60      	cmp	r3, #96	; 0x60
 800324a:	d044      	beq.n	80032d6 <HAL_TIM_ConfigClockSource+0x10a>
      break;
 800324c:	e06d      	b.n	800332a <HAL_TIM_ConfigClockSource+0x15e>
  switch (sClockSourceConfig->ClockSource)
 800324e:	2280      	movs	r2, #128	; 0x80
 8003250:	0152      	lsls	r2, r2, #5
 8003252:	4293      	cmp	r3, r2
 8003254:	d068      	beq.n	8003328 <HAL_TIM_ConfigClockSource+0x15c>
 8003256:	2280      	movs	r2, #128	; 0x80
 8003258:	0192      	lsls	r2, r2, #6
 800325a:	4293      	cmp	r3, r2
 800325c:	d017      	beq.n	800328e <HAL_TIM_ConfigClockSource+0xc2>
      break;
 800325e:	e064      	b.n	800332a <HAL_TIM_ConfigClockSource+0x15e>
      TIM_ETR_SetConfig(htim->Instance,
 8003260:	687b      	ldr	r3, [r7, #4]
 8003262:	6818      	ldr	r0, [r3, #0]
 8003264:	683b      	ldr	r3, [r7, #0]
 8003266:	6899      	ldr	r1, [r3, #8]
 8003268:	683b      	ldr	r3, [r7, #0]
 800326a:	685a      	ldr	r2, [r3, #4]
 800326c:	683b      	ldr	r3, [r7, #0]
 800326e:	68db      	ldr	r3, [r3, #12]
 8003270:	f000 fa5a 	bl	8003728 <TIM_ETR_SetConfig>
      tmpsmcr = htim->Instance->SMCR;
 8003274:	687b      	ldr	r3, [r7, #4]
 8003276:	681b      	ldr	r3, [r3, #0]
 8003278:	689b      	ldr	r3, [r3, #8]
 800327a:	60fb      	str	r3, [r7, #12]
      tmpsmcr |= (TIM_SLAVEMODE_EXTERNAL1 | TIM_CLOCKSOURCE_ETRMODE1);
 800327c:	68fb      	ldr	r3, [r7, #12]
 800327e:	2277      	movs	r2, #119	; 0x77
 8003280:	4313      	orrs	r3, r2
 8003282:	60fb      	str	r3, [r7, #12]
      htim->Instance->SMCR = tmpsmcr;
 8003284:	687b      	ldr	r3, [r7, #4]
 8003286:	681b      	ldr	r3, [r3, #0]
 8003288:	68fa      	ldr	r2, [r7, #12]
 800328a:	609a      	str	r2, [r3, #8]
      break;
 800328c:	e04d      	b.n	800332a <HAL_TIM_ConfigClockSource+0x15e>
      TIM_ETR_SetConfig(htim->Instance,
 800328e:	687b      	ldr	r3, [r7, #4]
 8003290:	6818      	ldr	r0, [r3, #0]
 8003292:	683b      	ldr	r3, [r7, #0]
 8003294:	6899      	ldr	r1, [r3, #8]
 8003296:	683b      	ldr	r3, [r7, #0]
 8003298:	685a      	ldr	r2, [r3, #4]
 800329a:	683b      	ldr	r3, [r7, #0]
 800329c:	68db      	ldr	r3, [r3, #12]
 800329e:	f000 fa43 	bl	8003728 <TIM_ETR_SetConfig>
      htim->Instance->SMCR |= TIM_SMCR_ECE;
 80032a2:	687b      	ldr	r3, [r7, #4]
 80032a4:	681b      	ldr	r3, [r3, #0]
 80032a6:	689a      	ldr	r2, [r3, #8]
 80032a8:	687b      	ldr	r3, [r7, #4]
 80032aa:	681b      	ldr	r3, [r3, #0]
 80032ac:	2180      	movs	r1, #128	; 0x80
 80032ae:	01c9      	lsls	r1, r1, #7
 80032b0:	430a      	orrs	r2, r1
 80032b2:	609a      	str	r2, [r3, #8]
      break;
 80032b4:	e039      	b.n	800332a <HAL_TIM_ConfigClockSource+0x15e>
      TIM_TI1_ConfigInputStage(htim->Instance,
 80032b6:	687b      	ldr	r3, [r7, #4]
 80032b8:	6818      	ldr	r0, [r3, #0]
 80032ba:	683b      	ldr	r3, [r7, #0]
 80032bc:	6859      	ldr	r1, [r3, #4]
 80032be:	683b      	ldr	r3, [r7, #0]
 80032c0:	68db      	ldr	r3, [r3, #12]
 80032c2:	001a      	movs	r2, r3
 80032c4:	f000 f9b6 	bl	8003634 <TIM_TI1_ConfigInputStage>
      TIM_ITRx_SetConfig(htim->Instance, TIM_CLOCKSOURCE_TI1);
 80032c8:	687b      	ldr	r3, [r7, #4]
 80032ca:	681b      	ldr	r3, [r3, #0]
 80032cc:	2150      	movs	r1, #80	; 0x50
 80032ce:	0018      	movs	r0, r3
 80032d0:	f000 fa10 	bl	80036f4 <TIM_ITRx_SetConfig>
      break;
 80032d4:	e029      	b.n	800332a <HAL_TIM_ConfigClockSource+0x15e>
      TIM_TI2_ConfigInputStage(htim->Instance,
 80032d6:	687b      	ldr	r3, [r7, #4]
 80032d8:	6818      	ldr	r0, [r3, #0]
 80032da:	683b      	ldr	r3, [r7, #0]
 80032dc:	6859      	ldr	r1, [r3, #4]
 80032de:	683b      	ldr	r3, [r7, #0]
 80032e0:	68db      	ldr	r3, [r3, #12]
 80032e2:	001a      	movs	r2, r3
 80032e4:	f000 f9d4 	bl	8003690 <TIM_TI2_ConfigInputStage>
      TIM_ITRx_SetConfig(htim->Instance, TIM_CLOCKSOURCE_TI2);
 80032e8:	687b      	ldr	r3, [r7, #4]
 80032ea:	681b      	ldr	r3, [r3, #0]
 80032ec:	2160      	movs	r1, #96	; 0x60
 80032ee:	0018      	movs	r0, r3
 80032f0:	f000 fa00 	bl	80036f4 <TIM_ITRx_SetConfig>
      break;
 80032f4:	e019      	b.n	800332a <HAL_TIM_ConfigClockSource+0x15e>
      TIM_TI1_ConfigInputStage(htim->Instance,
 80032f6:	687b      	ldr	r3, [r7, #4]
 80032f8:	6818      	ldr	r0, [r3, #0]
 80032fa:	683b      	ldr	r3, [r7, #0]
 80032fc:	6859      	ldr	r1, [r3, #4]
 80032fe:	683b      	ldr	r3, [r7, #0]
 8003300:	68db      	ldr	r3, [r3, #12]
 8003302:	001a      	movs	r2, r3
 8003304:	f000 f996 	bl	8003634 <TIM_TI1_ConfigInputStage>
      TIM_ITRx_SetConfig(htim->Instance, TIM_CLOCKSOURCE_TI1ED);
 8003308:	687b      	ldr	r3, [r7, #4]
 800330a:	681b      	ldr	r3, [r3, #0]
 800330c:	2140      	movs	r1, #64	; 0x40
 800330e:	0018      	movs	r0, r3
 8003310:	f000 f9f0 	bl	80036f4 <TIM_ITRx_SetConfig>
      break;
 8003314:	e009      	b.n	800332a <HAL_TIM_ConfigClockSource+0x15e>
      TIM_ITRx_SetConfig(htim->Instance, sClockSourceConfig->ClockSource);
 8003316:	687b      	ldr	r3, [r7, #4]
 8003318:	681a      	ldr	r2, [r3, #0]
 800331a:	683b      	ldr	r3, [r7, #0]
 800331c:	681b      	ldr	r3, [r3, #0]
 800331e:	0019      	movs	r1, r3
 8003320:	0010      	movs	r0, r2
 8003322:	f000 f9e7 	bl	80036f4 <TIM_ITRx_SetConfig>
      break;
 8003326:	e000      	b.n	800332a <HAL_TIM_ConfigClockSource+0x15e>
      break;
 8003328:	46c0      	nop			; (mov r8, r8)
  }
  htim->State = HAL_TIM_STATE_READY;
 800332a:	687b      	ldr	r3, [r7, #4]
 800332c:	2239      	movs	r2, #57	; 0x39
 800332e:	2101      	movs	r1, #1
 8003330:	5499      	strb	r1, [r3, r2]

  __HAL_UNLOCK(htim);
 8003332:	687b      	ldr	r3, [r7, #4]
 8003334:	2238      	movs	r2, #56	; 0x38
 8003336:	2100      	movs	r1, #0
 8003338:	5499      	strb	r1, [r3, r2]

  return HAL_OK;
 800333a:	2300      	movs	r3, #0
}
 800333c:	0018      	movs	r0, r3
 800333e:	46bd      	mov	sp, r7
 8003340:	b004      	add	sp, #16
 8003342:	bd80      	pop	{r7, pc}
 8003344:	ffff00ff 	.word	0xffff00ff

08003348 <HAL_TIM_PeriodElapsedCallback>:
  * @brief  Period elapsed callback in non-blocking mode
  * @param  htim TIM handle
  * @retval None
  */
__weak void HAL_TIM_PeriodElapsedCallback(TIM_HandleTypeDef *htim)
{
 8003348:	b580      	push	{r7, lr}
 800334a:	b082      	sub	sp, #8
 800334c:	af00      	add	r7, sp, #0
 800334e:	6078      	str	r0, [r7, #4]
  UNUSED(htim);

  /* NOTE : This function should not be modified, when the callback is needed,
            the HAL_TIM_PeriodElapsedCallback could be implemented in the user file
   */
}
 8003350:	46c0      	nop			; (mov r8, r8)
 8003352:	46bd      	mov	sp, r7
 8003354:	b002      	add	sp, #8
 8003356:	bd80      	pop	{r7, pc}

08003358 <HAL_TIM_OC_DelayElapsedCallback>:
  * @brief  Output Compare callback in non-blocking mode
  * @param  htim TIM OC handle
  * @retval None
  */
__weak void HAL_TIM_OC_DelayElapsedCallback(TIM_HandleTypeDef *htim)
{
 8003358:	b580      	push	{r7, lr}
 800335a:	b082      	sub	sp, #8
 800335c:	af00      	add	r7, sp, #0
 800335e:	6078      	str	r0, [r7, #4]
  UNUSED(htim);

  /* NOTE : This function should not be modified, when the callback is needed,
            the HAL_TIM_OC_DelayElapsedCallback could be implemented in the user file
   */
}
 8003360:	46c0      	nop			; (mov r8, r8)
 8003362:	46bd      	mov	sp, r7
 8003364:	b002      	add	sp, #8
 8003366:	bd80      	pop	{r7, pc}

08003368 <HAL_TIM_IC_CaptureCallback>:
  * @brief  Input Capture callback in non-blocking mode
  * @param  htim TIM IC handle
  * @retval None
  */
__weak void HAL_TIM_IC_CaptureCallback(TIM_HandleTypeDef *htim)
{
 8003368:	b580      	push	{r7, lr}
 800336a:	b082      	sub	sp, #8
 800336c:	af00      	add	r7, sp, #0
 800336e:	6078      	str	r0, [r7, #4]
  UNUSED(htim);

  /* NOTE : This function should not be modified, when the callback is needed,
            the HAL_TIM_IC_CaptureCallback could be implemented in the user file
   */
}
 8003370:	46c0      	nop			; (mov r8, r8)
 8003372:	46bd      	mov	sp, r7
 8003374:	b002      	add	sp, #8
 8003376:	bd80      	pop	{r7, pc}

08003378 <HAL_TIM_PWM_PulseFinishedCallback>:
  * @brief  PWM Pulse finished callback in non-blocking mode
  * @param  htim TIM handle
  * @retval None
  */
__weak void HAL_TIM_PWM_PulseFinishedCallback(TIM_HandleTypeDef *htim)
{
 8003378:	b580      	push	{r7, lr}
 800337a:	b082      	sub	sp, #8
 800337c:	af00      	add	r7, sp, #0
 800337e:	6078      	str	r0, [r7, #4]
  UNUSED(htim);

  /* NOTE : This function should not be modified, when the callback is needed,
            the HAL_TIM_PWM_PulseFinishedCallback could be implemented in the user file
   */
}
 8003380:	46c0      	nop			; (mov r8, r8)
 8003382:	46bd      	mov	sp, r7
 8003384:	b002      	add	sp, #8
 8003386:	bd80      	pop	{r7, pc}

08003388 <HAL_TIM_TriggerCallback>:
  * @brief  Hall Trigger detection callback in non-blocking mode
  * @param  htim TIM handle
  * @retval None
  */
__weak void HAL_TIM_TriggerCallback(TIM_HandleTypeDef *htim)
{
 8003388:	b580      	push	{r7, lr}
 800338a:	b082      	sub	sp, #8
 800338c:	af00      	add	r7, sp, #0
 800338e:	6078      	str	r0, [r7, #4]
  UNUSED(htim);

  /* NOTE : This function should not be modified, when the callback is needed,
            the HAL_TIM_TriggerCallback could be implemented in the user file
   */
}
 8003390:	46c0      	nop			; (mov r8, r8)
 8003392:	46bd      	mov	sp, r7
 8003394:	b002      	add	sp, #8
 8003396:	bd80      	pop	{r7, pc}

08003398 <TIM_Base_SetConfig>:
  * @param  TIMx TIM peripheral
  * @param  Structure TIM Base configuration structure
  * @retval None
  */
void TIM_Base_SetConfig(TIM_TypeDef *TIMx, TIM_Base_InitTypeDef *Structure)
{
 8003398:	b580      	push	{r7, lr}
 800339a:	b084      	sub	sp, #16
 800339c:	af00      	add	r7, sp, #0
 800339e:	6078      	str	r0, [r7, #4]
 80033a0:	6039      	str	r1, [r7, #0]
  uint32_t tmpcr1;
  tmpcr1 = TIMx->CR1;
 80033a2:	687b      	ldr	r3, [r7, #4]
 80033a4:	681b      	ldr	r3, [r3, #0]
 80033a6:	60fb      	str	r3, [r7, #12]

  /* Set TIM Time Base Unit parameters ---------------------------------------*/
  if (IS_TIM_COUNTER_MODE_SELECT_INSTANCE(TIMx))
 80033a8:	687a      	ldr	r2, [r7, #4]
 80033aa:	2380      	movs	r3, #128	; 0x80
 80033ac:	05db      	lsls	r3, r3, #23
 80033ae:	429a      	cmp	r2, r3
 80033b0:	d003      	beq.n	80033ba <TIM_Base_SetConfig+0x22>
 80033b2:	687b      	ldr	r3, [r7, #4]
 80033b4:	4a1b      	ldr	r2, [pc, #108]	; (8003424 <TIM_Base_SetConfig+0x8c>)
 80033b6:	4293      	cmp	r3, r2
 80033b8:	d108      	bne.n	80033cc <TIM_Base_SetConfig+0x34>
  {
    /* Select the Counter Mode */
    tmpcr1 &= ~(TIM_CR1_DIR | TIM_CR1_CMS);
 80033ba:	68fb      	ldr	r3, [r7, #12]
 80033bc:	2270      	movs	r2, #112	; 0x70
 80033be:	4393      	bics	r3, r2
 80033c0:	60fb      	str	r3, [r7, #12]
    tmpcr1 |= Structure->CounterMode;
 80033c2:	683b      	ldr	r3, [r7, #0]
 80033c4:	685b      	ldr	r3, [r3, #4]
 80033c6:	68fa      	ldr	r2, [r7, #12]
 80033c8:	4313      	orrs	r3, r2
 80033ca:	60fb      	str	r3, [r7, #12]
  }

  if (IS_TIM_CLOCK_DIVISION_INSTANCE(TIMx))
 80033cc:	687a      	ldr	r2, [r7, #4]
 80033ce:	2380      	movs	r3, #128	; 0x80
 80033d0:	05db      	lsls	r3, r3, #23
 80033d2:	429a      	cmp	r2, r3
 80033d4:	d003      	beq.n	80033de <TIM_Base_SetConfig+0x46>
 80033d6:	687b      	ldr	r3, [r7, #4]
 80033d8:	4a12      	ldr	r2, [pc, #72]	; (8003424 <TIM_Base_SetConfig+0x8c>)
 80033da:	4293      	cmp	r3, r2
 80033dc:	d108      	bne.n	80033f0 <TIM_Base_SetConfig+0x58>
  {
    /* Set the clock division */
    tmpcr1 &= ~TIM_CR1_CKD;
 80033de:	68fb      	ldr	r3, [r7, #12]
 80033e0:	4a11      	ldr	r2, [pc, #68]	; (8003428 <TIM_Base_SetConfig+0x90>)
 80033e2:	4013      	ands	r3, r2
 80033e4:	60fb      	str	r3, [r7, #12]
    tmpcr1 |= (uint32_t)Structure->ClockDivision;
 80033e6:	683b      	ldr	r3, [r7, #0]
 80033e8:	68db      	ldr	r3, [r3, #12]
 80033ea:	68fa      	ldr	r2, [r7, #12]
 80033ec:	4313      	orrs	r3, r2
 80033ee:	60fb      	str	r3, [r7, #12]
  }

  /* Set the auto-reload preload */
  MODIFY_REG(tmpcr1, TIM_CR1_ARPE, Structure->AutoReloadPreload);
 80033f0:	68fb      	ldr	r3, [r7, #12]
 80033f2:	2280      	movs	r2, #128	; 0x80
 80033f4:	4393      	bics	r3, r2
 80033f6:	001a      	movs	r2, r3
 80033f8:	683b      	ldr	r3, [r7, #0]
 80033fa:	691b      	ldr	r3, [r3, #16]
 80033fc:	4313      	orrs	r3, r2
 80033fe:	60fb      	str	r3, [r7, #12]

  TIMx->CR1 = tmpcr1;
 8003400:	687b      	ldr	r3, [r7, #4]
 8003402:	68fa      	ldr	r2, [r7, #12]
 8003404:	601a      	str	r2, [r3, #0]

  /* Set the Autoreload value */
  TIMx->ARR = (uint32_t)Structure->Period ;
 8003406:	683b      	ldr	r3, [r7, #0]
 8003408:	689a      	ldr	r2, [r3, #8]
 800340a:	687b      	ldr	r3, [r7, #4]
 800340c:	62da      	str	r2, [r3, #44]	; 0x2c

  /* Set the Prescaler value */
  TIMx->PSC = Structure->Prescaler;
 800340e:	683b      	ldr	r3, [r7, #0]
 8003410:	681a      	ldr	r2, [r3, #0]
 8003412:	687b      	ldr	r3, [r7, #4]
 8003414:	629a      	str	r2, [r3, #40]	; 0x28

  /* Generate an update event to reload the Prescaler
     and the repetition counter (only for advanced timer) value immediately */
  TIMx->EGR = TIM_EGR_UG;
 8003416:	687b      	ldr	r3, [r7, #4]
 8003418:	2201      	movs	r2, #1
 800341a:	615a      	str	r2, [r3, #20]
}
 800341c:	46c0      	nop			; (mov r8, r8)
 800341e:	46bd      	mov	sp, r7
 8003420:	b004      	add	sp, #16
 8003422:	bd80      	pop	{r7, pc}
 8003424:	40010800 	.word	0x40010800
 8003428:	fffffcff 	.word	0xfffffcff

0800342c <TIM_OC1_SetConfig>:
  * @param  TIMx to select the TIM peripheral
  * @param  OC_Config The ouput configuration structure
  * @retval None
  */
static void TIM_OC1_SetConfig(TIM_TypeDef *TIMx, TIM_OC_InitTypeDef *OC_Config)
{
 800342c:	b580      	push	{r7, lr}
 800342e:	b086      	sub	sp, #24
 8003430:	af00      	add	r7, sp, #0
 8003432:	6078      	str	r0, [r7, #4]
 8003434:	6039      	str	r1, [r7, #0]
  uint32_t tmpccmrx;
  uint32_t tmpccer;
  uint32_t tmpcr2;

  /* Disable the Channel 1: Reset the CC1E Bit */
  TIMx->CCER &= ~TIM_CCER_CC1E;
 8003436:	687b      	ldr	r3, [r7, #4]
 8003438:	6a1b      	ldr	r3, [r3, #32]
 800343a:	2201      	movs	r2, #1
 800343c:	4393      	bics	r3, r2
 800343e:	001a      	movs	r2, r3
 8003440:	687b      	ldr	r3, [r7, #4]
 8003442:	621a      	str	r2, [r3, #32]

  /* Get the TIMx CCER register value */
  tmpccer = TIMx->CCER;
 8003444:	687b      	ldr	r3, [r7, #4]
 8003446:	6a1b      	ldr	r3, [r3, #32]
 8003448:	617b      	str	r3, [r7, #20]
  /* Get the TIMx CR2 register value */
  tmpcr2 =  TIMx->CR2;
 800344a:	687b      	ldr	r3, [r7, #4]
 800344c:	685b      	ldr	r3, [r3, #4]
 800344e:	613b      	str	r3, [r7, #16]

  /* Get the TIMx CCMR1 register value */
  tmpccmrx = TIMx->CCMR1;
 8003450:	687b      	ldr	r3, [r7, #4]
 8003452:	699b      	ldr	r3, [r3, #24]
 8003454:	60fb      	str	r3, [r7, #12]

  /* Reset the Output Compare Mode Bits */
  tmpccmrx &= ~TIM_CCMR1_OC1M;
 8003456:	68fb      	ldr	r3, [r7, #12]
 8003458:	2270      	movs	r2, #112	; 0x70
 800345a:	4393      	bics	r3, r2
 800345c:	60fb      	str	r3, [r7, #12]
  tmpccmrx &= ~TIM_CCMR1_CC1S;
 800345e:	68fb      	ldr	r3, [r7, #12]
 8003460:	2203      	movs	r2, #3
 8003462:	4393      	bics	r3, r2
 8003464:	60fb      	str	r3, [r7, #12]
  /* Select the Output Compare Mode */
  tmpccmrx |= OC_Config->OCMode;
 8003466:	683b      	ldr	r3, [r7, #0]
 8003468:	681b      	ldr	r3, [r3, #0]
 800346a:	68fa      	ldr	r2, [r7, #12]
 800346c:	4313      	orrs	r3, r2
 800346e:	60fb      	str	r3, [r7, #12]

  /* Reset the Output Polarity level */
  tmpccer &= ~TIM_CCER_CC1P;
 8003470:	697b      	ldr	r3, [r7, #20]
 8003472:	2202      	movs	r2, #2
 8003474:	4393      	bics	r3, r2
 8003476:	617b      	str	r3, [r7, #20]
  /* Set the Output Compare Polarity */
  tmpccer |= OC_Config->OCPolarity;
 8003478:	683b      	ldr	r3, [r7, #0]
 800347a:	689b      	ldr	r3, [r3, #8]
 800347c:	697a      	ldr	r2, [r7, #20]
 800347e:	4313      	orrs	r3, r2
 8003480:	617b      	str	r3, [r7, #20]

  /* Write to TIMx CR2 */
  TIMx->CR2 = tmpcr2;
 8003482:	687b      	ldr	r3, [r7, #4]
 8003484:	693a      	ldr	r2, [r7, #16]
 8003486:	605a      	str	r2, [r3, #4]

  /* Write to TIMx CCMR1 */
  TIMx->CCMR1 = tmpccmrx;
 8003488:	687b      	ldr	r3, [r7, #4]
 800348a:	68fa      	ldr	r2, [r7, #12]
 800348c:	619a      	str	r2, [r3, #24]

  /* Set the Capture Compare Register value */
  TIMx->CCR1 = OC_Config->Pulse;
 800348e:	683b      	ldr	r3, [r7, #0]
 8003490:	685a      	ldr	r2, [r3, #4]
 8003492:	687b      	ldr	r3, [r7, #4]
 8003494:	635a      	str	r2, [r3, #52]	; 0x34

  /* Write to TIMx CCER */
  TIMx->CCER = tmpccer;
 8003496:	687b      	ldr	r3, [r7, #4]
 8003498:	697a      	ldr	r2, [r7, #20]
 800349a:	621a      	str	r2, [r3, #32]
}
 800349c:	46c0      	nop			; (mov r8, r8)
 800349e:	46bd      	mov	sp, r7
 80034a0:	b006      	add	sp, #24
 80034a2:	bd80      	pop	{r7, pc}

080034a4 <TIM_OC2_SetConfig>:
  * @param  TIMx to select the TIM peripheral
  * @param  OC_Config The ouput configuration structure
  * @retval None
  */
static void TIM_OC2_SetConfig(TIM_TypeDef *TIMx, TIM_OC_InitTypeDef *OC_Config)
{
 80034a4:	b580      	push	{r7, lr}
 80034a6:	b086      	sub	sp, #24
 80034a8:	af00      	add	r7, sp, #0
 80034aa:	6078      	str	r0, [r7, #4]
 80034ac:	6039      	str	r1, [r7, #0]
  uint32_t tmpccmrx;
  uint32_t tmpccer;
  uint32_t tmpcr2;

  /* Disable the Channel 2: Reset the CC2E Bit */
  TIMx->CCER &= ~TIM_CCER_CC2E;
 80034ae:	687b      	ldr	r3, [r7, #4]
 80034b0:	6a1b      	ldr	r3, [r3, #32]
 80034b2:	2210      	movs	r2, #16
 80034b4:	4393      	bics	r3, r2
 80034b6:	001a      	movs	r2, r3
 80034b8:	687b      	ldr	r3, [r7, #4]
 80034ba:	621a      	str	r2, [r3, #32]

  /* Get the TIMx CCER register value */
  tmpccer = TIMx->CCER;
 80034bc:	687b      	ldr	r3, [r7, #4]
 80034be:	6a1b      	ldr	r3, [r3, #32]
 80034c0:	617b      	str	r3, [r7, #20]
  /* Get the TIMx CR2 register value */
  tmpcr2 =  TIMx->CR2;
 80034c2:	687b      	ldr	r3, [r7, #4]
 80034c4:	685b      	ldr	r3, [r3, #4]
 80034c6:	613b      	str	r3, [r7, #16]

  /* Get the TIMx CCMR1 register value */
  tmpccmrx = TIMx->CCMR1;
 80034c8:	687b      	ldr	r3, [r7, #4]
 80034ca:	699b      	ldr	r3, [r3, #24]
 80034cc:	60fb      	str	r3, [r7, #12]

  /* Reset the Output Compare mode and Capture/Compare selection Bits */
  tmpccmrx &= ~TIM_CCMR1_OC2M;
 80034ce:	68fb      	ldr	r3, [r7, #12]
 80034d0:	4a13      	ldr	r2, [pc, #76]	; (8003520 <TIM_OC2_SetConfig+0x7c>)
 80034d2:	4013      	ands	r3, r2
 80034d4:	60fb      	str	r3, [r7, #12]
  tmpccmrx &= ~TIM_CCMR1_CC2S;
 80034d6:	68fb      	ldr	r3, [r7, #12]
 80034d8:	4a12      	ldr	r2, [pc, #72]	; (8003524 <TIM_OC2_SetConfig+0x80>)
 80034da:	4013      	ands	r3, r2
 80034dc:	60fb      	str	r3, [r7, #12]

  /* Select the Output Compare Mode */
  tmpccmrx |= (OC_Config->OCMode << 8U);
 80034de:	683b      	ldr	r3, [r7, #0]
 80034e0:	681b      	ldr	r3, [r3, #0]
 80034e2:	021b      	lsls	r3, r3, #8
 80034e4:	68fa      	ldr	r2, [r7, #12]
 80034e6:	4313      	orrs	r3, r2
 80034e8:	60fb      	str	r3, [r7, #12]

  /* Reset the Output Polarity level */
  tmpccer &= ~TIM_CCER_CC2P;
 80034ea:	697b      	ldr	r3, [r7, #20]
 80034ec:	2220      	movs	r2, #32
 80034ee:	4393      	bics	r3, r2
 80034f0:	617b      	str	r3, [r7, #20]
  /* Set the Output Compare Polarity */
  tmpccer |= (OC_Config->OCPolarity << 4U);
 80034f2:	683b      	ldr	r3, [r7, #0]
 80034f4:	689b      	ldr	r3, [r3, #8]
 80034f6:	011b      	lsls	r3, r3, #4
 80034f8:	697a      	ldr	r2, [r7, #20]
 80034fa:	4313      	orrs	r3, r2
 80034fc:	617b      	str	r3, [r7, #20]

  /* Write to TIMx CR2 */
  TIMx->CR2 = tmpcr2;
 80034fe:	687b      	ldr	r3, [r7, #4]
 8003500:	693a      	ldr	r2, [r7, #16]
 8003502:	605a      	str	r2, [r3, #4]

  /* Write to TIMx CCMR1 */
  TIMx->CCMR1 = tmpccmrx;
 8003504:	687b      	ldr	r3, [r7, #4]
 8003506:	68fa      	ldr	r2, [r7, #12]
 8003508:	619a      	str	r2, [r3, #24]

  /* Set the Capture Compare Register value */
  TIMx->CCR2 = OC_Config->Pulse;
 800350a:	683b      	ldr	r3, [r7, #0]
 800350c:	685a      	ldr	r2, [r3, #4]
 800350e:	687b      	ldr	r3, [r7, #4]
 8003510:	639a      	str	r2, [r3, #56]	; 0x38

  /* Write to TIMx CCER */
  TIMx->CCER = tmpccer;
 8003512:	687b      	ldr	r3, [r7, #4]
 8003514:	697a      	ldr	r2, [r7, #20]
 8003516:	621a      	str	r2, [r3, #32]
}
 8003518:	46c0      	nop			; (mov r8, r8)
 800351a:	46bd      	mov	sp, r7
 800351c:	b006      	add	sp, #24
 800351e:	bd80      	pop	{r7, pc}
 8003520:	ffff8fff 	.word	0xffff8fff
 8003524:	fffffcff 	.word	0xfffffcff

08003528 <TIM_OC3_SetConfig>:
  * @param  TIMx to select the TIM peripheral
  * @param  OC_Config The ouput configuration structure
  * @retval None
  */
static void TIM_OC3_SetConfig(TIM_TypeDef *TIMx, TIM_OC_InitTypeDef *OC_Config)
{
 8003528:	b580      	push	{r7, lr}
 800352a:	b086      	sub	sp, #24
 800352c:	af00      	add	r7, sp, #0
 800352e:	6078      	str	r0, [r7, #4]
 8003530:	6039      	str	r1, [r7, #0]
  uint32_t tmpccmrx;
  uint32_t tmpccer;
  uint32_t tmpcr2;

  /* Disable the Channel 3: Reset the CC2E Bit */
  TIMx->CCER &= ~TIM_CCER_CC3E;
 8003532:	687b      	ldr	r3, [r7, #4]
 8003534:	6a1b      	ldr	r3, [r3, #32]
 8003536:	4a1a      	ldr	r2, [pc, #104]	; (80035a0 <TIM_OC3_SetConfig+0x78>)
 8003538:	401a      	ands	r2, r3
 800353a:	687b      	ldr	r3, [r7, #4]
 800353c:	621a      	str	r2, [r3, #32]

  /* Get the TIMx CCER register value */
  tmpccer = TIMx->CCER;
 800353e:	687b      	ldr	r3, [r7, #4]
 8003540:	6a1b      	ldr	r3, [r3, #32]
 8003542:	617b      	str	r3, [r7, #20]
  /* Get the TIMx CR2 register value */
  tmpcr2 =  TIMx->CR2;
 8003544:	687b      	ldr	r3, [r7, #4]
 8003546:	685b      	ldr	r3, [r3, #4]
 8003548:	613b      	str	r3, [r7, #16]

  /* Get the TIMx CCMR2 register value */
  tmpccmrx = TIMx->CCMR2;
 800354a:	687b      	ldr	r3, [r7, #4]
 800354c:	69db      	ldr	r3, [r3, #28]
 800354e:	60fb      	str	r3, [r7, #12]

  /* Reset the Output Compare mode and Capture/Compare selection Bits */
  tmpccmrx &= ~TIM_CCMR2_OC3M;
 8003550:	68fb      	ldr	r3, [r7, #12]
 8003552:	2270      	movs	r2, #112	; 0x70
 8003554:	4393      	bics	r3, r2
 8003556:	60fb      	str	r3, [r7, #12]
  tmpccmrx &= ~TIM_CCMR2_CC3S;
 8003558:	68fb      	ldr	r3, [r7, #12]
 800355a:	2203      	movs	r2, #3
 800355c:	4393      	bics	r3, r2
 800355e:	60fb      	str	r3, [r7, #12]
  /* Select the Output Compare Mode */
  tmpccmrx |= OC_Config->OCMode;
 8003560:	683b      	ldr	r3, [r7, #0]
 8003562:	681b      	ldr	r3, [r3, #0]
 8003564:	68fa      	ldr	r2, [r7, #12]
 8003566:	4313      	orrs	r3, r2
 8003568:	60fb      	str	r3, [r7, #12]

  /* Reset the Output Polarity level */
  tmpccer &= ~TIM_CCER_CC3P;
 800356a:	697b      	ldr	r3, [r7, #20]
 800356c:	4a0d      	ldr	r2, [pc, #52]	; (80035a4 <TIM_OC3_SetConfig+0x7c>)
 800356e:	4013      	ands	r3, r2
 8003570:	617b      	str	r3, [r7, #20]
  /* Set the Output Compare Polarity */
  tmpccer |= (OC_Config->OCPolarity << 8U);
 8003572:	683b      	ldr	r3, [r7, #0]
 8003574:	689b      	ldr	r3, [r3, #8]
 8003576:	021b      	lsls	r3, r3, #8
 8003578:	697a      	ldr	r2, [r7, #20]
 800357a:	4313      	orrs	r3, r2
 800357c:	617b      	str	r3, [r7, #20]

  /* Write to TIMx CR2 */
  TIMx->CR2 = tmpcr2;
 800357e:	687b      	ldr	r3, [r7, #4]
 8003580:	693a      	ldr	r2, [r7, #16]
 8003582:	605a      	str	r2, [r3, #4]

  /* Write to TIMx CCMR2 */
  TIMx->CCMR2 = tmpccmrx;
 8003584:	687b      	ldr	r3, [r7, #4]
 8003586:	68fa      	ldr	r2, [r7, #12]
 8003588:	61da      	str	r2, [r3, #28]

  /* Set the Capture Compare Register value */
  TIMx->CCR3 = OC_Config->Pulse;
 800358a:	683b      	ldr	r3, [r7, #0]
 800358c:	685a      	ldr	r2, [r3, #4]
 800358e:	687b      	ldr	r3, [r7, #4]
 8003590:	63da      	str	r2, [r3, #60]	; 0x3c

  /* Write to TIMx CCER */
  TIMx->CCER = tmpccer;
 8003592:	687b      	ldr	r3, [r7, #4]
 8003594:	697a      	ldr	r2, [r7, #20]
 8003596:	621a      	str	r2, [r3, #32]
}
 8003598:	46c0      	nop			; (mov r8, r8)
 800359a:	46bd      	mov	sp, r7
 800359c:	b006      	add	sp, #24
 800359e:	bd80      	pop	{r7, pc}
 80035a0:	fffffeff 	.word	0xfffffeff
 80035a4:	fffffdff 	.word	0xfffffdff

080035a8 <TIM_OC4_SetConfig>:
  * @param  TIMx to select the TIM peripheral
  * @param  OC_Config The ouput configuration structure
  * @retval None
  */
static void TIM_OC4_SetConfig(TIM_TypeDef *TIMx, TIM_OC_InitTypeDef *OC_Config)
{
 80035a8:	b580      	push	{r7, lr}
 80035aa:	b086      	sub	sp, #24
 80035ac:	af00      	add	r7, sp, #0
 80035ae:	6078      	str	r0, [r7, #4]
 80035b0:	6039      	str	r1, [r7, #0]
  uint32_t tmpccmrx;
  uint32_t tmpccer;
  uint32_t tmpcr2;

  /* Disable the Channel 4: Reset the CC4E Bit */
  TIMx->CCER &= ~TIM_CCER_CC4E;
 80035b2:	687b      	ldr	r3, [r7, #4]
 80035b4:	6a1b      	ldr	r3, [r3, #32]
 80035b6:	4a1b      	ldr	r2, [pc, #108]	; (8003624 <TIM_OC4_SetConfig+0x7c>)
 80035b8:	401a      	ands	r2, r3
 80035ba:	687b      	ldr	r3, [r7, #4]
 80035bc:	621a      	str	r2, [r3, #32]

  /* Get the TIMx CCER register value */
  tmpccer = TIMx->CCER;
 80035be:	687b      	ldr	r3, [r7, #4]
 80035c0:	6a1b      	ldr	r3, [r3, #32]
 80035c2:	617b      	str	r3, [r7, #20]
  /* Get the TIMx CR2 register value */
  tmpcr2 =  TIMx->CR2;
 80035c4:	687b      	ldr	r3, [r7, #4]
 80035c6:	685b      	ldr	r3, [r3, #4]
 80035c8:	613b      	str	r3, [r7, #16]

  /* Get the TIMx CCMR2 register value */
  tmpccmrx = TIMx->CCMR2;
 80035ca:	687b      	ldr	r3, [r7, #4]
 80035cc:	69db      	ldr	r3, [r3, #28]
 80035ce:	60fb      	str	r3, [r7, #12]

  /* Reset the Output Compare mode and Capture/Compare selection Bits */
  tmpccmrx &= ~TIM_CCMR2_OC4M;
 80035d0:	68fb      	ldr	r3, [r7, #12]
 80035d2:	4a15      	ldr	r2, [pc, #84]	; (8003628 <TIM_OC4_SetConfig+0x80>)
 80035d4:	4013      	ands	r3, r2
 80035d6:	60fb      	str	r3, [r7, #12]
  tmpccmrx &= ~TIM_CCMR2_CC4S;
 80035d8:	68fb      	ldr	r3, [r7, #12]
 80035da:	4a14      	ldr	r2, [pc, #80]	; (800362c <TIM_OC4_SetConfig+0x84>)
 80035dc:	4013      	ands	r3, r2
 80035de:	60fb      	str	r3, [r7, #12]

  /* Select the Output Compare Mode */
  tmpccmrx |= (OC_Config->OCMode << 8U);
 80035e0:	683b      	ldr	r3, [r7, #0]
 80035e2:	681b      	ldr	r3, [r3, #0]
 80035e4:	021b      	lsls	r3, r3, #8
 80035e6:	68fa      	ldr	r2, [r7, #12]
 80035e8:	4313      	orrs	r3, r2
 80035ea:	60fb      	str	r3, [r7, #12]

  /* Reset the Output Polarity level */
  tmpccer &= ~TIM_CCER_CC4P;
 80035ec:	697b      	ldr	r3, [r7, #20]
 80035ee:	4a10      	ldr	r2, [pc, #64]	; (8003630 <TIM_OC4_SetConfig+0x88>)
 80035f0:	4013      	ands	r3, r2
 80035f2:	617b      	str	r3, [r7, #20]
  /* Set the Output Compare Polarity */
  tmpccer |= (OC_Config->OCPolarity << 12U);
 80035f4:	683b      	ldr	r3, [r7, #0]
 80035f6:	689b      	ldr	r3, [r3, #8]
 80035f8:	031b      	lsls	r3, r3, #12
 80035fa:	697a      	ldr	r2, [r7, #20]
 80035fc:	4313      	orrs	r3, r2
 80035fe:	617b      	str	r3, [r7, #20]

  /* Write to TIMx CR2 */
  TIMx->CR2 = tmpcr2;
 8003600:	687b      	ldr	r3, [r7, #4]
 8003602:	693a      	ldr	r2, [r7, #16]
 8003604:	605a      	str	r2, [r3, #4]

  /* Write to TIMx CCMR2 */
  TIMx->CCMR2 = tmpccmrx;
 8003606:	687b      	ldr	r3, [r7, #4]
 8003608:	68fa      	ldr	r2, [r7, #12]
 800360a:	61da      	str	r2, [r3, #28]

  /* Set the Capture Compare Register value */
  TIMx->CCR4 = OC_Config->Pulse;
 800360c:	683b      	ldr	r3, [r7, #0]
 800360e:	685a      	ldr	r2, [r3, #4]
 8003610:	687b      	ldr	r3, [r7, #4]
 8003612:	641a      	str	r2, [r3, #64]	; 0x40

  /* Write to TIMx CCER */
  TIMx->CCER = tmpccer;
 8003614:	687b      	ldr	r3, [r7, #4]
 8003616:	697a      	ldr	r2, [r7, #20]
 8003618:	621a      	str	r2, [r3, #32]
}
 800361a:	46c0      	nop			; (mov r8, r8)
 800361c:	46bd      	mov	sp, r7
 800361e:	b006      	add	sp, #24
 8003620:	bd80      	pop	{r7, pc}
 8003622:	46c0      	nop			; (mov r8, r8)
 8003624:	ffffefff 	.word	0xffffefff
 8003628:	ffff8fff 	.word	0xffff8fff
 800362c:	fffffcff 	.word	0xfffffcff
 8003630:	ffffdfff 	.word	0xffffdfff

08003634 <TIM_TI1_ConfigInputStage>:
  * @param  TIM_ICFilter Specifies the Input Capture Filter.
  *          This parameter must be a value between 0x00 and 0x0F.
  * @retval None
  */
static void TIM_TI1_ConfigInputStage(TIM_TypeDef *TIMx, uint32_t TIM_ICPolarity, uint32_t TIM_ICFilter)
{
 8003634:	b580      	push	{r7, lr}
 8003636:	b086      	sub	sp, #24
 8003638:	af00      	add	r7, sp, #0
 800363a:	60f8      	str	r0, [r7, #12]
 800363c:	60b9      	str	r1, [r7, #8]
 800363e:	607a      	str	r2, [r7, #4]
  uint32_t tmpccmr1;
  uint32_t tmpccer;

  /* Disable the Channel 1: Reset the CC1E Bit */
  tmpccer = TIMx->CCER;
 8003640:	68fb      	ldr	r3, [r7, #12]
 8003642:	6a1b      	ldr	r3, [r3, #32]
 8003644:	617b      	str	r3, [r7, #20]
  TIMx->CCER &= ~TIM_CCER_CC1E;
 8003646:	68fb      	ldr	r3, [r7, #12]
 8003648:	6a1b      	ldr	r3, [r3, #32]
 800364a:	2201      	movs	r2, #1
 800364c:	4393      	bics	r3, r2
 800364e:	001a      	movs	r2, r3
 8003650:	68fb      	ldr	r3, [r7, #12]
 8003652:	621a      	str	r2, [r3, #32]
  tmpccmr1 = TIMx->CCMR1;
 8003654:	68fb      	ldr	r3, [r7, #12]
 8003656:	699b      	ldr	r3, [r3, #24]
 8003658:	613b      	str	r3, [r7, #16]

  /* Set the filter */
  tmpccmr1 &= ~TIM_CCMR1_IC1F;
 800365a:	693b      	ldr	r3, [r7, #16]
 800365c:	22f0      	movs	r2, #240	; 0xf0
 800365e:	4393      	bics	r3, r2
 8003660:	613b      	str	r3, [r7, #16]
  tmpccmr1 |= (TIM_ICFilter << 4U);
 8003662:	687b      	ldr	r3, [r7, #4]
 8003664:	011b      	lsls	r3, r3, #4
 8003666:	693a      	ldr	r2, [r7, #16]
 8003668:	4313      	orrs	r3, r2
 800366a:	613b      	str	r3, [r7, #16]

  /* Select the Polarity and set the CC1E Bit */
  tmpccer &= ~(TIM_CCER_CC1P | TIM_CCER_CC1NP);
 800366c:	697b      	ldr	r3, [r7, #20]
 800366e:	220a      	movs	r2, #10
 8003670:	4393      	bics	r3, r2
 8003672:	617b      	str	r3, [r7, #20]
  tmpccer |= TIM_ICPolarity;
 8003674:	697a      	ldr	r2, [r7, #20]
 8003676:	68bb      	ldr	r3, [r7, #8]
 8003678:	4313      	orrs	r3, r2
 800367a:	617b      	str	r3, [r7, #20]

  /* Write to TIMx CCMR1 and CCER registers */
  TIMx->CCMR1 = tmpccmr1;
 800367c:	68fb      	ldr	r3, [r7, #12]
 800367e:	693a      	ldr	r2, [r7, #16]
 8003680:	619a      	str	r2, [r3, #24]
  TIMx->CCER = tmpccer;
 8003682:	68fb      	ldr	r3, [r7, #12]
 8003684:	697a      	ldr	r2, [r7, #20]
 8003686:	621a      	str	r2, [r3, #32]
}
 8003688:	46c0      	nop			; (mov r8, r8)
 800368a:	46bd      	mov	sp, r7
 800368c:	b006      	add	sp, #24
 800368e:	bd80      	pop	{r7, pc}

08003690 <TIM_TI2_ConfigInputStage>:
  * @param  TIM_ICFilter Specifies the Input Capture Filter.
  *          This parameter must be a value between 0x00 and 0x0F.
  * @retval None
  */
static void TIM_TI2_ConfigInputStage(TIM_TypeDef *TIMx, uint32_t TIM_ICPolarity, uint32_t TIM_ICFilter)
{
 8003690:	b580      	push	{r7, lr}
 8003692:	b086      	sub	sp, #24
 8003694:	af00      	add	r7, sp, #0
 8003696:	60f8      	str	r0, [r7, #12]
 8003698:	60b9      	str	r1, [r7, #8]
 800369a:	607a      	str	r2, [r7, #4]
  uint32_t tmpccmr1;
  uint32_t tmpccer;

  /* Disable the Channel 2: Reset the CC2E Bit */
  TIMx->CCER &= ~TIM_CCER_CC2E;
 800369c:	68fb      	ldr	r3, [r7, #12]
 800369e:	6a1b      	ldr	r3, [r3, #32]
 80036a0:	2210      	movs	r2, #16
 80036a2:	4393      	bics	r3, r2
 80036a4:	001a      	movs	r2, r3
 80036a6:	68fb      	ldr	r3, [r7, #12]
 80036a8:	621a      	str	r2, [r3, #32]
  tmpccmr1 = TIMx->CCMR1;
 80036aa:	68fb      	ldr	r3, [r7, #12]
 80036ac:	699b      	ldr	r3, [r3, #24]
 80036ae:	617b      	str	r3, [r7, #20]
  tmpccer = TIMx->CCER;
 80036b0:	68fb      	ldr	r3, [r7, #12]
 80036b2:	6a1b      	ldr	r3, [r3, #32]
 80036b4:	613b      	str	r3, [r7, #16]

  /* Set the filter */
  tmpccmr1 &= ~TIM_CCMR1_IC2F;
 80036b6:	697b      	ldr	r3, [r7, #20]
 80036b8:	4a0d      	ldr	r2, [pc, #52]	; (80036f0 <TIM_TI2_ConfigInputStage+0x60>)
 80036ba:	4013      	ands	r3, r2
 80036bc:	617b      	str	r3, [r7, #20]
  tmpccmr1 |= (TIM_ICFilter << 12U);
 80036be:	687b      	ldr	r3, [r7, #4]
 80036c0:	031b      	lsls	r3, r3, #12
 80036c2:	697a      	ldr	r2, [r7, #20]
 80036c4:	4313      	orrs	r3, r2
 80036c6:	617b      	str	r3, [r7, #20]

  /* Select the Polarity and set the CC2E Bit */
  tmpccer &= ~(TIM_CCER_CC2P | TIM_CCER_CC2NP);
 80036c8:	693b      	ldr	r3, [r7, #16]
 80036ca:	22a0      	movs	r2, #160	; 0xa0
 80036cc:	4393      	bics	r3, r2
 80036ce:	613b      	str	r3, [r7, #16]
  tmpccer |= (TIM_ICPolarity << 4U);
 80036d0:	68bb      	ldr	r3, [r7, #8]
 80036d2:	011b      	lsls	r3, r3, #4
 80036d4:	693a      	ldr	r2, [r7, #16]
 80036d6:	4313      	orrs	r3, r2
 80036d8:	613b      	str	r3, [r7, #16]

  /* Write to TIMx CCMR1 and CCER registers */
  TIMx->CCMR1 = tmpccmr1 ;
 80036da:	68fb      	ldr	r3, [r7, #12]
 80036dc:	697a      	ldr	r2, [r7, #20]
 80036de:	619a      	str	r2, [r3, #24]
  TIMx->CCER = tmpccer;
 80036e0:	68fb      	ldr	r3, [r7, #12]
 80036e2:	693a      	ldr	r2, [r7, #16]
 80036e4:	621a      	str	r2, [r3, #32]
}
 80036e6:	46c0      	nop			; (mov r8, r8)
 80036e8:	46bd      	mov	sp, r7
 80036ea:	b006      	add	sp, #24
 80036ec:	bd80      	pop	{r7, pc}
 80036ee:	46c0      	nop			; (mov r8, r8)
 80036f0:	ffff0fff 	.word	0xffff0fff

080036f4 <TIM_ITRx_SetConfig>:
  *            @arg TIM_TS_TI2FP2: Filtered Timer Input 2
  *            @arg TIM_TS_ETRF: External Trigger input
  * @retval None
  */
static void TIM_ITRx_SetConfig(TIM_TypeDef *TIMx, uint32_t InputTriggerSource)
{
 80036f4:	b580      	push	{r7, lr}
 80036f6:	b084      	sub	sp, #16
 80036f8:	af00      	add	r7, sp, #0
 80036fa:	6078      	str	r0, [r7, #4]
 80036fc:	6039      	str	r1, [r7, #0]
  uint32_t tmpsmcr;

  /* Get the TIMx SMCR register value */
  tmpsmcr = TIMx->SMCR;
 80036fe:	687b      	ldr	r3, [r7, #4]
 8003700:	689b      	ldr	r3, [r3, #8]
 8003702:	60fb      	str	r3, [r7, #12]
  /* Reset the TS Bits */
  tmpsmcr &= ~TIM_SMCR_TS;
 8003704:	68fb      	ldr	r3, [r7, #12]
 8003706:	2270      	movs	r2, #112	; 0x70
 8003708:	4393      	bics	r3, r2
 800370a:	60fb      	str	r3, [r7, #12]
  /* Set the Input Trigger source and the slave mode*/
  tmpsmcr |= (InputTriggerSource | TIM_SLAVEMODE_EXTERNAL1);
 800370c:	683a      	ldr	r2, [r7, #0]
 800370e:	68fb      	ldr	r3, [r7, #12]
 8003710:	4313      	orrs	r3, r2
 8003712:	2207      	movs	r2, #7
 8003714:	4313      	orrs	r3, r2
 8003716:	60fb      	str	r3, [r7, #12]
  /* Write to TIMx SMCR */
  TIMx->SMCR = tmpsmcr;
 8003718:	687b      	ldr	r3, [r7, #4]
 800371a:	68fa      	ldr	r2, [r7, #12]
 800371c:	609a      	str	r2, [r3, #8]
}
 800371e:	46c0      	nop			; (mov r8, r8)
 8003720:	46bd      	mov	sp, r7
 8003722:	b004      	add	sp, #16
 8003724:	bd80      	pop	{r7, pc}
	...

08003728 <TIM_ETR_SetConfig>:
  *          This parameter must be a value between 0x00 and 0x0F
  * @retval None
  */
static void TIM_ETR_SetConfig(TIM_TypeDef *TIMx, uint32_t TIM_ExtTRGPrescaler,
                              uint32_t TIM_ExtTRGPolarity, uint32_t ExtTRGFilter)
{
 8003728:	b580      	push	{r7, lr}
 800372a:	b086      	sub	sp, #24
 800372c:	af00      	add	r7, sp, #0
 800372e:	60f8      	str	r0, [r7, #12]
 8003730:	60b9      	str	r1, [r7, #8]
 8003732:	607a      	str	r2, [r7, #4]
 8003734:	603b      	str	r3, [r7, #0]
  uint32_t tmpsmcr;

  tmpsmcr = TIMx->SMCR;
 8003736:	68fb      	ldr	r3, [r7, #12]
 8003738:	689b      	ldr	r3, [r3, #8]
 800373a:	617b      	str	r3, [r7, #20]

  /* Reset the ETR Bits */
  tmpsmcr &= ~(TIM_SMCR_ETF | TIM_SMCR_ETPS | TIM_SMCR_ECE | TIM_SMCR_ETP);
 800373c:	697b      	ldr	r3, [r7, #20]
 800373e:	4a09      	ldr	r2, [pc, #36]	; (8003764 <TIM_ETR_SetConfig+0x3c>)
 8003740:	4013      	ands	r3, r2
 8003742:	617b      	str	r3, [r7, #20]

  /* Set the Prescaler, the Filter value and the Polarity */
  tmpsmcr |= (uint32_t)(TIM_ExtTRGPrescaler | (TIM_ExtTRGPolarity | (ExtTRGFilter << 8U)));
 8003744:	683b      	ldr	r3, [r7, #0]
 8003746:	021a      	lsls	r2, r3, #8
 8003748:	687b      	ldr	r3, [r7, #4]
 800374a:	431a      	orrs	r2, r3
 800374c:	68bb      	ldr	r3, [r7, #8]
 800374e:	4313      	orrs	r3, r2
 8003750:	697a      	ldr	r2, [r7, #20]
 8003752:	4313      	orrs	r3, r2
 8003754:	617b      	str	r3, [r7, #20]

  /* Write to TIMx SMCR */
  TIMx->SMCR = tmpsmcr;
 8003756:	68fb      	ldr	r3, [r7, #12]
 8003758:	697a      	ldr	r2, [r7, #20]
 800375a:	609a      	str	r2, [r3, #8]
}
 800375c:	46c0      	nop			; (mov r8, r8)
 800375e:	46bd      	mov	sp, r7
 8003760:	b006      	add	sp, #24
 8003762:	bd80      	pop	{r7, pc}
 8003764:	ffff00ff 	.word	0xffff00ff

08003768 <TIM_CCxChannelCmd>:
  * @param  ChannelState specifies the TIM Channel CCxE bit new state.
  *          This parameter can be: TIM_CCx_ENABLE or TIM_CCx_DISABLE.
  * @retval None
  */
static void TIM_CCxChannelCmd(TIM_TypeDef *TIMx, uint32_t Channel, uint32_t ChannelState)
{
 8003768:	b580      	push	{r7, lr}
 800376a:	b086      	sub	sp, #24
 800376c:	af00      	add	r7, sp, #0
 800376e:	60f8      	str	r0, [r7, #12]
 8003770:	60b9      	str	r1, [r7, #8]
 8003772:	607a      	str	r2, [r7, #4]

  /* Check the parameters */
  assert_param(IS_TIM_CC1_INSTANCE(TIMx));
  assert_param(IS_TIM_CHANNELS(Channel));

  tmp = TIM_CCER_CC1E << (Channel & 0x1FU); /* 0x1FU = 31 bits max shift */
 8003774:	68bb      	ldr	r3, [r7, #8]
 8003776:	221f      	movs	r2, #31
 8003778:	4013      	ands	r3, r2
 800377a:	2201      	movs	r2, #1
 800377c:	409a      	lsls	r2, r3
 800377e:	0013      	movs	r3, r2
 8003780:	617b      	str	r3, [r7, #20]

  /* Reset the CCxE Bit */
  TIMx->CCER &= ~tmp;
 8003782:	68fb      	ldr	r3, [r7, #12]
 8003784:	6a1b      	ldr	r3, [r3, #32]
 8003786:	697a      	ldr	r2, [r7, #20]
 8003788:	43d2      	mvns	r2, r2
 800378a:	401a      	ands	r2, r3
 800378c:	68fb      	ldr	r3, [r7, #12]
 800378e:	621a      	str	r2, [r3, #32]

  /* Set or reset the CCxE Bit */
  TIMx->CCER |= (uint32_t)(ChannelState << (Channel & 0x1FU)); /* 0x1FU = 31 bits max shift */
 8003790:	68fb      	ldr	r3, [r7, #12]
 8003792:	6a1a      	ldr	r2, [r3, #32]
 8003794:	68bb      	ldr	r3, [r7, #8]
 8003796:	211f      	movs	r1, #31
 8003798:	400b      	ands	r3, r1
 800379a:	6879      	ldr	r1, [r7, #4]
 800379c:	4099      	lsls	r1, r3
 800379e:	000b      	movs	r3, r1
 80037a0:	431a      	orrs	r2, r3
 80037a2:	68fb      	ldr	r3, [r7, #12]
 80037a4:	621a      	str	r2, [r3, #32]
}
 80037a6:	46c0      	nop			; (mov r8, r8)
 80037a8:	46bd      	mov	sp, r7
 80037aa:	b006      	add	sp, #24
 80037ac:	bd80      	pop	{r7, pc}

080037ae <HAL_TIMEx_MasterConfigSynchronization>:
  *         mode.
  * @retval HAL status
  */
HAL_StatusTypeDef HAL_TIMEx_MasterConfigSynchronization(TIM_HandleTypeDef *htim,
                                                        TIM_MasterConfigTypeDef *sMasterConfig)
{
 80037ae:	b580      	push	{r7, lr}
 80037b0:	b084      	sub	sp, #16
 80037b2:	af00      	add	r7, sp, #0
 80037b4:	6078      	str	r0, [r7, #4]
 80037b6:	6039      	str	r1, [r7, #0]
  assert_param(IS_TIM_SYNCHRO_INSTANCE(htim->Instance));
  assert_param(IS_TIM_TRGO_SOURCE(sMasterConfig->MasterOutputTrigger));
  assert_param(IS_TIM_MSM_STATE(sMasterConfig->MasterSlaveMode));

  /* Check input state */
  __HAL_LOCK(htim);
 80037b8:	687b      	ldr	r3, [r7, #4]
 80037ba:	2238      	movs	r2, #56	; 0x38
 80037bc:	5c9b      	ldrb	r3, [r3, r2]
 80037be:	2b01      	cmp	r3, #1
 80037c0:	d101      	bne.n	80037c6 <HAL_TIMEx_MasterConfigSynchronization+0x18>
 80037c2:	2302      	movs	r3, #2
 80037c4:	e032      	b.n	800382c <HAL_TIMEx_MasterConfigSynchronization+0x7e>
 80037c6:	687b      	ldr	r3, [r7, #4]
 80037c8:	2238      	movs	r2, #56	; 0x38
 80037ca:	2101      	movs	r1, #1
 80037cc:	5499      	strb	r1, [r3, r2]

  /* Change the handler state */
  htim->State = HAL_TIM_STATE_BUSY;
 80037ce:	687b      	ldr	r3, [r7, #4]
 80037d0:	2239      	movs	r2, #57	; 0x39
 80037d2:	2102      	movs	r1, #2
 80037d4:	5499      	strb	r1, [r3, r2]

  /* Get the TIMx CR2 register value */
  tmpcr2 = htim->Instance->CR2;
 80037d6:	687b      	ldr	r3, [r7, #4]
 80037d8:	681b      	ldr	r3, [r3, #0]
 80037da:	685b      	ldr	r3, [r3, #4]
 80037dc:	60fb      	str	r3, [r7, #12]

  /* Get the TIMx SMCR register value */
  tmpsmcr = htim->Instance->SMCR;
 80037de:	687b      	ldr	r3, [r7, #4]
 80037e0:	681b      	ldr	r3, [r3, #0]
 80037e2:	689b      	ldr	r3, [r3, #8]
 80037e4:	60bb      	str	r3, [r7, #8]

  /* Reset the MMS Bits */
  tmpcr2 &= ~TIM_CR2_MMS;
 80037e6:	68fb      	ldr	r3, [r7, #12]
 80037e8:	2270      	movs	r2, #112	; 0x70
 80037ea:	4393      	bics	r3, r2
 80037ec:	60fb      	str	r3, [r7, #12]
  /* Select the TRGO source */
  tmpcr2 |=  sMasterConfig->MasterOutputTrigger;
 80037ee:	683b      	ldr	r3, [r7, #0]
 80037f0:	681b      	ldr	r3, [r3, #0]
 80037f2:	68fa      	ldr	r2, [r7, #12]
 80037f4:	4313      	orrs	r3, r2
 80037f6:	60fb      	str	r3, [r7, #12]

  /* Reset the MSM Bit */
  tmpsmcr &= ~TIM_SMCR_MSM;
 80037f8:	68bb      	ldr	r3, [r7, #8]
 80037fa:	2280      	movs	r2, #128	; 0x80
 80037fc:	4393      	bics	r3, r2
 80037fe:	60bb      	str	r3, [r7, #8]
  /* Set master mode */
  tmpsmcr |= sMasterConfig->MasterSlaveMode;
 8003800:	683b      	ldr	r3, [r7, #0]
 8003802:	685b      	ldr	r3, [r3, #4]
 8003804:	68ba      	ldr	r2, [r7, #8]
 8003806:	4313      	orrs	r3, r2
 8003808:	60bb      	str	r3, [r7, #8]

  /* Update TIMx CR2 */
  htim->Instance->CR2 = tmpcr2;
 800380a:	687b      	ldr	r3, [r7, #4]
 800380c:	681b      	ldr	r3, [r3, #0]
 800380e:	68fa      	ldr	r2, [r7, #12]
 8003810:	605a      	str	r2, [r3, #4]

  /* Update TIMx SMCR */
  htim->Instance->SMCR = tmpsmcr;
 8003812:	687b      	ldr	r3, [r7, #4]
 8003814:	681b      	ldr	r3, [r3, #0]
 8003816:	68ba      	ldr	r2, [r7, #8]
 8003818:	609a      	str	r2, [r3, #8]

  /* Change the htim state */
  htim->State = HAL_TIM_STATE_READY;
 800381a:	687b      	ldr	r3, [r7, #4]
 800381c:	2239      	movs	r2, #57	; 0x39
 800381e:	2101      	movs	r1, #1
 8003820:	5499      	strb	r1, [r3, r2]

  __HAL_UNLOCK(htim);
 8003822:	687b      	ldr	r3, [r7, #4]
 8003824:	2238      	movs	r2, #56	; 0x38
 8003826:	2100      	movs	r1, #0
 8003828:	5499      	strb	r1, [r3, r2]

  return HAL_OK;
 800382a:	2300      	movs	r3, #0
}
 800382c:	0018      	movs	r0, r3
 800382e:	46bd      	mov	sp, r7
 8003830:	b004      	add	sp, #16
 8003832:	bd80      	pop	{r7, pc}

08003834 <__libc_init_array>:
 8003834:	b570      	push	{r4, r5, r6, lr}
 8003836:	2600      	movs	r6, #0
 8003838:	4d0c      	ldr	r5, [pc, #48]	; (800386c <__libc_init_array+0x38>)
 800383a:	4c0d      	ldr	r4, [pc, #52]	; (8003870 <__libc_init_array+0x3c>)
 800383c:	1b64      	subs	r4, r4, r5
 800383e:	10a4      	asrs	r4, r4, #2
 8003840:	42a6      	cmp	r6, r4
 8003842:	d109      	bne.n	8003858 <__libc_init_array+0x24>
 8003844:	2600      	movs	r6, #0
 8003846:	f000 f821 	bl	800388c <_init>
 800384a:	4d0a      	ldr	r5, [pc, #40]	; (8003874 <__libc_init_array+0x40>)
 800384c:	4c0a      	ldr	r4, [pc, #40]	; (8003878 <__libc_init_array+0x44>)
 800384e:	1b64      	subs	r4, r4, r5
 8003850:	10a4      	asrs	r4, r4, #2
 8003852:	42a6      	cmp	r6, r4
 8003854:	d105      	bne.n	8003862 <__libc_init_array+0x2e>
 8003856:	bd70      	pop	{r4, r5, r6, pc}
 8003858:	00b3      	lsls	r3, r6, #2
 800385a:	58eb      	ldr	r3, [r5, r3]
 800385c:	4798      	blx	r3
 800385e:	3601      	adds	r6, #1
 8003860:	e7ee      	b.n	8003840 <__libc_init_array+0xc>
 8003862:	00b3      	lsls	r3, r6, #2
 8003864:	58eb      	ldr	r3, [r5, r3]
 8003866:	4798      	blx	r3
 8003868:	3601      	adds	r6, #1
 800386a:	e7f2      	b.n	8003852 <__libc_init_array+0x1e>
 800386c:	080038c0 	.word	0x080038c0
 8003870:	080038c0 	.word	0x080038c0
 8003874:	080038c0 	.word	0x080038c0
 8003878:	080038c4 	.word	0x080038c4

0800387c <memset>:
 800387c:	0003      	movs	r3, r0
 800387e:	1812      	adds	r2, r2, r0
 8003880:	4293      	cmp	r3, r2
 8003882:	d100      	bne.n	8003886 <memset+0xa>
 8003884:	4770      	bx	lr
 8003886:	7019      	strb	r1, [r3, #0]
 8003888:	3301      	adds	r3, #1
 800388a:	e7f9      	b.n	8003880 <memset+0x4>

0800388c <_init>:
 800388c:	b5f8      	push	{r3, r4, r5, r6, r7, lr}
 800388e:	46c0      	nop			; (mov r8, r8)
 8003890:	bcf8      	pop	{r3, r4, r5, r6, r7}
 8003892:	bc08      	pop	{r3}
 8003894:	469e      	mov	lr, r3
 8003896:	4770      	bx	lr

08003898 <_fini>:
 8003898:	b5f8      	push	{r3, r4, r5, r6, r7, lr}
 800389a:	46c0      	nop			; (mov r8, r8)
 800389c:	bcf8      	pop	{r3, r4, r5, r6, r7}
 800389e:	bc08      	pop	{r3}
 80038a0:	469e      	mov	lr, r3
 80038a2:	4770      	bx	lr
