
OverDriverPedal_SW.elf:     file format elf32-littlearm

Sections:
Idx Name          Size      VMA       LMA       File off  Algn
  0 .isr_vector   000000c0  08000000  08000000  00010000  2**0
                  CONTENTS, ALLOC, LOAD, READONLY, DATA
  1 .text         0000300c  080000c0  080000c0  000100c0  2**2
                  CONTENTS, ALLOC, LOAD, READONLY, CODE
  2 .rodata       0000001c  080030cc  080030cc  000130cc  2**2
                  CONTENTS, ALLOC, LOAD, READONLY, DATA
  3 .ARM.extab    00000000  080030e8  080030e8  00020004  2**0
                  CONTENTS
  4 .ARM          00000000  080030e8  080030e8  00020004  2**0
                  CONTENTS
  5 .preinit_array 00000000  080030e8  080030e8  00020004  2**0
                  CONTENTS, ALLOC, LOAD, DATA
  6 .init_array   00000004  080030e8  080030e8  000130e8  2**2
                  CONTENTS, ALLOC, LOAD, DATA
  7 .fini_array   00000004  080030ec  080030ec  000130ec  2**2
                  CONTENTS, ALLOC, LOAD, DATA
  8 .data         00000004  20000000  080030f0  00020000  2**2
                  CONTENTS, ALLOC, LOAD, DATA
  9 .bss          00000144  20000004  080030f4  00020004  2**2
                  ALLOC
 10 ._user_heap_stack 00000600  20000148  080030f4  00020148  2**0
                  ALLOC
 11 .ARM.attributes 00000028  00000000  00000000  00020004  2**0
                  CONTENTS, READONLY
 12 .debug_info   0000907d  00000000  00000000  0002002c  2**0
                  CONTENTS, READONLY, DEBUGGING
 13 .debug_abbrev 00001a43  00000000  00000000  000290a9  2**0
                  CONTENTS, READONLY, DEBUGGING
 14 .debug_aranges 00000980  00000000  00000000  0002aaf0  2**3
                  CONTENTS, READONLY, DEBUGGING
 15 .debug_ranges 00000878  00000000  00000000  0002b470  2**3
                  CONTENTS, READONLY, DEBUGGING
 16 .debug_macro  00010af2  00000000  00000000  0002bce8  2**0
                  CONTENTS, READONLY, DEBUGGING
 17 .debug_line   00008dc7  00000000  00000000  0003c7da  2**0
                  CONTENTS, READONLY, DEBUGGING
 18 .debug_str    00065540  00000000  00000000  000455a1  2**0
                  CONTENTS, READONLY, DEBUGGING
 19 .comment      0000007b  00000000  00000000  000aaae1  2**0
                  CONTENTS, READONLY
 20 .debug_frame  00002048  00000000  00000000  000aab5c  2**2
                  CONTENTS, READONLY, DEBUGGING

Disassembly of section .text:

080000c0 <__do_global_dtors_aux>:
 80000c0:	b510      	push	{r4, lr}
 80000c2:	4c06      	ldr	r4, [pc, #24]	; (80000dc <__do_global_dtors_aux+0x1c>)
 80000c4:	7823      	ldrb	r3, [r4, #0]
 80000c6:	2b00      	cmp	r3, #0
 80000c8:	d107      	bne.n	80000da <__do_global_dtors_aux+0x1a>
 80000ca:	4b05      	ldr	r3, [pc, #20]	; (80000e0 <__do_global_dtors_aux+0x20>)
 80000cc:	2b00      	cmp	r3, #0
 80000ce:	d002      	beq.n	80000d6 <__do_global_dtors_aux+0x16>
 80000d0:	4804      	ldr	r0, [pc, #16]	; (80000e4 <__do_global_dtors_aux+0x24>)
 80000d2:	e000      	b.n	80000d6 <__do_global_dtors_aux+0x16>
 80000d4:	bf00      	nop
 80000d6:	2301      	movs	r3, #1
 80000d8:	7023      	strb	r3, [r4, #0]
 80000da:	bd10      	pop	{r4, pc}
 80000dc:	20000004 	.word	0x20000004
 80000e0:	00000000 	.word	0x00000000
 80000e4:	080030b4 	.word	0x080030b4

080000e8 <frame_dummy>:
 80000e8:	4b04      	ldr	r3, [pc, #16]	; (80000fc <frame_dummy+0x14>)
 80000ea:	b510      	push	{r4, lr}
 80000ec:	2b00      	cmp	r3, #0
 80000ee:	d003      	beq.n	80000f8 <frame_dummy+0x10>
 80000f0:	4903      	ldr	r1, [pc, #12]	; (8000100 <frame_dummy+0x18>)
 80000f2:	4804      	ldr	r0, [pc, #16]	; (8000104 <frame_dummy+0x1c>)
 80000f4:	e000      	b.n	80000f8 <frame_dummy+0x10>
 80000f6:	bf00      	nop
 80000f8:	bd10      	pop	{r4, pc}
 80000fa:	46c0      	nop			; (mov r8, r8)
 80000fc:	00000000 	.word	0x00000000
 8000100:	20000008 	.word	0x20000008
 8000104:	080030b4 	.word	0x080030b4

08000108 <__udivsi3>:
 8000108:	2200      	movs	r2, #0
 800010a:	0843      	lsrs	r3, r0, #1
 800010c:	428b      	cmp	r3, r1
 800010e:	d374      	bcc.n	80001fa <__udivsi3+0xf2>
 8000110:	0903      	lsrs	r3, r0, #4
 8000112:	428b      	cmp	r3, r1
 8000114:	d35f      	bcc.n	80001d6 <__udivsi3+0xce>
 8000116:	0a03      	lsrs	r3, r0, #8
 8000118:	428b      	cmp	r3, r1
 800011a:	d344      	bcc.n	80001a6 <__udivsi3+0x9e>
 800011c:	0b03      	lsrs	r3, r0, #12
 800011e:	428b      	cmp	r3, r1
 8000120:	d328      	bcc.n	8000174 <__udivsi3+0x6c>
 8000122:	0c03      	lsrs	r3, r0, #16
 8000124:	428b      	cmp	r3, r1
 8000126:	d30d      	bcc.n	8000144 <__udivsi3+0x3c>
 8000128:	22ff      	movs	r2, #255	; 0xff
 800012a:	0209      	lsls	r1, r1, #8
 800012c:	ba12      	rev	r2, r2
 800012e:	0c03      	lsrs	r3, r0, #16
 8000130:	428b      	cmp	r3, r1
 8000132:	d302      	bcc.n	800013a <__udivsi3+0x32>
 8000134:	1212      	asrs	r2, r2, #8
 8000136:	0209      	lsls	r1, r1, #8
 8000138:	d065      	beq.n	8000206 <__udivsi3+0xfe>
 800013a:	0b03      	lsrs	r3, r0, #12
 800013c:	428b      	cmp	r3, r1
 800013e:	d319      	bcc.n	8000174 <__udivsi3+0x6c>
 8000140:	e000      	b.n	8000144 <__udivsi3+0x3c>
 8000142:	0a09      	lsrs	r1, r1, #8
 8000144:	0bc3      	lsrs	r3, r0, #15
 8000146:	428b      	cmp	r3, r1
 8000148:	d301      	bcc.n	800014e <__udivsi3+0x46>
 800014a:	03cb      	lsls	r3, r1, #15
 800014c:	1ac0      	subs	r0, r0, r3
 800014e:	4152      	adcs	r2, r2
 8000150:	0b83      	lsrs	r3, r0, #14
 8000152:	428b      	cmp	r3, r1
 8000154:	d301      	bcc.n	800015a <__udivsi3+0x52>
 8000156:	038b      	lsls	r3, r1, #14
 8000158:	1ac0      	subs	r0, r0, r3
 800015a:	4152      	adcs	r2, r2
 800015c:	0b43      	lsrs	r3, r0, #13
 800015e:	428b      	cmp	r3, r1
 8000160:	d301      	bcc.n	8000166 <__udivsi3+0x5e>
 8000162:	034b      	lsls	r3, r1, #13
 8000164:	1ac0      	subs	r0, r0, r3
 8000166:	4152      	adcs	r2, r2
 8000168:	0b03      	lsrs	r3, r0, #12
 800016a:	428b      	cmp	r3, r1
 800016c:	d301      	bcc.n	8000172 <__udivsi3+0x6a>
 800016e:	030b      	lsls	r3, r1, #12
 8000170:	1ac0      	subs	r0, r0, r3
 8000172:	4152      	adcs	r2, r2
 8000174:	0ac3      	lsrs	r3, r0, #11
 8000176:	428b      	cmp	r3, r1
 8000178:	d301      	bcc.n	800017e <__udivsi3+0x76>
 800017a:	02cb      	lsls	r3, r1, #11
 800017c:	1ac0      	subs	r0, r0, r3
 800017e:	4152      	adcs	r2, r2
 8000180:	0a83      	lsrs	r3, r0, #10
 8000182:	428b      	cmp	r3, r1
 8000184:	d301      	bcc.n	800018a <__udivsi3+0x82>
 8000186:	028b      	lsls	r3, r1, #10
 8000188:	1ac0      	subs	r0, r0, r3
 800018a:	4152      	adcs	r2, r2
 800018c:	0a43      	lsrs	r3, r0, #9
 800018e:	428b      	cmp	r3, r1
 8000190:	d301      	bcc.n	8000196 <__udivsi3+0x8e>
 8000192:	024b      	lsls	r3, r1, #9
 8000194:	1ac0      	subs	r0, r0, r3
 8000196:	4152      	adcs	r2, r2
 8000198:	0a03      	lsrs	r3, r0, #8
 800019a:	428b      	cmp	r3, r1
 800019c:	d301      	bcc.n	80001a2 <__udivsi3+0x9a>
 800019e:	020b      	lsls	r3, r1, #8
 80001a0:	1ac0      	subs	r0, r0, r3
 80001a2:	4152      	adcs	r2, r2
 80001a4:	d2cd      	bcs.n	8000142 <__udivsi3+0x3a>
 80001a6:	09c3      	lsrs	r3, r0, #7
 80001a8:	428b      	cmp	r3, r1
 80001aa:	d301      	bcc.n	80001b0 <__udivsi3+0xa8>
 80001ac:	01cb      	lsls	r3, r1, #7
 80001ae:	1ac0      	subs	r0, r0, r3
 80001b0:	4152      	adcs	r2, r2
 80001b2:	0983      	lsrs	r3, r0, #6
 80001b4:	428b      	cmp	r3, r1
 80001b6:	d301      	bcc.n	80001bc <__udivsi3+0xb4>
 80001b8:	018b      	lsls	r3, r1, #6
 80001ba:	1ac0      	subs	r0, r0, r3
 80001bc:	4152      	adcs	r2, r2
 80001be:	0943      	lsrs	r3, r0, #5
 80001c0:	428b      	cmp	r3, r1
 80001c2:	d301      	bcc.n	80001c8 <__udivsi3+0xc0>
 80001c4:	014b      	lsls	r3, r1, #5
 80001c6:	1ac0      	subs	r0, r0, r3
 80001c8:	4152      	adcs	r2, r2
 80001ca:	0903      	lsrs	r3, r0, #4
 80001cc:	428b      	cmp	r3, r1
 80001ce:	d301      	bcc.n	80001d4 <__udivsi3+0xcc>
 80001d0:	010b      	lsls	r3, r1, #4
 80001d2:	1ac0      	subs	r0, r0, r3
 80001d4:	4152      	adcs	r2, r2
 80001d6:	08c3      	lsrs	r3, r0, #3
 80001d8:	428b      	cmp	r3, r1
 80001da:	d301      	bcc.n	80001e0 <__udivsi3+0xd8>
 80001dc:	00cb      	lsls	r3, r1, #3
 80001de:	1ac0      	subs	r0, r0, r3
 80001e0:	4152      	adcs	r2, r2
 80001e2:	0883      	lsrs	r3, r0, #2
 80001e4:	428b      	cmp	r3, r1
 80001e6:	d301      	bcc.n	80001ec <__udivsi3+0xe4>
 80001e8:	008b      	lsls	r3, r1, #2
 80001ea:	1ac0      	subs	r0, r0, r3
 80001ec:	4152      	adcs	r2, r2
 80001ee:	0843      	lsrs	r3, r0, #1
 80001f0:	428b      	cmp	r3, r1
 80001f2:	d301      	bcc.n	80001f8 <__udivsi3+0xf0>
 80001f4:	004b      	lsls	r3, r1, #1
 80001f6:	1ac0      	subs	r0, r0, r3
 80001f8:	4152      	adcs	r2, r2
 80001fa:	1a41      	subs	r1, r0, r1
 80001fc:	d200      	bcs.n	8000200 <__udivsi3+0xf8>
 80001fe:	4601      	mov	r1, r0
 8000200:	4152      	adcs	r2, r2
 8000202:	4610      	mov	r0, r2
 8000204:	4770      	bx	lr
 8000206:	e7ff      	b.n	8000208 <__udivsi3+0x100>
 8000208:	b501      	push	{r0, lr}
 800020a:	2000      	movs	r0, #0
 800020c:	f000 f806 	bl	800021c <__aeabi_idiv0>
 8000210:	bd02      	pop	{r1, pc}
 8000212:	46c0      	nop			; (mov r8, r8)

08000214 <__aeabi_uidivmod>:
 8000214:	2900      	cmp	r1, #0
 8000216:	d0f7      	beq.n	8000208 <__udivsi3+0x100>
 8000218:	e776      	b.n	8000108 <__udivsi3>
 800021a:	4770      	bx	lr

0800021c <__aeabi_idiv0>:
 800021c:	4770      	bx	lr
 800021e:	46c0      	nop			; (mov r8, r8)

08000220 <MX_ADC_Init>:
ADC_HandleTypeDef hadc;
DMA_HandleTypeDef hdma_adc;

/* ADC init function */
void MX_ADC_Init(void)
{
 8000220:	b580      	push	{r7, lr}
 8000222:	b082      	sub	sp, #8
 8000224:	af00      	add	r7, sp, #0
  ADC_ChannelConfTypeDef sConfig = {0};
 8000226:	003b      	movs	r3, r7
 8000228:	0018      	movs	r0, r3
 800022a:	2308      	movs	r3, #8
 800022c:	001a      	movs	r2, r3
 800022e:	2100      	movs	r1, #0
 8000230:	f002 ff38 	bl	80030a4 <memset>

  /** Configure the global features of the ADC (Clock, Resolution, Data Alignment and number of conversion) 
  */
  hadc.Instance = ADC1;
 8000234:	4b2a      	ldr	r3, [pc, #168]	; (80002e0 <MX_ADC_Init+0xc0>)
 8000236:	4a2b      	ldr	r2, [pc, #172]	; (80002e4 <MX_ADC_Init+0xc4>)
 8000238:	601a      	str	r2, [r3, #0]
  hadc.Init.OversamplingMode = DISABLE;
 800023a:	4b29      	ldr	r3, [pc, #164]	; (80002e0 <MX_ADC_Init+0xc0>)
 800023c:	2200      	movs	r2, #0
 800023e:	63da      	str	r2, [r3, #60]	; 0x3c
  hadc.Init.ClockPrescaler = ADC_CLOCK_SYNC_PCLK_DIV2;
 8000240:	4b27      	ldr	r3, [pc, #156]	; (80002e0 <MX_ADC_Init+0xc0>)
 8000242:	2280      	movs	r2, #128	; 0x80
 8000244:	05d2      	lsls	r2, r2, #23
 8000246:	605a      	str	r2, [r3, #4]
  hadc.Init.Resolution = ADC_RESOLUTION_12B;
 8000248:	4b25      	ldr	r3, [pc, #148]	; (80002e0 <MX_ADC_Init+0xc0>)
 800024a:	2200      	movs	r2, #0
 800024c:	609a      	str	r2, [r3, #8]
  hadc.Init.SamplingTime = ADC_SAMPLETIME_1CYCLE_5;
 800024e:	4b24      	ldr	r3, [pc, #144]	; (80002e0 <MX_ADC_Init+0xc0>)
 8000250:	2200      	movs	r2, #0
 8000252:	639a      	str	r2, [r3, #56]	; 0x38
  hadc.Init.ScanConvMode = ADC_SCAN_DIRECTION_FORWARD;
 8000254:	4b22      	ldr	r3, [pc, #136]	; (80002e0 <MX_ADC_Init+0xc0>)
 8000256:	2201      	movs	r2, #1
 8000258:	611a      	str	r2, [r3, #16]
  hadc.Init.DataAlign = ADC_DATAALIGN_RIGHT;
 800025a:	4b21      	ldr	r3, [pc, #132]	; (80002e0 <MX_ADC_Init+0xc0>)
 800025c:	2200      	movs	r2, #0
 800025e:	60da      	str	r2, [r3, #12]
  hadc.Init.ContinuousConvMode = ENABLE;
 8000260:	4b1f      	ldr	r3, [pc, #124]	; (80002e0 <MX_ADC_Init+0xc0>)
 8000262:	2220      	movs	r2, #32
 8000264:	2101      	movs	r1, #1
 8000266:	5499      	strb	r1, [r3, r2]
  hadc.Init.DiscontinuousConvMode = DISABLE;
 8000268:	4b1d      	ldr	r3, [pc, #116]	; (80002e0 <MX_ADC_Init+0xc0>)
 800026a:	2221      	movs	r2, #33	; 0x21
 800026c:	2100      	movs	r1, #0
 800026e:	5499      	strb	r1, [r3, r2]
  hadc.Init.ExternalTrigConvEdge = ADC_EXTERNALTRIGCONVEDGE_NONE;
 8000270:	4b1b      	ldr	r3, [pc, #108]	; (80002e0 <MX_ADC_Init+0xc0>)
 8000272:	2200      	movs	r2, #0
 8000274:	629a      	str	r2, [r3, #40]	; 0x28
  hadc.Init.ExternalTrigConv = ADC_SOFTWARE_START;
 8000276:	4b1a      	ldr	r3, [pc, #104]	; (80002e0 <MX_ADC_Init+0xc0>)
 8000278:	22c2      	movs	r2, #194	; 0xc2
 800027a:	32ff      	adds	r2, #255	; 0xff
 800027c:	625a      	str	r2, [r3, #36]	; 0x24
  hadc.Init.DMAContinuousRequests = ENABLE;
 800027e:	4b18      	ldr	r3, [pc, #96]	; (80002e0 <MX_ADC_Init+0xc0>)
 8000280:	222c      	movs	r2, #44	; 0x2c
 8000282:	2101      	movs	r1, #1
 8000284:	5499      	strb	r1, [r3, r2]
  hadc.Init.EOCSelection = ADC_EOC_SINGLE_CONV;
 8000286:	4b16      	ldr	r3, [pc, #88]	; (80002e0 <MX_ADC_Init+0xc0>)
 8000288:	2204      	movs	r2, #4
 800028a:	615a      	str	r2, [r3, #20]
  hadc.Init.Overrun = ADC_OVR_DATA_OVERWRITTEN;
 800028c:	4b14      	ldr	r3, [pc, #80]	; (80002e0 <MX_ADC_Init+0xc0>)
 800028e:	2280      	movs	r2, #128	; 0x80
 8000290:	0152      	lsls	r2, r2, #5
 8000292:	631a      	str	r2, [r3, #48]	; 0x30
  hadc.Init.LowPowerAutoWait = DISABLE;
 8000294:	4b12      	ldr	r3, [pc, #72]	; (80002e0 <MX_ADC_Init+0xc0>)
 8000296:	2200      	movs	r2, #0
 8000298:	619a      	str	r2, [r3, #24]
  hadc.Init.LowPowerFrequencyMode = DISABLE;
 800029a:	4b11      	ldr	r3, [pc, #68]	; (80002e0 <MX_ADC_Init+0xc0>)
 800029c:	2200      	movs	r2, #0
 800029e:	635a      	str	r2, [r3, #52]	; 0x34
  hadc.Init.LowPowerAutoPowerOff = DISABLE;
 80002a0:	4b0f      	ldr	r3, [pc, #60]	; (80002e0 <MX_ADC_Init+0xc0>)
 80002a2:	2200      	movs	r2, #0
 80002a4:	61da      	str	r2, [r3, #28]
  if (HAL_ADC_Init(&hadc) != HAL_OK)
 80002a6:	4b0e      	ldr	r3, [pc, #56]	; (80002e0 <MX_ADC_Init+0xc0>)
 80002a8:	0018      	movs	r0, r3
 80002aa:	f000 fc59 	bl	8000b60 <HAL_ADC_Init>
 80002ae:	1e03      	subs	r3, r0, #0
 80002b0:	d001      	beq.n	80002b6 <MX_ADC_Init+0x96>
  {
    Error_Handler();
 80002b2:	f000 f9a3 	bl	80005fc <Error_Handler>
  }
  /** Configure for the selected ADC regular channel to be converted. 
  */
  sConfig.Channel = ADC_CHANNEL_7;
 80002b6:	003b      	movs	r3, r7
 80002b8:	4a0b      	ldr	r2, [pc, #44]	; (80002e8 <MX_ADC_Init+0xc8>)
 80002ba:	601a      	str	r2, [r3, #0]
  sConfig.Rank = ADC_RANK_CHANNEL_NUMBER;
 80002bc:	003b      	movs	r3, r7
 80002be:	2280      	movs	r2, #128	; 0x80
 80002c0:	0152      	lsls	r2, r2, #5
 80002c2:	605a      	str	r2, [r3, #4]
  if (HAL_ADC_ConfigChannel(&hadc, &sConfig) != HAL_OK)
 80002c4:	003a      	movs	r2, r7
 80002c6:	4b06      	ldr	r3, [pc, #24]	; (80002e0 <MX_ADC_Init+0xc0>)
 80002c8:	0011      	movs	r1, r2
 80002ca:	0018      	movs	r0, r3
 80002cc:	f000 fe56 	bl	8000f7c <HAL_ADC_ConfigChannel>
 80002d0:	1e03      	subs	r3, r0, #0
 80002d2:	d001      	beq.n	80002d8 <MX_ADC_Init+0xb8>
  {
    Error_Handler();
 80002d4:	f000 f992 	bl	80005fc <Error_Handler>
  }

}
 80002d8:	46c0      	nop			; (mov r8, r8)
 80002da:	46bd      	mov	sp, r7
 80002dc:	b002      	add	sp, #8
 80002de:	bd80      	pop	{r7, pc}
 80002e0:	2000006c 	.word	0x2000006c
 80002e4:	40012400 	.word	0x40012400
 80002e8:	1c000080 	.word	0x1c000080

080002ec <HAL_ADC_MspInit>:

void HAL_ADC_MspInit(ADC_HandleTypeDef* adcHandle)
{
 80002ec:	b580      	push	{r7, lr}
 80002ee:	b088      	sub	sp, #32
 80002f0:	af00      	add	r7, sp, #0
 80002f2:	6078      	str	r0, [r7, #4]

  GPIO_InitTypeDef GPIO_InitStruct = {0};
 80002f4:	230c      	movs	r3, #12
 80002f6:	18fb      	adds	r3, r7, r3
 80002f8:	0018      	movs	r0, r3
 80002fa:	2314      	movs	r3, #20
 80002fc:	001a      	movs	r2, r3
 80002fe:	2100      	movs	r1, #0
 8000300:	f002 fed0 	bl	80030a4 <memset>
  if(adcHandle->Instance==ADC1)
 8000304:	687b      	ldr	r3, [r7, #4]
 8000306:	681b      	ldr	r3, [r3, #0]
 8000308:	4a29      	ldr	r2, [pc, #164]	; (80003b0 <HAL_ADC_MspInit+0xc4>)
 800030a:	4293      	cmp	r3, r2
 800030c:	d14c      	bne.n	80003a8 <HAL_ADC_MspInit+0xbc>
  {
  /* USER CODE BEGIN ADC1_MspInit 0 */

  /* USER CODE END ADC1_MspInit 0 */
    /* ADC1 clock enable */
    __HAL_RCC_ADC1_CLK_ENABLE();
 800030e:	4b29      	ldr	r3, [pc, #164]	; (80003b4 <HAL_ADC_MspInit+0xc8>)
 8000310:	6b5a      	ldr	r2, [r3, #52]	; 0x34
 8000312:	4b28      	ldr	r3, [pc, #160]	; (80003b4 <HAL_ADC_MspInit+0xc8>)
 8000314:	2180      	movs	r1, #128	; 0x80
 8000316:	0089      	lsls	r1, r1, #2
 8000318:	430a      	orrs	r2, r1
 800031a:	635a      	str	r2, [r3, #52]	; 0x34
  
    __HAL_RCC_GPIOA_CLK_ENABLE();
 800031c:	4b25      	ldr	r3, [pc, #148]	; (80003b4 <HAL_ADC_MspInit+0xc8>)
 800031e:	6ada      	ldr	r2, [r3, #44]	; 0x2c
 8000320:	4b24      	ldr	r3, [pc, #144]	; (80003b4 <HAL_ADC_MspInit+0xc8>)
 8000322:	2101      	movs	r1, #1
 8000324:	430a      	orrs	r2, r1
 8000326:	62da      	str	r2, [r3, #44]	; 0x2c
 8000328:	4b22      	ldr	r3, [pc, #136]	; (80003b4 <HAL_ADC_MspInit+0xc8>)
 800032a:	6adb      	ldr	r3, [r3, #44]	; 0x2c
 800032c:	2201      	movs	r2, #1
 800032e:	4013      	ands	r3, r2
 8000330:	60bb      	str	r3, [r7, #8]
 8000332:	68bb      	ldr	r3, [r7, #8]
    /**ADC GPIO Configuration    
    PA7     ------> ADC_IN7 
    */
    GPIO_InitStruct.Pin = GPIO_PIN_7;
 8000334:	210c      	movs	r1, #12
 8000336:	187b      	adds	r3, r7, r1
 8000338:	2280      	movs	r2, #128	; 0x80
 800033a:	601a      	str	r2, [r3, #0]
    GPIO_InitStruct.Mode = GPIO_MODE_ANALOG;
 800033c:	187b      	adds	r3, r7, r1
 800033e:	2203      	movs	r2, #3
 8000340:	605a      	str	r2, [r3, #4]
    GPIO_InitStruct.Pull = GPIO_NOPULL;
 8000342:	187b      	adds	r3, r7, r1
 8000344:	2200      	movs	r2, #0
 8000346:	609a      	str	r2, [r3, #8]
    HAL_GPIO_Init(GPIOA, &GPIO_InitStruct);
 8000348:	187a      	adds	r2, r7, r1
 800034a:	23a0      	movs	r3, #160	; 0xa0
 800034c:	05db      	lsls	r3, r3, #23
 800034e:	0011      	movs	r1, r2
 8000350:	0018      	movs	r0, r3
 8000352:	f001 fa2f 	bl	80017b4 <HAL_GPIO_Init>

    /* ADC1 DMA Init */
    /* ADC Init */
    hdma_adc.Instance = DMA1_Channel1;
 8000356:	4b18      	ldr	r3, [pc, #96]	; (80003b8 <HAL_ADC_MspInit+0xcc>)
 8000358:	4a18      	ldr	r2, [pc, #96]	; (80003bc <HAL_ADC_MspInit+0xd0>)
 800035a:	601a      	str	r2, [r3, #0]
    hdma_adc.Init.Request = DMA_REQUEST_0;
 800035c:	4b16      	ldr	r3, [pc, #88]	; (80003b8 <HAL_ADC_MspInit+0xcc>)
 800035e:	2200      	movs	r2, #0
 8000360:	605a      	str	r2, [r3, #4]
    hdma_adc.Init.Direction = DMA_PERIPH_TO_MEMORY;
 8000362:	4b15      	ldr	r3, [pc, #84]	; (80003b8 <HAL_ADC_MspInit+0xcc>)
 8000364:	2200      	movs	r2, #0
 8000366:	609a      	str	r2, [r3, #8]
    hdma_adc.Init.PeriphInc = DMA_PINC_DISABLE;
 8000368:	4b13      	ldr	r3, [pc, #76]	; (80003b8 <HAL_ADC_MspInit+0xcc>)
 800036a:	2200      	movs	r2, #0
 800036c:	60da      	str	r2, [r3, #12]
    hdma_adc.Init.MemInc = DMA_MINC_ENABLE;
 800036e:	4b12      	ldr	r3, [pc, #72]	; (80003b8 <HAL_ADC_MspInit+0xcc>)
 8000370:	2280      	movs	r2, #128	; 0x80
 8000372:	611a      	str	r2, [r3, #16]
    hdma_adc.Init.PeriphDataAlignment = DMA_PDATAALIGN_BYTE;
 8000374:	4b10      	ldr	r3, [pc, #64]	; (80003b8 <HAL_ADC_MspInit+0xcc>)
 8000376:	2200      	movs	r2, #0
 8000378:	615a      	str	r2, [r3, #20]
    hdma_adc.Init.MemDataAlignment = DMA_MDATAALIGN_BYTE;
 800037a:	4b0f      	ldr	r3, [pc, #60]	; (80003b8 <HAL_ADC_MspInit+0xcc>)
 800037c:	2200      	movs	r2, #0
 800037e:	619a      	str	r2, [r3, #24]
    hdma_adc.Init.Mode = DMA_CIRCULAR;
 8000380:	4b0d      	ldr	r3, [pc, #52]	; (80003b8 <HAL_ADC_MspInit+0xcc>)
 8000382:	2220      	movs	r2, #32
 8000384:	61da      	str	r2, [r3, #28]
    hdma_adc.Init.Priority = DMA_PRIORITY_LOW;
 8000386:	4b0c      	ldr	r3, [pc, #48]	; (80003b8 <HAL_ADC_MspInit+0xcc>)
 8000388:	2200      	movs	r2, #0
 800038a:	621a      	str	r2, [r3, #32]
    if (HAL_DMA_Init(&hdma_adc) != HAL_OK)
 800038c:	4b0a      	ldr	r3, [pc, #40]	; (80003b8 <HAL_ADC_MspInit+0xcc>)
 800038e:	0018      	movs	r0, r3
 8000390:	f001 f856 	bl	8001440 <HAL_DMA_Init>
 8000394:	1e03      	subs	r3, r0, #0
 8000396:	d001      	beq.n	800039c <HAL_ADC_MspInit+0xb0>
    {
      Error_Handler();
 8000398:	f000 f930 	bl	80005fc <Error_Handler>
    }

    __HAL_LINKDMA(adcHandle,DMA_Handle,hdma_adc);
 800039c:	687b      	ldr	r3, [r7, #4]
 800039e:	4a06      	ldr	r2, [pc, #24]	; (80003b8 <HAL_ADC_MspInit+0xcc>)
 80003a0:	64da      	str	r2, [r3, #76]	; 0x4c
 80003a2:	4b05      	ldr	r3, [pc, #20]	; (80003b8 <HAL_ADC_MspInit+0xcc>)
 80003a4:	687a      	ldr	r2, [r7, #4]
 80003a6:	629a      	str	r2, [r3, #40]	; 0x28

  /* USER CODE BEGIN ADC1_MspInit 1 */

  /* USER CODE END ADC1_MspInit 1 */
  }
}
 80003a8:	46c0      	nop			; (mov r8, r8)
 80003aa:	46bd      	mov	sp, r7
 80003ac:	b008      	add	sp, #32
 80003ae:	bd80      	pop	{r7, pc}
 80003b0:	40012400 	.word	0x40012400
 80003b4:	40021000 	.word	0x40021000
 80003b8:	20000024 	.word	0x20000024
 80003bc:	40020008 	.word	0x40020008

080003c0 <MX_DMA_Init>:

/** 
  * Enable DMA controller clock
  */
void MX_DMA_Init(void) 
{
 80003c0:	b580      	push	{r7, lr}
 80003c2:	b082      	sub	sp, #8
 80003c4:	af00      	add	r7, sp, #0

  /* DMA controller clock enable */
  __HAL_RCC_DMA1_CLK_ENABLE();
 80003c6:	4b0c      	ldr	r3, [pc, #48]	; (80003f8 <MX_DMA_Init+0x38>)
 80003c8:	6b1a      	ldr	r2, [r3, #48]	; 0x30
 80003ca:	4b0b      	ldr	r3, [pc, #44]	; (80003f8 <MX_DMA_Init+0x38>)
 80003cc:	2101      	movs	r1, #1
 80003ce:	430a      	orrs	r2, r1
 80003d0:	631a      	str	r2, [r3, #48]	; 0x30
 80003d2:	4b09      	ldr	r3, [pc, #36]	; (80003f8 <MX_DMA_Init+0x38>)
 80003d4:	6b1b      	ldr	r3, [r3, #48]	; 0x30
 80003d6:	2201      	movs	r2, #1
 80003d8:	4013      	ands	r3, r2
 80003da:	607b      	str	r3, [r7, #4]
 80003dc:	687b      	ldr	r3, [r7, #4]

  /* DMA interrupt init */
  /* DMA1_Channel1_IRQn interrupt configuration */
  HAL_NVIC_SetPriority(DMA1_Channel1_IRQn, 0, 0);
 80003de:	2200      	movs	r2, #0
 80003e0:	2100      	movs	r1, #0
 80003e2:	2009      	movs	r0, #9
 80003e4:	f000 fffa 	bl	80013dc <HAL_NVIC_SetPriority>
  HAL_NVIC_EnableIRQ(DMA1_Channel1_IRQn);
 80003e8:	2009      	movs	r0, #9
 80003ea:	f001 f80c 	bl	8001406 <HAL_NVIC_EnableIRQ>

}
 80003ee:	46c0      	nop			; (mov r8, r8)
 80003f0:	46bd      	mov	sp, r7
 80003f2:	b002      	add	sp, #8
 80003f4:	bd80      	pop	{r7, pc}
 80003f6:	46c0      	nop			; (mov r8, r8)
 80003f8:	40021000 	.word	0x40021000

080003fc <MX_GPIO_Init>:
        * Output
        * EVENT_OUT
        * EXTI
*/
void MX_GPIO_Init(void)
{
 80003fc:	b590      	push	{r4, r7, lr}
 80003fe:	b089      	sub	sp, #36	; 0x24
 8000400:	af00      	add	r7, sp, #0

  GPIO_InitTypeDef GPIO_InitStruct = {0};
 8000402:	240c      	movs	r4, #12
 8000404:	193b      	adds	r3, r7, r4
 8000406:	0018      	movs	r0, r3
 8000408:	2314      	movs	r3, #20
 800040a:	001a      	movs	r2, r3
 800040c:	2100      	movs	r1, #0
 800040e:	f002 fe49 	bl	80030a4 <memset>

  /* GPIO Ports Clock Enable */
  __HAL_RCC_GPIOC_CLK_ENABLE();
 8000412:	4b28      	ldr	r3, [pc, #160]	; (80004b4 <MX_GPIO_Init+0xb8>)
 8000414:	6ada      	ldr	r2, [r3, #44]	; 0x2c
 8000416:	4b27      	ldr	r3, [pc, #156]	; (80004b4 <MX_GPIO_Init+0xb8>)
 8000418:	2104      	movs	r1, #4
 800041a:	430a      	orrs	r2, r1
 800041c:	62da      	str	r2, [r3, #44]	; 0x2c
 800041e:	4b25      	ldr	r3, [pc, #148]	; (80004b4 <MX_GPIO_Init+0xb8>)
 8000420:	6adb      	ldr	r3, [r3, #44]	; 0x2c
 8000422:	2204      	movs	r2, #4
 8000424:	4013      	ands	r3, r2
 8000426:	60bb      	str	r3, [r7, #8]
 8000428:	68bb      	ldr	r3, [r7, #8]
  __HAL_RCC_GPIOA_CLK_ENABLE();
 800042a:	4b22      	ldr	r3, [pc, #136]	; (80004b4 <MX_GPIO_Init+0xb8>)
 800042c:	6ada      	ldr	r2, [r3, #44]	; 0x2c
 800042e:	4b21      	ldr	r3, [pc, #132]	; (80004b4 <MX_GPIO_Init+0xb8>)
 8000430:	2101      	movs	r1, #1
 8000432:	430a      	orrs	r2, r1
 8000434:	62da      	str	r2, [r3, #44]	; 0x2c
 8000436:	4b1f      	ldr	r3, [pc, #124]	; (80004b4 <MX_GPIO_Init+0xb8>)
 8000438:	6adb      	ldr	r3, [r3, #44]	; 0x2c
 800043a:	2201      	movs	r2, #1
 800043c:	4013      	ands	r3, r2
 800043e:	607b      	str	r3, [r7, #4]
 8000440:	687b      	ldr	r3, [r7, #4]

  /*Configure GPIO pin Output Level */
  HAL_GPIO_WritePin(GPIOC, BYPASS_ENABLE_Pin|FX_ENABLE_Pin, GPIO_PIN_RESET);
 8000442:	23c0      	movs	r3, #192	; 0xc0
 8000444:	021b      	lsls	r3, r3, #8
 8000446:	481c      	ldr	r0, [pc, #112]	; (80004b8 <MX_GPIO_Init+0xbc>)
 8000448:	2200      	movs	r2, #0
 800044a:	0019      	movs	r1, r3
 800044c:	f001 fb18 	bl	8001a80 <HAL_GPIO_WritePin>

  /*Configure GPIO pins : PCPin PCPin */
  GPIO_InitStruct.Pin = BYPASS_ENABLE_Pin|FX_ENABLE_Pin;
 8000450:	193b      	adds	r3, r7, r4
 8000452:	22c0      	movs	r2, #192	; 0xc0
 8000454:	0212      	lsls	r2, r2, #8
 8000456:	601a      	str	r2, [r3, #0]
  GPIO_InitStruct.Mode = GPIO_MODE_OUTPUT_PP;
 8000458:	193b      	adds	r3, r7, r4
 800045a:	2201      	movs	r2, #1
 800045c:	605a      	str	r2, [r3, #4]
  GPIO_InitStruct.Pull = GPIO_NOPULL;
 800045e:	193b      	adds	r3, r7, r4
 8000460:	2200      	movs	r2, #0
 8000462:	609a      	str	r2, [r3, #8]
  GPIO_InitStruct.Speed = GPIO_SPEED_FREQ_LOW;
 8000464:	0021      	movs	r1, r4
 8000466:	193b      	adds	r3, r7, r4
 8000468:	2200      	movs	r2, #0
 800046a:	60da      	str	r2, [r3, #12]
  HAL_GPIO_Init(GPIOC, &GPIO_InitStruct);
 800046c:	000c      	movs	r4, r1
 800046e:	187b      	adds	r3, r7, r1
 8000470:	4a11      	ldr	r2, [pc, #68]	; (80004b8 <MX_GPIO_Init+0xbc>)
 8000472:	0019      	movs	r1, r3
 8000474:	0010      	movs	r0, r2
 8000476:	f001 f99d 	bl	80017b4 <HAL_GPIO_Init>

  /*Configure GPIO pin : PtPin */
  GPIO_InitStruct.Pin = FOOTSW_EXTI4_Pin;
 800047a:	0021      	movs	r1, r4
 800047c:	187b      	adds	r3, r7, r1
 800047e:	2210      	movs	r2, #16
 8000480:	601a      	str	r2, [r3, #0]
  GPIO_InitStruct.Mode = GPIO_MODE_IT_FALLING;
 8000482:	187b      	adds	r3, r7, r1
 8000484:	4a0d      	ldr	r2, [pc, #52]	; (80004bc <MX_GPIO_Init+0xc0>)
 8000486:	605a      	str	r2, [r3, #4]
  GPIO_InitStruct.Pull = GPIO_PULLUP;
 8000488:	187b      	adds	r3, r7, r1
 800048a:	2201      	movs	r2, #1
 800048c:	609a      	str	r2, [r3, #8]
  HAL_GPIO_Init(FOOTSW_EXTI4_GPIO_Port, &GPIO_InitStruct);
 800048e:	187a      	adds	r2, r7, r1
 8000490:	23a0      	movs	r3, #160	; 0xa0
 8000492:	05db      	lsls	r3, r3, #23
 8000494:	0011      	movs	r1, r2
 8000496:	0018      	movs	r0, r3
 8000498:	f001 f98c 	bl	80017b4 <HAL_GPIO_Init>

  /* EXTI interrupt init*/
  HAL_NVIC_SetPriority(EXTI4_15_IRQn, 0, 0);
 800049c:	2200      	movs	r2, #0
 800049e:	2100      	movs	r1, #0
 80004a0:	2007      	movs	r0, #7
 80004a2:	f000 ff9b 	bl	80013dc <HAL_NVIC_SetPriority>
  HAL_NVIC_EnableIRQ(EXTI4_15_IRQn);
 80004a6:	2007      	movs	r0, #7
 80004a8:	f000 ffad 	bl	8001406 <HAL_NVIC_EnableIRQ>

}
 80004ac:	46c0      	nop			; (mov r8, r8)
 80004ae:	46bd      	mov	sp, r7
 80004b0:	b009      	add	sp, #36	; 0x24
 80004b2:	bd90      	pop	{r4, r7, pc}
 80004b4:	40021000 	.word	0x40021000
 80004b8:	50000800 	.word	0x50000800
 80004bc:	10210000 	.word	0x10210000

080004c0 <main>:
/**
  * @brief  The application entry point.
  * @retval int
  */
int main(void)
{
 80004c0:	b580      	push	{r7, lr}
 80004c2:	af00      	add	r7, sp, #0
  /* USER CODE END 1 */

  /* MCU Configuration--------------------------------------------------------*/

  /* Reset of all peripherals, Initializes the Flash interface and the Systick. */
  HAL_Init();
 80004c4:	f000 faec 	bl	8000aa0 <HAL_Init>
  /* USER CODE BEGIN Init */

  /* USER CODE END Init */

  /* Configure the system clock */
  SystemClock_Config();
 80004c8:	f000 f83c 	bl	8000544 <SystemClock_Config>
  /* USER CODE BEGIN SysInit */

  /* USER CODE END SysInit */

  /* Initialize all configured peripherals */
  MX_GPIO_Init();
 80004cc:	f7ff ff96 	bl	80003fc <MX_GPIO_Init>
  MX_DMA_Init();
 80004d0:	f7ff ff76 	bl	80003c0 <MX_DMA_Init>
  MX_TIM2_Init();
 80004d4:	f000 f950 	bl	8000778 <MX_TIM2_Init>
  MX_TIM21_Init();
 80004d8:	f000 f9c0 	bl	800085c <MX_TIM21_Init>
  MX_ADC_Init();
 80004dc:	f7ff fea0 	bl	8000220 <MX_ADC_Init>
  /* USER CODE BEGIN 2 */
  HAL_TIM_PWM_Start(&htim2, TIM_CHANNEL_1);
 80004e0:	4b13      	ldr	r3, [pc, #76]	; (8000530 <main+0x70>)
 80004e2:	2100      	movs	r1, #0
 80004e4:	0018      	movs	r0, r3
 80004e6:	f002 f8c3 	bl	8002670 <HAL_TIM_PWM_Start>
  HAL_TIM_PWM_Start(&htim2, TIM_CHANNEL_2);
 80004ea:	4b11      	ldr	r3, [pc, #68]	; (8000530 <main+0x70>)
 80004ec:	2104      	movs	r1, #4
 80004ee:	0018      	movs	r0, r3
 80004f0:	f002 f8be 	bl	8002670 <HAL_TIM_PWM_Start>
  HAL_TIM_PWM_Start(&htim2, TIM_CHANNEL_3);
 80004f4:	4b0e      	ldr	r3, [pc, #56]	; (8000530 <main+0x70>)
 80004f6:	2108      	movs	r1, #8
 80004f8:	0018      	movs	r0, r3
 80004fa:	f002 f8b9 	bl	8002670 <HAL_TIM_PWM_Start>

  HAL_TIM_Base_Start_IT(&htim21);
 80004fe:	4b0d      	ldr	r3, [pc, #52]	; (8000534 <main+0x74>)
 8000500:	0018      	movs	r0, r3
 8000502:	f002 f867 	bl	80025d4 <HAL_TIM_Base_Start_IT>

  HAL_GPIO_WritePin(BYPASS_ENABLE_GPIO_Port, BYPASS_ENABLE_Pin, 1);
 8000506:	2380      	movs	r3, #128	; 0x80
 8000508:	01db      	lsls	r3, r3, #7
 800050a:	480b      	ldr	r0, [pc, #44]	; (8000538 <main+0x78>)
 800050c:	2201      	movs	r2, #1
 800050e:	0019      	movs	r1, r3
 8000510:	f001 fab6 	bl	8001a80 <HAL_GPIO_WritePin>
  HAL_GPIO_WritePin(FX_ENABLE_GPIO_Port, FX_ENABLE_Pin, 0);
 8000514:	2380      	movs	r3, #128	; 0x80
 8000516:	021b      	lsls	r3, r3, #8
 8000518:	4807      	ldr	r0, [pc, #28]	; (8000538 <main+0x78>)
 800051a:	2200      	movs	r2, #0
 800051c:	0019      	movs	r1, r3
 800051e:	f001 faaf 	bl	8001a80 <HAL_GPIO_WritePin>

  HAL_ADC_Start_DMA(&hadc, adc_data, ADC_DATA_MAX);
 8000522:	4906      	ldr	r1, [pc, #24]	; (800053c <main+0x7c>)
 8000524:	4b06      	ldr	r3, [pc, #24]	; (8000540 <main+0x80>)
 8000526:	2201      	movs	r2, #1
 8000528:	0018      	movs	r0, r3
 800052a:	f000 fc8d 	bl	8000e48 <HAL_ADC_Start_DMA>
  /* USER CODE END 2 */

  /* Infinite loop */
  /* USER CODE BEGIN WHILE */
  while (1)
 800052e:	e7fe      	b.n	800052e <main+0x6e>
 8000530:	200000cc 	.word	0x200000cc
 8000534:	20000108 	.word	0x20000108
 8000538:	50000800 	.word	0x50000800
 800053c:	200000c8 	.word	0x200000c8
 8000540:	2000006c 	.word	0x2000006c

08000544 <SystemClock_Config>:
/**
  * @brief System Clock Configuration
  * @retval None
  */
void SystemClock_Config(void)
{
 8000544:	b590      	push	{r4, r7, lr}
 8000546:	b093      	sub	sp, #76	; 0x4c
 8000548:	af00      	add	r7, sp, #0
  RCC_OscInitTypeDef RCC_OscInitStruct = {0};
 800054a:	2414      	movs	r4, #20
 800054c:	193b      	adds	r3, r7, r4
 800054e:	0018      	movs	r0, r3
 8000550:	2334      	movs	r3, #52	; 0x34
 8000552:	001a      	movs	r2, r3
 8000554:	2100      	movs	r1, #0
 8000556:	f002 fda5 	bl	80030a4 <memset>
  RCC_ClkInitTypeDef RCC_ClkInitStruct = {0};
 800055a:	003b      	movs	r3, r7
 800055c:	0018      	movs	r0, r3
 800055e:	2314      	movs	r3, #20
 8000560:	001a      	movs	r2, r3
 8000562:	2100      	movs	r1, #0
 8000564:	f002 fd9e 	bl	80030a4 <memset>

  /** Configure the main internal regulator output voltage 
  */
  __HAL_PWR_VOLTAGESCALING_CONFIG(PWR_REGULATOR_VOLTAGE_SCALE1);
 8000568:	4b22      	ldr	r3, [pc, #136]	; (80005f4 <SystemClock_Config+0xb0>)
 800056a:	681b      	ldr	r3, [r3, #0]
 800056c:	4a22      	ldr	r2, [pc, #136]	; (80005f8 <SystemClock_Config+0xb4>)
 800056e:	401a      	ands	r2, r3
 8000570:	4b20      	ldr	r3, [pc, #128]	; (80005f4 <SystemClock_Config+0xb0>)
 8000572:	2180      	movs	r1, #128	; 0x80
 8000574:	0109      	lsls	r1, r1, #4
 8000576:	430a      	orrs	r2, r1
 8000578:	601a      	str	r2, [r3, #0]
  /** Initializes the CPU, AHB and APB busses clocks 
  */
  RCC_OscInitStruct.OscillatorType = RCC_OSCILLATORTYPE_HSI;
 800057a:	0021      	movs	r1, r4
 800057c:	187b      	adds	r3, r7, r1
 800057e:	2202      	movs	r2, #2
 8000580:	601a      	str	r2, [r3, #0]
  RCC_OscInitStruct.HSIState = RCC_HSI_ON;
 8000582:	187b      	adds	r3, r7, r1
 8000584:	2201      	movs	r2, #1
 8000586:	60da      	str	r2, [r3, #12]
  RCC_OscInitStruct.HSICalibrationValue = RCC_HSICALIBRATION_DEFAULT;
 8000588:	187b      	adds	r3, r7, r1
 800058a:	2210      	movs	r2, #16
 800058c:	611a      	str	r2, [r3, #16]
  RCC_OscInitStruct.PLL.PLLState = RCC_PLL_ON;
 800058e:	187b      	adds	r3, r7, r1
 8000590:	2202      	movs	r2, #2
 8000592:	625a      	str	r2, [r3, #36]	; 0x24
  RCC_OscInitStruct.PLL.PLLSource = RCC_PLLSOURCE_HSI;
 8000594:	187b      	adds	r3, r7, r1
 8000596:	2200      	movs	r2, #0
 8000598:	629a      	str	r2, [r3, #40]	; 0x28
  RCC_OscInitStruct.PLL.PLLMUL = RCC_PLLMUL_4;
 800059a:	187b      	adds	r3, r7, r1
 800059c:	2280      	movs	r2, #128	; 0x80
 800059e:	02d2      	lsls	r2, r2, #11
 80005a0:	62da      	str	r2, [r3, #44]	; 0x2c
  RCC_OscInitStruct.PLL.PLLDIV = RCC_PLLDIV_2;
 80005a2:	187b      	adds	r3, r7, r1
 80005a4:	2280      	movs	r2, #128	; 0x80
 80005a6:	03d2      	lsls	r2, r2, #15
 80005a8:	631a      	str	r2, [r3, #48]	; 0x30
  if (HAL_RCC_OscConfig(&RCC_OscInitStruct) != HAL_OK)
 80005aa:	187b      	adds	r3, r7, r1
 80005ac:	0018      	movs	r0, r3
 80005ae:	f001 fabd 	bl	8001b2c <HAL_RCC_OscConfig>
 80005b2:	1e03      	subs	r3, r0, #0
 80005b4:	d001      	beq.n	80005ba <SystemClock_Config+0x76>
  {
    Error_Handler();
 80005b6:	f000 f821 	bl	80005fc <Error_Handler>
  }
  /** Initializes the CPU, AHB and APB busses clocks 
  */
  RCC_ClkInitStruct.ClockType = RCC_CLOCKTYPE_HCLK|RCC_CLOCKTYPE_SYSCLK
 80005ba:	003b      	movs	r3, r7
 80005bc:	220f      	movs	r2, #15
 80005be:	601a      	str	r2, [r3, #0]
                              |RCC_CLOCKTYPE_PCLK1|RCC_CLOCKTYPE_PCLK2;
  RCC_ClkInitStruct.SYSCLKSource = RCC_SYSCLKSOURCE_PLLCLK;
 80005c0:	003b      	movs	r3, r7
 80005c2:	2203      	movs	r2, #3
 80005c4:	605a      	str	r2, [r3, #4]
  RCC_ClkInitStruct.AHBCLKDivider = RCC_SYSCLK_DIV1;
 80005c6:	003b      	movs	r3, r7
 80005c8:	2200      	movs	r2, #0
 80005ca:	609a      	str	r2, [r3, #8]
  RCC_ClkInitStruct.APB1CLKDivider = RCC_HCLK_DIV1;
 80005cc:	003b      	movs	r3, r7
 80005ce:	2200      	movs	r2, #0
 80005d0:	60da      	str	r2, [r3, #12]
  RCC_ClkInitStruct.APB2CLKDivider = RCC_HCLK_DIV1;
 80005d2:	003b      	movs	r3, r7
 80005d4:	2200      	movs	r2, #0
 80005d6:	611a      	str	r2, [r3, #16]

  if (HAL_RCC_ClockConfig(&RCC_ClkInitStruct, FLASH_LATENCY_1) != HAL_OK)
 80005d8:	003b      	movs	r3, r7
 80005da:	2101      	movs	r1, #1
 80005dc:	0018      	movs	r0, r3
 80005de:	f001 fe1f 	bl	8002220 <HAL_RCC_ClockConfig>
 80005e2:	1e03      	subs	r3, r0, #0
 80005e4:	d001      	beq.n	80005ea <SystemClock_Config+0xa6>
  {
    Error_Handler();
 80005e6:	f000 f809 	bl	80005fc <Error_Handler>
  }
}
 80005ea:	46c0      	nop			; (mov r8, r8)
 80005ec:	46bd      	mov	sp, r7
 80005ee:	b013      	add	sp, #76	; 0x4c
 80005f0:	bd90      	pop	{r4, r7, pc}
 80005f2:	46c0      	nop			; (mov r8, r8)
 80005f4:	40007000 	.word	0x40007000
 80005f8:	ffffe7ff 	.word	0xffffe7ff

080005fc <Error_Handler>:
/**
  * @brief  This function is executed in case of error occurrence.
  * @retval None
  */
void Error_Handler(void)
{
 80005fc:	b580      	push	{r7, lr}
 80005fe:	af00      	add	r7, sp, #0
  /* USER CODE BEGIN Error_Handler_Debug */
  /* User can add his own implementation to report the HAL error return state */

  /* USER CODE END Error_Handler_Debug */
}
 8000600:	46c0      	nop			; (mov r8, r8)
 8000602:	46bd      	mov	sp, r7
 8000604:	bd80      	pop	{r7, pc}
	...

08000608 <HAL_MspInit>:
/* USER CODE END 0 */
/**
  * Initializes the Global MSP.
  */
void HAL_MspInit(void)
{
 8000608:	b580      	push	{r7, lr}
 800060a:	af00      	add	r7, sp, #0
  /* USER CODE BEGIN MspInit 0 */

  /* USER CODE END MspInit 0 */

  __HAL_RCC_SYSCFG_CLK_ENABLE();
 800060c:	4b07      	ldr	r3, [pc, #28]	; (800062c <HAL_MspInit+0x24>)
 800060e:	6b5a      	ldr	r2, [r3, #52]	; 0x34
 8000610:	4b06      	ldr	r3, [pc, #24]	; (800062c <HAL_MspInit+0x24>)
 8000612:	2101      	movs	r1, #1
 8000614:	430a      	orrs	r2, r1
 8000616:	635a      	str	r2, [r3, #52]	; 0x34
  __HAL_RCC_PWR_CLK_ENABLE();
 8000618:	4b04      	ldr	r3, [pc, #16]	; (800062c <HAL_MspInit+0x24>)
 800061a:	6b9a      	ldr	r2, [r3, #56]	; 0x38
 800061c:	4b03      	ldr	r3, [pc, #12]	; (800062c <HAL_MspInit+0x24>)
 800061e:	2180      	movs	r1, #128	; 0x80
 8000620:	0549      	lsls	r1, r1, #21
 8000622:	430a      	orrs	r2, r1
 8000624:	639a      	str	r2, [r3, #56]	; 0x38
  /* System interrupt init*/

  /* USER CODE BEGIN MspInit 1 */

  /* USER CODE END MspInit 1 */
}
 8000626:	46c0      	nop			; (mov r8, r8)
 8000628:	46bd      	mov	sp, r7
 800062a:	bd80      	pop	{r7, pc}
 800062c:	40021000 	.word	0x40021000

08000630 <NMI_Handler>:
/******************************************************************************/
/**
  * @brief This function handles Non maskable interrupt.
  */
void NMI_Handler(void)
{
 8000630:	b580      	push	{r7, lr}
 8000632:	af00      	add	r7, sp, #0

  /* USER CODE END NonMaskableInt_IRQn 0 */
  /* USER CODE BEGIN NonMaskableInt_IRQn 1 */

  /* USER CODE END NonMaskableInt_IRQn 1 */
}
 8000634:	46c0      	nop			; (mov r8, r8)
 8000636:	46bd      	mov	sp, r7
 8000638:	bd80      	pop	{r7, pc}

0800063a <HardFault_Handler>:

/**
  * @brief This function handles Hard fault interrupt.
  */
void HardFault_Handler(void)
{
 800063a:	b580      	push	{r7, lr}
 800063c:	af00      	add	r7, sp, #0
  /* USER CODE BEGIN HardFault_IRQn 0 */

  /* USER CODE END HardFault_IRQn 0 */
  while (1)
 800063e:	e7fe      	b.n	800063e <HardFault_Handler+0x4>

08000640 <SVC_Handler>:

/**
  * @brief This function handles System service call via SWI instruction.
  */
void SVC_Handler(void)
{
 8000640:	b580      	push	{r7, lr}
 8000642:	af00      	add	r7, sp, #0

  /* USER CODE END SVC_IRQn 0 */
  /* USER CODE BEGIN SVC_IRQn 1 */

  /* USER CODE END SVC_IRQn 1 */
}
 8000644:	46c0      	nop			; (mov r8, r8)
 8000646:	46bd      	mov	sp, r7
 8000648:	bd80      	pop	{r7, pc}

0800064a <PendSV_Handler>:

/**
  * @brief This function handles Pendable request for system service.
  */
void PendSV_Handler(void)
{
 800064a:	b580      	push	{r7, lr}
 800064c:	af00      	add	r7, sp, #0

  /* USER CODE END PendSV_IRQn 0 */
  /* USER CODE BEGIN PendSV_IRQn 1 */

  /* USER CODE END PendSV_IRQn 1 */
}
 800064e:	46c0      	nop			; (mov r8, r8)
 8000650:	46bd      	mov	sp, r7
 8000652:	bd80      	pop	{r7, pc}

08000654 <SysTick_Handler>:

/**
  * @brief This function handles System tick timer.
  */
void SysTick_Handler(void)
{
 8000654:	b580      	push	{r7, lr}
 8000656:	af00      	add	r7, sp, #0
  /* USER CODE BEGIN SysTick_IRQn 0 */

  /* USER CODE END SysTick_IRQn 0 */
  HAL_IncTick();
 8000658:	f000 fa6c 	bl	8000b34 <HAL_IncTick>
  /* USER CODE BEGIN SysTick_IRQn 1 */

  /* USER CODE END SysTick_IRQn 1 */
}
 800065c:	46c0      	nop			; (mov r8, r8)
 800065e:	46bd      	mov	sp, r7
 8000660:	bd80      	pop	{r7, pc}
	...

08000664 <EXTI4_15_IRQHandler>:

/**
  * @brief This function handles EXTI line 4 to 15 interrupts.
  */
void EXTI4_15_IRQHandler(void)
{
 8000664:	b580      	push	{r7, lr}
 8000666:	b082      	sub	sp, #8
 8000668:	af00      	add	r7, sp, #0
  /* USER CODE BEGIN EXTI4_15_IRQn 0 */

	uint16_t interrupt_time = TIM21->CNT;
 800066a:	4b14      	ldr	r3, [pc, #80]	; (80006bc <EXTI4_15_IRQHandler+0x58>)
 800066c:	6a5a      	ldr	r2, [r3, #36]	; 0x24
 800066e:	1dbb      	adds	r3, r7, #6
 8000670:	801a      	strh	r2, [r3, #0]
	if (interrupt_time - last_interrupt_time > (adc_data[0]*2))
 8000672:	1dbb      	adds	r3, r7, #6
 8000674:	881b      	ldrh	r3, [r3, #0]
 8000676:	4a12      	ldr	r2, [pc, #72]	; (80006c0 <EXTI4_15_IRQHandler+0x5c>)
 8000678:	8812      	ldrh	r2, [r2, #0]
 800067a:	1a9b      	subs	r3, r3, r2
 800067c:	001a      	movs	r2, r3
 800067e:	4b11      	ldr	r3, [pc, #68]	; (80006c4 <EXTI4_15_IRQHandler+0x60>)
 8000680:	681b      	ldr	r3, [r3, #0]
 8000682:	005b      	lsls	r3, r3, #1
 8000684:	429a      	cmp	r2, r3
 8000686:	d90d      	bls.n	80006a4 <EXTI4_15_IRQHandler+0x40>
	{
		HAL_GPIO_TogglePin(BYPASS_ENABLE_GPIO_Port, BYPASS_ENABLE_Pin);
 8000688:	2380      	movs	r3, #128	; 0x80
 800068a:	01db      	lsls	r3, r3, #7
 800068c:	4a0e      	ldr	r2, [pc, #56]	; (80006c8 <EXTI4_15_IRQHandler+0x64>)
 800068e:	0019      	movs	r1, r3
 8000690:	0010      	movs	r0, r2
 8000692:	f001 fa12 	bl	8001aba <HAL_GPIO_TogglePin>
		HAL_GPIO_TogglePin(FX_ENABLE_GPIO_Port, FX_ENABLE_Pin);
 8000696:	2380      	movs	r3, #128	; 0x80
 8000698:	021b      	lsls	r3, r3, #8
 800069a:	4a0b      	ldr	r2, [pc, #44]	; (80006c8 <EXTI4_15_IRQHandler+0x64>)
 800069c:	0019      	movs	r1, r3
 800069e:	0010      	movs	r0, r2
 80006a0:	f001 fa0b 	bl	8001aba <HAL_GPIO_TogglePin>
	}
	last_interrupt_time = interrupt_time;
 80006a4:	4b06      	ldr	r3, [pc, #24]	; (80006c0 <EXTI4_15_IRQHandler+0x5c>)
 80006a6:	1dba      	adds	r2, r7, #6
 80006a8:	8812      	ldrh	r2, [r2, #0]
 80006aa:	801a      	strh	r2, [r3, #0]

  /* USER CODE END EXTI4_15_IRQn 0 */
  HAL_GPIO_EXTI_IRQHandler(GPIO_PIN_4);
 80006ac:	2010      	movs	r0, #16
 80006ae:	f001 fa17 	bl	8001ae0 <HAL_GPIO_EXTI_IRQHandler>
  /* USER CODE BEGIN EXTI4_15_IRQn 1 */

  /* USER CODE END EXTI4_15_IRQn 1 */
}
 80006b2:	46c0      	nop			; (mov r8, r8)
 80006b4:	46bd      	mov	sp, r7
 80006b6:	b002      	add	sp, #8
 80006b8:	bd80      	pop	{r7, pc}
 80006ba:	46c0      	nop			; (mov r8, r8)
 80006bc:	40010800 	.word	0x40010800
 80006c0:	20000020 	.word	0x20000020
 80006c4:	200000c8 	.word	0x200000c8
 80006c8:	50000800 	.word	0x50000800

080006cc <DMA1_Channel1_IRQHandler>:

/**
  * @brief This function handles DMA1 channel 1 interrupt.
  */
void DMA1_Channel1_IRQHandler(void)
{
 80006cc:	b580      	push	{r7, lr}
 80006ce:	af00      	add	r7, sp, #0
  /* USER CODE BEGIN DMA1_Channel1_IRQn 0 */

  /* USER CODE END DMA1_Channel1_IRQn 0 */
  HAL_DMA_IRQHandler(&hdma_adc);
 80006d0:	4b03      	ldr	r3, [pc, #12]	; (80006e0 <DMA1_Channel1_IRQHandler+0x14>)
 80006d2:	0018      	movs	r0, r3
 80006d4:	f000 ff92 	bl	80015fc <HAL_DMA_IRQHandler>
  /* USER CODE BEGIN DMA1_Channel1_IRQn 1 */

  /* USER CODE END DMA1_Channel1_IRQn 1 */
}
 80006d8:	46c0      	nop			; (mov r8, r8)
 80006da:	46bd      	mov	sp, r7
 80006dc:	bd80      	pop	{r7, pc}
 80006de:	46c0      	nop			; (mov r8, r8)
 80006e0:	20000024 	.word	0x20000024

080006e4 <TIM21_IRQHandler>:

/**
  * @brief This function handles TIM21 global interrupt.
  */
void TIM21_IRQHandler(void)
{
 80006e4:	b580      	push	{r7, lr}
 80006e6:	af00      	add	r7, sp, #0
  /* USER CODE BEGIN TIM21_IRQn 0 */

  /* USER CODE END TIM21_IRQn 0 */
  HAL_TIM_IRQHandler(&htim21);
 80006e8:	4b03      	ldr	r3, [pc, #12]	; (80006f8 <TIM21_IRQHandler+0x14>)
 80006ea:	0018      	movs	r0, r3
 80006ec:	f001 ffe2 	bl	80026b4 <HAL_TIM_IRQHandler>
  /* USER CODE BEGIN TIM21_IRQn 1 */

  /* USER CODE END TIM21_IRQn 1 */
}
 80006f0:	46c0      	nop			; (mov r8, r8)
 80006f2:	46bd      	mov	sp, r7
 80006f4:	bd80      	pop	{r7, pc}
 80006f6:	46c0      	nop			; (mov r8, r8)
 80006f8:	20000108 	.word	0x20000108

080006fc <SystemInit>:
  * @brief  Setup the microcontroller system.
  * @param  None
  * @retval None
  */
void SystemInit (void)
{
 80006fc:	b580      	push	{r7, lr}
 80006fe:	af00      	add	r7, sp, #0
/*!< Set MSION bit */
  RCC->CR |= (uint32_t)0x00000100U;
 8000700:	4b17      	ldr	r3, [pc, #92]	; (8000760 <SystemInit+0x64>)
 8000702:	681a      	ldr	r2, [r3, #0]
 8000704:	4b16      	ldr	r3, [pc, #88]	; (8000760 <SystemInit+0x64>)
 8000706:	2180      	movs	r1, #128	; 0x80
 8000708:	0049      	lsls	r1, r1, #1
 800070a:	430a      	orrs	r2, r1
 800070c:	601a      	str	r2, [r3, #0]

  /*!< Reset SW[1:0], HPRE[3:0], PPRE1[2:0], PPRE2[2:0], MCOSEL[2:0] and MCOPRE[2:0] bits */
  RCC->CFGR &= (uint32_t) 0x88FF400CU;
 800070e:	4b14      	ldr	r3, [pc, #80]	; (8000760 <SystemInit+0x64>)
 8000710:	68da      	ldr	r2, [r3, #12]
 8000712:	4b13      	ldr	r3, [pc, #76]	; (8000760 <SystemInit+0x64>)
 8000714:	4913      	ldr	r1, [pc, #76]	; (8000764 <SystemInit+0x68>)
 8000716:	400a      	ands	r2, r1
 8000718:	60da      	str	r2, [r3, #12]

  /*!< Reset HSION, HSIDIVEN, HSEON, CSSON and PLLON bits */
  RCC->CR &= (uint32_t)0xFEF6FFF6U;
 800071a:	4b11      	ldr	r3, [pc, #68]	; (8000760 <SystemInit+0x64>)
 800071c:	681a      	ldr	r2, [r3, #0]
 800071e:	4b10      	ldr	r3, [pc, #64]	; (8000760 <SystemInit+0x64>)
 8000720:	4911      	ldr	r1, [pc, #68]	; (8000768 <SystemInit+0x6c>)
 8000722:	400a      	ands	r2, r1
 8000724:	601a      	str	r2, [r3, #0]

  /*!< Reset HSI48ON  bit */
  RCC->CRRCR &= (uint32_t)0xFFFFFFFEU;
 8000726:	4b0e      	ldr	r3, [pc, #56]	; (8000760 <SystemInit+0x64>)
 8000728:	689a      	ldr	r2, [r3, #8]
 800072a:	4b0d      	ldr	r3, [pc, #52]	; (8000760 <SystemInit+0x64>)
 800072c:	2101      	movs	r1, #1
 800072e:	438a      	bics	r2, r1
 8000730:	609a      	str	r2, [r3, #8]

  /*!< Reset HSEBYP bit */
  RCC->CR &= (uint32_t)0xFFFBFFFFU;
 8000732:	4b0b      	ldr	r3, [pc, #44]	; (8000760 <SystemInit+0x64>)
 8000734:	681a      	ldr	r2, [r3, #0]
 8000736:	4b0a      	ldr	r3, [pc, #40]	; (8000760 <SystemInit+0x64>)
 8000738:	490c      	ldr	r1, [pc, #48]	; (800076c <SystemInit+0x70>)
 800073a:	400a      	ands	r2, r1
 800073c:	601a      	str	r2, [r3, #0]

  /*!< Reset PLLSRC, PLLMUL[3:0] and PLLDIV[1:0] bits */
  RCC->CFGR &= (uint32_t)0xFF02FFFFU;
 800073e:	4b08      	ldr	r3, [pc, #32]	; (8000760 <SystemInit+0x64>)
 8000740:	68da      	ldr	r2, [r3, #12]
 8000742:	4b07      	ldr	r3, [pc, #28]	; (8000760 <SystemInit+0x64>)
 8000744:	490a      	ldr	r1, [pc, #40]	; (8000770 <SystemInit+0x74>)
 8000746:	400a      	ands	r2, r1
 8000748:	60da      	str	r2, [r3, #12]

  /*!< Disable all interrupts */
  RCC->CIER = 0x00000000U;
 800074a:	4b05      	ldr	r3, [pc, #20]	; (8000760 <SystemInit+0x64>)
 800074c:	2200      	movs	r2, #0
 800074e:	611a      	str	r2, [r3, #16]

  /* Configure the Vector Table location add offset address ------------------*/
#ifdef VECT_TAB_SRAM
  SCB->VTOR = SRAM_BASE | VECT_TAB_OFFSET; /* Vector Table Relocation in Internal SRAM */
#else
  SCB->VTOR = FLASH_BASE | VECT_TAB_OFFSET; /* Vector Table Relocation in Internal FLASH */
 8000750:	4b08      	ldr	r3, [pc, #32]	; (8000774 <SystemInit+0x78>)
 8000752:	2280      	movs	r2, #128	; 0x80
 8000754:	0512      	lsls	r2, r2, #20
 8000756:	609a      	str	r2, [r3, #8]
#endif
}
 8000758:	46c0      	nop			; (mov r8, r8)
 800075a:	46bd      	mov	sp, r7
 800075c:	bd80      	pop	{r7, pc}
 800075e:	46c0      	nop			; (mov r8, r8)
 8000760:	40021000 	.word	0x40021000
 8000764:	88ff400c 	.word	0x88ff400c
 8000768:	fef6fff6 	.word	0xfef6fff6
 800076c:	fffbffff 	.word	0xfffbffff
 8000770:	ff02ffff 	.word	0xff02ffff
 8000774:	e000ed00 	.word	0xe000ed00

08000778 <MX_TIM2_Init>:
TIM_HandleTypeDef htim2;
TIM_HandleTypeDef htim21;

/* TIM2 init function */
void MX_TIM2_Init(void)
{
 8000778:	b580      	push	{r7, lr}
 800077a:	b086      	sub	sp, #24
 800077c:	af00      	add	r7, sp, #0
  TIM_MasterConfigTypeDef sMasterConfig = {0};
 800077e:	2310      	movs	r3, #16
 8000780:	18fb      	adds	r3, r7, r3
 8000782:	0018      	movs	r0, r3
 8000784:	2308      	movs	r3, #8
 8000786:	001a      	movs	r2, r3
 8000788:	2100      	movs	r1, #0
 800078a:	f002 fc8b 	bl	80030a4 <memset>
  TIM_OC_InitTypeDef sConfigOC = {0};
 800078e:	003b      	movs	r3, r7
 8000790:	0018      	movs	r0, r3
 8000792:	2310      	movs	r3, #16
 8000794:	001a      	movs	r2, r3
 8000796:	2100      	movs	r1, #0
 8000798:	f002 fc84 	bl	80030a4 <memset>

  htim2.Instance = TIM2;
 800079c:	4b2e      	ldr	r3, [pc, #184]	; (8000858 <MX_TIM2_Init+0xe0>)
 800079e:	2280      	movs	r2, #128	; 0x80
 80007a0:	05d2      	lsls	r2, r2, #23
 80007a2:	601a      	str	r2, [r3, #0]
  htim2.Init.Prescaler = 0;
 80007a4:	4b2c      	ldr	r3, [pc, #176]	; (8000858 <MX_TIM2_Init+0xe0>)
 80007a6:	2200      	movs	r2, #0
 80007a8:	605a      	str	r2, [r3, #4]
  htim2.Init.CounterMode = TIM_COUNTERMODE_UP;
 80007aa:	4b2b      	ldr	r3, [pc, #172]	; (8000858 <MX_TIM2_Init+0xe0>)
 80007ac:	2200      	movs	r2, #0
 80007ae:	609a      	str	r2, [r3, #8]
  htim2.Init.Period = 64;
 80007b0:	4b29      	ldr	r3, [pc, #164]	; (8000858 <MX_TIM2_Init+0xe0>)
 80007b2:	2240      	movs	r2, #64	; 0x40
 80007b4:	60da      	str	r2, [r3, #12]
  htim2.Init.ClockDivision = TIM_CLOCKDIVISION_DIV1;
 80007b6:	4b28      	ldr	r3, [pc, #160]	; (8000858 <MX_TIM2_Init+0xe0>)
 80007b8:	2200      	movs	r2, #0
 80007ba:	611a      	str	r2, [r3, #16]
  htim2.Init.AutoReloadPreload = TIM_AUTORELOAD_PRELOAD_DISABLE;
 80007bc:	4b26      	ldr	r3, [pc, #152]	; (8000858 <MX_TIM2_Init+0xe0>)
 80007be:	2200      	movs	r2, #0
 80007c0:	615a      	str	r2, [r3, #20]
  if (HAL_TIM_PWM_Init(&htim2) != HAL_OK)
 80007c2:	4b25      	ldr	r3, [pc, #148]	; (8000858 <MX_TIM2_Init+0xe0>)
 80007c4:	0018      	movs	r0, r3
 80007c6:	f001 ff27 	bl	8002618 <HAL_TIM_PWM_Init>
 80007ca:	1e03      	subs	r3, r0, #0
 80007cc:	d001      	beq.n	80007d2 <MX_TIM2_Init+0x5a>
  {
    Error_Handler();
 80007ce:	f7ff ff15 	bl	80005fc <Error_Handler>
  }
  sMasterConfig.MasterOutputTrigger = TIM_TRGO_RESET;
 80007d2:	2110      	movs	r1, #16
 80007d4:	187b      	adds	r3, r7, r1
 80007d6:	2200      	movs	r2, #0
 80007d8:	601a      	str	r2, [r3, #0]
  sMasterConfig.MasterSlaveMode = TIM_MASTERSLAVEMODE_DISABLE;
 80007da:	187b      	adds	r3, r7, r1
 80007dc:	2200      	movs	r2, #0
 80007de:	605a      	str	r2, [r3, #4]
  if (HAL_TIMEx_MasterConfigSynchronization(&htim2, &sMasterConfig) != HAL_OK)
 80007e0:	187a      	adds	r2, r7, r1
 80007e2:	4b1d      	ldr	r3, [pc, #116]	; (8000858 <MX_TIM2_Init+0xe0>)
 80007e4:	0011      	movs	r1, r2
 80007e6:	0018      	movs	r0, r3
 80007e8:	f002 fbf5 	bl	8002fd6 <HAL_TIMEx_MasterConfigSynchronization>
 80007ec:	1e03      	subs	r3, r0, #0
 80007ee:	d001      	beq.n	80007f4 <MX_TIM2_Init+0x7c>
  {
    Error_Handler();
 80007f0:	f7ff ff04 	bl	80005fc <Error_Handler>
  }
  sConfigOC.OCMode = TIM_OCMODE_PWM1;
 80007f4:	003b      	movs	r3, r7
 80007f6:	2260      	movs	r2, #96	; 0x60
 80007f8:	601a      	str	r2, [r3, #0]
  sConfigOC.Pulse = 0;
 80007fa:	003b      	movs	r3, r7
 80007fc:	2200      	movs	r2, #0
 80007fe:	605a      	str	r2, [r3, #4]
  sConfigOC.OCPolarity = TIM_OCPOLARITY_HIGH;
 8000800:	003b      	movs	r3, r7
 8000802:	2200      	movs	r2, #0
 8000804:	609a      	str	r2, [r3, #8]
  sConfigOC.OCFastMode = TIM_OCFAST_DISABLE;
 8000806:	003b      	movs	r3, r7
 8000808:	2200      	movs	r2, #0
 800080a:	60da      	str	r2, [r3, #12]
  if (HAL_TIM_PWM_ConfigChannel(&htim2, &sConfigOC, TIM_CHANNEL_1) != HAL_OK)
 800080c:	0039      	movs	r1, r7
 800080e:	4b12      	ldr	r3, [pc, #72]	; (8000858 <MX_TIM2_Init+0xe0>)
 8000810:	2200      	movs	r2, #0
 8000812:	0018      	movs	r0, r3
 8000814:	f002 f836 	bl	8002884 <HAL_TIM_PWM_ConfigChannel>
 8000818:	1e03      	subs	r3, r0, #0
 800081a:	d001      	beq.n	8000820 <MX_TIM2_Init+0xa8>
  {
    Error_Handler();
 800081c:	f7ff feee 	bl	80005fc <Error_Handler>
  }
  if (HAL_TIM_PWM_ConfigChannel(&htim2, &sConfigOC, TIM_CHANNEL_2) != HAL_OK)
 8000820:	0039      	movs	r1, r7
 8000822:	4b0d      	ldr	r3, [pc, #52]	; (8000858 <MX_TIM2_Init+0xe0>)
 8000824:	2204      	movs	r2, #4
 8000826:	0018      	movs	r0, r3
 8000828:	f002 f82c 	bl	8002884 <HAL_TIM_PWM_ConfigChannel>
 800082c:	1e03      	subs	r3, r0, #0
 800082e:	d001      	beq.n	8000834 <MX_TIM2_Init+0xbc>
  {
    Error_Handler();
 8000830:	f7ff fee4 	bl	80005fc <Error_Handler>
  }
  if (HAL_TIM_PWM_ConfigChannel(&htim2, &sConfigOC, TIM_CHANNEL_3) != HAL_OK)
 8000834:	0039      	movs	r1, r7
 8000836:	4b08      	ldr	r3, [pc, #32]	; (8000858 <MX_TIM2_Init+0xe0>)
 8000838:	2208      	movs	r2, #8
 800083a:	0018      	movs	r0, r3
 800083c:	f002 f822 	bl	8002884 <HAL_TIM_PWM_ConfigChannel>
 8000840:	1e03      	subs	r3, r0, #0
 8000842:	d001      	beq.n	8000848 <MX_TIM2_Init+0xd0>
  {
    Error_Handler();
 8000844:	f7ff feda 	bl	80005fc <Error_Handler>
  }
  HAL_TIM_MspPostInit(&htim2);
 8000848:	4b03      	ldr	r3, [pc, #12]	; (8000858 <MX_TIM2_Init+0xe0>)
 800084a:	0018      	movs	r0, r3
 800084c:	f000 f892 	bl	8000974 <HAL_TIM_MspPostInit>

}
 8000850:	46c0      	nop			; (mov r8, r8)
 8000852:	46bd      	mov	sp, r7
 8000854:	b006      	add	sp, #24
 8000856:	bd80      	pop	{r7, pc}
 8000858:	200000cc 	.word	0x200000cc

0800085c <MX_TIM21_Init>:
/* TIM21 init function */
void MX_TIM21_Init(void)
{
 800085c:	b580      	push	{r7, lr}
 800085e:	b086      	sub	sp, #24
 8000860:	af00      	add	r7, sp, #0
  TIM_ClockConfigTypeDef sClockSourceConfig = {0};
 8000862:	2308      	movs	r3, #8
 8000864:	18fb      	adds	r3, r7, r3
 8000866:	0018      	movs	r0, r3
 8000868:	2310      	movs	r3, #16
 800086a:	001a      	movs	r2, r3
 800086c:	2100      	movs	r1, #0
 800086e:	f002 fc19 	bl	80030a4 <memset>
  TIM_MasterConfigTypeDef sMasterConfig = {0};
 8000872:	003b      	movs	r3, r7
 8000874:	0018      	movs	r0, r3
 8000876:	2308      	movs	r3, #8
 8000878:	001a      	movs	r2, r3
 800087a:	2100      	movs	r1, #0
 800087c:	f002 fc12 	bl	80030a4 <memset>

  htim21.Instance = TIM21;
 8000880:	4b1e      	ldr	r3, [pc, #120]	; (80008fc <MX_TIM21_Init+0xa0>)
 8000882:	4a1f      	ldr	r2, [pc, #124]	; (8000900 <MX_TIM21_Init+0xa4>)
 8000884:	601a      	str	r2, [r3, #0]
  htim21.Init.Prescaler = 65535;
 8000886:	4b1d      	ldr	r3, [pc, #116]	; (80008fc <MX_TIM21_Init+0xa0>)
 8000888:	4a1e      	ldr	r2, [pc, #120]	; (8000904 <MX_TIM21_Init+0xa8>)
 800088a:	605a      	str	r2, [r3, #4]
  htim21.Init.CounterMode = TIM_COUNTERMODE_UP;
 800088c:	4b1b      	ldr	r3, [pc, #108]	; (80008fc <MX_TIM21_Init+0xa0>)
 800088e:	2200      	movs	r2, #0
 8000890:	609a      	str	r2, [r3, #8]
  htim21.Init.Period = 65535;
 8000892:	4b1a      	ldr	r3, [pc, #104]	; (80008fc <MX_TIM21_Init+0xa0>)
 8000894:	4a1b      	ldr	r2, [pc, #108]	; (8000904 <MX_TIM21_Init+0xa8>)
 8000896:	60da      	str	r2, [r3, #12]
  htim21.Init.ClockDivision = TIM_CLOCKDIVISION_DIV1;
 8000898:	4b18      	ldr	r3, [pc, #96]	; (80008fc <MX_TIM21_Init+0xa0>)
 800089a:	2200      	movs	r2, #0
 800089c:	611a      	str	r2, [r3, #16]
  htim21.Init.AutoReloadPreload = TIM_AUTORELOAD_PRELOAD_DISABLE;
 800089e:	4b17      	ldr	r3, [pc, #92]	; (80008fc <MX_TIM21_Init+0xa0>)
 80008a0:	2200      	movs	r2, #0
 80008a2:	615a      	str	r2, [r3, #20]
  if (HAL_TIM_Base_Init(&htim21) != HAL_OK)
 80008a4:	4b15      	ldr	r3, [pc, #84]	; (80008fc <MX_TIM21_Init+0xa0>)
 80008a6:	0018      	movs	r0, r3
 80008a8:	f001 fe68 	bl	800257c <HAL_TIM_Base_Init>
 80008ac:	1e03      	subs	r3, r0, #0
 80008ae:	d001      	beq.n	80008b4 <MX_TIM21_Init+0x58>
  {
    Error_Handler();
 80008b0:	f7ff fea4 	bl	80005fc <Error_Handler>
  }
  sClockSourceConfig.ClockSource = TIM_CLOCKSOURCE_INTERNAL;
 80008b4:	2108      	movs	r1, #8
 80008b6:	187b      	adds	r3, r7, r1
 80008b8:	2280      	movs	r2, #128	; 0x80
 80008ba:	0152      	lsls	r2, r2, #5
 80008bc:	601a      	str	r2, [r3, #0]
  if (HAL_TIM_ConfigClockSource(&htim21, &sClockSourceConfig) != HAL_OK)
 80008be:	187a      	adds	r2, r7, r1
 80008c0:	4b0e      	ldr	r3, [pc, #56]	; (80008fc <MX_TIM21_Init+0xa0>)
 80008c2:	0011      	movs	r1, r2
 80008c4:	0018      	movs	r0, r3
 80008c6:	f002 f895 	bl	80029f4 <HAL_TIM_ConfigClockSource>
 80008ca:	1e03      	subs	r3, r0, #0
 80008cc:	d001      	beq.n	80008d2 <MX_TIM21_Init+0x76>
  {
    Error_Handler();
 80008ce:	f7ff fe95 	bl	80005fc <Error_Handler>
  }
  sMasterConfig.MasterOutputTrigger = TIM_TRGO_RESET;
 80008d2:	003b      	movs	r3, r7
 80008d4:	2200      	movs	r2, #0
 80008d6:	601a      	str	r2, [r3, #0]
  sMasterConfig.MasterSlaveMode = TIM_MASTERSLAVEMODE_DISABLE;
 80008d8:	003b      	movs	r3, r7
 80008da:	2200      	movs	r2, #0
 80008dc:	605a      	str	r2, [r3, #4]
  if (HAL_TIMEx_MasterConfigSynchronization(&htim21, &sMasterConfig) != HAL_OK)
 80008de:	003a      	movs	r2, r7
 80008e0:	4b06      	ldr	r3, [pc, #24]	; (80008fc <MX_TIM21_Init+0xa0>)
 80008e2:	0011      	movs	r1, r2
 80008e4:	0018      	movs	r0, r3
 80008e6:	f002 fb76 	bl	8002fd6 <HAL_TIMEx_MasterConfigSynchronization>
 80008ea:	1e03      	subs	r3, r0, #0
 80008ec:	d001      	beq.n	80008f2 <MX_TIM21_Init+0x96>
  {
    Error_Handler();
 80008ee:	f7ff fe85 	bl	80005fc <Error_Handler>
  }

}
 80008f2:	46c0      	nop			; (mov r8, r8)
 80008f4:	46bd      	mov	sp, r7
 80008f6:	b006      	add	sp, #24
 80008f8:	bd80      	pop	{r7, pc}
 80008fa:	46c0      	nop			; (mov r8, r8)
 80008fc:	20000108 	.word	0x20000108
 8000900:	40010800 	.word	0x40010800
 8000904:	0000ffff 	.word	0x0000ffff

08000908 <HAL_TIM_PWM_MspInit>:

void HAL_TIM_PWM_MspInit(TIM_HandleTypeDef* tim_pwmHandle)
{
 8000908:	b580      	push	{r7, lr}
 800090a:	b082      	sub	sp, #8
 800090c:	af00      	add	r7, sp, #0
 800090e:	6078      	str	r0, [r7, #4]

  if(tim_pwmHandle->Instance==TIM2)
 8000910:	687b      	ldr	r3, [r7, #4]
 8000912:	681a      	ldr	r2, [r3, #0]
 8000914:	2380      	movs	r3, #128	; 0x80
 8000916:	05db      	lsls	r3, r3, #23
 8000918:	429a      	cmp	r2, r3
 800091a:	d105      	bne.n	8000928 <HAL_TIM_PWM_MspInit+0x20>
  {
  /* USER CODE BEGIN TIM2_MspInit 0 */

  /* USER CODE END TIM2_MspInit 0 */
    /* TIM2 clock enable */
    __HAL_RCC_TIM2_CLK_ENABLE();
 800091c:	4b04      	ldr	r3, [pc, #16]	; (8000930 <HAL_TIM_PWM_MspInit+0x28>)
 800091e:	6b9a      	ldr	r2, [r3, #56]	; 0x38
 8000920:	4b03      	ldr	r3, [pc, #12]	; (8000930 <HAL_TIM_PWM_MspInit+0x28>)
 8000922:	2101      	movs	r1, #1
 8000924:	430a      	orrs	r2, r1
 8000926:	639a      	str	r2, [r3, #56]	; 0x38
  /* USER CODE BEGIN TIM2_MspInit 1 */

  /* USER CODE END TIM2_MspInit 1 */
  }
}
 8000928:	46c0      	nop			; (mov r8, r8)
 800092a:	46bd      	mov	sp, r7
 800092c:	b002      	add	sp, #8
 800092e:	bd80      	pop	{r7, pc}
 8000930:	40021000 	.word	0x40021000

08000934 <HAL_TIM_Base_MspInit>:

void HAL_TIM_Base_MspInit(TIM_HandleTypeDef* tim_baseHandle)
{
 8000934:	b580      	push	{r7, lr}
 8000936:	b082      	sub	sp, #8
 8000938:	af00      	add	r7, sp, #0
 800093a:	6078      	str	r0, [r7, #4]

  if(tim_baseHandle->Instance==TIM21)
 800093c:	687b      	ldr	r3, [r7, #4]
 800093e:	681b      	ldr	r3, [r3, #0]
 8000940:	4a0a      	ldr	r2, [pc, #40]	; (800096c <HAL_TIM_Base_MspInit+0x38>)
 8000942:	4293      	cmp	r3, r2
 8000944:	d10d      	bne.n	8000962 <HAL_TIM_Base_MspInit+0x2e>
  {
  /* USER CODE BEGIN TIM21_MspInit 0 */

  /* USER CODE END TIM21_MspInit 0 */
    /* TIM21 clock enable */
    __HAL_RCC_TIM21_CLK_ENABLE();
 8000946:	4b0a      	ldr	r3, [pc, #40]	; (8000970 <HAL_TIM_Base_MspInit+0x3c>)
 8000948:	6b5a      	ldr	r2, [r3, #52]	; 0x34
 800094a:	4b09      	ldr	r3, [pc, #36]	; (8000970 <HAL_TIM_Base_MspInit+0x3c>)
 800094c:	2104      	movs	r1, #4
 800094e:	430a      	orrs	r2, r1
 8000950:	635a      	str	r2, [r3, #52]	; 0x34

    /* TIM21 interrupt Init */
    HAL_NVIC_SetPriority(TIM21_IRQn, 0, 0);
 8000952:	2200      	movs	r2, #0
 8000954:	2100      	movs	r1, #0
 8000956:	2014      	movs	r0, #20
 8000958:	f000 fd40 	bl	80013dc <HAL_NVIC_SetPriority>
    HAL_NVIC_EnableIRQ(TIM21_IRQn);
 800095c:	2014      	movs	r0, #20
 800095e:	f000 fd52 	bl	8001406 <HAL_NVIC_EnableIRQ>
  /* USER CODE BEGIN TIM21_MspInit 1 */

  /* USER CODE END TIM21_MspInit 1 */
  }
}
 8000962:	46c0      	nop			; (mov r8, r8)
 8000964:	46bd      	mov	sp, r7
 8000966:	b002      	add	sp, #8
 8000968:	bd80      	pop	{r7, pc}
 800096a:	46c0      	nop			; (mov r8, r8)
 800096c:	40010800 	.word	0x40010800
 8000970:	40021000 	.word	0x40021000

08000974 <HAL_TIM_MspPostInit>:
void HAL_TIM_MspPostInit(TIM_HandleTypeDef* timHandle)
{
 8000974:	b590      	push	{r4, r7, lr}
 8000976:	b089      	sub	sp, #36	; 0x24
 8000978:	af00      	add	r7, sp, #0
 800097a:	6078      	str	r0, [r7, #4]

  GPIO_InitTypeDef GPIO_InitStruct = {0};
 800097c:	230c      	movs	r3, #12
 800097e:	18fb      	adds	r3, r7, r3
 8000980:	0018      	movs	r0, r3
 8000982:	2314      	movs	r3, #20
 8000984:	001a      	movs	r2, r3
 8000986:	2100      	movs	r1, #0
 8000988:	f002 fb8c 	bl	80030a4 <memset>
  if(timHandle->Instance==TIM2)
 800098c:	687b      	ldr	r3, [r7, #4]
 800098e:	681a      	ldr	r2, [r3, #0]
 8000990:	2380      	movs	r3, #128	; 0x80
 8000992:	05db      	lsls	r3, r3, #23
 8000994:	429a      	cmp	r2, r3
 8000996:	d13b      	bne.n	8000a10 <HAL_TIM_MspPostInit+0x9c>
  {
  /* USER CODE BEGIN TIM2_MspPostInit 0 */

  /* USER CODE END TIM2_MspPostInit 0 */
  
    __HAL_RCC_GPIOA_CLK_ENABLE();
 8000998:	4b1f      	ldr	r3, [pc, #124]	; (8000a18 <HAL_TIM_MspPostInit+0xa4>)
 800099a:	6ada      	ldr	r2, [r3, #44]	; 0x2c
 800099c:	4b1e      	ldr	r3, [pc, #120]	; (8000a18 <HAL_TIM_MspPostInit+0xa4>)
 800099e:	2101      	movs	r1, #1
 80009a0:	430a      	orrs	r2, r1
 80009a2:	62da      	str	r2, [r3, #44]	; 0x2c
 80009a4:	4b1c      	ldr	r3, [pc, #112]	; (8000a18 <HAL_TIM_MspPostInit+0xa4>)
 80009a6:	6adb      	ldr	r3, [r3, #44]	; 0x2c
 80009a8:	2201      	movs	r2, #1
 80009aa:	4013      	ands	r3, r2
 80009ac:	60bb      	str	r3, [r7, #8]
 80009ae:	68bb      	ldr	r3, [r7, #8]
    /**TIM2 GPIO Configuration    
    PA0-CK_IN     ------> TIM2_CH1
    PA1     ------> TIM2_CH2
    PA10     ------> TIM2_CH3 
    */
    GPIO_InitStruct.Pin = GPIO_PIN_0|GPIO_PIN_1;
 80009b0:	210c      	movs	r1, #12
 80009b2:	187b      	adds	r3, r7, r1
 80009b4:	2203      	movs	r2, #3
 80009b6:	601a      	str	r2, [r3, #0]
    GPIO_InitStruct.Mode = GPIO_MODE_AF_PP;
 80009b8:	187b      	adds	r3, r7, r1
 80009ba:	2202      	movs	r2, #2
 80009bc:	605a      	str	r2, [r3, #4]
    GPIO_InitStruct.Pull = GPIO_NOPULL;
 80009be:	187b      	adds	r3, r7, r1
 80009c0:	2200      	movs	r2, #0
 80009c2:	609a      	str	r2, [r3, #8]
    GPIO_InitStruct.Speed = GPIO_SPEED_FREQ_LOW;
 80009c4:	187b      	adds	r3, r7, r1
 80009c6:	2200      	movs	r2, #0
 80009c8:	60da      	str	r2, [r3, #12]
    GPIO_InitStruct.Alternate = GPIO_AF2_TIM2;
 80009ca:	187b      	adds	r3, r7, r1
 80009cc:	2202      	movs	r2, #2
 80009ce:	611a      	str	r2, [r3, #16]
    HAL_GPIO_Init(GPIOA, &GPIO_InitStruct);
 80009d0:	000c      	movs	r4, r1
 80009d2:	187a      	adds	r2, r7, r1
 80009d4:	23a0      	movs	r3, #160	; 0xa0
 80009d6:	05db      	lsls	r3, r3, #23
 80009d8:	0011      	movs	r1, r2
 80009da:	0018      	movs	r0, r3
 80009dc:	f000 feea 	bl	80017b4 <HAL_GPIO_Init>

    GPIO_InitStruct.Pin = GPIO_PIN_10;
 80009e0:	0021      	movs	r1, r4
 80009e2:	187b      	adds	r3, r7, r1
 80009e4:	2280      	movs	r2, #128	; 0x80
 80009e6:	00d2      	lsls	r2, r2, #3
 80009e8:	601a      	str	r2, [r3, #0]
    GPIO_InitStruct.Mode = GPIO_MODE_AF_PP;
 80009ea:	187b      	adds	r3, r7, r1
 80009ec:	2202      	movs	r2, #2
 80009ee:	605a      	str	r2, [r3, #4]
    GPIO_InitStruct.Pull = GPIO_NOPULL;
 80009f0:	187b      	adds	r3, r7, r1
 80009f2:	2200      	movs	r2, #0
 80009f4:	609a      	str	r2, [r3, #8]
    GPIO_InitStruct.Speed = GPIO_SPEED_FREQ_LOW;
 80009f6:	187b      	adds	r3, r7, r1
 80009f8:	2200      	movs	r2, #0
 80009fa:	60da      	str	r2, [r3, #12]
    GPIO_InitStruct.Alternate = GPIO_AF5_TIM2;
 80009fc:	187b      	adds	r3, r7, r1
 80009fe:	2205      	movs	r2, #5
 8000a00:	611a      	str	r2, [r3, #16]
    HAL_GPIO_Init(GPIOA, &GPIO_InitStruct);
 8000a02:	187a      	adds	r2, r7, r1
 8000a04:	23a0      	movs	r3, #160	; 0xa0
 8000a06:	05db      	lsls	r3, r3, #23
 8000a08:	0011      	movs	r1, r2
 8000a0a:	0018      	movs	r0, r3
 8000a0c:	f000 fed2 	bl	80017b4 <HAL_GPIO_Init>
  /* USER CODE BEGIN TIM2_MspPostInit 1 */

  /* USER CODE END TIM2_MspPostInit 1 */
  }

}
 8000a10:	46c0      	nop			; (mov r8, r8)
 8000a12:	46bd      	mov	sp, r7
 8000a14:	b009      	add	sp, #36	; 0x24
 8000a16:	bd90      	pop	{r4, r7, pc}
 8000a18:	40021000 	.word	0x40021000

08000a1c <Reset_Handler>:

    .section  .text.Reset_Handler
  .weak  Reset_Handler
  .type  Reset_Handler, %function
Reset_Handler:  
   ldr   r0, =_estack
 8000a1c:	4813      	ldr	r0, [pc, #76]	; (8000a6c <LoopForever+0x2>)
   mov   sp, r0          /* set stack pointer */
 8000a1e:	4685      	mov	sp, r0

/*Check if boot space corresponds to system memory*/

    LDR R0,=0x00000004
 8000a20:	4813      	ldr	r0, [pc, #76]	; (8000a70 <LoopForever+0x6>)
    LDR R1, [R0]
 8000a22:	6801      	ldr	r1, [r0, #0]
    LSRS R1, R1, #24
 8000a24:	0e09      	lsrs	r1, r1, #24
    LDR R2,=0x1F
 8000a26:	4a13      	ldr	r2, [pc, #76]	; (8000a74 <LoopForever+0xa>)
    CMP R1, R2
 8000a28:	4291      	cmp	r1, r2
    BNE ApplicationStart
 8000a2a:	d105      	bne.n	8000a38 <ApplicationStart>

 /*SYSCFG clock enable*/
    LDR R0,=0x40021034
 8000a2c:	4812      	ldr	r0, [pc, #72]	; (8000a78 <LoopForever+0xe>)
    LDR R1,=0x00000001
 8000a2e:	4913      	ldr	r1, [pc, #76]	; (8000a7c <LoopForever+0x12>)
    STR R1, [R0]
 8000a30:	6001      	str	r1, [r0, #0]

/*Set CFGR1 register with flash memory remap at address 0*/
    LDR R0,=0x40010000
 8000a32:	4813      	ldr	r0, [pc, #76]	; (8000a80 <LoopForever+0x16>)
    LDR R1,=0x00000000
 8000a34:	4913      	ldr	r1, [pc, #76]	; (8000a84 <LoopForever+0x1a>)
    STR R1, [R0]
 8000a36:	6001      	str	r1, [r0, #0]

08000a38 <ApplicationStart>:

ApplicationStart:
/* Copy the data segment initializers from flash to SRAM */
  movs  r1, #0
 8000a38:	2100      	movs	r1, #0
  b  LoopCopyDataInit
 8000a3a:	e003      	b.n	8000a44 <LoopCopyDataInit>

08000a3c <CopyDataInit>:

CopyDataInit:
  ldr  r3, =_sidata
 8000a3c:	4b12      	ldr	r3, [pc, #72]	; (8000a88 <LoopForever+0x1e>)
  ldr  r3, [r3, r1]
 8000a3e:	585b      	ldr	r3, [r3, r1]
  str  r3, [r0, r1]
 8000a40:	5043      	str	r3, [r0, r1]
  adds  r1, r1, #4
 8000a42:	3104      	adds	r1, #4

08000a44 <LoopCopyDataInit>:

LoopCopyDataInit:
  ldr  r0, =_sdata
 8000a44:	4811      	ldr	r0, [pc, #68]	; (8000a8c <LoopForever+0x22>)
  ldr  r3, =_edata
 8000a46:	4b12      	ldr	r3, [pc, #72]	; (8000a90 <LoopForever+0x26>)
  adds  r2, r0, r1
 8000a48:	1842      	adds	r2, r0, r1
  cmp  r2, r3
 8000a4a:	429a      	cmp	r2, r3
  bcc  CopyDataInit
 8000a4c:	d3f6      	bcc.n	8000a3c <CopyDataInit>
  ldr  r2, =_sbss
 8000a4e:	4a11      	ldr	r2, [pc, #68]	; (8000a94 <LoopForever+0x2a>)
  b  LoopFillZerobss
 8000a50:	e002      	b.n	8000a58 <LoopFillZerobss>

08000a52 <FillZerobss>:
/* Zero fill the bss segment. */
FillZerobss:
  movs  r3, #0
 8000a52:	2300      	movs	r3, #0
  str  r3, [r2]
 8000a54:	6013      	str	r3, [r2, #0]
  adds r2, r2, #4
 8000a56:	3204      	adds	r2, #4

08000a58 <LoopFillZerobss>:


LoopFillZerobss:
  ldr  r3, = _ebss
 8000a58:	4b0f      	ldr	r3, [pc, #60]	; (8000a98 <LoopForever+0x2e>)
  cmp  r2, r3
 8000a5a:	429a      	cmp	r2, r3
  bcc  FillZerobss
 8000a5c:	d3f9      	bcc.n	8000a52 <FillZerobss>

/* Call the clock system intitialization function.*/
  bl  SystemInit
 8000a5e:	f7ff fe4d 	bl	80006fc <SystemInit>
/* Call static constructors */
    bl __libc_init_array
 8000a62:	f002 fafb 	bl	800305c <__libc_init_array>
/* Call the application's entry point.*/
  bl  main
 8000a66:	f7ff fd2b 	bl	80004c0 <main>

08000a6a <LoopForever>:

LoopForever:
    b LoopForever
 8000a6a:	e7fe      	b.n	8000a6a <LoopForever>
   ldr   r0, =_estack
 8000a6c:	20000800 	.word	0x20000800
    LDR R0,=0x00000004
 8000a70:	00000004 	.word	0x00000004
    LDR R2,=0x1F
 8000a74:	0000001f 	.word	0x0000001f
    LDR R0,=0x40021034
 8000a78:	40021034 	.word	0x40021034
    LDR R1,=0x00000001
 8000a7c:	00000001 	.word	0x00000001
    LDR R0,=0x40010000
 8000a80:	40010000 	.word	0x40010000
    LDR R1,=0x00000000
 8000a84:	00000000 	.word	0x00000000
  ldr  r3, =_sidata
 8000a88:	080030f0 	.word	0x080030f0
  ldr  r0, =_sdata
 8000a8c:	20000000 	.word	0x20000000
  ldr  r3, =_edata
 8000a90:	20000004 	.word	0x20000004
  ldr  r2, =_sbss
 8000a94:	20000004 	.word	0x20000004
  ldr  r3, = _ebss
 8000a98:	20000148 	.word	0x20000148

08000a9c <ADC1_COMP_IRQHandler>:
 * @retval : None
*/
    .section  .text.Default_Handler,"ax",%progbits
Default_Handler:
Infinite_Loop:
  b  Infinite_Loop
 8000a9c:	e7fe      	b.n	8000a9c <ADC1_COMP_IRQHandler>
	...

08000aa0 <HAL_Init>:
  *        In the default implementation,Systick is used as source of time base.
  *        the tick variable is incremented each 1ms in its ISR.
  * @retval HAL status
  */
HAL_StatusTypeDef HAL_Init(void)
{
 8000aa0:	b580      	push	{r7, lr}
 8000aa2:	b082      	sub	sp, #8
 8000aa4:	af00      	add	r7, sp, #0
  HAL_StatusTypeDef  status = HAL_OK;
 8000aa6:	1dfb      	adds	r3, r7, #7
 8000aa8:	2200      	movs	r2, #0
 8000aaa:	701a      	strb	r2, [r3, #0]
#if (BUFFER_CACHE_DISABLE != 0)
  __HAL_FLASH_BUFFER_CACHE_DISABLE();
#endif /* BUFFER_CACHE_DISABLE */

#if (PREREAD_ENABLE != 0)
  __HAL_FLASH_PREREAD_BUFFER_ENABLE();
 8000aac:	4b0b      	ldr	r3, [pc, #44]	; (8000adc <HAL_Init+0x3c>)
 8000aae:	681a      	ldr	r2, [r3, #0]
 8000ab0:	4b0a      	ldr	r3, [pc, #40]	; (8000adc <HAL_Init+0x3c>)
 8000ab2:	2140      	movs	r1, #64	; 0x40
 8000ab4:	430a      	orrs	r2, r1
 8000ab6:	601a      	str	r2, [r3, #0]
#if (PREFETCH_ENABLE != 0)
  __HAL_FLASH_PREFETCH_BUFFER_ENABLE();
#endif /* PREFETCH_ENABLE */

  /* Use SysTick as time base source and configure 1ms tick (default clock after Reset is MSI) */
  if (HAL_InitTick(TICK_INT_PRIORITY) != HAL_OK)
 8000ab8:	2000      	movs	r0, #0
 8000aba:	f000 f811 	bl	8000ae0 <HAL_InitTick>
 8000abe:	1e03      	subs	r3, r0, #0
 8000ac0:	d003      	beq.n	8000aca <HAL_Init+0x2a>
  {
    status = HAL_ERROR;
 8000ac2:	1dfb      	adds	r3, r7, #7
 8000ac4:	2201      	movs	r2, #1
 8000ac6:	701a      	strb	r2, [r3, #0]
 8000ac8:	e001      	b.n	8000ace <HAL_Init+0x2e>
  }
  else
  {
    /* Init the low level hardware */
    HAL_MspInit();
 8000aca:	f7ff fd9d 	bl	8000608 <HAL_MspInit>
  }

  /* Return function status */
  return status;
 8000ace:	1dfb      	adds	r3, r7, #7
 8000ad0:	781b      	ldrb	r3, [r3, #0]
}
 8000ad2:	0018      	movs	r0, r3
 8000ad4:	46bd      	mov	sp, r7
 8000ad6:	b002      	add	sp, #8
 8000ad8:	bd80      	pop	{r7, pc}
 8000ada:	46c0      	nop			; (mov r8, r8)
 8000adc:	40022000 	.word	0x40022000

08000ae0 <HAL_InitTick>:
  *       implementation  in user file.
  * @param TickPriority Tick interrupt priority.
  * @retval HAL status
  */
__weak HAL_StatusTypeDef HAL_InitTick(uint32_t TickPriority)
{
 8000ae0:	b580      	push	{r7, lr}
 8000ae2:	b084      	sub	sp, #16
 8000ae4:	af00      	add	r7, sp, #0
 8000ae6:	6078      	str	r0, [r7, #4]
  HAL_StatusTypeDef  status = HAL_OK;
 8000ae8:	230f      	movs	r3, #15
 8000aea:	18fb      	adds	r3, r7, r3
 8000aec:	2200      	movs	r2, #0
 8000aee:	701a      	strb	r2, [r3, #0]

  /*Configure the SysTick to have interrupt in 1ms time basis*/
  if (HAL_SYSTICK_Config(SystemCoreClock/1000UL) != 0U)
 8000af0:	4b0f      	ldr	r3, [pc, #60]	; (8000b30 <HAL_InitTick+0x50>)
 8000af2:	681a      	ldr	r2, [r3, #0]
 8000af4:	23fa      	movs	r3, #250	; 0xfa
 8000af6:	0099      	lsls	r1, r3, #2
 8000af8:	0010      	movs	r0, r2
 8000afa:	f7ff fb05 	bl	8000108 <__udivsi3>
 8000afe:	0003      	movs	r3, r0
 8000b00:	0018      	movs	r0, r3
 8000b02:	f000 fc90 	bl	8001426 <HAL_SYSTICK_Config>
 8000b06:	1e03      	subs	r3, r0, #0
 8000b08:	d004      	beq.n	8000b14 <HAL_InitTick+0x34>
  {
    status = HAL_ERROR;
 8000b0a:	230f      	movs	r3, #15
 8000b0c:	18fb      	adds	r3, r7, r3
 8000b0e:	2201      	movs	r2, #1
 8000b10:	701a      	strb	r2, [r3, #0]
 8000b12:	e006      	b.n	8000b22 <HAL_InitTick+0x42>
  }
  else
  {
    /*Configure the SysTick IRQ priority */
    HAL_NVIC_SetPriority(SysTick_IRQn, TickPriority, 0);
 8000b14:	6879      	ldr	r1, [r7, #4]
 8000b16:	2301      	movs	r3, #1
 8000b18:	425b      	negs	r3, r3
 8000b1a:	2200      	movs	r2, #0
 8000b1c:	0018      	movs	r0, r3
 8000b1e:	f000 fc5d 	bl	80013dc <HAL_NVIC_SetPriority>
  }

  /* Return function status */
  return status;
 8000b22:	230f      	movs	r3, #15
 8000b24:	18fb      	adds	r3, r7, r3
 8000b26:	781b      	ldrb	r3, [r3, #0]
}
 8000b28:	0018      	movs	r0, r3
 8000b2a:	46bd      	mov	sp, r7
 8000b2c:	b004      	add	sp, #16
 8000b2e:	bd80      	pop	{r7, pc}
 8000b30:	20000000 	.word	0x20000000

08000b34 <HAL_IncTick>:
 * @note This function is declared as __weak to be overwritten in case of other
  *      implementations in user file.
  * @retval None
  */
__weak void HAL_IncTick(void)
{
 8000b34:	b580      	push	{r7, lr}
 8000b36:	af00      	add	r7, sp, #0
  uwTick++;
 8000b38:	4b03      	ldr	r3, [pc, #12]	; (8000b48 <HAL_IncTick+0x14>)
 8000b3a:	681b      	ldr	r3, [r3, #0]
 8000b3c:	1c5a      	adds	r2, r3, #1
 8000b3e:	4b02      	ldr	r3, [pc, #8]	; (8000b48 <HAL_IncTick+0x14>)
 8000b40:	601a      	str	r2, [r3, #0]
}
 8000b42:	46c0      	nop			; (mov r8, r8)
 8000b44:	46bd      	mov	sp, r7
 8000b46:	bd80      	pop	{r7, pc}
 8000b48:	20000144 	.word	0x20000144

08000b4c <HAL_GetTick>:
  * @note This function is declared as __weak to be overwritten in case of other
  *       implementations in user file.
  * @retval tick value
  */
__weak uint32_t HAL_GetTick(void)
{
 8000b4c:	b580      	push	{r7, lr}
 8000b4e:	af00      	add	r7, sp, #0
  return uwTick;
 8000b50:	4b02      	ldr	r3, [pc, #8]	; (8000b5c <HAL_GetTick+0x10>)
 8000b52:	681b      	ldr	r3, [r3, #0]
}
 8000b54:	0018      	movs	r0, r3
 8000b56:	46bd      	mov	sp, r7
 8000b58:	bd80      	pop	{r7, pc}
 8000b5a:	46c0      	nop			; (mov r8, r8)
 8000b5c:	20000144 	.word	0x20000144

08000b60 <HAL_ADC_Init>:
  *         function "HAL_ADCEx_EnableVREFINTTempSensor()" must be called similarilly.  
  * @param  hadc ADC handle
  * @retval HAL status
  */
HAL_StatusTypeDef HAL_ADC_Init(ADC_HandleTypeDef* hadc)
{
 8000b60:	b580      	push	{r7, lr}
 8000b62:	b082      	sub	sp, #8
 8000b64:	af00      	add	r7, sp, #0
 8000b66:	6078      	str	r0, [r7, #4]
 
  /* Check ADC handle */
  if(hadc == NULL)
 8000b68:	687b      	ldr	r3, [r7, #4]
 8000b6a:	2b00      	cmp	r3, #0
 8000b6c:	d101      	bne.n	8000b72 <HAL_ADC_Init+0x12>
  {
    return HAL_ERROR;
 8000b6e:	2301      	movs	r3, #1
 8000b70:	e159      	b.n	8000e26 <HAL_ADC_Init+0x2c6>
  /* Refer to header of this file for more details on clock enabling procedure*/
  
  /* Actions performed only if ADC is coming from state reset:                */
  /* - Initialization of ADC MSP                                              */
  /* - ADC voltage regulator enable                                           */
  if(hadc->State == HAL_ADC_STATE_RESET)
 8000b72:	687b      	ldr	r3, [r7, #4]
 8000b74:	6d5b      	ldr	r3, [r3, #84]	; 0x54
 8000b76:	2b00      	cmp	r3, #0
 8000b78:	d10a      	bne.n	8000b90 <HAL_ADC_Init+0x30>
  {
    /* Initialize ADC error code */
    ADC_CLEAR_ERRORCODE(hadc);
 8000b7a:	687b      	ldr	r3, [r7, #4]
 8000b7c:	2200      	movs	r2, #0
 8000b7e:	659a      	str	r2, [r3, #88]	; 0x58
    
    /* Allocate lock resource and initialize it */
    hadc->Lock = HAL_UNLOCKED;
 8000b80:	687b      	ldr	r3, [r7, #4]
 8000b82:	2250      	movs	r2, #80	; 0x50
 8000b84:	2100      	movs	r1, #0
 8000b86:	5499      	strb	r1, [r3, r2]
    
    /* Init the low level hardware */
    hadc->MspInitCallback(hadc);
#else
    /* Init the low level hardware */
    HAL_ADC_MspInit(hadc);
 8000b88:	687b      	ldr	r3, [r7, #4]
 8000b8a:	0018      	movs	r0, r3
 8000b8c:	f7ff fbae 	bl	80002ec <HAL_ADC_MspInit>
  /* Configuration of ADC parameters if previous preliminary actions are      */ 
  /* correctly completed.                                                     */
  /* and if there is no conversion on going on regular group (ADC can be      */
  /* enabled anyway, in case of call of this function to update a parameter   */
  /* on the fly).                                                             */
  if (HAL_IS_BIT_SET(hadc->State, HAL_ADC_STATE_ERROR_INTERNAL) ||
 8000b90:	687b      	ldr	r3, [r7, #4]
 8000b92:	6d5b      	ldr	r3, [r3, #84]	; 0x54
 8000b94:	2210      	movs	r2, #16
 8000b96:	4013      	ands	r3, r2
 8000b98:	2b10      	cmp	r3, #16
 8000b9a:	d005      	beq.n	8000ba8 <HAL_ADC_Init+0x48>
     (ADC_IS_CONVERSION_ONGOING_REGULAR(hadc) != RESET)  )
 8000b9c:	687b      	ldr	r3, [r7, #4]
 8000b9e:	681b      	ldr	r3, [r3, #0]
 8000ba0:	689b      	ldr	r3, [r3, #8]
 8000ba2:	2204      	movs	r2, #4
 8000ba4:	4013      	ands	r3, r2
  if (HAL_IS_BIT_SET(hadc->State, HAL_ADC_STATE_ERROR_INTERNAL) ||
 8000ba6:	d00b      	beq.n	8000bc0 <HAL_ADC_Init+0x60>
  {
    /* Update ADC state machine to error */
    SET_BIT(hadc->State, HAL_ADC_STATE_ERROR_INTERNAL);
 8000ba8:	687b      	ldr	r3, [r7, #4]
 8000baa:	6d5b      	ldr	r3, [r3, #84]	; 0x54
 8000bac:	2210      	movs	r2, #16
 8000bae:	431a      	orrs	r2, r3
 8000bb0:	687b      	ldr	r3, [r7, #4]
 8000bb2:	655a      	str	r2, [r3, #84]	; 0x54
        
    /* Process unlocked */
    __HAL_UNLOCK(hadc);
 8000bb4:	687b      	ldr	r3, [r7, #4]
 8000bb6:	2250      	movs	r2, #80	; 0x50
 8000bb8:	2100      	movs	r1, #0
 8000bba:	5499      	strb	r1, [r3, r2]
    return HAL_ERROR;
 8000bbc:	2301      	movs	r3, #1
 8000bbe:	e132      	b.n	8000e26 <HAL_ADC_Init+0x2c6>
  }

  /* Set ADC state */
  ADC_STATE_CLR_SET(hadc->State,
 8000bc0:	687b      	ldr	r3, [r7, #4]
 8000bc2:	6d5b      	ldr	r3, [r3, #84]	; 0x54
 8000bc4:	4a9a      	ldr	r2, [pc, #616]	; (8000e30 <HAL_ADC_Init+0x2d0>)
 8000bc6:	4013      	ands	r3, r2
 8000bc8:	2202      	movs	r2, #2
 8000bca:	431a      	orrs	r2, r3
 8000bcc:	687b      	ldr	r3, [r7, #4]
 8000bce:	655a      	str	r2, [r3, #84]	; 0x54
  /* Parameters update conditioned to ADC state:                            */
  /* Parameters that can be updated only when ADC is disabled:              */
  /*  - ADC clock mode                                                      */
  /*  - ADC clock prescaler                                                 */
  /*  - ADC Resolution                                                      */
  if (ADC_IS_ENABLE(hadc) == RESET)
 8000bd0:	687b      	ldr	r3, [r7, #4]
 8000bd2:	681b      	ldr	r3, [r3, #0]
 8000bd4:	689b      	ldr	r3, [r3, #8]
 8000bd6:	2203      	movs	r2, #3
 8000bd8:	4013      	ands	r3, r2
 8000bda:	2b01      	cmp	r3, #1
 8000bdc:	d108      	bne.n	8000bf0 <HAL_ADC_Init+0x90>
 8000bde:	687b      	ldr	r3, [r7, #4]
 8000be0:	681b      	ldr	r3, [r3, #0]
 8000be2:	681b      	ldr	r3, [r3, #0]
 8000be4:	2201      	movs	r2, #1
 8000be6:	4013      	ands	r3, r2
 8000be8:	2b01      	cmp	r3, #1
 8000bea:	d101      	bne.n	8000bf0 <HAL_ADC_Init+0x90>
 8000bec:	2301      	movs	r3, #1
 8000bee:	e000      	b.n	8000bf2 <HAL_ADC_Init+0x92>
 8000bf0:	2300      	movs	r3, #0
 8000bf2:	2b00      	cmp	r3, #0
 8000bf4:	d149      	bne.n	8000c8a <HAL_ADC_Init+0x12a>
    /*   - internal measurement paths: Vbat, temperature sensor, Vref       */
    /*     (set into HAL_ADC_ConfigChannel() )                              */
   
    /* Configuration of ADC clock: clock source PCLK or asynchronous with 
    selectable prescaler */
    __HAL_ADC_CLOCK_PRESCALER(hadc);
 8000bf6:	687b      	ldr	r3, [r7, #4]
 8000bf8:	685a      	ldr	r2, [r3, #4]
 8000bfa:	23c0      	movs	r3, #192	; 0xc0
 8000bfc:	061b      	lsls	r3, r3, #24
 8000bfe:	429a      	cmp	r2, r3
 8000c00:	d00b      	beq.n	8000c1a <HAL_ADC_Init+0xba>
 8000c02:	687b      	ldr	r3, [r7, #4]
 8000c04:	685a      	ldr	r2, [r3, #4]
 8000c06:	2380      	movs	r3, #128	; 0x80
 8000c08:	05db      	lsls	r3, r3, #23
 8000c0a:	429a      	cmp	r2, r3
 8000c0c:	d005      	beq.n	8000c1a <HAL_ADC_Init+0xba>
 8000c0e:	687b      	ldr	r3, [r7, #4]
 8000c10:	685a      	ldr	r2, [r3, #4]
 8000c12:	2380      	movs	r3, #128	; 0x80
 8000c14:	061b      	lsls	r3, r3, #24
 8000c16:	429a      	cmp	r2, r3
 8000c18:	d111      	bne.n	8000c3e <HAL_ADC_Init+0xde>
 8000c1a:	687b      	ldr	r3, [r7, #4]
 8000c1c:	681b      	ldr	r3, [r3, #0]
 8000c1e:	691a      	ldr	r2, [r3, #16]
 8000c20:	687b      	ldr	r3, [r7, #4]
 8000c22:	681b      	ldr	r3, [r3, #0]
 8000c24:	0092      	lsls	r2, r2, #2
 8000c26:	0892      	lsrs	r2, r2, #2
 8000c28:	611a      	str	r2, [r3, #16]
 8000c2a:	687b      	ldr	r3, [r7, #4]
 8000c2c:	681b      	ldr	r3, [r3, #0]
 8000c2e:	6919      	ldr	r1, [r3, #16]
 8000c30:	687b      	ldr	r3, [r7, #4]
 8000c32:	685a      	ldr	r2, [r3, #4]
 8000c34:	687b      	ldr	r3, [r7, #4]
 8000c36:	681b      	ldr	r3, [r3, #0]
 8000c38:	430a      	orrs	r2, r1
 8000c3a:	611a      	str	r2, [r3, #16]
 8000c3c:	e014      	b.n	8000c68 <HAL_ADC_Init+0x108>
 8000c3e:	687b      	ldr	r3, [r7, #4]
 8000c40:	681b      	ldr	r3, [r3, #0]
 8000c42:	691a      	ldr	r2, [r3, #16]
 8000c44:	687b      	ldr	r3, [r7, #4]
 8000c46:	681b      	ldr	r3, [r3, #0]
 8000c48:	0092      	lsls	r2, r2, #2
 8000c4a:	0892      	lsrs	r2, r2, #2
 8000c4c:	611a      	str	r2, [r3, #16]
 8000c4e:	4b79      	ldr	r3, [pc, #484]	; (8000e34 <HAL_ADC_Init+0x2d4>)
 8000c50:	681a      	ldr	r2, [r3, #0]
 8000c52:	4b78      	ldr	r3, [pc, #480]	; (8000e34 <HAL_ADC_Init+0x2d4>)
 8000c54:	4978      	ldr	r1, [pc, #480]	; (8000e38 <HAL_ADC_Init+0x2d8>)
 8000c56:	400a      	ands	r2, r1
 8000c58:	601a      	str	r2, [r3, #0]
 8000c5a:	4b76      	ldr	r3, [pc, #472]	; (8000e34 <HAL_ADC_Init+0x2d4>)
 8000c5c:	6819      	ldr	r1, [r3, #0]
 8000c5e:	687b      	ldr	r3, [r7, #4]
 8000c60:	685a      	ldr	r2, [r3, #4]
 8000c62:	4b74      	ldr	r3, [pc, #464]	; (8000e34 <HAL_ADC_Init+0x2d4>)
 8000c64:	430a      	orrs	r2, r1
 8000c66:	601a      	str	r2, [r3, #0]
    
    /* Configuration of ADC:                                                */
    /*  - Resolution                                                        */
    hadc->Instance->CFGR1 &= ~( ADC_CFGR1_RES);
 8000c68:	687b      	ldr	r3, [r7, #4]
 8000c6a:	681b      	ldr	r3, [r3, #0]
 8000c6c:	68da      	ldr	r2, [r3, #12]
 8000c6e:	687b      	ldr	r3, [r7, #4]
 8000c70:	681b      	ldr	r3, [r3, #0]
 8000c72:	2118      	movs	r1, #24
 8000c74:	438a      	bics	r2, r1
 8000c76:	60da      	str	r2, [r3, #12]
    hadc->Instance->CFGR1 |= hadc->Init.Resolution;    
 8000c78:	687b      	ldr	r3, [r7, #4]
 8000c7a:	681b      	ldr	r3, [r3, #0]
 8000c7c:	68d9      	ldr	r1, [r3, #12]
 8000c7e:	687b      	ldr	r3, [r7, #4]
 8000c80:	689a      	ldr	r2, [r3, #8]
 8000c82:	687b      	ldr	r3, [r7, #4]
 8000c84:	681b      	ldr	r3, [r3, #0]
 8000c86:	430a      	orrs	r2, r1
 8000c88:	60da      	str	r2, [r3, #12]
  }
  
  /* Set the Low Frequency mode */
  ADC->CCR &= (uint32_t)~ADC_CCR_LFMEN;
 8000c8a:	4b6a      	ldr	r3, [pc, #424]	; (8000e34 <HAL_ADC_Init+0x2d4>)
 8000c8c:	681a      	ldr	r2, [r3, #0]
 8000c8e:	4b69      	ldr	r3, [pc, #420]	; (8000e34 <HAL_ADC_Init+0x2d4>)
 8000c90:	496a      	ldr	r1, [pc, #424]	; (8000e3c <HAL_ADC_Init+0x2dc>)
 8000c92:	400a      	ands	r2, r1
 8000c94:	601a      	str	r2, [r3, #0]
  ADC->CCR |=__HAL_ADC_CCR_LOWFREQUENCY(hadc->Init.LowPowerFrequencyMode);  
 8000c96:	4b67      	ldr	r3, [pc, #412]	; (8000e34 <HAL_ADC_Init+0x2d4>)
 8000c98:	6819      	ldr	r1, [r3, #0]
 8000c9a:	687b      	ldr	r3, [r7, #4]
 8000c9c:	6b5b      	ldr	r3, [r3, #52]	; 0x34
 8000c9e:	065a      	lsls	r2, r3, #25
 8000ca0:	4b64      	ldr	r3, [pc, #400]	; (8000e34 <HAL_ADC_Init+0x2d4>)
 8000ca2:	430a      	orrs	r2, r1
 8000ca4:	601a      	str	r2, [r3, #0]
   
  /* Enable voltage regulator (if disabled at this step) */
  if (HAL_IS_BIT_CLR(hadc->Instance->CR, ADC_CR_ADVREGEN))
 8000ca6:	687b      	ldr	r3, [r7, #4]
 8000ca8:	681b      	ldr	r3, [r3, #0]
 8000caa:	689a      	ldr	r2, [r3, #8]
 8000cac:	2380      	movs	r3, #128	; 0x80
 8000cae:	055b      	lsls	r3, r3, #21
 8000cb0:	4013      	ands	r3, r2
 8000cb2:	d108      	bne.n	8000cc6 <HAL_ADC_Init+0x166>
  {
    /* Set ADVREGEN bit */
    hadc->Instance->CR |= ADC_CR_ADVREGEN;
 8000cb4:	687b      	ldr	r3, [r7, #4]
 8000cb6:	681b      	ldr	r3, [r3, #0]
 8000cb8:	689a      	ldr	r2, [r3, #8]
 8000cba:	687b      	ldr	r3, [r7, #4]
 8000cbc:	681b      	ldr	r3, [r3, #0]
 8000cbe:	2180      	movs	r1, #128	; 0x80
 8000cc0:	0549      	lsls	r1, r1, #21
 8000cc2:	430a      	orrs	r2, r1
 8000cc4:	609a      	str	r2, [r3, #8]
  /*  - Continuous conversion mode                                            */
  /*  - DMA continuous request                                                */
  /*  - Overrun                                                               */
  /*  - AutoDelay feature                                                     */
  /*  - Discontinuous mode                                                    */
  hadc->Instance->CFGR1 &= ~(ADC_CFGR1_ALIGN   |
 8000cc6:	687b      	ldr	r3, [r7, #4]
 8000cc8:	681b      	ldr	r3, [r3, #0]
 8000cca:	68da      	ldr	r2, [r3, #12]
 8000ccc:	687b      	ldr	r3, [r7, #4]
 8000cce:	681b      	ldr	r3, [r3, #0]
 8000cd0:	495b      	ldr	r1, [pc, #364]	; (8000e40 <HAL_ADC_Init+0x2e0>)
 8000cd2:	400a      	ands	r2, r1
 8000cd4:	60da      	str	r2, [r3, #12]
                             ADC_CFGR1_OVRMOD  |
                             ADC_CFGR1_AUTDLY  |
                             ADC_CFGR1_AUTOFF  |
                             ADC_CFGR1_DISCEN   );
  
  hadc->Instance->CFGR1 |= (hadc->Init.DataAlign                             |
 8000cd6:	687b      	ldr	r3, [r7, #4]
 8000cd8:	681b      	ldr	r3, [r3, #0]
 8000cda:	68d9      	ldr	r1, [r3, #12]
 8000cdc:	687b      	ldr	r3, [r7, #4]
 8000cde:	68da      	ldr	r2, [r3, #12]
                            ADC_SCANDIR(hadc->Init.ScanConvMode)             |
 8000ce0:	687b      	ldr	r3, [r7, #4]
 8000ce2:	691b      	ldr	r3, [r3, #16]
 8000ce4:	2b02      	cmp	r3, #2
 8000ce6:	d101      	bne.n	8000cec <HAL_ADC_Init+0x18c>
 8000ce8:	2304      	movs	r3, #4
 8000cea:	e000      	b.n	8000cee <HAL_ADC_Init+0x18e>
 8000cec:	2300      	movs	r3, #0
  hadc->Instance->CFGR1 |= (hadc->Init.DataAlign                             |
 8000cee:	431a      	orrs	r2, r3
                            ADC_CONTINUOUS((uint32_t)hadc->Init.ContinuousConvMode)    |
 8000cf0:	687b      	ldr	r3, [r7, #4]
 8000cf2:	2020      	movs	r0, #32
 8000cf4:	5c1b      	ldrb	r3, [r3, r0]
 8000cf6:	035b      	lsls	r3, r3, #13
                            ADC_SCANDIR(hadc->Init.ScanConvMode)             |
 8000cf8:	431a      	orrs	r2, r3
                            ADC_DMACONTREQ((uint32_t)hadc->Init.DMAContinuousRequests) |
 8000cfa:	687b      	ldr	r3, [r7, #4]
 8000cfc:	202c      	movs	r0, #44	; 0x2c
 8000cfe:	5c1b      	ldrb	r3, [r3, r0]
 8000d00:	005b      	lsls	r3, r3, #1
                            ADC_CONTINUOUS((uint32_t)hadc->Init.ContinuousConvMode)    |
 8000d02:	431a      	orrs	r2, r3
                            hadc->Init.Overrun                               |
 8000d04:	687b      	ldr	r3, [r7, #4]
 8000d06:	6b1b      	ldr	r3, [r3, #48]	; 0x30
                            ADC_DMACONTREQ((uint32_t)hadc->Init.DMAContinuousRequests) |
 8000d08:	431a      	orrs	r2, r3
                            __HAL_ADC_CFGR1_AutoDelay(hadc->Init.LowPowerAutoWait) |
 8000d0a:	687b      	ldr	r3, [r7, #4]
 8000d0c:	699b      	ldr	r3, [r3, #24]
 8000d0e:	039b      	lsls	r3, r3, #14
                            hadc->Init.Overrun                               |
 8000d10:	431a      	orrs	r2, r3
                            __HAL_ADC_CFGR1_AUTOFF(hadc->Init.LowPowerAutoPowerOff));
 8000d12:	687b      	ldr	r3, [r7, #4]
 8000d14:	69db      	ldr	r3, [r3, #28]
 8000d16:	03db      	lsls	r3, r3, #15
                            __HAL_ADC_CFGR1_AutoDelay(hadc->Init.LowPowerAutoWait) |
 8000d18:	431a      	orrs	r2, r3
  hadc->Instance->CFGR1 |= (hadc->Init.DataAlign                             |
 8000d1a:	687b      	ldr	r3, [r7, #4]
 8000d1c:	681b      	ldr	r3, [r3, #0]
 8000d1e:	430a      	orrs	r2, r1
 8000d20:	60da      	str	r2, [r3, #12]
  /* Enable external trigger if trigger selection is different of software  */
  /* start.                                                                 */
  /* Note: This configuration keeps the hardware feature of parameter       */
  /*       ExternalTrigConvEdge "trigger edge none" equivalent to           */
  /*       software start.                                                  */
  if (hadc->Init.ExternalTrigConv != ADC_SOFTWARE_START)
 8000d22:	687b      	ldr	r3, [r7, #4]
 8000d24:	6a5a      	ldr	r2, [r3, #36]	; 0x24
 8000d26:	23c2      	movs	r3, #194	; 0xc2
 8000d28:	33ff      	adds	r3, #255	; 0xff
 8000d2a:	429a      	cmp	r2, r3
 8000d2c:	d00b      	beq.n	8000d46 <HAL_ADC_Init+0x1e6>
  {
    hadc->Instance->CFGR1 |= hadc->Init.ExternalTrigConv |
 8000d2e:	687b      	ldr	r3, [r7, #4]
 8000d30:	681b      	ldr	r3, [r3, #0]
 8000d32:	68d9      	ldr	r1, [r3, #12]
 8000d34:	687b      	ldr	r3, [r7, #4]
 8000d36:	6a5a      	ldr	r2, [r3, #36]	; 0x24
                             hadc->Init.ExternalTrigConvEdge;
 8000d38:	687b      	ldr	r3, [r7, #4]
 8000d3a:	6a9b      	ldr	r3, [r3, #40]	; 0x28
    hadc->Instance->CFGR1 |= hadc->Init.ExternalTrigConv |
 8000d3c:	431a      	orrs	r2, r3
 8000d3e:	687b      	ldr	r3, [r7, #4]
 8000d40:	681b      	ldr	r3, [r3, #0]
 8000d42:	430a      	orrs	r2, r1
 8000d44:	60da      	str	r2, [r3, #12]
  }
  
  /* Enable discontinuous mode only if continuous mode is disabled */
  if (hadc->Init.DiscontinuousConvMode == ENABLE)
 8000d46:	687b      	ldr	r3, [r7, #4]
 8000d48:	2221      	movs	r2, #33	; 0x21
 8000d4a:	5c9b      	ldrb	r3, [r3, r2]
 8000d4c:	2b01      	cmp	r3, #1
 8000d4e:	d11a      	bne.n	8000d86 <HAL_ADC_Init+0x226>
  {
    if (hadc->Init.ContinuousConvMode == DISABLE)
 8000d50:	687b      	ldr	r3, [r7, #4]
 8000d52:	2220      	movs	r2, #32
 8000d54:	5c9b      	ldrb	r3, [r3, r2]
 8000d56:	2b00      	cmp	r3, #0
 8000d58:	d109      	bne.n	8000d6e <HAL_ADC_Init+0x20e>
    {
      /* Enable the selected ADC group regular discontinuous mode */
      hadc->Instance->CFGR1 |= (ADC_CFGR1_DISCEN);
 8000d5a:	687b      	ldr	r3, [r7, #4]
 8000d5c:	681b      	ldr	r3, [r3, #0]
 8000d5e:	68da      	ldr	r2, [r3, #12]
 8000d60:	687b      	ldr	r3, [r7, #4]
 8000d62:	681b      	ldr	r3, [r3, #0]
 8000d64:	2180      	movs	r1, #128	; 0x80
 8000d66:	0249      	lsls	r1, r1, #9
 8000d68:	430a      	orrs	r2, r1
 8000d6a:	60da      	str	r2, [r3, #12]
 8000d6c:	e00b      	b.n	8000d86 <HAL_ADC_Init+0x226>
      /* ADC regular group discontinuous was intended to be enabled,        */
      /* but ADC regular group modes continuous and sequencer discontinuous */
      /* cannot be enabled simultaneously.                                  */
      
      /* Update ADC state machine to error */
      SET_BIT(hadc->State, HAL_ADC_STATE_ERROR_CONFIG);
 8000d6e:	687b      	ldr	r3, [r7, #4]
 8000d70:	6d5b      	ldr	r3, [r3, #84]	; 0x54
 8000d72:	2220      	movs	r2, #32
 8000d74:	431a      	orrs	r2, r3
 8000d76:	687b      	ldr	r3, [r7, #4]
 8000d78:	655a      	str	r2, [r3, #84]	; 0x54
      
      /* Set ADC error code to ADC peripheral internal error */
      SET_BIT(hadc->ErrorCode, HAL_ADC_ERROR_INTERNAL);
 8000d7a:	687b      	ldr	r3, [r7, #4]
 8000d7c:	6d9b      	ldr	r3, [r3, #88]	; 0x58
 8000d7e:	2201      	movs	r2, #1
 8000d80:	431a      	orrs	r2, r3
 8000d82:	687b      	ldr	r3, [r7, #4]
 8000d84:	659a      	str	r2, [r3, #88]	; 0x58
    }
  }
  
  if (hadc->Init.OversamplingMode == ENABLE)
 8000d86:	687b      	ldr	r3, [r7, #4]
 8000d88:	6bdb      	ldr	r3, [r3, #60]	; 0x3c
 8000d8a:	2b01      	cmp	r3, #1
 8000d8c:	d11f      	bne.n	8000dce <HAL_ADC_Init+0x26e>
    /* Configuration of Oversampler:                                          */
    /*  - Oversampling Ratio                                                  */
    /*  - Right bit shift                                                     */
    /*  - Triggered mode                                                      */
    
    hadc->Instance->CFGR2 &= ~( ADC_CFGR2_OVSR |
 8000d8e:	687b      	ldr	r3, [r7, #4]
 8000d90:	681b      	ldr	r3, [r3, #0]
 8000d92:	691a      	ldr	r2, [r3, #16]
 8000d94:	687b      	ldr	r3, [r7, #4]
 8000d96:	681b      	ldr	r3, [r3, #0]
 8000d98:	492a      	ldr	r1, [pc, #168]	; (8000e44 <HAL_ADC_Init+0x2e4>)
 8000d9a:	400a      	ands	r2, r1
 8000d9c:	611a      	str	r2, [r3, #16]
                                ADC_CFGR2_OVSS |
                                ADC_CFGR2_TOVS );
    
    hadc->Instance->CFGR2 |= ( hadc->Init.Oversample.Ratio         |
 8000d9e:	687b      	ldr	r3, [r7, #4]
 8000da0:	681b      	ldr	r3, [r3, #0]
 8000da2:	6919      	ldr	r1, [r3, #16]
 8000da4:	687b      	ldr	r3, [r7, #4]
 8000da6:	6c1a      	ldr	r2, [r3, #64]	; 0x40
                               hadc->Init.Oversample.RightBitShift             |
 8000da8:	687b      	ldr	r3, [r7, #4]
 8000daa:	6c5b      	ldr	r3, [r3, #68]	; 0x44
    hadc->Instance->CFGR2 |= ( hadc->Init.Oversample.Ratio         |
 8000dac:	431a      	orrs	r2, r3
                               hadc->Init.Oversample.TriggeredMode );
 8000dae:	687b      	ldr	r3, [r7, #4]
 8000db0:	6c9b      	ldr	r3, [r3, #72]	; 0x48
                               hadc->Init.Oversample.RightBitShift             |
 8000db2:	431a      	orrs	r2, r3
    hadc->Instance->CFGR2 |= ( hadc->Init.Oversample.Ratio         |
 8000db4:	687b      	ldr	r3, [r7, #4]
 8000db6:	681b      	ldr	r3, [r3, #0]
 8000db8:	430a      	orrs	r2, r1
 8000dba:	611a      	str	r2, [r3, #16]
    
    /* Enable OverSampling mode */
     hadc->Instance->CFGR2 |= ADC_CFGR2_OVSE;
 8000dbc:	687b      	ldr	r3, [r7, #4]
 8000dbe:	681b      	ldr	r3, [r3, #0]
 8000dc0:	691a      	ldr	r2, [r3, #16]
 8000dc2:	687b      	ldr	r3, [r7, #4]
 8000dc4:	681b      	ldr	r3, [r3, #0]
 8000dc6:	2101      	movs	r1, #1
 8000dc8:	430a      	orrs	r2, r1
 8000dca:	611a      	str	r2, [r3, #16]
 8000dcc:	e00e      	b.n	8000dec <HAL_ADC_Init+0x28c>
  }
  else
  {
    if(HAL_IS_BIT_SET(hadc->Instance->CFGR2, ADC_CFGR2_OVSE))
 8000dce:	687b      	ldr	r3, [r7, #4]
 8000dd0:	681b      	ldr	r3, [r3, #0]
 8000dd2:	691b      	ldr	r3, [r3, #16]
 8000dd4:	2201      	movs	r2, #1
 8000dd6:	4013      	ands	r3, r2
 8000dd8:	2b01      	cmp	r3, #1
 8000dda:	d107      	bne.n	8000dec <HAL_ADC_Init+0x28c>
    {
      /* Disable OverSampling mode if needed */
      hadc->Instance->CFGR2 &= ~ADC_CFGR2_OVSE;
 8000ddc:	687b      	ldr	r3, [r7, #4]
 8000dde:	681b      	ldr	r3, [r3, #0]
 8000de0:	691a      	ldr	r2, [r3, #16]
 8000de2:	687b      	ldr	r3, [r7, #4]
 8000de4:	681b      	ldr	r3, [r3, #0]
 8000de6:	2101      	movs	r1, #1
 8000de8:	438a      	bics	r2, r1
 8000dea:	611a      	str	r2, [r3, #16]
    }
  }    
  
  /* Clear the old sampling time */
  hadc->Instance->SMPR &= (uint32_t)(~ADC_SMPR_SMPR);
 8000dec:	687b      	ldr	r3, [r7, #4]
 8000dee:	681b      	ldr	r3, [r3, #0]
 8000df0:	695a      	ldr	r2, [r3, #20]
 8000df2:	687b      	ldr	r3, [r7, #4]
 8000df4:	681b      	ldr	r3, [r3, #0]
 8000df6:	2107      	movs	r1, #7
 8000df8:	438a      	bics	r2, r1
 8000dfa:	615a      	str	r2, [r3, #20]
  
  /* Set the new sample time */
  hadc->Instance->SMPR |= hadc->Init.SamplingTime;
 8000dfc:	687b      	ldr	r3, [r7, #4]
 8000dfe:	681b      	ldr	r3, [r3, #0]
 8000e00:	6959      	ldr	r1, [r3, #20]
 8000e02:	687b      	ldr	r3, [r7, #4]
 8000e04:	6b9a      	ldr	r2, [r3, #56]	; 0x38
 8000e06:	687b      	ldr	r3, [r7, #4]
 8000e08:	681b      	ldr	r3, [r3, #0]
 8000e0a:	430a      	orrs	r2, r1
 8000e0c:	615a      	str	r2, [r3, #20]
  
  /* Clear ADC error code */
  ADC_CLEAR_ERRORCODE(hadc);
 8000e0e:	687b      	ldr	r3, [r7, #4]
 8000e10:	2200      	movs	r2, #0
 8000e12:	659a      	str	r2, [r3, #88]	; 0x58

  /* Set the ADC state */
  ADC_STATE_CLR_SET(hadc->State,
 8000e14:	687b      	ldr	r3, [r7, #4]
 8000e16:	6d5b      	ldr	r3, [r3, #84]	; 0x54
 8000e18:	2203      	movs	r2, #3
 8000e1a:	4393      	bics	r3, r2
 8000e1c:	2201      	movs	r2, #1
 8000e1e:	431a      	orrs	r2, r3
 8000e20:	687b      	ldr	r3, [r7, #4]
 8000e22:	655a      	str	r2, [r3, #84]	; 0x54
                    HAL_ADC_STATE_BUSY_INTERNAL,
                    HAL_ADC_STATE_READY);


  /* Return function status */
  return HAL_OK;
 8000e24:	2300      	movs	r3, #0
}
 8000e26:	0018      	movs	r0, r3
 8000e28:	46bd      	mov	sp, r7
 8000e2a:	b002      	add	sp, #8
 8000e2c:	bd80      	pop	{r7, pc}
 8000e2e:	46c0      	nop			; (mov r8, r8)
 8000e30:	fffffefd 	.word	0xfffffefd
 8000e34:	40012708 	.word	0x40012708
 8000e38:	ffc3ffff 	.word	0xffc3ffff
 8000e3c:	fdffffff 	.word	0xfdffffff
 8000e40:	fffe0219 	.word	0xfffe0219
 8000e44:	fffffc03 	.word	0xfffffc03

08000e48 <HAL_ADC_Start_DMA>:
  * @param  pData Destination Buffer address.
  * @param  Length Length of data to be transferred from ADC peripheral to memory (in bytes)
  * @retval HAL status.
  */
HAL_StatusTypeDef HAL_ADC_Start_DMA(ADC_HandleTypeDef* hadc, uint32_t* pData, uint32_t Length)
{
 8000e48:	b590      	push	{r4, r7, lr}
 8000e4a:	b087      	sub	sp, #28
 8000e4c:	af00      	add	r7, sp, #0
 8000e4e:	60f8      	str	r0, [r7, #12]
 8000e50:	60b9      	str	r1, [r7, #8]
 8000e52:	607a      	str	r2, [r7, #4]
  HAL_StatusTypeDef tmp_hal_status = HAL_OK;
 8000e54:	2317      	movs	r3, #23
 8000e56:	18fb      	adds	r3, r7, r3
 8000e58:	2200      	movs	r2, #0
 8000e5a:	701a      	strb	r2, [r3, #0]
  
  /* Check the parameters */
  assert_param(IS_ADC_ALL_INSTANCE(hadc->Instance));
  
  /* Perform ADC enable and conversion start if no conversion is on going */
  if (ADC_IS_CONVERSION_ONGOING_REGULAR(hadc) == RESET)
 8000e5c:	68fb      	ldr	r3, [r7, #12]
 8000e5e:	681b      	ldr	r3, [r3, #0]
 8000e60:	689b      	ldr	r3, [r3, #8]
 8000e62:	2204      	movs	r2, #4
 8000e64:	4013      	ands	r3, r2
 8000e66:	d15e      	bne.n	8000f26 <HAL_ADC_Start_DMA+0xde>
  {
    /* Process locked */
    __HAL_LOCK(hadc);
 8000e68:	68fb      	ldr	r3, [r7, #12]
 8000e6a:	2250      	movs	r2, #80	; 0x50
 8000e6c:	5c9b      	ldrb	r3, [r3, r2]
 8000e6e:	2b01      	cmp	r3, #1
 8000e70:	d101      	bne.n	8000e76 <HAL_ADC_Start_DMA+0x2e>
 8000e72:	2302      	movs	r3, #2
 8000e74:	e05e      	b.n	8000f34 <HAL_ADC_Start_DMA+0xec>
 8000e76:	68fb      	ldr	r3, [r7, #12]
 8000e78:	2250      	movs	r2, #80	; 0x50
 8000e7a:	2101      	movs	r1, #1
 8000e7c:	5499      	strb	r1, [r3, r2]

    /* Enable the ADC peripheral */
    /* If low power mode AutoPowerOff is enabled, power-on/off phases are       */
    /* performed automatically by hardware.                                     */
    if (hadc->Init.LowPowerAutoPowerOff != ENABLE)
 8000e7e:	68fb      	ldr	r3, [r7, #12]
 8000e80:	69db      	ldr	r3, [r3, #28]
 8000e82:	2b01      	cmp	r3, #1
 8000e84:	d007      	beq.n	8000e96 <HAL_ADC_Start_DMA+0x4e>
    {
      tmp_hal_status = ADC_Enable(hadc);
 8000e86:	2317      	movs	r3, #23
 8000e88:	18fc      	adds	r4, r7, r3
 8000e8a:	68fb      	ldr	r3, [r7, #12]
 8000e8c:	0018      	movs	r0, r3
 8000e8e:	f000 f8fb 	bl	8001088 <ADC_Enable>
 8000e92:	0003      	movs	r3, r0
 8000e94:	7023      	strb	r3, [r4, #0]
    }
    
    /* Start conversion if ADC is effectively enabled */
    if (tmp_hal_status == HAL_OK)
 8000e96:	2317      	movs	r3, #23
 8000e98:	18fb      	adds	r3, r7, r3
 8000e9a:	781b      	ldrb	r3, [r3, #0]
 8000e9c:	2b00      	cmp	r3, #0
 8000e9e:	d146      	bne.n	8000f2e <HAL_ADC_Start_DMA+0xe6>
    {
      /* Set ADC state                                                        */
      /* - Clear state bitfield related to regular group conversion results   */
      /* - Set state bitfield related to regular operation                    */
      ADC_STATE_CLR_SET(hadc->State,
 8000ea0:	68fb      	ldr	r3, [r7, #12]
 8000ea2:	6d5b      	ldr	r3, [r3, #84]	; 0x54
 8000ea4:	4a25      	ldr	r2, [pc, #148]	; (8000f3c <HAL_ADC_Start_DMA+0xf4>)
 8000ea6:	4013      	ands	r3, r2
 8000ea8:	2280      	movs	r2, #128	; 0x80
 8000eaa:	0052      	lsls	r2, r2, #1
 8000eac:	431a      	orrs	r2, r3
 8000eae:	68fb      	ldr	r3, [r7, #12]
 8000eb0:	655a      	str	r2, [r3, #84]	; 0x54
                        HAL_ADC_STATE_READY | HAL_ADC_STATE_REG_EOC | HAL_ADC_STATE_REG_OVR | HAL_ADC_STATE_REG_EOSMP,
                        HAL_ADC_STATE_REG_BUSY);
      
      /* Reset ADC all error code fields */
      ADC_CLEAR_ERRORCODE(hadc);
 8000eb2:	68fb      	ldr	r3, [r7, #12]
 8000eb4:	2200      	movs	r2, #0
 8000eb6:	659a      	str	r2, [r3, #88]	; 0x58
      
      /* Process unlocked */
      /* Unlock before starting ADC conversions: in case of potential         */
      /* interruption, to let the process to ADC IRQ Handler.                 */
      __HAL_UNLOCK(hadc);
 8000eb8:	68fb      	ldr	r3, [r7, #12]
 8000eba:	2250      	movs	r2, #80	; 0x50
 8000ebc:	2100      	movs	r1, #0
 8000ebe:	5499      	strb	r1, [r3, r2]

      /* Set the DMA transfer complete callback */
      hadc->DMA_Handle->XferCpltCallback = ADC_DMAConvCplt;
 8000ec0:	68fb      	ldr	r3, [r7, #12]
 8000ec2:	6cdb      	ldr	r3, [r3, #76]	; 0x4c
 8000ec4:	4a1e      	ldr	r2, [pc, #120]	; (8000f40 <HAL_ADC_Start_DMA+0xf8>)
 8000ec6:	62da      	str	r2, [r3, #44]	; 0x2c
      
      /* Set the DMA half transfer complete callback */
      hadc->DMA_Handle->XferHalfCpltCallback = ADC_DMAHalfConvCplt;
 8000ec8:	68fb      	ldr	r3, [r7, #12]
 8000eca:	6cdb      	ldr	r3, [r3, #76]	; 0x4c
 8000ecc:	4a1d      	ldr	r2, [pc, #116]	; (8000f44 <HAL_ADC_Start_DMA+0xfc>)
 8000ece:	631a      	str	r2, [r3, #48]	; 0x30
      
      /* Set the DMA error callback */
      hadc->DMA_Handle->XferErrorCallback = ADC_DMAError;
 8000ed0:	68fb      	ldr	r3, [r7, #12]
 8000ed2:	6cdb      	ldr	r3, [r3, #76]	; 0x4c
 8000ed4:	4a1c      	ldr	r2, [pc, #112]	; (8000f48 <HAL_ADC_Start_DMA+0x100>)
 8000ed6:	635a      	str	r2, [r3, #52]	; 0x34
      /* start (in case of SW start):                                         */
      
      /* Clear regular group conversion flag and overrun flag */
      /* (To ensure of no unknown state from potential previous ADC           */
      /* operations)                                                          */
      __HAL_ADC_CLEAR_FLAG(hadc, (ADC_FLAG_EOC | ADC_FLAG_EOS | ADC_FLAG_OVR));
 8000ed8:	68fb      	ldr	r3, [r7, #12]
 8000eda:	681b      	ldr	r3, [r3, #0]
 8000edc:	221c      	movs	r2, #28
 8000ede:	601a      	str	r2, [r3, #0]
      
      /* Enable ADC overrun interrupt */
      __HAL_ADC_ENABLE_IT(hadc, ADC_IT_OVR);
 8000ee0:	68fb      	ldr	r3, [r7, #12]
 8000ee2:	681b      	ldr	r3, [r3, #0]
 8000ee4:	685a      	ldr	r2, [r3, #4]
 8000ee6:	68fb      	ldr	r3, [r7, #12]
 8000ee8:	681b      	ldr	r3, [r3, #0]
 8000eea:	2110      	movs	r1, #16
 8000eec:	430a      	orrs	r2, r1
 8000eee:	605a      	str	r2, [r3, #4]
      
      /* Enable ADC DMA mode */
      hadc->Instance->CFGR1 |= ADC_CFGR1_DMAEN;
 8000ef0:	68fb      	ldr	r3, [r7, #12]
 8000ef2:	681b      	ldr	r3, [r3, #0]
 8000ef4:	68da      	ldr	r2, [r3, #12]
 8000ef6:	68fb      	ldr	r3, [r7, #12]
 8000ef8:	681b      	ldr	r3, [r3, #0]
 8000efa:	2101      	movs	r1, #1
 8000efc:	430a      	orrs	r2, r1
 8000efe:	60da      	str	r2, [r3, #12]
      
      /* Start the DMA channel */
      HAL_DMA_Start_IT(hadc->DMA_Handle, (uint32_t)&hadc->Instance->DR, (uint32_t)pData, Length);
 8000f00:	68fb      	ldr	r3, [r7, #12]
 8000f02:	6cd8      	ldr	r0, [r3, #76]	; 0x4c
 8000f04:	68fb      	ldr	r3, [r7, #12]
 8000f06:	681b      	ldr	r3, [r3, #0]
 8000f08:	3340      	adds	r3, #64	; 0x40
 8000f0a:	0019      	movs	r1, r3
 8000f0c:	68ba      	ldr	r2, [r7, #8]
 8000f0e:	687b      	ldr	r3, [r7, #4]
 8000f10:	f000 fb0e 	bl	8001530 <HAL_DMA_Start_IT>
      
      /* Enable conversion of regular group.                                  */
      /* If software start has been selected, conversion starts immediately.  */
      /* If external trigger has been selected, conversion will start at next */
      /* trigger event.                                                       */
      hadc->Instance->CR |= ADC_CR_ADSTART;
 8000f14:	68fb      	ldr	r3, [r7, #12]
 8000f16:	681b      	ldr	r3, [r3, #0]
 8000f18:	689a      	ldr	r2, [r3, #8]
 8000f1a:	68fb      	ldr	r3, [r7, #12]
 8000f1c:	681b      	ldr	r3, [r3, #0]
 8000f1e:	2104      	movs	r1, #4
 8000f20:	430a      	orrs	r2, r1
 8000f22:	609a      	str	r2, [r3, #8]
 8000f24:	e003      	b.n	8000f2e <HAL_ADC_Start_DMA+0xe6>
    }
  }
  else
  {
    tmp_hal_status = HAL_BUSY;
 8000f26:	2317      	movs	r3, #23
 8000f28:	18fb      	adds	r3, r7, r3
 8000f2a:	2202      	movs	r2, #2
 8000f2c:	701a      	strb	r2, [r3, #0]
  }
  
  /* Return function status */
  return tmp_hal_status;
 8000f2e:	2317      	movs	r3, #23
 8000f30:	18fb      	adds	r3, r7, r3
 8000f32:	781b      	ldrb	r3, [r3, #0]
}
 8000f34:	0018      	movs	r0, r3
 8000f36:	46bd      	mov	sp, r7
 8000f38:	b007      	add	sp, #28
 8000f3a:	bd90      	pop	{r4, r7, pc}
 8000f3c:	fffff0fe 	.word	0xfffff0fe
 8000f40:	08001149 	.word	0x08001149
 8000f44:	080011fd 	.word	0x080011fd
 8000f48:	0800121b 	.word	0x0800121b

08000f4c <HAL_ADC_ConvCpltCallback>:
  * @brief  Conversion complete callback in non-blocking mode.
  * @param  hadc ADC handle
  * @retval None
  */
__weak void HAL_ADC_ConvCpltCallback(ADC_HandleTypeDef* hadc)
{
 8000f4c:	b580      	push	{r7, lr}
 8000f4e:	b082      	sub	sp, #8
 8000f50:	af00      	add	r7, sp, #0
 8000f52:	6078      	str	r0, [r7, #4]
  UNUSED(hadc);

  /* NOTE : This function should not be modified. When the callback is needed,
            function HAL_ADC_ConvCpltCallback must be implemented in the user file.
   */
}
 8000f54:	46c0      	nop			; (mov r8, r8)
 8000f56:	46bd      	mov	sp, r7
 8000f58:	b002      	add	sp, #8
 8000f5a:	bd80      	pop	{r7, pc}

08000f5c <HAL_ADC_ConvHalfCpltCallback>:
  * @brief  Conversion DMA half-transfer callback in non-blocking mode.
  * @param  hadc ADC handle
  * @retval None
  */
__weak void HAL_ADC_ConvHalfCpltCallback(ADC_HandleTypeDef* hadc)
{
 8000f5c:	b580      	push	{r7, lr}
 8000f5e:	b082      	sub	sp, #8
 8000f60:	af00      	add	r7, sp, #0
 8000f62:	6078      	str	r0, [r7, #4]
  UNUSED(hadc);

  /* NOTE : This function should not be modified. When the callback is needed,
            function HAL_ADC_ConvHalfCpltCallback must be implemented in the user file.
  */
}
 8000f64:	46c0      	nop			; (mov r8, r8)
 8000f66:	46bd      	mov	sp, r7
 8000f68:	b002      	add	sp, #8
 8000f6a:	bd80      	pop	{r7, pc}

08000f6c <HAL_ADC_ErrorCallback>:
  *           (this function is also clearing overrun flag)
  * @param  hadc ADC handle
  * @retval None
  */
__weak void HAL_ADC_ErrorCallback(ADC_HandleTypeDef *hadc)
{
 8000f6c:	b580      	push	{r7, lr}
 8000f6e:	b082      	sub	sp, #8
 8000f70:	af00      	add	r7, sp, #0
 8000f72:	6078      	str	r0, [r7, #4]
  UNUSED(hadc);

  /* NOTE : This function should not be modified. When the callback is needed,
            function HAL_ADC_ErrorCallback must be implemented in the user file.
  */
}
 8000f74:	46c0      	nop			; (mov r8, r8)
 8000f76:	46bd      	mov	sp, r7
 8000f78:	b002      	add	sp, #8
 8000f7a:	bd80      	pop	{r7, pc}

08000f7c <HAL_ADC_ConfigChannel>:
  * @param  hadc ADC handle
  * @param  sConfig Structure of ADC channel assigned to ADC group regular.
  * @retval HAL status
  */
HAL_StatusTypeDef HAL_ADC_ConfigChannel(ADC_HandleTypeDef* hadc, ADC_ChannelConfTypeDef* sConfig)
{
 8000f7c:	b580      	push	{r7, lr}
 8000f7e:	b082      	sub	sp, #8
 8000f80:	af00      	add	r7, sp, #0
 8000f82:	6078      	str	r0, [r7, #4]
 8000f84:	6039      	str	r1, [r7, #0]
  assert_param(IS_ADC_ALL_INSTANCE(hadc->Instance));
  assert_param(IS_ADC_CHANNEL(sConfig->Channel));
  assert_param(IS_ADC_RANK(sConfig->Rank));
  
  /* Process locked */
  __HAL_LOCK(hadc);
 8000f86:	687b      	ldr	r3, [r7, #4]
 8000f88:	2250      	movs	r2, #80	; 0x50
 8000f8a:	5c9b      	ldrb	r3, [r3, r2]
 8000f8c:	2b01      	cmp	r3, #1
 8000f8e:	d101      	bne.n	8000f94 <HAL_ADC_ConfigChannel+0x18>
 8000f90:	2302      	movs	r3, #2
 8000f92:	e06c      	b.n	800106e <HAL_ADC_ConfigChannel+0xf2>
 8000f94:	687b      	ldr	r3, [r7, #4]
 8000f96:	2250      	movs	r2, #80	; 0x50
 8000f98:	2101      	movs	r1, #1
 8000f9a:	5499      	strb	r1, [r3, r2]
  /* Parameters update conditioned to ADC state:                              */
  /* Parameters that can be updated when ADC is disabled or enabled without   */
  /* conversion on going on regular group:                                    */
  /*  - Channel number                                                        */
  /*  - Management of internal measurement channels: Vbat/VrefInt/TempSensor  */
  if (ADC_IS_CONVERSION_ONGOING_REGULAR(hadc) != RESET)
 8000f9c:	687b      	ldr	r3, [r7, #4]
 8000f9e:	681b      	ldr	r3, [r3, #0]
 8000fa0:	689b      	ldr	r3, [r3, #8]
 8000fa2:	2204      	movs	r2, #4
 8000fa4:	4013      	ands	r3, r2
 8000fa6:	d00b      	beq.n	8000fc0 <HAL_ADC_ConfigChannel+0x44>
  {
    /* Update ADC state machine to error */
    SET_BIT(hadc->State, HAL_ADC_STATE_ERROR_CONFIG);
 8000fa8:	687b      	ldr	r3, [r7, #4]
 8000faa:	6d5b      	ldr	r3, [r3, #84]	; 0x54
 8000fac:	2220      	movs	r2, #32
 8000fae:	431a      	orrs	r2, r3
 8000fb0:	687b      	ldr	r3, [r7, #4]
 8000fb2:	655a      	str	r2, [r3, #84]	; 0x54
    /* Process unlocked */
    __HAL_UNLOCK(hadc);
 8000fb4:	687b      	ldr	r3, [r7, #4]
 8000fb6:	2250      	movs	r2, #80	; 0x50
 8000fb8:	2100      	movs	r1, #0
 8000fba:	5499      	strb	r1, [r3, r2]
    return HAL_ERROR;
 8000fbc:	2301      	movs	r3, #1
 8000fbe:	e056      	b.n	800106e <HAL_ADC_ConfigChannel+0xf2>
  }
  
  if (sConfig->Rank != ADC_RANK_NONE)
 8000fc0:	683b      	ldr	r3, [r7, #0]
 8000fc2:	685b      	ldr	r3, [r3, #4]
 8000fc4:	4a2c      	ldr	r2, [pc, #176]	; (8001078 <HAL_ADC_ConfigChannel+0xfc>)
 8000fc6:	4293      	cmp	r3, r2
 8000fc8:	d028      	beq.n	800101c <HAL_ADC_ConfigChannel+0xa0>
  {
    /* Enable selected channels */
    hadc->Instance->CHSELR |= (uint32_t)(sConfig->Channel & ADC_CHANNEL_MASK);
 8000fca:	687b      	ldr	r3, [r7, #4]
 8000fcc:	681b      	ldr	r3, [r3, #0]
 8000fce:	6a99      	ldr	r1, [r3, #40]	; 0x28
 8000fd0:	683b      	ldr	r3, [r7, #0]
 8000fd2:	681b      	ldr	r3, [r3, #0]
 8000fd4:	035b      	lsls	r3, r3, #13
 8000fd6:	0b5a      	lsrs	r2, r3, #13
 8000fd8:	687b      	ldr	r3, [r7, #4]
 8000fda:	681b      	ldr	r3, [r3, #0]
 8000fdc:	430a      	orrs	r2, r1
 8000fde:	629a      	str	r2, [r3, #40]	; 0x28
    /* dedicated internal buffers and path.                                     */
    
    #if defined(ADC_CCR_TSEN)
    /* If Temperature sensor channel is selected, then enable the internal      */
    /* buffers and path  */
    if (((sConfig->Channel & ADC_CHANNEL_MASK) & ADC_CHANNEL_TEMPSENSOR ) == (ADC_CHANNEL_TEMPSENSOR & ADC_CHANNEL_MASK))
 8000fe0:	683b      	ldr	r3, [r7, #0]
 8000fe2:	681a      	ldr	r2, [r3, #0]
 8000fe4:	2380      	movs	r3, #128	; 0x80
 8000fe6:	02db      	lsls	r3, r3, #11
 8000fe8:	4013      	ands	r3, r2
 8000fea:	d009      	beq.n	8001000 <HAL_ADC_ConfigChannel+0x84>
    {
      ADC->CCR |= ADC_CCR_TSEN;   
 8000fec:	4b23      	ldr	r3, [pc, #140]	; (800107c <HAL_ADC_ConfigChannel+0x100>)
 8000fee:	681a      	ldr	r2, [r3, #0]
 8000ff0:	4b22      	ldr	r3, [pc, #136]	; (800107c <HAL_ADC_ConfigChannel+0x100>)
 8000ff2:	2180      	movs	r1, #128	; 0x80
 8000ff4:	0409      	lsls	r1, r1, #16
 8000ff6:	430a      	orrs	r2, r1
 8000ff8:	601a      	str	r2, [r3, #0]
      
      /* Delay for temperature sensor stabilization time */
      ADC_DelayMicroSecond(ADC_TEMPSENSOR_DELAY_US);
 8000ffa:	200a      	movs	r0, #10
 8000ffc:	f000 f928 	bl	8001250 <ADC_DelayMicroSecond>
    }
    #endif
    
    /* If VRefInt channel is selected, then enable the internal buffers and path   */
    if (((sConfig->Channel & ADC_CHANNEL_MASK) & ADC_CHANNEL_VREFINT) == (ADC_CHANNEL_VREFINT & ADC_CHANNEL_MASK))
 8001000:	683b      	ldr	r3, [r7, #0]
 8001002:	681a      	ldr	r2, [r3, #0]
 8001004:	2380      	movs	r3, #128	; 0x80
 8001006:	029b      	lsls	r3, r3, #10
 8001008:	4013      	ands	r3, r2
 800100a:	d02b      	beq.n	8001064 <HAL_ADC_ConfigChannel+0xe8>
    {
      ADC->CCR |= ADC_CCR_VREFEN;   
 800100c:	4b1b      	ldr	r3, [pc, #108]	; (800107c <HAL_ADC_ConfigChannel+0x100>)
 800100e:	681a      	ldr	r2, [r3, #0]
 8001010:	4b1a      	ldr	r3, [pc, #104]	; (800107c <HAL_ADC_ConfigChannel+0x100>)
 8001012:	2180      	movs	r1, #128	; 0x80
 8001014:	03c9      	lsls	r1, r1, #15
 8001016:	430a      	orrs	r2, r1
 8001018:	601a      	str	r2, [r3, #0]
 800101a:	e023      	b.n	8001064 <HAL_ADC_ConfigChannel+0xe8>
  }
  else
  {
    /* Regular sequence configuration */
    /* Reset the channel selection register from the selected channel */
    hadc->Instance->CHSELR &= ~((uint32_t)(sConfig->Channel & ADC_CHANNEL_MASK));
 800101c:	687b      	ldr	r3, [r7, #4]
 800101e:	681b      	ldr	r3, [r3, #0]
 8001020:	6a9a      	ldr	r2, [r3, #40]	; 0x28
 8001022:	683b      	ldr	r3, [r7, #0]
 8001024:	681b      	ldr	r3, [r3, #0]
 8001026:	035b      	lsls	r3, r3, #13
 8001028:	0b5b      	lsrs	r3, r3, #13
 800102a:	43d9      	mvns	r1, r3
 800102c:	687b      	ldr	r3, [r7, #4]
 800102e:	681b      	ldr	r3, [r3, #0]
 8001030:	400a      	ands	r2, r1
 8001032:	629a      	str	r2, [r3, #40]	; 0x28
    
    /* Management of internal measurement channels: VrefInt/TempSensor/Vbat */
    /* internal measurement paths disable: If internal channel selected,    */
    /* disable dedicated internal buffers and path.                         */
    #if defined(ADC_CCR_TSEN)
    if (((sConfig->Channel & ADC_CHANNEL_MASK) & ADC_CHANNEL_TEMPSENSOR ) == (ADC_CHANNEL_TEMPSENSOR & ADC_CHANNEL_MASK))
 8001034:	683b      	ldr	r3, [r7, #0]
 8001036:	681a      	ldr	r2, [r3, #0]
 8001038:	2380      	movs	r3, #128	; 0x80
 800103a:	02db      	lsls	r3, r3, #11
 800103c:	4013      	ands	r3, r2
 800103e:	d005      	beq.n	800104c <HAL_ADC_ConfigChannel+0xd0>
    {
      ADC->CCR &= ~ADC_CCR_TSEN;   
 8001040:	4b0e      	ldr	r3, [pc, #56]	; (800107c <HAL_ADC_ConfigChannel+0x100>)
 8001042:	681a      	ldr	r2, [r3, #0]
 8001044:	4b0d      	ldr	r3, [pc, #52]	; (800107c <HAL_ADC_ConfigChannel+0x100>)
 8001046:	490e      	ldr	r1, [pc, #56]	; (8001080 <HAL_ADC_ConfigChannel+0x104>)
 8001048:	400a      	ands	r2, r1
 800104a:	601a      	str	r2, [r3, #0]
    }
    #endif
    
    /* If VRefInt channel is selected, then enable the internal buffers and path   */
    if (((sConfig->Channel & ADC_CHANNEL_MASK) & ADC_CHANNEL_VREFINT) == (ADC_CHANNEL_VREFINT & ADC_CHANNEL_MASK))
 800104c:	683b      	ldr	r3, [r7, #0]
 800104e:	681a      	ldr	r2, [r3, #0]
 8001050:	2380      	movs	r3, #128	; 0x80
 8001052:	029b      	lsls	r3, r3, #10
 8001054:	4013      	ands	r3, r2
 8001056:	d005      	beq.n	8001064 <HAL_ADC_ConfigChannel+0xe8>
    {
      ADC->CCR &= ~ADC_CCR_VREFEN;   
 8001058:	4b08      	ldr	r3, [pc, #32]	; (800107c <HAL_ADC_ConfigChannel+0x100>)
 800105a:	681a      	ldr	r2, [r3, #0]
 800105c:	4b07      	ldr	r3, [pc, #28]	; (800107c <HAL_ADC_ConfigChannel+0x100>)
 800105e:	4909      	ldr	r1, [pc, #36]	; (8001084 <HAL_ADC_ConfigChannel+0x108>)
 8001060:	400a      	ands	r2, r1
 8001062:	601a      	str	r2, [r3, #0]
    }
#endif
  }
  
  /* Process unlocked */
  __HAL_UNLOCK(hadc);
 8001064:	687b      	ldr	r3, [r7, #4]
 8001066:	2250      	movs	r2, #80	; 0x50
 8001068:	2100      	movs	r1, #0
 800106a:	5499      	strb	r1, [r3, r2]
  
  /* Return function status */
  return HAL_OK;
 800106c:	2300      	movs	r3, #0
}
 800106e:	0018      	movs	r0, r3
 8001070:	46bd      	mov	sp, r7
 8001072:	b002      	add	sp, #8
 8001074:	bd80      	pop	{r7, pc}
 8001076:	46c0      	nop			; (mov r8, r8)
 8001078:	00001001 	.word	0x00001001
 800107c:	40012708 	.word	0x40012708
 8001080:	ff7fffff 	.word	0xff7fffff
 8001084:	ffbfffff 	.word	0xffbfffff

08001088 <ADC_Enable>:
  *         "if (hadc->Init.LowPowerAutoPowerOff != ENABLE)".
  * @param  hadc ADC handle
  * @retval HAL status.
  */
static HAL_StatusTypeDef ADC_Enable(ADC_HandleTypeDef* hadc)
{
 8001088:	b580      	push	{r7, lr}
 800108a:	b084      	sub	sp, #16
 800108c:	af00      	add	r7, sp, #0
 800108e:	6078      	str	r0, [r7, #4]
  uint32_t tickstart = 0U;
 8001090:	2300      	movs	r3, #0
 8001092:	60fb      	str	r3, [r7, #12]

  /* ADC enable and wait for ADC ready (in case of ADC is disabled or         */
  /* enabling phase not yet completed: flag ADC ready not yet set).           */
  /* Timeout implemented to not be stuck if ADC cannot be enabled (possible   */
  /* causes: ADC clock not running, ...).                                     */
  if (ADC_IS_ENABLE(hadc) == RESET)
 8001094:	687b      	ldr	r3, [r7, #4]
 8001096:	681b      	ldr	r3, [r3, #0]
 8001098:	689b      	ldr	r3, [r3, #8]
 800109a:	2203      	movs	r2, #3
 800109c:	4013      	ands	r3, r2
 800109e:	2b01      	cmp	r3, #1
 80010a0:	d108      	bne.n	80010b4 <ADC_Enable+0x2c>
 80010a2:	687b      	ldr	r3, [r7, #4]
 80010a4:	681b      	ldr	r3, [r3, #0]
 80010a6:	681b      	ldr	r3, [r3, #0]
 80010a8:	2201      	movs	r2, #1
 80010aa:	4013      	ands	r3, r2
 80010ac:	2b01      	cmp	r3, #1
 80010ae:	d101      	bne.n	80010b4 <ADC_Enable+0x2c>
 80010b0:	2301      	movs	r3, #1
 80010b2:	e000      	b.n	80010b6 <ADC_Enable+0x2e>
 80010b4:	2300      	movs	r3, #0
 80010b6:	2b00      	cmp	r3, #0
 80010b8:	d13f      	bne.n	800113a <ADC_Enable+0xb2>
  {
    /* Check if conditions to enable the ADC are fulfilled */
    if (ADC_ENABLING_CONDITIONS(hadc) == RESET)
 80010ba:	687b      	ldr	r3, [r7, #4]
 80010bc:	681b      	ldr	r3, [r3, #0]
 80010be:	689b      	ldr	r3, [r3, #8]
 80010c0:	4a20      	ldr	r2, [pc, #128]	; (8001144 <ADC_Enable+0xbc>)
 80010c2:	4013      	ands	r3, r2
 80010c4:	d00d      	beq.n	80010e2 <ADC_Enable+0x5a>
    {
      /* Update ADC state machine to error */
      SET_BIT(hadc->State, HAL_ADC_STATE_ERROR_INTERNAL);
 80010c6:	687b      	ldr	r3, [r7, #4]
 80010c8:	6d5b      	ldr	r3, [r3, #84]	; 0x54
 80010ca:	2210      	movs	r2, #16
 80010cc:	431a      	orrs	r2, r3
 80010ce:	687b      	ldr	r3, [r7, #4]
 80010d0:	655a      	str	r2, [r3, #84]	; 0x54
      
      /* Set ADC error code to ADC peripheral internal error */
      SET_BIT(hadc->ErrorCode, HAL_ADC_ERROR_INTERNAL);
 80010d2:	687b      	ldr	r3, [r7, #4]
 80010d4:	6d9b      	ldr	r3, [r3, #88]	; 0x58
 80010d6:	2201      	movs	r2, #1
 80010d8:	431a      	orrs	r2, r3
 80010da:	687b      	ldr	r3, [r7, #4]
 80010dc:	659a      	str	r2, [r3, #88]	; 0x58
      
      return HAL_ERROR;
 80010de:	2301      	movs	r3, #1
 80010e0:	e02c      	b.n	800113c <ADC_Enable+0xb4>
    }
    
    /* Enable the ADC peripheral */
    __HAL_ADC_ENABLE(hadc);
 80010e2:	687b      	ldr	r3, [r7, #4]
 80010e4:	681b      	ldr	r3, [r3, #0]
 80010e6:	689a      	ldr	r2, [r3, #8]
 80010e8:	687b      	ldr	r3, [r7, #4]
 80010ea:	681b      	ldr	r3, [r3, #0]
 80010ec:	2101      	movs	r1, #1
 80010ee:	430a      	orrs	r2, r1
 80010f0:	609a      	str	r2, [r3, #8]
    
    /* Delay for ADC stabilization time. */
    ADC_DelayMicroSecond(ADC_STAB_DELAY_US);
 80010f2:	2001      	movs	r0, #1
 80010f4:	f000 f8ac 	bl	8001250 <ADC_DelayMicroSecond>

    /* Get tick count */
    tickstart = HAL_GetTick();
 80010f8:	f7ff fd28 	bl	8000b4c <HAL_GetTick>
 80010fc:	0003      	movs	r3, r0
 80010fe:	60fb      	str	r3, [r7, #12]
    
    /* Wait for ADC effectively enabled */
    while(__HAL_ADC_GET_FLAG(hadc, ADC_FLAG_RDY) == RESET)
 8001100:	e014      	b.n	800112c <ADC_Enable+0xa4>
    {
      if((HAL_GetTick() - tickstart) > ADC_ENABLE_TIMEOUT)
 8001102:	f7ff fd23 	bl	8000b4c <HAL_GetTick>
 8001106:	0002      	movs	r2, r0
 8001108:	68fb      	ldr	r3, [r7, #12]
 800110a:	1ad3      	subs	r3, r2, r3
 800110c:	2b0a      	cmp	r3, #10
 800110e:	d90d      	bls.n	800112c <ADC_Enable+0xa4>
      {
        /* Update ADC state machine to error */
        SET_BIT(hadc->State, HAL_ADC_STATE_ERROR_INTERNAL);
 8001110:	687b      	ldr	r3, [r7, #4]
 8001112:	6d5b      	ldr	r3, [r3, #84]	; 0x54
 8001114:	2210      	movs	r2, #16
 8001116:	431a      	orrs	r2, r3
 8001118:	687b      	ldr	r3, [r7, #4]
 800111a:	655a      	str	r2, [r3, #84]	; 0x54
        
        /* Set ADC error code to ADC peripheral internal error */
        SET_BIT(hadc->ErrorCode, HAL_ADC_ERROR_INTERNAL);
 800111c:	687b      	ldr	r3, [r7, #4]
 800111e:	6d9b      	ldr	r3, [r3, #88]	; 0x58
 8001120:	2201      	movs	r2, #1
 8001122:	431a      	orrs	r2, r3
 8001124:	687b      	ldr	r3, [r7, #4]
 8001126:	659a      	str	r2, [r3, #88]	; 0x58
        
        return HAL_ERROR;
 8001128:	2301      	movs	r3, #1
 800112a:	e007      	b.n	800113c <ADC_Enable+0xb4>
    while(__HAL_ADC_GET_FLAG(hadc, ADC_FLAG_RDY) == RESET)
 800112c:	687b      	ldr	r3, [r7, #4]
 800112e:	681b      	ldr	r3, [r3, #0]
 8001130:	681b      	ldr	r3, [r3, #0]
 8001132:	2201      	movs	r2, #1
 8001134:	4013      	ands	r3, r2
 8001136:	2b01      	cmp	r3, #1
 8001138:	d1e3      	bne.n	8001102 <ADC_Enable+0x7a>
      }
    }
  }
   
  /* Return HAL status */
  return HAL_OK;
 800113a:	2300      	movs	r3, #0
}
 800113c:	0018      	movs	r0, r3
 800113e:	46bd      	mov	sp, r7
 8001140:	b004      	add	sp, #16
 8001142:	bd80      	pop	{r7, pc}
 8001144:	80000017 	.word	0x80000017

08001148 <ADC_DMAConvCplt>:
  * @brief  DMA transfer complete callback. 
  * @param  hdma pointer to DMA handle.
  * @retval None
  */
static void ADC_DMAConvCplt(DMA_HandleTypeDef *hdma)
{
 8001148:	b580      	push	{r7, lr}
 800114a:	b084      	sub	sp, #16
 800114c:	af00      	add	r7, sp, #0
 800114e:	6078      	str	r0, [r7, #4]
  /* Retrieve ADC handle corresponding to current DMA handle */
  ADC_HandleTypeDef* hadc = ( ADC_HandleTypeDef* )((DMA_HandleTypeDef* )hdma)->Parent;
 8001150:	687b      	ldr	r3, [r7, #4]
 8001152:	6a9b      	ldr	r3, [r3, #40]	; 0x28
 8001154:	60fb      	str	r3, [r7, #12]
  
  /* Update state machine on conversion status if not in error state */
  if (HAL_IS_BIT_CLR(hadc->State, HAL_ADC_STATE_ERROR_INTERNAL | HAL_ADC_STATE_ERROR_DMA))
 8001156:	68fb      	ldr	r3, [r7, #12]
 8001158:	6d5b      	ldr	r3, [r3, #84]	; 0x54
 800115a:	2250      	movs	r2, #80	; 0x50
 800115c:	4013      	ands	r3, r2
 800115e:	d141      	bne.n	80011e4 <ADC_DMAConvCplt+0x9c>
  {
    /* Set ADC state */
    SET_BIT(hadc->State, HAL_ADC_STATE_REG_EOC);
 8001160:	68fb      	ldr	r3, [r7, #12]
 8001162:	6d5b      	ldr	r3, [r3, #84]	; 0x54
 8001164:	2280      	movs	r2, #128	; 0x80
 8001166:	0092      	lsls	r2, r2, #2
 8001168:	431a      	orrs	r2, r3
 800116a:	68fb      	ldr	r3, [r7, #12]
 800116c:	655a      	str	r2, [r3, #84]	; 0x54
    
    /* Determine whether any further conversion upcoming on group regular     */
    /* by external trigger, continuous mode or scan sequence on going.        */
    if(ADC_IS_SOFTWARE_START_REGULAR(hadc)        && 
 800116e:	68fb      	ldr	r3, [r7, #12]
 8001170:	681b      	ldr	r3, [r3, #0]
 8001172:	68da      	ldr	r2, [r3, #12]
 8001174:	23c0      	movs	r3, #192	; 0xc0
 8001176:	011b      	lsls	r3, r3, #4
 8001178:	4013      	ands	r3, r2
 800117a:	d12e      	bne.n	80011da <ADC_DMAConvCplt+0x92>
       (hadc->Init.ContinuousConvMode == DISABLE)   )
 800117c:	68fb      	ldr	r3, [r7, #12]
 800117e:	2220      	movs	r2, #32
 8001180:	5c9b      	ldrb	r3, [r3, r2]
    if(ADC_IS_SOFTWARE_START_REGULAR(hadc)        && 
 8001182:	2b00      	cmp	r3, #0
 8001184:	d129      	bne.n	80011da <ADC_DMAConvCplt+0x92>
    {
      /* If End of Sequence is reached, disable interrupts */
      if( __HAL_ADC_GET_FLAG(hadc, ADC_FLAG_EOS) )
 8001186:	68fb      	ldr	r3, [r7, #12]
 8001188:	681b      	ldr	r3, [r3, #0]
 800118a:	681b      	ldr	r3, [r3, #0]
 800118c:	2208      	movs	r2, #8
 800118e:	4013      	ands	r3, r2
 8001190:	2b08      	cmp	r3, #8
 8001192:	d122      	bne.n	80011da <ADC_DMAConvCplt+0x92>
      {
        /* Allowed to modify bits ADC_IT_EOC/ADC_IT_EOS only if bit           */
        /* ADSTART==0 (no conversion on going)                                */
        if (ADC_IS_CONVERSION_ONGOING_REGULAR(hadc) == RESET)
 8001194:	68fb      	ldr	r3, [r7, #12]
 8001196:	681b      	ldr	r3, [r3, #0]
 8001198:	689b      	ldr	r3, [r3, #8]
 800119a:	2204      	movs	r2, #4
 800119c:	4013      	ands	r3, r2
 800119e:	d110      	bne.n	80011c2 <ADC_DMAConvCplt+0x7a>
        {
          /* Disable ADC end of single conversion interrupt on group regular */
          /* Note: Overrun interrupt was enabled with EOC interrupt in        */
          /* HAL_Start_IT(), but is not disabled here because can be used     */
          /* by overrun IRQ process below.                                    */
          __HAL_ADC_DISABLE_IT(hadc, ADC_IT_EOC | ADC_IT_EOS);
 80011a0:	68fb      	ldr	r3, [r7, #12]
 80011a2:	681b      	ldr	r3, [r3, #0]
 80011a4:	685a      	ldr	r2, [r3, #4]
 80011a6:	68fb      	ldr	r3, [r7, #12]
 80011a8:	681b      	ldr	r3, [r3, #0]
 80011aa:	210c      	movs	r1, #12
 80011ac:	438a      	bics	r2, r1
 80011ae:	605a      	str	r2, [r3, #4]
          
          /* Set ADC state */
          ADC_STATE_CLR_SET(hadc->State,
 80011b0:	68fb      	ldr	r3, [r7, #12]
 80011b2:	6d5b      	ldr	r3, [r3, #84]	; 0x54
 80011b4:	4a10      	ldr	r2, [pc, #64]	; (80011f8 <ADC_DMAConvCplt+0xb0>)
 80011b6:	4013      	ands	r3, r2
 80011b8:	2201      	movs	r2, #1
 80011ba:	431a      	orrs	r2, r3
 80011bc:	68fb      	ldr	r3, [r7, #12]
 80011be:	655a      	str	r2, [r3, #84]	; 0x54
 80011c0:	e00b      	b.n	80011da <ADC_DMAConvCplt+0x92>
                            HAL_ADC_STATE_READY);
        }
        else
        {
          /* Change ADC state to error state */
          SET_BIT(hadc->State, HAL_ADC_STATE_ERROR_CONFIG);
 80011c2:	68fb      	ldr	r3, [r7, #12]
 80011c4:	6d5b      	ldr	r3, [r3, #84]	; 0x54
 80011c6:	2220      	movs	r2, #32
 80011c8:	431a      	orrs	r2, r3
 80011ca:	68fb      	ldr	r3, [r7, #12]
 80011cc:	655a      	str	r2, [r3, #84]	; 0x54
          
          /* Set ADC error code to ADC peripheral internal error */
          SET_BIT(hadc->ErrorCode, HAL_ADC_ERROR_INTERNAL);
 80011ce:	68fb      	ldr	r3, [r7, #12]
 80011d0:	6d9b      	ldr	r3, [r3, #88]	; 0x58
 80011d2:	2201      	movs	r2, #1
 80011d4:	431a      	orrs	r2, r3
 80011d6:	68fb      	ldr	r3, [r7, #12]
 80011d8:	659a      	str	r2, [r3, #88]	; 0x58

    /* Conversion complete callback */
#if (USE_HAL_ADC_REGISTER_CALLBACKS == 1)
    hadc->ConvCpltCallback(hadc);
#else
    HAL_ADC_ConvCpltCallback(hadc);
 80011da:	68fb      	ldr	r3, [r7, #12]
 80011dc:	0018      	movs	r0, r3
 80011de:	f7ff feb5 	bl	8000f4c <HAL_ADC_ConvCpltCallback>
  else
  {
    /* Call DMA error callback */
    hadc->DMA_Handle->XferErrorCallback(hdma);
  }
}
 80011e2:	e005      	b.n	80011f0 <ADC_DMAConvCplt+0xa8>
    hadc->DMA_Handle->XferErrorCallback(hdma);
 80011e4:	68fb      	ldr	r3, [r7, #12]
 80011e6:	6cdb      	ldr	r3, [r3, #76]	; 0x4c
 80011e8:	6b5b      	ldr	r3, [r3, #52]	; 0x34
 80011ea:	687a      	ldr	r2, [r7, #4]
 80011ec:	0010      	movs	r0, r2
 80011ee:	4798      	blx	r3
}
 80011f0:	46c0      	nop			; (mov r8, r8)
 80011f2:	46bd      	mov	sp, r7
 80011f4:	b004      	add	sp, #16
 80011f6:	bd80      	pop	{r7, pc}
 80011f8:	fffffefe 	.word	0xfffffefe

080011fc <ADC_DMAHalfConvCplt>:
  * @brief  DMA half transfer complete callback. 
  * @param  hdma pointer to DMA handle.
  * @retval None
  */
static void ADC_DMAHalfConvCplt(DMA_HandleTypeDef *hdma)
{
 80011fc:	b580      	push	{r7, lr}
 80011fe:	b084      	sub	sp, #16
 8001200:	af00      	add	r7, sp, #0
 8001202:	6078      	str	r0, [r7, #4]
  /* Retrieve ADC handle corresponding to current DMA handle */
  ADC_HandleTypeDef* hadc = ( ADC_HandleTypeDef* )((DMA_HandleTypeDef* )hdma)->Parent;
 8001204:	687b      	ldr	r3, [r7, #4]
 8001206:	6a9b      	ldr	r3, [r3, #40]	; 0x28
 8001208:	60fb      	str	r3, [r7, #12]
  
  /* Half conversion callback */
#if (USE_HAL_ADC_REGISTER_CALLBACKS == 1)
    hadc->ConvHalfCpltCallback(hadc);
#else
  HAL_ADC_ConvHalfCpltCallback(hadc); 
 800120a:	68fb      	ldr	r3, [r7, #12]
 800120c:	0018      	movs	r0, r3
 800120e:	f7ff fea5 	bl	8000f5c <HAL_ADC_ConvHalfCpltCallback>
#endif /* USE_HAL_ADC_REGISTER_CALLBACKS */
}
 8001212:	46c0      	nop			; (mov r8, r8)
 8001214:	46bd      	mov	sp, r7
 8001216:	b004      	add	sp, #16
 8001218:	bd80      	pop	{r7, pc}

0800121a <ADC_DMAError>:
  * @brief  DMA error callback.
  * @param  hdma pointer to DMA handle.
  * @retval None
  */
static void ADC_DMAError(DMA_HandleTypeDef *hdma)
{
 800121a:	b580      	push	{r7, lr}
 800121c:	b084      	sub	sp, #16
 800121e:	af00      	add	r7, sp, #0
 8001220:	6078      	str	r0, [r7, #4]
  /* Retrieve ADC handle corresponding to current DMA handle */
  ADC_HandleTypeDef* hadc = ( ADC_HandleTypeDef* )((DMA_HandleTypeDef* )hdma)->Parent;
 8001222:	687b      	ldr	r3, [r7, #4]
 8001224:	6a9b      	ldr	r3, [r3, #40]	; 0x28
 8001226:	60fb      	str	r3, [r7, #12]
  
  /* Set ADC state */
  SET_BIT(hadc->State, HAL_ADC_STATE_ERROR_DMA);
 8001228:	68fb      	ldr	r3, [r7, #12]
 800122a:	6d5b      	ldr	r3, [r3, #84]	; 0x54
 800122c:	2240      	movs	r2, #64	; 0x40
 800122e:	431a      	orrs	r2, r3
 8001230:	68fb      	ldr	r3, [r7, #12]
 8001232:	655a      	str	r2, [r3, #84]	; 0x54
  
  /* Set ADC error code to DMA error */
  SET_BIT(hadc->ErrorCode, HAL_ADC_ERROR_DMA);
 8001234:	68fb      	ldr	r3, [r7, #12]
 8001236:	6d9b      	ldr	r3, [r3, #88]	; 0x58
 8001238:	2204      	movs	r2, #4
 800123a:	431a      	orrs	r2, r3
 800123c:	68fb      	ldr	r3, [r7, #12]
 800123e:	659a      	str	r2, [r3, #88]	; 0x58
  
  /* Error callback */
#if (USE_HAL_ADC_REGISTER_CALLBACKS == 1)
  hadc->ErrorCallback(hadc);
#else
  HAL_ADC_ErrorCallback(hadc); 
 8001240:	68fb      	ldr	r3, [r7, #12]
 8001242:	0018      	movs	r0, r3
 8001244:	f7ff fe92 	bl	8000f6c <HAL_ADC_ErrorCallback>
#endif /* USE_HAL_ADC_REGISTER_CALLBACKS */
}
 8001248:	46c0      	nop			; (mov r8, r8)
 800124a:	46bd      	mov	sp, r7
 800124c:	b004      	add	sp, #16
 800124e:	bd80      	pop	{r7, pc}

08001250 <ADC_DelayMicroSecond>:
  * @brief  Delay micro seconds 
  * @param  microSecond  delay
  * @retval None
  */
static void ADC_DelayMicroSecond(uint32_t microSecond)
{
 8001250:	b580      	push	{r7, lr}
 8001252:	b084      	sub	sp, #16
 8001254:	af00      	add	r7, sp, #0
 8001256:	6078      	str	r0, [r7, #4]
  /* Compute number of CPU cycles to wait for */
  __IO uint32_t waitLoopIndex = (microSecond * (SystemCoreClock / 1000000U));
 8001258:	4b0a      	ldr	r3, [pc, #40]	; (8001284 <ADC_DelayMicroSecond+0x34>)
 800125a:	681b      	ldr	r3, [r3, #0]
 800125c:	490a      	ldr	r1, [pc, #40]	; (8001288 <ADC_DelayMicroSecond+0x38>)
 800125e:	0018      	movs	r0, r3
 8001260:	f7fe ff52 	bl	8000108 <__udivsi3>
 8001264:	0003      	movs	r3, r0
 8001266:	001a      	movs	r2, r3
 8001268:	687b      	ldr	r3, [r7, #4]
 800126a:	4353      	muls	r3, r2
 800126c:	60fb      	str	r3, [r7, #12]

  while(waitLoopIndex != 0U)
 800126e:	e002      	b.n	8001276 <ADC_DelayMicroSecond+0x26>
  {
    waitLoopIndex--;
 8001270:	68fb      	ldr	r3, [r7, #12]
 8001272:	3b01      	subs	r3, #1
 8001274:	60fb      	str	r3, [r7, #12]
  while(waitLoopIndex != 0U)
 8001276:	68fb      	ldr	r3, [r7, #12]
 8001278:	2b00      	cmp	r3, #0
 800127a:	d1f9      	bne.n	8001270 <ADC_DelayMicroSecond+0x20>
  } 
}
 800127c:	46c0      	nop			; (mov r8, r8)
 800127e:	46bd      	mov	sp, r7
 8001280:	b004      	add	sp, #16
 8001282:	bd80      	pop	{r7, pc}
 8001284:	20000000 	.word	0x20000000
 8001288:	000f4240 	.word	0x000f4240

0800128c <NVIC_EnableIRQ>:
  \brief   Enable External Interrupt
  \details Enables a device-specific interrupt in the NVIC interrupt controller.
  \param [in]      IRQn  External interrupt number. Value cannot be negative.
 */
__STATIC_INLINE void NVIC_EnableIRQ(IRQn_Type IRQn)
{
 800128c:	b580      	push	{r7, lr}
 800128e:	b082      	sub	sp, #8
 8001290:	af00      	add	r7, sp, #0
 8001292:	0002      	movs	r2, r0
 8001294:	1dfb      	adds	r3, r7, #7
 8001296:	701a      	strb	r2, [r3, #0]
  NVIC->ISER[0U] = (uint32_t)(1UL << (((uint32_t)(int32_t)IRQn) & 0x1FUL));
 8001298:	1dfb      	adds	r3, r7, #7
 800129a:	781b      	ldrb	r3, [r3, #0]
 800129c:	001a      	movs	r2, r3
 800129e:	231f      	movs	r3, #31
 80012a0:	401a      	ands	r2, r3
 80012a2:	4b04      	ldr	r3, [pc, #16]	; (80012b4 <NVIC_EnableIRQ+0x28>)
 80012a4:	2101      	movs	r1, #1
 80012a6:	4091      	lsls	r1, r2
 80012a8:	000a      	movs	r2, r1
 80012aa:	601a      	str	r2, [r3, #0]
}
 80012ac:	46c0      	nop			; (mov r8, r8)
 80012ae:	46bd      	mov	sp, r7
 80012b0:	b002      	add	sp, #8
 80012b2:	bd80      	pop	{r7, pc}
 80012b4:	e000e100 	.word	0xe000e100

080012b8 <NVIC_SetPriority>:
  \note    The priority cannot be set for every core interrupt.
  \param [in]      IRQn  Interrupt number.
  \param [in]  priority  Priority to set.
 */
__STATIC_INLINE void NVIC_SetPriority(IRQn_Type IRQn, uint32_t priority)
{
 80012b8:	b590      	push	{r4, r7, lr}
 80012ba:	b083      	sub	sp, #12
 80012bc:	af00      	add	r7, sp, #0
 80012be:	0002      	movs	r2, r0
 80012c0:	6039      	str	r1, [r7, #0]
 80012c2:	1dfb      	adds	r3, r7, #7
 80012c4:	701a      	strb	r2, [r3, #0]
  if ((int32_t)(IRQn) < 0)
 80012c6:	1dfb      	adds	r3, r7, #7
 80012c8:	781b      	ldrb	r3, [r3, #0]
 80012ca:	2b7f      	cmp	r3, #127	; 0x7f
 80012cc:	d932      	bls.n	8001334 <NVIC_SetPriority+0x7c>
  {
    SCB->SHP[_SHP_IDX(IRQn)] = ((uint32_t)(SCB->SHP[_SHP_IDX(IRQn)] & ~(0xFFUL << _BIT_SHIFT(IRQn))) |
 80012ce:	4a2f      	ldr	r2, [pc, #188]	; (800138c <NVIC_SetPriority+0xd4>)
 80012d0:	1dfb      	adds	r3, r7, #7
 80012d2:	781b      	ldrb	r3, [r3, #0]
 80012d4:	0019      	movs	r1, r3
 80012d6:	230f      	movs	r3, #15
 80012d8:	400b      	ands	r3, r1
 80012da:	3b08      	subs	r3, #8
 80012dc:	089b      	lsrs	r3, r3, #2
 80012de:	3306      	adds	r3, #6
 80012e0:	009b      	lsls	r3, r3, #2
 80012e2:	18d3      	adds	r3, r2, r3
 80012e4:	3304      	adds	r3, #4
 80012e6:	681b      	ldr	r3, [r3, #0]
 80012e8:	1dfa      	adds	r2, r7, #7
 80012ea:	7812      	ldrb	r2, [r2, #0]
 80012ec:	0011      	movs	r1, r2
 80012ee:	2203      	movs	r2, #3
 80012f0:	400a      	ands	r2, r1
 80012f2:	00d2      	lsls	r2, r2, #3
 80012f4:	21ff      	movs	r1, #255	; 0xff
 80012f6:	4091      	lsls	r1, r2
 80012f8:	000a      	movs	r2, r1
 80012fa:	43d2      	mvns	r2, r2
 80012fc:	401a      	ands	r2, r3
 80012fe:	0011      	movs	r1, r2
       (((priority << (8U - __NVIC_PRIO_BITS)) & (uint32_t)0xFFUL) << _BIT_SHIFT(IRQn)));
 8001300:	683b      	ldr	r3, [r7, #0]
 8001302:	019b      	lsls	r3, r3, #6
 8001304:	22ff      	movs	r2, #255	; 0xff
 8001306:	401a      	ands	r2, r3
 8001308:	1dfb      	adds	r3, r7, #7
 800130a:	781b      	ldrb	r3, [r3, #0]
 800130c:	0018      	movs	r0, r3
 800130e:	2303      	movs	r3, #3
 8001310:	4003      	ands	r3, r0
 8001312:	00db      	lsls	r3, r3, #3
 8001314:	409a      	lsls	r2, r3
    SCB->SHP[_SHP_IDX(IRQn)] = ((uint32_t)(SCB->SHP[_SHP_IDX(IRQn)] & ~(0xFFUL << _BIT_SHIFT(IRQn))) |
 8001316:	481d      	ldr	r0, [pc, #116]	; (800138c <NVIC_SetPriority+0xd4>)
 8001318:	1dfb      	adds	r3, r7, #7
 800131a:	781b      	ldrb	r3, [r3, #0]
 800131c:	001c      	movs	r4, r3
 800131e:	230f      	movs	r3, #15
 8001320:	4023      	ands	r3, r4
 8001322:	3b08      	subs	r3, #8
 8001324:	089b      	lsrs	r3, r3, #2
 8001326:	430a      	orrs	r2, r1
 8001328:	3306      	adds	r3, #6
 800132a:	009b      	lsls	r3, r3, #2
 800132c:	18c3      	adds	r3, r0, r3
 800132e:	3304      	adds	r3, #4
 8001330:	601a      	str	r2, [r3, #0]
  else
  {
    NVIC->IP[_IP_IDX(IRQn)]  = ((uint32_t)(NVIC->IP[_IP_IDX(IRQn)]  & ~(0xFFUL << _BIT_SHIFT(IRQn))) |
       (((priority << (8U - __NVIC_PRIO_BITS)) & (uint32_t)0xFFUL) << _BIT_SHIFT(IRQn)));
  }
}
 8001332:	e027      	b.n	8001384 <NVIC_SetPriority+0xcc>
    NVIC->IP[_IP_IDX(IRQn)]  = ((uint32_t)(NVIC->IP[_IP_IDX(IRQn)]  & ~(0xFFUL << _BIT_SHIFT(IRQn))) |
 8001334:	4a16      	ldr	r2, [pc, #88]	; (8001390 <NVIC_SetPriority+0xd8>)
 8001336:	1dfb      	adds	r3, r7, #7
 8001338:	781b      	ldrb	r3, [r3, #0]
 800133a:	b25b      	sxtb	r3, r3
 800133c:	089b      	lsrs	r3, r3, #2
 800133e:	33c0      	adds	r3, #192	; 0xc0
 8001340:	009b      	lsls	r3, r3, #2
 8001342:	589b      	ldr	r3, [r3, r2]
 8001344:	1dfa      	adds	r2, r7, #7
 8001346:	7812      	ldrb	r2, [r2, #0]
 8001348:	0011      	movs	r1, r2
 800134a:	2203      	movs	r2, #3
 800134c:	400a      	ands	r2, r1
 800134e:	00d2      	lsls	r2, r2, #3
 8001350:	21ff      	movs	r1, #255	; 0xff
 8001352:	4091      	lsls	r1, r2
 8001354:	000a      	movs	r2, r1
 8001356:	43d2      	mvns	r2, r2
 8001358:	401a      	ands	r2, r3
 800135a:	0011      	movs	r1, r2
       (((priority << (8U - __NVIC_PRIO_BITS)) & (uint32_t)0xFFUL) << _BIT_SHIFT(IRQn)));
 800135c:	683b      	ldr	r3, [r7, #0]
 800135e:	019b      	lsls	r3, r3, #6
 8001360:	22ff      	movs	r2, #255	; 0xff
 8001362:	401a      	ands	r2, r3
 8001364:	1dfb      	adds	r3, r7, #7
 8001366:	781b      	ldrb	r3, [r3, #0]
 8001368:	0018      	movs	r0, r3
 800136a:	2303      	movs	r3, #3
 800136c:	4003      	ands	r3, r0
 800136e:	00db      	lsls	r3, r3, #3
 8001370:	409a      	lsls	r2, r3
    NVIC->IP[_IP_IDX(IRQn)]  = ((uint32_t)(NVIC->IP[_IP_IDX(IRQn)]  & ~(0xFFUL << _BIT_SHIFT(IRQn))) |
 8001372:	4807      	ldr	r0, [pc, #28]	; (8001390 <NVIC_SetPriority+0xd8>)
 8001374:	1dfb      	adds	r3, r7, #7
 8001376:	781b      	ldrb	r3, [r3, #0]
 8001378:	b25b      	sxtb	r3, r3
 800137a:	089b      	lsrs	r3, r3, #2
 800137c:	430a      	orrs	r2, r1
 800137e:	33c0      	adds	r3, #192	; 0xc0
 8001380:	009b      	lsls	r3, r3, #2
 8001382:	501a      	str	r2, [r3, r0]
}
 8001384:	46c0      	nop			; (mov r8, r8)
 8001386:	46bd      	mov	sp, r7
 8001388:	b003      	add	sp, #12
 800138a:	bd90      	pop	{r4, r7, pc}
 800138c:	e000ed00 	.word	0xe000ed00
 8001390:	e000e100 	.word	0xe000e100

08001394 <SysTick_Config>:
  \note    When the variable <b>__Vendor_SysTickConfig</b> is set to 1, then the
           function <b>SysTick_Config</b> is not included. In this case, the file <b><i>device</i>.h</b>
           must contain a vendor-specific implementation of this function.
 */
__STATIC_INLINE uint32_t SysTick_Config(uint32_t ticks)
{
 8001394:	b580      	push	{r7, lr}
 8001396:	b082      	sub	sp, #8
 8001398:	af00      	add	r7, sp, #0
 800139a:	6078      	str	r0, [r7, #4]
  if ((ticks - 1UL) > SysTick_LOAD_RELOAD_Msk)
 800139c:	687b      	ldr	r3, [r7, #4]
 800139e:	3b01      	subs	r3, #1
 80013a0:	4a0c      	ldr	r2, [pc, #48]	; (80013d4 <SysTick_Config+0x40>)
 80013a2:	4293      	cmp	r3, r2
 80013a4:	d901      	bls.n	80013aa <SysTick_Config+0x16>
  {
    return (1UL);                                                   /* Reload value impossible */
 80013a6:	2301      	movs	r3, #1
 80013a8:	e010      	b.n	80013cc <SysTick_Config+0x38>
  }

  SysTick->LOAD  = (uint32_t)(ticks - 1UL);                         /* set reload register */
 80013aa:	4b0b      	ldr	r3, [pc, #44]	; (80013d8 <SysTick_Config+0x44>)
 80013ac:	687a      	ldr	r2, [r7, #4]
 80013ae:	3a01      	subs	r2, #1
 80013b0:	605a      	str	r2, [r3, #4]
  NVIC_SetPriority (SysTick_IRQn, (1UL << __NVIC_PRIO_BITS) - 1UL); /* set Priority for Systick Interrupt */
 80013b2:	2301      	movs	r3, #1
 80013b4:	425b      	negs	r3, r3
 80013b6:	2103      	movs	r1, #3
 80013b8:	0018      	movs	r0, r3
 80013ba:	f7ff ff7d 	bl	80012b8 <NVIC_SetPriority>
  SysTick->VAL   = 0UL;                                             /* Load the SysTick Counter Value */
 80013be:	4b06      	ldr	r3, [pc, #24]	; (80013d8 <SysTick_Config+0x44>)
 80013c0:	2200      	movs	r2, #0
 80013c2:	609a      	str	r2, [r3, #8]
  SysTick->CTRL  = SysTick_CTRL_CLKSOURCE_Msk |
 80013c4:	4b04      	ldr	r3, [pc, #16]	; (80013d8 <SysTick_Config+0x44>)
 80013c6:	2207      	movs	r2, #7
 80013c8:	601a      	str	r2, [r3, #0]
                   SysTick_CTRL_TICKINT_Msk   |
                   SysTick_CTRL_ENABLE_Msk;                         /* Enable SysTick IRQ and SysTick Timer */
  return (0UL);                                                     /* Function successful */
 80013ca:	2300      	movs	r3, #0
}
 80013cc:	0018      	movs	r0, r3
 80013ce:	46bd      	mov	sp, r7
 80013d0:	b002      	add	sp, #8
 80013d2:	bd80      	pop	{r7, pc}
 80013d4:	00ffffff 	.word	0x00ffffff
 80013d8:	e000e010 	.word	0xe000e010

080013dc <HAL_NVIC_SetPriority>:
  *         with stm32l0xx devices, this parameter is a dummy value and it is ignored, because 
  *         no subpriority supported in Cortex M0+ based products.   
  * @retval None
  */
void HAL_NVIC_SetPriority(IRQn_Type IRQn, uint32_t PreemptPriority, uint32_t SubPriority)
{ 
 80013dc:	b580      	push	{r7, lr}
 80013de:	b084      	sub	sp, #16
 80013e0:	af00      	add	r7, sp, #0
 80013e2:	60b9      	str	r1, [r7, #8]
 80013e4:	607a      	str	r2, [r7, #4]
 80013e6:	210f      	movs	r1, #15
 80013e8:	187b      	adds	r3, r7, r1
 80013ea:	1c02      	adds	r2, r0, #0
 80013ec:	701a      	strb	r2, [r3, #0]
    /* Check the parameters */
  assert_param(IS_NVIC_PREEMPTION_PRIORITY(PreemptPriority));
  NVIC_SetPriority(IRQn,PreemptPriority);
 80013ee:	68ba      	ldr	r2, [r7, #8]
 80013f0:	187b      	adds	r3, r7, r1
 80013f2:	781b      	ldrb	r3, [r3, #0]
 80013f4:	b25b      	sxtb	r3, r3
 80013f6:	0011      	movs	r1, r2
 80013f8:	0018      	movs	r0, r3
 80013fa:	f7ff ff5d 	bl	80012b8 <NVIC_SetPriority>
}
 80013fe:	46c0      	nop			; (mov r8, r8)
 8001400:	46bd      	mov	sp, r7
 8001402:	b004      	add	sp, #16
 8001404:	bd80      	pop	{r7, pc}

08001406 <HAL_NVIC_EnableIRQ>:
  *         This parameter can be an enumerator of  IRQn_Type enumeration
  *         (For the complete STM32 Devices IRQ Channels list, please refer to stm32l0xx.h file)  
  * @retval None
  */
void HAL_NVIC_EnableIRQ(IRQn_Type IRQn)
{
 8001406:	b580      	push	{r7, lr}
 8001408:	b082      	sub	sp, #8
 800140a:	af00      	add	r7, sp, #0
 800140c:	0002      	movs	r2, r0
 800140e:	1dfb      	adds	r3, r7, #7
 8001410:	701a      	strb	r2, [r3, #0]
  /* Check the parameters */
  assert_param(IS_NVIC_DEVICE_IRQ(IRQn));
  
  /* Enable interrupt */
  NVIC_EnableIRQ(IRQn);
 8001412:	1dfb      	adds	r3, r7, #7
 8001414:	781b      	ldrb	r3, [r3, #0]
 8001416:	b25b      	sxtb	r3, r3
 8001418:	0018      	movs	r0, r3
 800141a:	f7ff ff37 	bl	800128c <NVIC_EnableIRQ>
}
 800141e:	46c0      	nop			; (mov r8, r8)
 8001420:	46bd      	mov	sp, r7
 8001422:	b002      	add	sp, #8
 8001424:	bd80      	pop	{r7, pc}

08001426 <HAL_SYSTICK_Config>:
  * @param  TicksNumb Specifies the ticks Number of ticks between two interrupts.
  * @retval status:  - 0  Function succeeded.
  *                  - 1  Function failed.
  */
uint32_t HAL_SYSTICK_Config(uint32_t TicksNumb)
{
 8001426:	b580      	push	{r7, lr}
 8001428:	b082      	sub	sp, #8
 800142a:	af00      	add	r7, sp, #0
 800142c:	6078      	str	r0, [r7, #4]
   return SysTick_Config(TicksNumb);
 800142e:	687b      	ldr	r3, [r7, #4]
 8001430:	0018      	movs	r0, r3
 8001432:	f7ff ffaf 	bl	8001394 <SysTick_Config>
 8001436:	0003      	movs	r3, r0
}
 8001438:	0018      	movs	r0, r3
 800143a:	46bd      	mov	sp, r7
 800143c:	b002      	add	sp, #8
 800143e:	bd80      	pop	{r7, pc}

08001440 <HAL_DMA_Init>:
  * @param  hdma Pointer to a DMA_HandleTypeDef structure that contains
  *               the configuration information for the specified DMA Channel.
  * @retval HAL status
  */
HAL_StatusTypeDef HAL_DMA_Init(DMA_HandleTypeDef *hdma)
{
 8001440:	b580      	push	{r7, lr}
 8001442:	b084      	sub	sp, #16
 8001444:	af00      	add	r7, sp, #0
 8001446:	6078      	str	r0, [r7, #4]
  uint32_t tmp;

  /* Check the DMA handle allocation */
  if(hdma == NULL)
 8001448:	687b      	ldr	r3, [r7, #4]
 800144a:	2b00      	cmp	r3, #0
 800144c:	d101      	bne.n	8001452 <HAL_DMA_Init+0x12>
  {
    return HAL_ERROR;
 800144e:	2301      	movs	r3, #1
 8001450:	e061      	b.n	8001516 <HAL_DMA_Init+0xd6>
  assert_param(IS_DMA_MODE(hdma->Init.Mode));
  assert_param(IS_DMA_PRIORITY(hdma->Init.Priority));

  /* Compute the channel index */
  /* Only one DMA: DMA1 */
  hdma->ChannelIndex = (((uint32_t)hdma->Instance - (uint32_t)DMA1_Channel1) / ((uint32_t)DMA1_Channel2 - (uint32_t)DMA1_Channel1)) << 2;
 8001452:	687b      	ldr	r3, [r7, #4]
 8001454:	681b      	ldr	r3, [r3, #0]
 8001456:	4a32      	ldr	r2, [pc, #200]	; (8001520 <HAL_DMA_Init+0xe0>)
 8001458:	4694      	mov	ip, r2
 800145a:	4463      	add	r3, ip
 800145c:	2114      	movs	r1, #20
 800145e:	0018      	movs	r0, r3
 8001460:	f7fe fe52 	bl	8000108 <__udivsi3>
 8001464:	0003      	movs	r3, r0
 8001466:	009a      	lsls	r2, r3, #2
 8001468:	687b      	ldr	r3, [r7, #4]
 800146a:	645a      	str	r2, [r3, #68]	; 0x44
  hdma->DmaBaseAddress = DMA1;
 800146c:	687b      	ldr	r3, [r7, #4]
 800146e:	4a2d      	ldr	r2, [pc, #180]	; (8001524 <HAL_DMA_Init+0xe4>)
 8001470:	641a      	str	r2, [r3, #64]	; 0x40

  /* Change DMA peripheral state */
  hdma->State = HAL_DMA_STATE_BUSY;
 8001472:	687b      	ldr	r3, [r7, #4]
 8001474:	2225      	movs	r2, #37	; 0x25
 8001476:	2102      	movs	r1, #2
 8001478:	5499      	strb	r1, [r3, r2]

  /* Get the CR register value */
  tmp = hdma->Instance->CCR;
 800147a:	687b      	ldr	r3, [r7, #4]
 800147c:	681b      	ldr	r3, [r3, #0]
 800147e:	681b      	ldr	r3, [r3, #0]
 8001480:	60fb      	str	r3, [r7, #12]

  /* Clear PL, MSIZE, PSIZE, MINC, PINC, CIRC, DIR and MEM2MEM bits */
  tmp &= ((uint32_t)~(DMA_CCR_PL    | DMA_CCR_MSIZE  | DMA_CCR_PSIZE  |
 8001482:	68fb      	ldr	r3, [r7, #12]
 8001484:	4a28      	ldr	r2, [pc, #160]	; (8001528 <HAL_DMA_Init+0xe8>)
 8001486:	4013      	ands	r3, r2
 8001488:	60fb      	str	r3, [r7, #12]
                      DMA_CCR_MINC  | DMA_CCR_PINC   | DMA_CCR_CIRC   |
                      DMA_CCR_DIR   | DMA_CCR_MEM2MEM));

  /* Prepare the DMA Channel configuration */
  tmp |=  hdma->Init.Direction        |
 800148a:	687b      	ldr	r3, [r7, #4]
 800148c:	689a      	ldr	r2, [r3, #8]
          hdma->Init.PeriphInc           | hdma->Init.MemInc           |
 800148e:	687b      	ldr	r3, [r7, #4]
 8001490:	68db      	ldr	r3, [r3, #12]
  tmp |=  hdma->Init.Direction        |
 8001492:	431a      	orrs	r2, r3
          hdma->Init.PeriphInc           | hdma->Init.MemInc           |
 8001494:	687b      	ldr	r3, [r7, #4]
 8001496:	691b      	ldr	r3, [r3, #16]
 8001498:	431a      	orrs	r2, r3
          hdma->Init.PeriphDataAlignment | hdma->Init.MemDataAlignment |
 800149a:	687b      	ldr	r3, [r7, #4]
 800149c:	695b      	ldr	r3, [r3, #20]
          hdma->Init.PeriphInc           | hdma->Init.MemInc           |
 800149e:	431a      	orrs	r2, r3
          hdma->Init.PeriphDataAlignment | hdma->Init.MemDataAlignment |
 80014a0:	687b      	ldr	r3, [r7, #4]
 80014a2:	699b      	ldr	r3, [r3, #24]
 80014a4:	431a      	orrs	r2, r3
          hdma->Init.Mode                | hdma->Init.Priority;
 80014a6:	687b      	ldr	r3, [r7, #4]
 80014a8:	69db      	ldr	r3, [r3, #28]
          hdma->Init.PeriphDataAlignment | hdma->Init.MemDataAlignment |
 80014aa:	431a      	orrs	r2, r3
          hdma->Init.Mode                | hdma->Init.Priority;
 80014ac:	687b      	ldr	r3, [r7, #4]
 80014ae:	6a1b      	ldr	r3, [r3, #32]
 80014b0:	4313      	orrs	r3, r2
  tmp |=  hdma->Init.Direction        |
 80014b2:	68fa      	ldr	r2, [r7, #12]
 80014b4:	4313      	orrs	r3, r2
 80014b6:	60fb      	str	r3, [r7, #12]

  /* Write to DMA Channel CR register */
  hdma->Instance->CCR = tmp;
 80014b8:	687b      	ldr	r3, [r7, #4]
 80014ba:	681b      	ldr	r3, [r3, #0]
 80014bc:	68fa      	ldr	r2, [r7, #12]
 80014be:	601a      	str	r2, [r3, #0]

  /* Set request selection */
  if(hdma->Init.Direction != DMA_MEMORY_TO_MEMORY)
 80014c0:	687b      	ldr	r3, [r7, #4]
 80014c2:	689a      	ldr	r2, [r3, #8]
 80014c4:	2380      	movs	r3, #128	; 0x80
 80014c6:	01db      	lsls	r3, r3, #7
 80014c8:	429a      	cmp	r2, r3
 80014ca:	d018      	beq.n	80014fe <HAL_DMA_Init+0xbe>
  {
    /* Write to DMA channel selection register */
    /* Reset request selection for DMA1 Channelx */
    DMA1_CSELR->CSELR &= ~(DMA_CSELR_C1S << (hdma->ChannelIndex & 0x1cU));
 80014cc:	4b17      	ldr	r3, [pc, #92]	; (800152c <HAL_DMA_Init+0xec>)
 80014ce:	681a      	ldr	r2, [r3, #0]
 80014d0:	687b      	ldr	r3, [r7, #4]
 80014d2:	6c5b      	ldr	r3, [r3, #68]	; 0x44
 80014d4:	211c      	movs	r1, #28
 80014d6:	400b      	ands	r3, r1
 80014d8:	210f      	movs	r1, #15
 80014da:	4099      	lsls	r1, r3
 80014dc:	000b      	movs	r3, r1
 80014de:	43d9      	mvns	r1, r3
 80014e0:	4b12      	ldr	r3, [pc, #72]	; (800152c <HAL_DMA_Init+0xec>)
 80014e2:	400a      	ands	r2, r1
 80014e4:	601a      	str	r2, [r3, #0]

    /* Configure request selection for DMA1 Channelx */
    DMA1_CSELR->CSELR |= (uint32_t) (hdma->Init.Request << (hdma->ChannelIndex & 0x1cU));
 80014e6:	4b11      	ldr	r3, [pc, #68]	; (800152c <HAL_DMA_Init+0xec>)
 80014e8:	6819      	ldr	r1, [r3, #0]
 80014ea:	687b      	ldr	r3, [r7, #4]
 80014ec:	685a      	ldr	r2, [r3, #4]
 80014ee:	687b      	ldr	r3, [r7, #4]
 80014f0:	6c5b      	ldr	r3, [r3, #68]	; 0x44
 80014f2:	201c      	movs	r0, #28
 80014f4:	4003      	ands	r3, r0
 80014f6:	409a      	lsls	r2, r3
 80014f8:	4b0c      	ldr	r3, [pc, #48]	; (800152c <HAL_DMA_Init+0xec>)
 80014fa:	430a      	orrs	r2, r1
 80014fc:	601a      	str	r2, [r3, #0]
  }

  /* Initialise the error code */
  hdma->ErrorCode = HAL_DMA_ERROR_NONE;
 80014fe:	687b      	ldr	r3, [r7, #4]
 8001500:	2200      	movs	r2, #0
 8001502:	63da      	str	r2, [r3, #60]	; 0x3c

  /* Initialize the DMA state*/
  hdma->State  = HAL_DMA_STATE_READY;
 8001504:	687b      	ldr	r3, [r7, #4]
 8001506:	2225      	movs	r2, #37	; 0x25
 8001508:	2101      	movs	r1, #1
 800150a:	5499      	strb	r1, [r3, r2]

  /* Allocate lock resource and initialize it */
  hdma->Lock = HAL_UNLOCKED;
 800150c:	687b      	ldr	r3, [r7, #4]
 800150e:	2224      	movs	r2, #36	; 0x24
 8001510:	2100      	movs	r1, #0
 8001512:	5499      	strb	r1, [r3, r2]

  return HAL_OK;
 8001514:	2300      	movs	r3, #0
}
 8001516:	0018      	movs	r0, r3
 8001518:	46bd      	mov	sp, r7
 800151a:	b004      	add	sp, #16
 800151c:	bd80      	pop	{r7, pc}
 800151e:	46c0      	nop			; (mov r8, r8)
 8001520:	bffdfff8 	.word	0xbffdfff8
 8001524:	40020000 	.word	0x40020000
 8001528:	ffff800f 	.word	0xffff800f
 800152c:	400200a8 	.word	0x400200a8

08001530 <HAL_DMA_Start_IT>:
  * @param  DstAddress The destination memory Buffer address
  * @param  DataLength The length of data to be transferred from source to destination
  * @retval HAL status
  */
HAL_StatusTypeDef HAL_DMA_Start_IT(DMA_HandleTypeDef *hdma, uint32_t SrcAddress, uint32_t DstAddress, uint32_t DataLength)
{
 8001530:	b580      	push	{r7, lr}
 8001532:	b086      	sub	sp, #24
 8001534:	af00      	add	r7, sp, #0
 8001536:	60f8      	str	r0, [r7, #12]
 8001538:	60b9      	str	r1, [r7, #8]
 800153a:	607a      	str	r2, [r7, #4]
 800153c:	603b      	str	r3, [r7, #0]
  HAL_StatusTypeDef status = HAL_OK;
 800153e:	2317      	movs	r3, #23
 8001540:	18fb      	adds	r3, r7, r3
 8001542:	2200      	movs	r2, #0
 8001544:	701a      	strb	r2, [r3, #0]

  /* Check the parameters */
  assert_param(IS_DMA_BUFFER_SIZE(DataLength));

  /* Process locked */
  __HAL_LOCK(hdma);
 8001546:	68fb      	ldr	r3, [r7, #12]
 8001548:	2224      	movs	r2, #36	; 0x24
 800154a:	5c9b      	ldrb	r3, [r3, r2]
 800154c:	2b01      	cmp	r3, #1
 800154e:	d101      	bne.n	8001554 <HAL_DMA_Start_IT+0x24>
 8001550:	2302      	movs	r3, #2
 8001552:	e04f      	b.n	80015f4 <HAL_DMA_Start_IT+0xc4>
 8001554:	68fb      	ldr	r3, [r7, #12]
 8001556:	2224      	movs	r2, #36	; 0x24
 8001558:	2101      	movs	r1, #1
 800155a:	5499      	strb	r1, [r3, r2]

  if(HAL_DMA_STATE_READY == hdma->State)
 800155c:	68fb      	ldr	r3, [r7, #12]
 800155e:	2225      	movs	r2, #37	; 0x25
 8001560:	5c9b      	ldrb	r3, [r3, r2]
 8001562:	b2db      	uxtb	r3, r3
 8001564:	2b01      	cmp	r3, #1
 8001566:	d13a      	bne.n	80015de <HAL_DMA_Start_IT+0xae>
  {
    /* Change DMA peripheral state */
    hdma->State = HAL_DMA_STATE_BUSY;
 8001568:	68fb      	ldr	r3, [r7, #12]
 800156a:	2225      	movs	r2, #37	; 0x25
 800156c:	2102      	movs	r1, #2
 800156e:	5499      	strb	r1, [r3, r2]
    hdma->ErrorCode = HAL_DMA_ERROR_NONE;
 8001570:	68fb      	ldr	r3, [r7, #12]
 8001572:	2200      	movs	r2, #0
 8001574:	63da      	str	r2, [r3, #60]	; 0x3c

    /* Disable the peripheral */
    __HAL_DMA_DISABLE(hdma);
 8001576:	68fb      	ldr	r3, [r7, #12]
 8001578:	681b      	ldr	r3, [r3, #0]
 800157a:	681a      	ldr	r2, [r3, #0]
 800157c:	68fb      	ldr	r3, [r7, #12]
 800157e:	681b      	ldr	r3, [r3, #0]
 8001580:	2101      	movs	r1, #1
 8001582:	438a      	bics	r2, r1
 8001584:	601a      	str	r2, [r3, #0]

    /* Configure the source, destination address and the data length & clear flags*/
    DMA_SetConfig(hdma, SrcAddress, DstAddress, DataLength);
 8001586:	683b      	ldr	r3, [r7, #0]
 8001588:	687a      	ldr	r2, [r7, #4]
 800158a:	68b9      	ldr	r1, [r7, #8]
 800158c:	68f8      	ldr	r0, [r7, #12]
 800158e:	f000 f8e3 	bl	8001758 <DMA_SetConfig>

    /* Enable the transfer complete interrupt */
    /* Enable the transfer Error interrupt */
    if(NULL != hdma->XferHalfCpltCallback )
 8001592:	68fb      	ldr	r3, [r7, #12]
 8001594:	6b1b      	ldr	r3, [r3, #48]	; 0x30
 8001596:	2b00      	cmp	r3, #0
 8001598:	d008      	beq.n	80015ac <HAL_DMA_Start_IT+0x7c>
    {
      /* Enable the Half transfer complete interrupt as well */
      __HAL_DMA_ENABLE_IT(hdma, (DMA_IT_TC | DMA_IT_HT | DMA_IT_TE));
 800159a:	68fb      	ldr	r3, [r7, #12]
 800159c:	681b      	ldr	r3, [r3, #0]
 800159e:	681a      	ldr	r2, [r3, #0]
 80015a0:	68fb      	ldr	r3, [r7, #12]
 80015a2:	681b      	ldr	r3, [r3, #0]
 80015a4:	210e      	movs	r1, #14
 80015a6:	430a      	orrs	r2, r1
 80015a8:	601a      	str	r2, [r3, #0]
 80015aa:	e00f      	b.n	80015cc <HAL_DMA_Start_IT+0x9c>
    }
    else
    {
      __HAL_DMA_DISABLE_IT(hdma, DMA_IT_HT);
 80015ac:	68fb      	ldr	r3, [r7, #12]
 80015ae:	681b      	ldr	r3, [r3, #0]
 80015b0:	681a      	ldr	r2, [r3, #0]
 80015b2:	68fb      	ldr	r3, [r7, #12]
 80015b4:	681b      	ldr	r3, [r3, #0]
 80015b6:	2104      	movs	r1, #4
 80015b8:	438a      	bics	r2, r1
 80015ba:	601a      	str	r2, [r3, #0]
      __HAL_DMA_ENABLE_IT(hdma, (DMA_IT_TC | DMA_IT_TE));
 80015bc:	68fb      	ldr	r3, [r7, #12]
 80015be:	681b      	ldr	r3, [r3, #0]
 80015c0:	681a      	ldr	r2, [r3, #0]
 80015c2:	68fb      	ldr	r3, [r7, #12]
 80015c4:	681b      	ldr	r3, [r3, #0]
 80015c6:	210a      	movs	r1, #10
 80015c8:	430a      	orrs	r2, r1
 80015ca:	601a      	str	r2, [r3, #0]
    }

    /* Enable the Peripheral */
    __HAL_DMA_ENABLE(hdma);
 80015cc:	68fb      	ldr	r3, [r7, #12]
 80015ce:	681b      	ldr	r3, [r3, #0]
 80015d0:	681a      	ldr	r2, [r3, #0]
 80015d2:	68fb      	ldr	r3, [r7, #12]
 80015d4:	681b      	ldr	r3, [r3, #0]
 80015d6:	2101      	movs	r1, #1
 80015d8:	430a      	orrs	r2, r1
 80015da:	601a      	str	r2, [r3, #0]
 80015dc:	e007      	b.n	80015ee <HAL_DMA_Start_IT+0xbe>
  }
  else
  {
    /* Process Unlocked */
    __HAL_UNLOCK(hdma);
 80015de:	68fb      	ldr	r3, [r7, #12]
 80015e0:	2224      	movs	r2, #36	; 0x24
 80015e2:	2100      	movs	r1, #0
 80015e4:	5499      	strb	r1, [r3, r2]

    /* Remain BUSY */
    status = HAL_BUSY;
 80015e6:	2317      	movs	r3, #23
 80015e8:	18fb      	adds	r3, r7, r3
 80015ea:	2202      	movs	r2, #2
 80015ec:	701a      	strb	r2, [r3, #0]
  }
  return status;
 80015ee:	2317      	movs	r3, #23
 80015f0:	18fb      	adds	r3, r7, r3
 80015f2:	781b      	ldrb	r3, [r3, #0]
}
 80015f4:	0018      	movs	r0, r3
 80015f6:	46bd      	mov	sp, r7
 80015f8:	b006      	add	sp, #24
 80015fa:	bd80      	pop	{r7, pc}

080015fc <HAL_DMA_IRQHandler>:
  * @param  hdma pointer to a DMA_HandleTypeDef structure that contains
  *               the configuration information for the specified DMA Channel.
  * @retval None
  */
void HAL_DMA_IRQHandler(DMA_HandleTypeDef *hdma)
{
 80015fc:	b580      	push	{r7, lr}
 80015fe:	b084      	sub	sp, #16
 8001600:	af00      	add	r7, sp, #0
 8001602:	6078      	str	r0, [r7, #4]
  uint32_t flag_it = hdma->DmaBaseAddress->ISR;
 8001604:	687b      	ldr	r3, [r7, #4]
 8001606:	6c1b      	ldr	r3, [r3, #64]	; 0x40
 8001608:	681b      	ldr	r3, [r3, #0]
 800160a:	60fb      	str	r3, [r7, #12]
  uint32_t source_it = hdma->Instance->CCR;
 800160c:	687b      	ldr	r3, [r7, #4]
 800160e:	681b      	ldr	r3, [r3, #0]
 8001610:	681b      	ldr	r3, [r3, #0]
 8001612:	60bb      	str	r3, [r7, #8]

  /* Half Transfer Complete Interrupt management ******************************/
  if ((0U != (flag_it & (DMA_FLAG_HT1 << (hdma->ChannelIndex & 0x1cU)))) && (0U != (source_it & DMA_IT_HT)))
 8001614:	687b      	ldr	r3, [r7, #4]
 8001616:	6c5b      	ldr	r3, [r3, #68]	; 0x44
 8001618:	221c      	movs	r2, #28
 800161a:	4013      	ands	r3, r2
 800161c:	2204      	movs	r2, #4
 800161e:	409a      	lsls	r2, r3
 8001620:	0013      	movs	r3, r2
 8001622:	68fa      	ldr	r2, [r7, #12]
 8001624:	4013      	ands	r3, r2
 8001626:	d026      	beq.n	8001676 <HAL_DMA_IRQHandler+0x7a>
 8001628:	68bb      	ldr	r3, [r7, #8]
 800162a:	2204      	movs	r2, #4
 800162c:	4013      	ands	r3, r2
 800162e:	d022      	beq.n	8001676 <HAL_DMA_IRQHandler+0x7a>
  {
      /* Disable the half transfer interrupt if the DMA mode is not CIRCULAR */
      if((hdma->Instance->CCR & DMA_CCR_CIRC) == 0U)
 8001630:	687b      	ldr	r3, [r7, #4]
 8001632:	681b      	ldr	r3, [r3, #0]
 8001634:	681b      	ldr	r3, [r3, #0]
 8001636:	2220      	movs	r2, #32
 8001638:	4013      	ands	r3, r2
 800163a:	d107      	bne.n	800164c <HAL_DMA_IRQHandler+0x50>
      {
        /* Disable the half transfer interrupt */
        __HAL_DMA_DISABLE_IT(hdma, DMA_IT_HT);
 800163c:	687b      	ldr	r3, [r7, #4]
 800163e:	681b      	ldr	r3, [r3, #0]
 8001640:	681a      	ldr	r2, [r3, #0]
 8001642:	687b      	ldr	r3, [r7, #4]
 8001644:	681b      	ldr	r3, [r3, #0]
 8001646:	2104      	movs	r1, #4
 8001648:	438a      	bics	r2, r1
 800164a:	601a      	str	r2, [r3, #0]
      }
      /* Clear the half transfer complete flag */
      hdma->DmaBaseAddress->IFCR = DMA_ISR_HTIF1 << (hdma->ChannelIndex & 0x1cU);
 800164c:	687b      	ldr	r3, [r7, #4]
 800164e:	6c5b      	ldr	r3, [r3, #68]	; 0x44
 8001650:	221c      	movs	r2, #28
 8001652:	401a      	ands	r2, r3
 8001654:	687b      	ldr	r3, [r7, #4]
 8001656:	6c1b      	ldr	r3, [r3, #64]	; 0x40
 8001658:	2104      	movs	r1, #4
 800165a:	4091      	lsls	r1, r2
 800165c:	000a      	movs	r2, r1
 800165e:	605a      	str	r2, [r3, #4]

      /* DMA peripheral state is not updated in Half Transfer */
      /* but in Transfer Complete case */

     if(hdma->XferHalfCpltCallback != NULL)
 8001660:	687b      	ldr	r3, [r7, #4]
 8001662:	6b1b      	ldr	r3, [r3, #48]	; 0x30
 8001664:	2b00      	cmp	r3, #0
 8001666:	d100      	bne.n	800166a <HAL_DMA_IRQHandler+0x6e>
 8001668:	e071      	b.n	800174e <HAL_DMA_IRQHandler+0x152>
      {
        /* Half transfer callback */
        hdma->XferHalfCpltCallback(hdma);
 800166a:	687b      	ldr	r3, [r7, #4]
 800166c:	6b1b      	ldr	r3, [r3, #48]	; 0x30
 800166e:	687a      	ldr	r2, [r7, #4]
 8001670:	0010      	movs	r0, r2
 8001672:	4798      	blx	r3
     if(hdma->XferHalfCpltCallback != NULL)
 8001674:	e06b      	b.n	800174e <HAL_DMA_IRQHandler+0x152>
      }
  }

  /* Transfer Complete Interrupt management ***********************************/
  else if ((0U != (flag_it & (DMA_FLAG_TC1 << (hdma->ChannelIndex & 0x1cU)))) && (0U != (source_it & DMA_IT_TC)))
 8001676:	687b      	ldr	r3, [r7, #4]
 8001678:	6c5b      	ldr	r3, [r3, #68]	; 0x44
 800167a:	221c      	movs	r2, #28
 800167c:	4013      	ands	r3, r2
 800167e:	2202      	movs	r2, #2
 8001680:	409a      	lsls	r2, r3
 8001682:	0013      	movs	r3, r2
 8001684:	68fa      	ldr	r2, [r7, #12]
 8001686:	4013      	ands	r3, r2
 8001688:	d02d      	beq.n	80016e6 <HAL_DMA_IRQHandler+0xea>
 800168a:	68bb      	ldr	r3, [r7, #8]
 800168c:	2202      	movs	r2, #2
 800168e:	4013      	ands	r3, r2
 8001690:	d029      	beq.n	80016e6 <HAL_DMA_IRQHandler+0xea>
  {
    if((hdma->Instance->CCR & DMA_CCR_CIRC) == 0U)
 8001692:	687b      	ldr	r3, [r7, #4]
 8001694:	681b      	ldr	r3, [r3, #0]
 8001696:	681b      	ldr	r3, [r3, #0]
 8001698:	2220      	movs	r2, #32
 800169a:	4013      	ands	r3, r2
 800169c:	d10b      	bne.n	80016b6 <HAL_DMA_IRQHandler+0xba>
    {
      /* Disable the transfer complete and error interrupt */
      __HAL_DMA_DISABLE_IT(hdma, DMA_IT_TE | DMA_IT_TC);
 800169e:	687b      	ldr	r3, [r7, #4]
 80016a0:	681b      	ldr	r3, [r3, #0]
 80016a2:	681a      	ldr	r2, [r3, #0]
 80016a4:	687b      	ldr	r3, [r7, #4]
 80016a6:	681b      	ldr	r3, [r3, #0]
 80016a8:	210a      	movs	r1, #10
 80016aa:	438a      	bics	r2, r1
 80016ac:	601a      	str	r2, [r3, #0]

      /* Change the DMA state */
      hdma->State = HAL_DMA_STATE_READY;
 80016ae:	687b      	ldr	r3, [r7, #4]
 80016b0:	2225      	movs	r2, #37	; 0x25
 80016b2:	2101      	movs	r1, #1
 80016b4:	5499      	strb	r1, [r3, r2]
    }
    /* Clear the transfer complete flag */
    hdma->DmaBaseAddress->IFCR = (DMA_ISR_TCIF1 << (hdma->ChannelIndex & 0x1cU));
 80016b6:	687b      	ldr	r3, [r7, #4]
 80016b8:	6c5b      	ldr	r3, [r3, #68]	; 0x44
 80016ba:	221c      	movs	r2, #28
 80016bc:	401a      	ands	r2, r3
 80016be:	687b      	ldr	r3, [r7, #4]
 80016c0:	6c1b      	ldr	r3, [r3, #64]	; 0x40
 80016c2:	2102      	movs	r1, #2
 80016c4:	4091      	lsls	r1, r2
 80016c6:	000a      	movs	r2, r1
 80016c8:	605a      	str	r2, [r3, #4]

    /* Process Unlocked */
    __HAL_UNLOCK(hdma);
 80016ca:	687b      	ldr	r3, [r7, #4]
 80016cc:	2224      	movs	r2, #36	; 0x24
 80016ce:	2100      	movs	r1, #0
 80016d0:	5499      	strb	r1, [r3, r2]

    if(hdma->XferCpltCallback != NULL)
 80016d2:	687b      	ldr	r3, [r7, #4]
 80016d4:	6adb      	ldr	r3, [r3, #44]	; 0x2c
 80016d6:	2b00      	cmp	r3, #0
 80016d8:	d039      	beq.n	800174e <HAL_DMA_IRQHandler+0x152>
    {
      /* Transfer complete callback */
      hdma->XferCpltCallback(hdma);
 80016da:	687b      	ldr	r3, [r7, #4]
 80016dc:	6adb      	ldr	r3, [r3, #44]	; 0x2c
 80016de:	687a      	ldr	r2, [r7, #4]
 80016e0:	0010      	movs	r0, r2
 80016e2:	4798      	blx	r3
    if(hdma->XferCpltCallback != NULL)
 80016e4:	e033      	b.n	800174e <HAL_DMA_IRQHandler+0x152>
    }
  }

  /* Transfer Error Interrupt management **************************************/
  else if ((0U != (flag_it & (DMA_FLAG_TE1 << (hdma->ChannelIndex & 0x1cU)))) && (0U != (source_it & DMA_IT_TE)))
 80016e6:	687b      	ldr	r3, [r7, #4]
 80016e8:	6c5b      	ldr	r3, [r3, #68]	; 0x44
 80016ea:	221c      	movs	r2, #28
 80016ec:	4013      	ands	r3, r2
 80016ee:	2208      	movs	r2, #8
 80016f0:	409a      	lsls	r2, r3
 80016f2:	0013      	movs	r3, r2
 80016f4:	68fa      	ldr	r2, [r7, #12]
 80016f6:	4013      	ands	r3, r2
 80016f8:	d02a      	beq.n	8001750 <HAL_DMA_IRQHandler+0x154>
 80016fa:	68bb      	ldr	r3, [r7, #8]
 80016fc:	2208      	movs	r2, #8
 80016fe:	4013      	ands	r3, r2
 8001700:	d026      	beq.n	8001750 <HAL_DMA_IRQHandler+0x154>
  {
    /* When a DMA transfer error occurs */
    /* A hardware clear of its EN bits is performed */
    /* Disable ALL DMA IT */
    __HAL_DMA_DISABLE_IT(hdma, (DMA_IT_TC | DMA_IT_HT | DMA_IT_TE));
 8001702:	687b      	ldr	r3, [r7, #4]
 8001704:	681b      	ldr	r3, [r3, #0]
 8001706:	681a      	ldr	r2, [r3, #0]
 8001708:	687b      	ldr	r3, [r7, #4]
 800170a:	681b      	ldr	r3, [r3, #0]
 800170c:	210e      	movs	r1, #14
 800170e:	438a      	bics	r2, r1
 8001710:	601a      	str	r2, [r3, #0]

    /* Clear all flags */
    hdma->DmaBaseAddress->IFCR = (DMA_ISR_GIF1 << (hdma->ChannelIndex & 0x1cU));
 8001712:	687b      	ldr	r3, [r7, #4]
 8001714:	6c5b      	ldr	r3, [r3, #68]	; 0x44
 8001716:	221c      	movs	r2, #28
 8001718:	401a      	ands	r2, r3
 800171a:	687b      	ldr	r3, [r7, #4]
 800171c:	6c1b      	ldr	r3, [r3, #64]	; 0x40
 800171e:	2101      	movs	r1, #1
 8001720:	4091      	lsls	r1, r2
 8001722:	000a      	movs	r2, r1
 8001724:	605a      	str	r2, [r3, #4]

    /* Update error code */
    hdma->ErrorCode = HAL_DMA_ERROR_TE;
 8001726:	687b      	ldr	r3, [r7, #4]
 8001728:	2201      	movs	r2, #1
 800172a:	63da      	str	r2, [r3, #60]	; 0x3c

    /* Change the DMA state */
    hdma->State = HAL_DMA_STATE_READY;
 800172c:	687b      	ldr	r3, [r7, #4]
 800172e:	2225      	movs	r2, #37	; 0x25
 8001730:	2101      	movs	r1, #1
 8001732:	5499      	strb	r1, [r3, r2]

    /* Process Unlocked */
    __HAL_UNLOCK(hdma);
 8001734:	687b      	ldr	r3, [r7, #4]
 8001736:	2224      	movs	r2, #36	; 0x24
 8001738:	2100      	movs	r1, #0
 800173a:	5499      	strb	r1, [r3, r2]

    if (hdma->XferErrorCallback != NULL)
 800173c:	687b      	ldr	r3, [r7, #4]
 800173e:	6b5b      	ldr	r3, [r3, #52]	; 0x34
 8001740:	2b00      	cmp	r3, #0
 8001742:	d005      	beq.n	8001750 <HAL_DMA_IRQHandler+0x154>
    {
      /* Transfer error callback */
      hdma->XferErrorCallback(hdma);
 8001744:	687b      	ldr	r3, [r7, #4]
 8001746:	6b5b      	ldr	r3, [r3, #52]	; 0x34
 8001748:	687a      	ldr	r2, [r7, #4]
 800174a:	0010      	movs	r0, r2
 800174c:	4798      	blx	r3
  }
  else
  {
    /* Nothing To Do */
  }
  return;
 800174e:	46c0      	nop			; (mov r8, r8)
 8001750:	46c0      	nop			; (mov r8, r8)
}
 8001752:	46bd      	mov	sp, r7
 8001754:	b004      	add	sp, #16
 8001756:	bd80      	pop	{r7, pc}

08001758 <DMA_SetConfig>:
  * @param  DstAddress The destination memory Buffer address
  * @param  DataLength The length of data to be transferred from source to destination
  * @retval HAL status
  */
static void DMA_SetConfig(DMA_HandleTypeDef *hdma, uint32_t SrcAddress, uint32_t DstAddress, uint32_t DataLength)
{
 8001758:	b580      	push	{r7, lr}
 800175a:	b084      	sub	sp, #16
 800175c:	af00      	add	r7, sp, #0
 800175e:	60f8      	str	r0, [r7, #12]
 8001760:	60b9      	str	r1, [r7, #8]
 8001762:	607a      	str	r2, [r7, #4]
 8001764:	603b      	str	r3, [r7, #0]
  /* Clear all flags */
  hdma->DmaBaseAddress->IFCR = (DMA_ISR_GIF1 << (hdma->ChannelIndex & 0x1cU));
 8001766:	68fb      	ldr	r3, [r7, #12]
 8001768:	6c5b      	ldr	r3, [r3, #68]	; 0x44
 800176a:	221c      	movs	r2, #28
 800176c:	401a      	ands	r2, r3
 800176e:	68fb      	ldr	r3, [r7, #12]
 8001770:	6c1b      	ldr	r3, [r3, #64]	; 0x40
 8001772:	2101      	movs	r1, #1
 8001774:	4091      	lsls	r1, r2
 8001776:	000a      	movs	r2, r1
 8001778:	605a      	str	r2, [r3, #4]

  /* Configure DMA Channel data length */
  hdma->Instance->CNDTR = DataLength;
 800177a:	68fb      	ldr	r3, [r7, #12]
 800177c:	681b      	ldr	r3, [r3, #0]
 800177e:	683a      	ldr	r2, [r7, #0]
 8001780:	605a      	str	r2, [r3, #4]

  /* Memory to Peripheral */
  if((hdma->Init.Direction) == DMA_MEMORY_TO_PERIPH)
 8001782:	68fb      	ldr	r3, [r7, #12]
 8001784:	689b      	ldr	r3, [r3, #8]
 8001786:	2b10      	cmp	r3, #16
 8001788:	d108      	bne.n	800179c <DMA_SetConfig+0x44>
  {
    /* Configure DMA Channel destination address */
    hdma->Instance->CPAR = DstAddress;
 800178a:	68fb      	ldr	r3, [r7, #12]
 800178c:	681b      	ldr	r3, [r3, #0]
 800178e:	687a      	ldr	r2, [r7, #4]
 8001790:	609a      	str	r2, [r3, #8]

    /* Configure DMA Channel source address */
    hdma->Instance->CMAR = SrcAddress;
 8001792:	68fb      	ldr	r3, [r7, #12]
 8001794:	681b      	ldr	r3, [r3, #0]
 8001796:	68ba      	ldr	r2, [r7, #8]
 8001798:	60da      	str	r2, [r3, #12]
    hdma->Instance->CPAR = SrcAddress;

    /* Configure DMA Channel destination address */
    hdma->Instance->CMAR = DstAddress;
  }
}
 800179a:	e007      	b.n	80017ac <DMA_SetConfig+0x54>
    hdma->Instance->CPAR = SrcAddress;
 800179c:	68fb      	ldr	r3, [r7, #12]
 800179e:	681b      	ldr	r3, [r3, #0]
 80017a0:	68ba      	ldr	r2, [r7, #8]
 80017a2:	609a      	str	r2, [r3, #8]
    hdma->Instance->CMAR = DstAddress;
 80017a4:	68fb      	ldr	r3, [r7, #12]
 80017a6:	681b      	ldr	r3, [r3, #0]
 80017a8:	687a      	ldr	r2, [r7, #4]
 80017aa:	60da      	str	r2, [r3, #12]
}
 80017ac:	46c0      	nop			; (mov r8, r8)
 80017ae:	46bd      	mov	sp, r7
 80017b0:	b004      	add	sp, #16
 80017b2:	bd80      	pop	{r7, pc}

080017b4 <HAL_GPIO_Init>:
  * @param  GPIO_Init pointer to a GPIO_InitTypeDef structure that contains
  *                    the configuration information for the specified GPIO peripheral.
  * @retval None
  */
void HAL_GPIO_Init(GPIO_TypeDef  *GPIOx, GPIO_InitTypeDef *GPIO_Init)
{
 80017b4:	b580      	push	{r7, lr}
 80017b6:	b086      	sub	sp, #24
 80017b8:	af00      	add	r7, sp, #0
 80017ba:	6078      	str	r0, [r7, #4]
 80017bc:	6039      	str	r1, [r7, #0]
  uint32_t position = 0x00U;
 80017be:	2300      	movs	r3, #0
 80017c0:	617b      	str	r3, [r7, #20]
  uint32_t iocurrent = 0x00U;
 80017c2:	2300      	movs	r3, #0
 80017c4:	60fb      	str	r3, [r7, #12]
  uint32_t temp = 0x00U;
 80017c6:	2300      	movs	r3, #0
 80017c8:	613b      	str	r3, [r7, #16]
  assert_param(IS_GPIO_MODE(GPIO_Init->Mode));
  assert_param(IS_GPIO_PULL(GPIO_Init->Pull));
  assert_param(IS_GPIO_PIN_AVAILABLE(GPIOx,(GPIO_Init->Pin)));

  /* Configure the port pins */
  while (((GPIO_Init->Pin) >> position) != 0)
 80017ca:	e143      	b.n	8001a54 <HAL_GPIO_Init+0x2a0>
  {
    /* Get the IO position */
    iocurrent = (GPIO_Init->Pin) & (1U << position);
 80017cc:	683b      	ldr	r3, [r7, #0]
 80017ce:	681b      	ldr	r3, [r3, #0]
 80017d0:	2101      	movs	r1, #1
 80017d2:	697a      	ldr	r2, [r7, #20]
 80017d4:	4091      	lsls	r1, r2
 80017d6:	000a      	movs	r2, r1
 80017d8:	4013      	ands	r3, r2
 80017da:	60fb      	str	r3, [r7, #12]
    
    if(iocurrent)
 80017dc:	68fb      	ldr	r3, [r7, #12]
 80017de:	2b00      	cmp	r3, #0
 80017e0:	d100      	bne.n	80017e4 <HAL_GPIO_Init+0x30>
 80017e2:	e134      	b.n	8001a4e <HAL_GPIO_Init+0x29a>
    {
      /*--------------------- GPIO Mode Configuration ------------------------*/
      /* In case of Alternate function mode selection */
      if((GPIO_Init->Mode == GPIO_MODE_AF_PP) || (GPIO_Init->Mode == GPIO_MODE_AF_OD)) 
 80017e4:	683b      	ldr	r3, [r7, #0]
 80017e6:	685b      	ldr	r3, [r3, #4]
 80017e8:	2b02      	cmp	r3, #2
 80017ea:	d003      	beq.n	80017f4 <HAL_GPIO_Init+0x40>
 80017ec:	683b      	ldr	r3, [r7, #0]
 80017ee:	685b      	ldr	r3, [r3, #4]
 80017f0:	2b12      	cmp	r3, #18
 80017f2:	d123      	bne.n	800183c <HAL_GPIO_Init+0x88>
        /* Check the Alternate function parameters */
        assert_param(IS_GPIO_AF_INSTANCE(GPIOx));
        assert_param(IS_GPIO_AF(GPIO_Init->Alternate));

        /* Configure Alternate function mapped with the current IO */ 
        temp = GPIOx->AFR[position >> 3U];
 80017f4:	697b      	ldr	r3, [r7, #20]
 80017f6:	08da      	lsrs	r2, r3, #3
 80017f8:	687b      	ldr	r3, [r7, #4]
 80017fa:	3208      	adds	r2, #8
 80017fc:	0092      	lsls	r2, r2, #2
 80017fe:	58d3      	ldr	r3, [r2, r3]
 8001800:	613b      	str	r3, [r7, #16]
        temp &= ~((uint32_t)0xFU << ((uint32_t)(position & (uint32_t)0x07U) * 4U)) ;
 8001802:	697b      	ldr	r3, [r7, #20]
 8001804:	2207      	movs	r2, #7
 8001806:	4013      	ands	r3, r2
 8001808:	009b      	lsls	r3, r3, #2
 800180a:	220f      	movs	r2, #15
 800180c:	409a      	lsls	r2, r3
 800180e:	0013      	movs	r3, r2
 8001810:	43da      	mvns	r2, r3
 8001812:	693b      	ldr	r3, [r7, #16]
 8001814:	4013      	ands	r3, r2
 8001816:	613b      	str	r3, [r7, #16]
        temp |= ((uint32_t)(GPIO_Init->Alternate) << (((uint32_t)position & (uint32_t)0x07U) * 4U)) ;
 8001818:	683b      	ldr	r3, [r7, #0]
 800181a:	691a      	ldr	r2, [r3, #16]
 800181c:	697b      	ldr	r3, [r7, #20]
 800181e:	2107      	movs	r1, #7
 8001820:	400b      	ands	r3, r1
 8001822:	009b      	lsls	r3, r3, #2
 8001824:	409a      	lsls	r2, r3
 8001826:	0013      	movs	r3, r2
 8001828:	693a      	ldr	r2, [r7, #16]
 800182a:	4313      	orrs	r3, r2
 800182c:	613b      	str	r3, [r7, #16]
        GPIOx->AFR[position >> 3U] = temp;
 800182e:	697b      	ldr	r3, [r7, #20]
 8001830:	08da      	lsrs	r2, r3, #3
 8001832:	687b      	ldr	r3, [r7, #4]
 8001834:	3208      	adds	r2, #8
 8001836:	0092      	lsls	r2, r2, #2
 8001838:	6939      	ldr	r1, [r7, #16]
 800183a:	50d1      	str	r1, [r2, r3]
      } 

      /* In case of Output or Alternate function mode selection */
      if((GPIO_Init->Mode == GPIO_MODE_OUTPUT_PP) || (GPIO_Init->Mode == GPIO_MODE_AF_PP) ||
 800183c:	683b      	ldr	r3, [r7, #0]
 800183e:	685b      	ldr	r3, [r3, #4]
 8001840:	2b01      	cmp	r3, #1
 8001842:	d00b      	beq.n	800185c <HAL_GPIO_Init+0xa8>
 8001844:	683b      	ldr	r3, [r7, #0]
 8001846:	685b      	ldr	r3, [r3, #4]
 8001848:	2b02      	cmp	r3, #2
 800184a:	d007      	beq.n	800185c <HAL_GPIO_Init+0xa8>
         (GPIO_Init->Mode == GPIO_MODE_OUTPUT_OD) || (GPIO_Init->Mode == GPIO_MODE_AF_OD))
 800184c:	683b      	ldr	r3, [r7, #0]
 800184e:	685b      	ldr	r3, [r3, #4]
      if((GPIO_Init->Mode == GPIO_MODE_OUTPUT_PP) || (GPIO_Init->Mode == GPIO_MODE_AF_PP) ||
 8001850:	2b11      	cmp	r3, #17
 8001852:	d003      	beq.n	800185c <HAL_GPIO_Init+0xa8>
         (GPIO_Init->Mode == GPIO_MODE_OUTPUT_OD) || (GPIO_Init->Mode == GPIO_MODE_AF_OD))
 8001854:	683b      	ldr	r3, [r7, #0]
 8001856:	685b      	ldr	r3, [r3, #4]
 8001858:	2b12      	cmp	r3, #18
 800185a:	d130      	bne.n	80018be <HAL_GPIO_Init+0x10a>
      {
        /* Check the Speed parameter */
        assert_param(IS_GPIO_SPEED(GPIO_Init->Speed));
        /* Configure the IO Speed */
        temp = GPIOx->OSPEEDR;
 800185c:	687b      	ldr	r3, [r7, #4]
 800185e:	689b      	ldr	r3, [r3, #8]
 8001860:	613b      	str	r3, [r7, #16]
        temp &= ~(GPIO_OSPEEDER_OSPEED0 << (position * 2U));
 8001862:	697b      	ldr	r3, [r7, #20]
 8001864:	005b      	lsls	r3, r3, #1
 8001866:	2203      	movs	r2, #3
 8001868:	409a      	lsls	r2, r3
 800186a:	0013      	movs	r3, r2
 800186c:	43da      	mvns	r2, r3
 800186e:	693b      	ldr	r3, [r7, #16]
 8001870:	4013      	ands	r3, r2
 8001872:	613b      	str	r3, [r7, #16]
        temp |= (GPIO_Init->Speed << (position * 2U));
 8001874:	683b      	ldr	r3, [r7, #0]
 8001876:	68da      	ldr	r2, [r3, #12]
 8001878:	697b      	ldr	r3, [r7, #20]
 800187a:	005b      	lsls	r3, r3, #1
 800187c:	409a      	lsls	r2, r3
 800187e:	0013      	movs	r3, r2
 8001880:	693a      	ldr	r2, [r7, #16]
 8001882:	4313      	orrs	r3, r2
 8001884:	613b      	str	r3, [r7, #16]
        GPIOx->OSPEEDR = temp;
 8001886:	687b      	ldr	r3, [r7, #4]
 8001888:	693a      	ldr	r2, [r7, #16]
 800188a:	609a      	str	r2, [r3, #8]

        /* Configure the IO Output Type */
        temp= GPIOx->OTYPER;
 800188c:	687b      	ldr	r3, [r7, #4]
 800188e:	685b      	ldr	r3, [r3, #4]
 8001890:	613b      	str	r3, [r7, #16]
        temp &= ~(GPIO_OTYPER_OT_0 << position) ;
 8001892:	2201      	movs	r2, #1
 8001894:	697b      	ldr	r3, [r7, #20]
 8001896:	409a      	lsls	r2, r3
 8001898:	0013      	movs	r3, r2
 800189a:	43da      	mvns	r2, r3
 800189c:	693b      	ldr	r3, [r7, #16]
 800189e:	4013      	ands	r3, r2
 80018a0:	613b      	str	r3, [r7, #16]
        temp |= (((GPIO_Init->Mode & GPIO_OUTPUT_TYPE) >> 4U) << position);
 80018a2:	683b      	ldr	r3, [r7, #0]
 80018a4:	685b      	ldr	r3, [r3, #4]
 80018a6:	091b      	lsrs	r3, r3, #4
 80018a8:	2201      	movs	r2, #1
 80018aa:	401a      	ands	r2, r3
 80018ac:	697b      	ldr	r3, [r7, #20]
 80018ae:	409a      	lsls	r2, r3
 80018b0:	0013      	movs	r3, r2
 80018b2:	693a      	ldr	r2, [r7, #16]
 80018b4:	4313      	orrs	r3, r2
 80018b6:	613b      	str	r3, [r7, #16]
        GPIOx->OTYPER = temp;
 80018b8:	687b      	ldr	r3, [r7, #4]
 80018ba:	693a      	ldr	r2, [r7, #16]
 80018bc:	605a      	str	r2, [r3, #4]
      }

      /* Configure IO Direction mode (Input, Output, Alternate or Analog) */
      temp = GPIOx->MODER;
 80018be:	687b      	ldr	r3, [r7, #4]
 80018c0:	681b      	ldr	r3, [r3, #0]
 80018c2:	613b      	str	r3, [r7, #16]
      temp &= ~(GPIO_MODER_MODE0 << (position * 2U));
 80018c4:	697b      	ldr	r3, [r7, #20]
 80018c6:	005b      	lsls	r3, r3, #1
 80018c8:	2203      	movs	r2, #3
 80018ca:	409a      	lsls	r2, r3
 80018cc:	0013      	movs	r3, r2
 80018ce:	43da      	mvns	r2, r3
 80018d0:	693b      	ldr	r3, [r7, #16]
 80018d2:	4013      	ands	r3, r2
 80018d4:	613b      	str	r3, [r7, #16]
      temp |= ((GPIO_Init->Mode & GPIO_MODE) << (position * 2U));
 80018d6:	683b      	ldr	r3, [r7, #0]
 80018d8:	685b      	ldr	r3, [r3, #4]
 80018da:	2203      	movs	r2, #3
 80018dc:	401a      	ands	r2, r3
 80018de:	697b      	ldr	r3, [r7, #20]
 80018e0:	005b      	lsls	r3, r3, #1
 80018e2:	409a      	lsls	r2, r3
 80018e4:	0013      	movs	r3, r2
 80018e6:	693a      	ldr	r2, [r7, #16]
 80018e8:	4313      	orrs	r3, r2
 80018ea:	613b      	str	r3, [r7, #16]
      GPIOx->MODER = temp;
 80018ec:	687b      	ldr	r3, [r7, #4]
 80018ee:	693a      	ldr	r2, [r7, #16]
 80018f0:	601a      	str	r2, [r3, #0]

      /* Activate the Pull-up or Pull down resistor for the current IO */
      temp = GPIOx->PUPDR;
 80018f2:	687b      	ldr	r3, [r7, #4]
 80018f4:	68db      	ldr	r3, [r3, #12]
 80018f6:	613b      	str	r3, [r7, #16]
      temp &= ~(GPIO_PUPDR_PUPD0 << (position * 2U));
 80018f8:	697b      	ldr	r3, [r7, #20]
 80018fa:	005b      	lsls	r3, r3, #1
 80018fc:	2203      	movs	r2, #3
 80018fe:	409a      	lsls	r2, r3
 8001900:	0013      	movs	r3, r2
 8001902:	43da      	mvns	r2, r3
 8001904:	693b      	ldr	r3, [r7, #16]
 8001906:	4013      	ands	r3, r2
 8001908:	613b      	str	r3, [r7, #16]
      temp |= ((GPIO_Init->Pull) << (position * 2U)); 
 800190a:	683b      	ldr	r3, [r7, #0]
 800190c:	689a      	ldr	r2, [r3, #8]
 800190e:	697b      	ldr	r3, [r7, #20]
 8001910:	005b      	lsls	r3, r3, #1
 8001912:	409a      	lsls	r2, r3
 8001914:	0013      	movs	r3, r2
 8001916:	693a      	ldr	r2, [r7, #16]
 8001918:	4313      	orrs	r3, r2
 800191a:	613b      	str	r3, [r7, #16]
      GPIOx->PUPDR = temp;
 800191c:	687b      	ldr	r3, [r7, #4]
 800191e:	693a      	ldr	r2, [r7, #16]
 8001920:	60da      	str	r2, [r3, #12]

      /*--------------------- EXTI Mode Configuration ------------------------*/
      /* Configure the External Interrupt or event for the current IO */
      if((GPIO_Init->Mode & EXTI_MODE) == EXTI_MODE) 
 8001922:	683b      	ldr	r3, [r7, #0]
 8001924:	685a      	ldr	r2, [r3, #4]
 8001926:	2380      	movs	r3, #128	; 0x80
 8001928:	055b      	lsls	r3, r3, #21
 800192a:	4013      	ands	r3, r2
 800192c:	d100      	bne.n	8001930 <HAL_GPIO_Init+0x17c>
 800192e:	e08e      	b.n	8001a4e <HAL_GPIO_Init+0x29a>
      {
        /* Enable SYSCFG Clock */
        __HAL_RCC_SYSCFG_CLK_ENABLE();
 8001930:	4b4e      	ldr	r3, [pc, #312]	; (8001a6c <HAL_GPIO_Init+0x2b8>)
 8001932:	6b5a      	ldr	r2, [r3, #52]	; 0x34
 8001934:	4b4d      	ldr	r3, [pc, #308]	; (8001a6c <HAL_GPIO_Init+0x2b8>)
 8001936:	2101      	movs	r1, #1
 8001938:	430a      	orrs	r2, r1
 800193a:	635a      	str	r2, [r3, #52]	; 0x34
        
        temp = SYSCFG->EXTICR[position >> 2U];
 800193c:	4a4c      	ldr	r2, [pc, #304]	; (8001a70 <HAL_GPIO_Init+0x2bc>)
 800193e:	697b      	ldr	r3, [r7, #20]
 8001940:	089b      	lsrs	r3, r3, #2
 8001942:	3302      	adds	r3, #2
 8001944:	009b      	lsls	r3, r3, #2
 8001946:	589b      	ldr	r3, [r3, r2]
 8001948:	613b      	str	r3, [r7, #16]
        CLEAR_BIT(temp, ((uint32_t)0x0FU) << (4U * (position & 0x03U)));
 800194a:	697b      	ldr	r3, [r7, #20]
 800194c:	2203      	movs	r2, #3
 800194e:	4013      	ands	r3, r2
 8001950:	009b      	lsls	r3, r3, #2
 8001952:	220f      	movs	r2, #15
 8001954:	409a      	lsls	r2, r3
 8001956:	0013      	movs	r3, r2
 8001958:	43da      	mvns	r2, r3
 800195a:	693b      	ldr	r3, [r7, #16]
 800195c:	4013      	ands	r3, r2
 800195e:	613b      	str	r3, [r7, #16]
        SET_BIT(temp, (GPIO_GET_INDEX(GPIOx)) << (4 * (position & 0x03U)));
 8001960:	687a      	ldr	r2, [r7, #4]
 8001962:	23a0      	movs	r3, #160	; 0xa0
 8001964:	05db      	lsls	r3, r3, #23
 8001966:	429a      	cmp	r2, r3
 8001968:	d00d      	beq.n	8001986 <HAL_GPIO_Init+0x1d2>
 800196a:	687b      	ldr	r3, [r7, #4]
 800196c:	4a41      	ldr	r2, [pc, #260]	; (8001a74 <HAL_GPIO_Init+0x2c0>)
 800196e:	4293      	cmp	r3, r2
 8001970:	d007      	beq.n	8001982 <HAL_GPIO_Init+0x1ce>
 8001972:	687b      	ldr	r3, [r7, #4]
 8001974:	4a40      	ldr	r2, [pc, #256]	; (8001a78 <HAL_GPIO_Init+0x2c4>)
 8001976:	4293      	cmp	r3, r2
 8001978:	d101      	bne.n	800197e <HAL_GPIO_Init+0x1ca>
 800197a:	2302      	movs	r3, #2
 800197c:	e004      	b.n	8001988 <HAL_GPIO_Init+0x1d4>
 800197e:	2306      	movs	r3, #6
 8001980:	e002      	b.n	8001988 <HAL_GPIO_Init+0x1d4>
 8001982:	2301      	movs	r3, #1
 8001984:	e000      	b.n	8001988 <HAL_GPIO_Init+0x1d4>
 8001986:	2300      	movs	r3, #0
 8001988:	697a      	ldr	r2, [r7, #20]
 800198a:	2103      	movs	r1, #3
 800198c:	400a      	ands	r2, r1
 800198e:	0092      	lsls	r2, r2, #2
 8001990:	4093      	lsls	r3, r2
 8001992:	693a      	ldr	r2, [r7, #16]
 8001994:	4313      	orrs	r3, r2
 8001996:	613b      	str	r3, [r7, #16]
        SYSCFG->EXTICR[position >> 2U] = temp;
 8001998:	4935      	ldr	r1, [pc, #212]	; (8001a70 <HAL_GPIO_Init+0x2bc>)
 800199a:	697b      	ldr	r3, [r7, #20]
 800199c:	089b      	lsrs	r3, r3, #2
 800199e:	3302      	adds	r3, #2
 80019a0:	009b      	lsls	r3, r3, #2
 80019a2:	693a      	ldr	r2, [r7, #16]
 80019a4:	505a      	str	r2, [r3, r1]
                  
        /* Clear EXTI line configuration */
        temp = EXTI->IMR;
 80019a6:	4b35      	ldr	r3, [pc, #212]	; (8001a7c <HAL_GPIO_Init+0x2c8>)
 80019a8:	681b      	ldr	r3, [r3, #0]
 80019aa:	613b      	str	r3, [r7, #16]
        temp &= ~((uint32_t)iocurrent);
 80019ac:	68fb      	ldr	r3, [r7, #12]
 80019ae:	43da      	mvns	r2, r3
 80019b0:	693b      	ldr	r3, [r7, #16]
 80019b2:	4013      	ands	r3, r2
 80019b4:	613b      	str	r3, [r7, #16]
        if((GPIO_Init->Mode & GPIO_MODE_IT) == GPIO_MODE_IT)
 80019b6:	683b      	ldr	r3, [r7, #0]
 80019b8:	685a      	ldr	r2, [r3, #4]
 80019ba:	2380      	movs	r3, #128	; 0x80
 80019bc:	025b      	lsls	r3, r3, #9
 80019be:	4013      	ands	r3, r2
 80019c0:	d003      	beq.n	80019ca <HAL_GPIO_Init+0x216>
        {
          temp |= iocurrent;
 80019c2:	693a      	ldr	r2, [r7, #16]
 80019c4:	68fb      	ldr	r3, [r7, #12]
 80019c6:	4313      	orrs	r3, r2
 80019c8:	613b      	str	r3, [r7, #16]
        }
        EXTI->IMR = temp;
 80019ca:	4b2c      	ldr	r3, [pc, #176]	; (8001a7c <HAL_GPIO_Init+0x2c8>)
 80019cc:	693a      	ldr	r2, [r7, #16]
 80019ce:	601a      	str	r2, [r3, #0]

        temp = EXTI->EMR;
 80019d0:	4b2a      	ldr	r3, [pc, #168]	; (8001a7c <HAL_GPIO_Init+0x2c8>)
 80019d2:	685b      	ldr	r3, [r3, #4]
 80019d4:	613b      	str	r3, [r7, #16]
        temp &= ~((uint32_t)iocurrent);
 80019d6:	68fb      	ldr	r3, [r7, #12]
 80019d8:	43da      	mvns	r2, r3
 80019da:	693b      	ldr	r3, [r7, #16]
 80019dc:	4013      	ands	r3, r2
 80019de:	613b      	str	r3, [r7, #16]
        if((GPIO_Init->Mode & GPIO_MODE_EVT) == GPIO_MODE_EVT)
 80019e0:	683b      	ldr	r3, [r7, #0]
 80019e2:	685a      	ldr	r2, [r3, #4]
 80019e4:	2380      	movs	r3, #128	; 0x80
 80019e6:	029b      	lsls	r3, r3, #10
 80019e8:	4013      	ands	r3, r2
 80019ea:	d003      	beq.n	80019f4 <HAL_GPIO_Init+0x240>
        {
          temp |= iocurrent;
 80019ec:	693a      	ldr	r2, [r7, #16]
 80019ee:	68fb      	ldr	r3, [r7, #12]
 80019f0:	4313      	orrs	r3, r2
 80019f2:	613b      	str	r3, [r7, #16]
        }
        EXTI->EMR = temp;
 80019f4:	4b21      	ldr	r3, [pc, #132]	; (8001a7c <HAL_GPIO_Init+0x2c8>)
 80019f6:	693a      	ldr	r2, [r7, #16]
 80019f8:	605a      	str	r2, [r3, #4]

        /* Clear Rising Falling edge configuration */
        temp = EXTI->RTSR;
 80019fa:	4b20      	ldr	r3, [pc, #128]	; (8001a7c <HAL_GPIO_Init+0x2c8>)
 80019fc:	689b      	ldr	r3, [r3, #8]
 80019fe:	613b      	str	r3, [r7, #16]
        temp &= ~((uint32_t)iocurrent);
 8001a00:	68fb      	ldr	r3, [r7, #12]
 8001a02:	43da      	mvns	r2, r3
 8001a04:	693b      	ldr	r3, [r7, #16]
 8001a06:	4013      	ands	r3, r2
 8001a08:	613b      	str	r3, [r7, #16]
        if((GPIO_Init->Mode & RISING_EDGE) == RISING_EDGE)
 8001a0a:	683b      	ldr	r3, [r7, #0]
 8001a0c:	685a      	ldr	r2, [r3, #4]
 8001a0e:	2380      	movs	r3, #128	; 0x80
 8001a10:	035b      	lsls	r3, r3, #13
 8001a12:	4013      	ands	r3, r2
 8001a14:	d003      	beq.n	8001a1e <HAL_GPIO_Init+0x26a>
        {
          temp |= iocurrent;
 8001a16:	693a      	ldr	r2, [r7, #16]
 8001a18:	68fb      	ldr	r3, [r7, #12]
 8001a1a:	4313      	orrs	r3, r2
 8001a1c:	613b      	str	r3, [r7, #16]
        }
        EXTI->RTSR = temp;
 8001a1e:	4b17      	ldr	r3, [pc, #92]	; (8001a7c <HAL_GPIO_Init+0x2c8>)
 8001a20:	693a      	ldr	r2, [r7, #16]
 8001a22:	609a      	str	r2, [r3, #8]

        temp = EXTI->FTSR;
 8001a24:	4b15      	ldr	r3, [pc, #84]	; (8001a7c <HAL_GPIO_Init+0x2c8>)
 8001a26:	68db      	ldr	r3, [r3, #12]
 8001a28:	613b      	str	r3, [r7, #16]
        temp &= ~((uint32_t)iocurrent);
 8001a2a:	68fb      	ldr	r3, [r7, #12]
 8001a2c:	43da      	mvns	r2, r3
 8001a2e:	693b      	ldr	r3, [r7, #16]
 8001a30:	4013      	ands	r3, r2
 8001a32:	613b      	str	r3, [r7, #16]
        if((GPIO_Init->Mode & FALLING_EDGE) == FALLING_EDGE)
 8001a34:	683b      	ldr	r3, [r7, #0]
 8001a36:	685a      	ldr	r2, [r3, #4]
 8001a38:	2380      	movs	r3, #128	; 0x80
 8001a3a:	039b      	lsls	r3, r3, #14
 8001a3c:	4013      	ands	r3, r2
 8001a3e:	d003      	beq.n	8001a48 <HAL_GPIO_Init+0x294>
        {
          temp |= iocurrent;
 8001a40:	693a      	ldr	r2, [r7, #16]
 8001a42:	68fb      	ldr	r3, [r7, #12]
 8001a44:	4313      	orrs	r3, r2
 8001a46:	613b      	str	r3, [r7, #16]
        }
        EXTI->FTSR = temp;
 8001a48:	4b0c      	ldr	r3, [pc, #48]	; (8001a7c <HAL_GPIO_Init+0x2c8>)
 8001a4a:	693a      	ldr	r2, [r7, #16]
 8001a4c:	60da      	str	r2, [r3, #12]
      }
    }
    position++;
 8001a4e:	697b      	ldr	r3, [r7, #20]
 8001a50:	3301      	adds	r3, #1
 8001a52:	617b      	str	r3, [r7, #20]
  while (((GPIO_Init->Pin) >> position) != 0)
 8001a54:	683b      	ldr	r3, [r7, #0]
 8001a56:	681a      	ldr	r2, [r3, #0]
 8001a58:	697b      	ldr	r3, [r7, #20]
 8001a5a:	40da      	lsrs	r2, r3
 8001a5c:	1e13      	subs	r3, r2, #0
 8001a5e:	d000      	beq.n	8001a62 <HAL_GPIO_Init+0x2ae>
 8001a60:	e6b4      	b.n	80017cc <HAL_GPIO_Init+0x18>
  }
}
 8001a62:	46c0      	nop			; (mov r8, r8)
 8001a64:	46bd      	mov	sp, r7
 8001a66:	b006      	add	sp, #24
 8001a68:	bd80      	pop	{r7, pc}
 8001a6a:	46c0      	nop			; (mov r8, r8)
 8001a6c:	40021000 	.word	0x40021000
 8001a70:	40010000 	.word	0x40010000
 8001a74:	50000400 	.word	0x50000400
 8001a78:	50000800 	.word	0x50000800
 8001a7c:	40010400 	.word	0x40010400

08001a80 <HAL_GPIO_WritePin>:
  *                        GPIO_PIN_RESET: to clear the port pin
  *                        GPIO_PIN_SET: to set the port pin
  * @retval None
  */
void HAL_GPIO_WritePin(GPIO_TypeDef* GPIOx, uint16_t GPIO_Pin, GPIO_PinState PinState)
{
 8001a80:	b580      	push	{r7, lr}
 8001a82:	b082      	sub	sp, #8
 8001a84:	af00      	add	r7, sp, #0
 8001a86:	6078      	str	r0, [r7, #4]
 8001a88:	0008      	movs	r0, r1
 8001a8a:	0011      	movs	r1, r2
 8001a8c:	1cbb      	adds	r3, r7, #2
 8001a8e:	1c02      	adds	r2, r0, #0
 8001a90:	801a      	strh	r2, [r3, #0]
 8001a92:	1c7b      	adds	r3, r7, #1
 8001a94:	1c0a      	adds	r2, r1, #0
 8001a96:	701a      	strb	r2, [r3, #0]
  /* Check the parameters */
  assert_param(IS_GPIO_PIN_AVAILABLE(GPIOx,GPIO_Pin));
  assert_param(IS_GPIO_PIN_ACTION(PinState));
  
  if(PinState != GPIO_PIN_RESET)
 8001a98:	1c7b      	adds	r3, r7, #1
 8001a9a:	781b      	ldrb	r3, [r3, #0]
 8001a9c:	2b00      	cmp	r3, #0
 8001a9e:	d004      	beq.n	8001aaa <HAL_GPIO_WritePin+0x2a>
  {
    GPIOx->BSRR = GPIO_Pin;
 8001aa0:	1cbb      	adds	r3, r7, #2
 8001aa2:	881a      	ldrh	r2, [r3, #0]
 8001aa4:	687b      	ldr	r3, [r7, #4]
 8001aa6:	619a      	str	r2, [r3, #24]
  }
  else
  {
    GPIOx->BRR = GPIO_Pin ;
  }
}
 8001aa8:	e003      	b.n	8001ab2 <HAL_GPIO_WritePin+0x32>
    GPIOx->BRR = GPIO_Pin ;
 8001aaa:	1cbb      	adds	r3, r7, #2
 8001aac:	881a      	ldrh	r2, [r3, #0]
 8001aae:	687b      	ldr	r3, [r7, #4]
 8001ab0:	629a      	str	r2, [r3, #40]	; 0x28
}
 8001ab2:	46c0      	nop			; (mov r8, r8)
 8001ab4:	46bd      	mov	sp, r7
 8001ab6:	b002      	add	sp, #8
 8001ab8:	bd80      	pop	{r7, pc}

08001aba <HAL_GPIO_TogglePin>:
  *                All port bits are not necessarily available on all GPIOs.
  * @param  GPIO_Pin Specifies the pins to be toggled.
  * @retval None
  */
void HAL_GPIO_TogglePin(GPIO_TypeDef* GPIOx, uint16_t GPIO_Pin)
{
 8001aba:	b580      	push	{r7, lr}
 8001abc:	b082      	sub	sp, #8
 8001abe:	af00      	add	r7, sp, #0
 8001ac0:	6078      	str	r0, [r7, #4]
 8001ac2:	000a      	movs	r2, r1
 8001ac4:	1cbb      	adds	r3, r7, #2
 8001ac6:	801a      	strh	r2, [r3, #0]
  /* Check the parameters */
  assert_param(IS_GPIO_PIN_AVAILABLE(GPIOx,GPIO_Pin));

  GPIOx->ODR ^= GPIO_Pin;
 8001ac8:	687b      	ldr	r3, [r7, #4]
 8001aca:	695a      	ldr	r2, [r3, #20]
 8001acc:	1cbb      	adds	r3, r7, #2
 8001ace:	881b      	ldrh	r3, [r3, #0]
 8001ad0:	405a      	eors	r2, r3
 8001ad2:	687b      	ldr	r3, [r7, #4]
 8001ad4:	615a      	str	r2, [r3, #20]
}
 8001ad6:	46c0      	nop			; (mov r8, r8)
 8001ad8:	46bd      	mov	sp, r7
 8001ada:	b002      	add	sp, #8
 8001adc:	bd80      	pop	{r7, pc}
	...

08001ae0 <HAL_GPIO_EXTI_IRQHandler>:
  * @brief  This function handles EXTI interrupt request.
  * @param  GPIO_Pin Specifies the pins connected to the EXTI line.
  * @retval None
  */
void HAL_GPIO_EXTI_IRQHandler(uint16_t GPIO_Pin)
{
 8001ae0:	b580      	push	{r7, lr}
 8001ae2:	b082      	sub	sp, #8
 8001ae4:	af00      	add	r7, sp, #0
 8001ae6:	0002      	movs	r2, r0
 8001ae8:	1dbb      	adds	r3, r7, #6
 8001aea:	801a      	strh	r2, [r3, #0]
  /* EXTI line interrupt detected */
  if(__HAL_GPIO_EXTI_GET_IT(GPIO_Pin) != RESET) 
 8001aec:	4b09      	ldr	r3, [pc, #36]	; (8001b14 <HAL_GPIO_EXTI_IRQHandler+0x34>)
 8001aee:	695b      	ldr	r3, [r3, #20]
 8001af0:	1dba      	adds	r2, r7, #6
 8001af2:	8812      	ldrh	r2, [r2, #0]
 8001af4:	4013      	ands	r3, r2
 8001af6:	d008      	beq.n	8001b0a <HAL_GPIO_EXTI_IRQHandler+0x2a>
  { 
    __HAL_GPIO_EXTI_CLEAR_IT(GPIO_Pin);
 8001af8:	4b06      	ldr	r3, [pc, #24]	; (8001b14 <HAL_GPIO_EXTI_IRQHandler+0x34>)
 8001afa:	1dba      	adds	r2, r7, #6
 8001afc:	8812      	ldrh	r2, [r2, #0]
 8001afe:	615a      	str	r2, [r3, #20]
    HAL_GPIO_EXTI_Callback(GPIO_Pin);
 8001b00:	1dbb      	adds	r3, r7, #6
 8001b02:	881b      	ldrh	r3, [r3, #0]
 8001b04:	0018      	movs	r0, r3
 8001b06:	f000 f807 	bl	8001b18 <HAL_GPIO_EXTI_Callback>
  }
}
 8001b0a:	46c0      	nop			; (mov r8, r8)
 8001b0c:	46bd      	mov	sp, r7
 8001b0e:	b002      	add	sp, #8
 8001b10:	bd80      	pop	{r7, pc}
 8001b12:	46c0      	nop			; (mov r8, r8)
 8001b14:	40010400 	.word	0x40010400

08001b18 <HAL_GPIO_EXTI_Callback>:
  * @brief  EXTI line detection callbacks.
  * @param  GPIO_Pin Specifies the pins connected to the EXTI line.
  * @retval None
  */
__weak void HAL_GPIO_EXTI_Callback(uint16_t GPIO_Pin)
{
 8001b18:	b580      	push	{r7, lr}
 8001b1a:	b082      	sub	sp, #8
 8001b1c:	af00      	add	r7, sp, #0
 8001b1e:	0002      	movs	r2, r0
 8001b20:	1dbb      	adds	r3, r7, #6
 8001b22:	801a      	strh	r2, [r3, #0]
  UNUSED(GPIO_Pin);

  /* NOTE: This function Should not be modified, when the callback is needed,
           the HAL_GPIO_EXTI_Callback could be implemented in the user file
   */ 
}
 8001b24:	46c0      	nop			; (mov r8, r8)
 8001b26:	46bd      	mov	sp, r7
 8001b28:	b002      	add	sp, #8
 8001b2a:	bd80      	pop	{r7, pc}

08001b2c <HAL_RCC_OscConfig>:
  *         supported by this macro. User should request a transition to HSE Off
  *         first and then HSE On or HSE Bypass.
  * @retval HAL status
  */
HAL_StatusTypeDef HAL_RCC_OscConfig(RCC_OscInitTypeDef  *RCC_OscInitStruct)
{
 8001b2c:	b5b0      	push	{r4, r5, r7, lr}
 8001b2e:	b08a      	sub	sp, #40	; 0x28
 8001b30:	af00      	add	r7, sp, #0
 8001b32:	6078      	str	r0, [r7, #4]
  uint32_t hsi_state;
  HAL_StatusTypeDef status;
  uint32_t sysclk_source, pll_config;

  /* Check the parameters */
  if(RCC_OscInitStruct == NULL)
 8001b34:	687b      	ldr	r3, [r7, #4]
 8001b36:	2b00      	cmp	r3, #0
 8001b38:	d102      	bne.n	8001b40 <HAL_RCC_OscConfig+0x14>
  {
    return HAL_ERROR;
 8001b3a:	2301      	movs	r3, #1
 8001b3c:	f000 fb6a 	bl	8002214 <HAL_RCC_OscConfig+0x6e8>
  }

  assert_param(IS_RCC_OSCILLATORTYPE(RCC_OscInitStruct->OscillatorType));

  sysclk_source = __HAL_RCC_GET_SYSCLK_SOURCE();
 8001b40:	4bc7      	ldr	r3, [pc, #796]	; (8001e60 <HAL_RCC_OscConfig+0x334>)
 8001b42:	68db      	ldr	r3, [r3, #12]
 8001b44:	220c      	movs	r2, #12
 8001b46:	4013      	ands	r3, r2
 8001b48:	61fb      	str	r3, [r7, #28]
  pll_config = __HAL_RCC_GET_PLL_OSCSOURCE();
 8001b4a:	4bc5      	ldr	r3, [pc, #788]	; (8001e60 <HAL_RCC_OscConfig+0x334>)
 8001b4c:	68da      	ldr	r2, [r3, #12]
 8001b4e:	2380      	movs	r3, #128	; 0x80
 8001b50:	025b      	lsls	r3, r3, #9
 8001b52:	4013      	ands	r3, r2
 8001b54:	61bb      	str	r3, [r7, #24]

  /*------------------------------- HSE Configuration ------------------------*/
  if(((RCC_OscInitStruct->OscillatorType) & RCC_OSCILLATORTYPE_HSE) == RCC_OSCILLATORTYPE_HSE)
 8001b56:	687b      	ldr	r3, [r7, #4]
 8001b58:	681b      	ldr	r3, [r3, #0]
 8001b5a:	2201      	movs	r2, #1
 8001b5c:	4013      	ands	r3, r2
 8001b5e:	d100      	bne.n	8001b62 <HAL_RCC_OscConfig+0x36>
 8001b60:	e07d      	b.n	8001c5e <HAL_RCC_OscConfig+0x132>
  {
    /* Check the parameters */
    assert_param(IS_RCC_HSE(RCC_OscInitStruct->HSEState));

    /* When the HSE is used as system clock or clock source for PLL in these cases it is not allowed to be disabled */
    if((sysclk_source == RCC_SYSCLKSOURCE_STATUS_HSE)
 8001b62:	69fb      	ldr	r3, [r7, #28]
 8001b64:	2b08      	cmp	r3, #8
 8001b66:	d007      	beq.n	8001b78 <HAL_RCC_OscConfig+0x4c>
       || ((sysclk_source == RCC_SYSCLKSOURCE_STATUS_PLLCLK) && (pll_config == RCC_PLLSOURCE_HSE)))
 8001b68:	69fb      	ldr	r3, [r7, #28]
 8001b6a:	2b0c      	cmp	r3, #12
 8001b6c:	d112      	bne.n	8001b94 <HAL_RCC_OscConfig+0x68>
 8001b6e:	69ba      	ldr	r2, [r7, #24]
 8001b70:	2380      	movs	r3, #128	; 0x80
 8001b72:	025b      	lsls	r3, r3, #9
 8001b74:	429a      	cmp	r2, r3
 8001b76:	d10d      	bne.n	8001b94 <HAL_RCC_OscConfig+0x68>
    {
      if((__HAL_RCC_GET_FLAG(RCC_FLAG_HSERDY) != 0U) && (RCC_OscInitStruct->HSEState == RCC_HSE_OFF))
 8001b78:	4bb9      	ldr	r3, [pc, #740]	; (8001e60 <HAL_RCC_OscConfig+0x334>)
 8001b7a:	681a      	ldr	r2, [r3, #0]
 8001b7c:	2380      	movs	r3, #128	; 0x80
 8001b7e:	029b      	lsls	r3, r3, #10
 8001b80:	4013      	ands	r3, r2
 8001b82:	d100      	bne.n	8001b86 <HAL_RCC_OscConfig+0x5a>
 8001b84:	e06a      	b.n	8001c5c <HAL_RCC_OscConfig+0x130>
 8001b86:	687b      	ldr	r3, [r7, #4]
 8001b88:	685b      	ldr	r3, [r3, #4]
 8001b8a:	2b00      	cmp	r3, #0
 8001b8c:	d166      	bne.n	8001c5c <HAL_RCC_OscConfig+0x130>
      {
        return HAL_ERROR;
 8001b8e:	2301      	movs	r3, #1
 8001b90:	f000 fb40 	bl	8002214 <HAL_RCC_OscConfig+0x6e8>
      }
    }
    else
    {
      /* Set the new HSE configuration ---------------------------------------*/
      __HAL_RCC_HSE_CONFIG(RCC_OscInitStruct->HSEState);
 8001b94:	687b      	ldr	r3, [r7, #4]
 8001b96:	685a      	ldr	r2, [r3, #4]
 8001b98:	2380      	movs	r3, #128	; 0x80
 8001b9a:	025b      	lsls	r3, r3, #9
 8001b9c:	429a      	cmp	r2, r3
 8001b9e:	d107      	bne.n	8001bb0 <HAL_RCC_OscConfig+0x84>
 8001ba0:	4baf      	ldr	r3, [pc, #700]	; (8001e60 <HAL_RCC_OscConfig+0x334>)
 8001ba2:	681a      	ldr	r2, [r3, #0]
 8001ba4:	4bae      	ldr	r3, [pc, #696]	; (8001e60 <HAL_RCC_OscConfig+0x334>)
 8001ba6:	2180      	movs	r1, #128	; 0x80
 8001ba8:	0249      	lsls	r1, r1, #9
 8001baa:	430a      	orrs	r2, r1
 8001bac:	601a      	str	r2, [r3, #0]
 8001bae:	e027      	b.n	8001c00 <HAL_RCC_OscConfig+0xd4>
 8001bb0:	687b      	ldr	r3, [r7, #4]
 8001bb2:	685a      	ldr	r2, [r3, #4]
 8001bb4:	23a0      	movs	r3, #160	; 0xa0
 8001bb6:	02db      	lsls	r3, r3, #11
 8001bb8:	429a      	cmp	r2, r3
 8001bba:	d10e      	bne.n	8001bda <HAL_RCC_OscConfig+0xae>
 8001bbc:	4ba8      	ldr	r3, [pc, #672]	; (8001e60 <HAL_RCC_OscConfig+0x334>)
 8001bbe:	681a      	ldr	r2, [r3, #0]
 8001bc0:	4ba7      	ldr	r3, [pc, #668]	; (8001e60 <HAL_RCC_OscConfig+0x334>)
 8001bc2:	2180      	movs	r1, #128	; 0x80
 8001bc4:	02c9      	lsls	r1, r1, #11
 8001bc6:	430a      	orrs	r2, r1
 8001bc8:	601a      	str	r2, [r3, #0]
 8001bca:	4ba5      	ldr	r3, [pc, #660]	; (8001e60 <HAL_RCC_OscConfig+0x334>)
 8001bcc:	681a      	ldr	r2, [r3, #0]
 8001bce:	4ba4      	ldr	r3, [pc, #656]	; (8001e60 <HAL_RCC_OscConfig+0x334>)
 8001bd0:	2180      	movs	r1, #128	; 0x80
 8001bd2:	0249      	lsls	r1, r1, #9
 8001bd4:	430a      	orrs	r2, r1
 8001bd6:	601a      	str	r2, [r3, #0]
 8001bd8:	e012      	b.n	8001c00 <HAL_RCC_OscConfig+0xd4>
 8001bda:	4ba1      	ldr	r3, [pc, #644]	; (8001e60 <HAL_RCC_OscConfig+0x334>)
 8001bdc:	681a      	ldr	r2, [r3, #0]
 8001bde:	4ba0      	ldr	r3, [pc, #640]	; (8001e60 <HAL_RCC_OscConfig+0x334>)
 8001be0:	49a0      	ldr	r1, [pc, #640]	; (8001e64 <HAL_RCC_OscConfig+0x338>)
 8001be2:	400a      	ands	r2, r1
 8001be4:	601a      	str	r2, [r3, #0]
 8001be6:	4b9e      	ldr	r3, [pc, #632]	; (8001e60 <HAL_RCC_OscConfig+0x334>)
 8001be8:	681a      	ldr	r2, [r3, #0]
 8001bea:	2380      	movs	r3, #128	; 0x80
 8001bec:	025b      	lsls	r3, r3, #9
 8001bee:	4013      	ands	r3, r2
 8001bf0:	60fb      	str	r3, [r7, #12]
 8001bf2:	68fb      	ldr	r3, [r7, #12]
 8001bf4:	4b9a      	ldr	r3, [pc, #616]	; (8001e60 <HAL_RCC_OscConfig+0x334>)
 8001bf6:	681a      	ldr	r2, [r3, #0]
 8001bf8:	4b99      	ldr	r3, [pc, #612]	; (8001e60 <HAL_RCC_OscConfig+0x334>)
 8001bfa:	499b      	ldr	r1, [pc, #620]	; (8001e68 <HAL_RCC_OscConfig+0x33c>)
 8001bfc:	400a      	ands	r2, r1
 8001bfe:	601a      	str	r2, [r3, #0]

      /* Check the HSE State */
      if(RCC_OscInitStruct->HSEState != RCC_HSE_OFF)
 8001c00:	687b      	ldr	r3, [r7, #4]
 8001c02:	685b      	ldr	r3, [r3, #4]
 8001c04:	2b00      	cmp	r3, #0
 8001c06:	d014      	beq.n	8001c32 <HAL_RCC_OscConfig+0x106>
      {
        /* Get Start Tick */
        tickstart = HAL_GetTick();
 8001c08:	f7fe ffa0 	bl	8000b4c <HAL_GetTick>
 8001c0c:	0003      	movs	r3, r0
 8001c0e:	617b      	str	r3, [r7, #20]

        /* Wait till HSE is ready */
        while(__HAL_RCC_GET_FLAG(RCC_FLAG_HSERDY) == 0U)
 8001c10:	e008      	b.n	8001c24 <HAL_RCC_OscConfig+0xf8>
        {
          if((HAL_GetTick() - tickstart ) > HSE_TIMEOUT_VALUE)
 8001c12:	f7fe ff9b 	bl	8000b4c <HAL_GetTick>
 8001c16:	0002      	movs	r2, r0
 8001c18:	697b      	ldr	r3, [r7, #20]
 8001c1a:	1ad3      	subs	r3, r2, r3
 8001c1c:	2b64      	cmp	r3, #100	; 0x64
 8001c1e:	d901      	bls.n	8001c24 <HAL_RCC_OscConfig+0xf8>
          {
            return HAL_TIMEOUT;
 8001c20:	2303      	movs	r3, #3
 8001c22:	e2f7      	b.n	8002214 <HAL_RCC_OscConfig+0x6e8>
        while(__HAL_RCC_GET_FLAG(RCC_FLAG_HSERDY) == 0U)
 8001c24:	4b8e      	ldr	r3, [pc, #568]	; (8001e60 <HAL_RCC_OscConfig+0x334>)
 8001c26:	681a      	ldr	r2, [r3, #0]
 8001c28:	2380      	movs	r3, #128	; 0x80
 8001c2a:	029b      	lsls	r3, r3, #10
 8001c2c:	4013      	ands	r3, r2
 8001c2e:	d0f0      	beq.n	8001c12 <HAL_RCC_OscConfig+0xe6>
 8001c30:	e015      	b.n	8001c5e <HAL_RCC_OscConfig+0x132>
        }
      }
      else
      {
        /* Get Start Tick */
        tickstart = HAL_GetTick();
 8001c32:	f7fe ff8b 	bl	8000b4c <HAL_GetTick>
 8001c36:	0003      	movs	r3, r0
 8001c38:	617b      	str	r3, [r7, #20]

        /* Wait till HSE is disabled */
        while(__HAL_RCC_GET_FLAG(RCC_FLAG_HSERDY) != 0U)
 8001c3a:	e008      	b.n	8001c4e <HAL_RCC_OscConfig+0x122>
        {
           if((HAL_GetTick() - tickstart ) > HSE_TIMEOUT_VALUE)
 8001c3c:	f7fe ff86 	bl	8000b4c <HAL_GetTick>
 8001c40:	0002      	movs	r2, r0
 8001c42:	697b      	ldr	r3, [r7, #20]
 8001c44:	1ad3      	subs	r3, r2, r3
 8001c46:	2b64      	cmp	r3, #100	; 0x64
 8001c48:	d901      	bls.n	8001c4e <HAL_RCC_OscConfig+0x122>
          {
            return HAL_TIMEOUT;
 8001c4a:	2303      	movs	r3, #3
 8001c4c:	e2e2      	b.n	8002214 <HAL_RCC_OscConfig+0x6e8>
        while(__HAL_RCC_GET_FLAG(RCC_FLAG_HSERDY) != 0U)
 8001c4e:	4b84      	ldr	r3, [pc, #528]	; (8001e60 <HAL_RCC_OscConfig+0x334>)
 8001c50:	681a      	ldr	r2, [r3, #0]
 8001c52:	2380      	movs	r3, #128	; 0x80
 8001c54:	029b      	lsls	r3, r3, #10
 8001c56:	4013      	ands	r3, r2
 8001c58:	d1f0      	bne.n	8001c3c <HAL_RCC_OscConfig+0x110>
 8001c5a:	e000      	b.n	8001c5e <HAL_RCC_OscConfig+0x132>
      if((__HAL_RCC_GET_FLAG(RCC_FLAG_HSERDY) != 0U) && (RCC_OscInitStruct->HSEState == RCC_HSE_OFF))
 8001c5c:	46c0      	nop			; (mov r8, r8)
        }
      }
    }
  }
  /*----------------------------- HSI Configuration --------------------------*/
  if(((RCC_OscInitStruct->OscillatorType) & RCC_OSCILLATORTYPE_HSI) == RCC_OSCILLATORTYPE_HSI)
 8001c5e:	687b      	ldr	r3, [r7, #4]
 8001c60:	681b      	ldr	r3, [r3, #0]
 8001c62:	2202      	movs	r2, #2
 8001c64:	4013      	ands	r3, r2
 8001c66:	d100      	bne.n	8001c6a <HAL_RCC_OscConfig+0x13e>
 8001c68:	e098      	b.n	8001d9c <HAL_RCC_OscConfig+0x270>
  {
    /* Check the parameters */
    assert_param(IS_RCC_HSI(RCC_OscInitStruct->HSIState));
    assert_param(IS_RCC_CALIBRATION_VALUE(RCC_OscInitStruct->HSICalibrationValue));

    hsi_state = RCC_OscInitStruct->HSIState;
 8001c6a:	687b      	ldr	r3, [r7, #4]
 8001c6c:	68db      	ldr	r3, [r3, #12]
 8001c6e:	627b      	str	r3, [r7, #36]	; 0x24

#if defined(RCC_CR_HSIOUTEN)
    if((hsi_state & RCC_HSI_OUTEN) != 0U)
 8001c70:	6a7b      	ldr	r3, [r7, #36]	; 0x24
 8001c72:	2220      	movs	r2, #32
 8001c74:	4013      	ands	r3, r2
 8001c76:	d009      	beq.n	8001c8c <HAL_RCC_OscConfig+0x160>
    {
      /* HSI Output enable for timer requested */
      SET_BIT(RCC->CR, RCC_CR_HSIOUTEN);
 8001c78:	4b79      	ldr	r3, [pc, #484]	; (8001e60 <HAL_RCC_OscConfig+0x334>)
 8001c7a:	681a      	ldr	r2, [r3, #0]
 8001c7c:	4b78      	ldr	r3, [pc, #480]	; (8001e60 <HAL_RCC_OscConfig+0x334>)
 8001c7e:	2120      	movs	r1, #32
 8001c80:	430a      	orrs	r2, r1
 8001c82:	601a      	str	r2, [r3, #0]

      hsi_state &= ~RCC_CR_HSIOUTEN;
 8001c84:	6a7b      	ldr	r3, [r7, #36]	; 0x24
 8001c86:	2220      	movs	r2, #32
 8001c88:	4393      	bics	r3, r2
 8001c8a:	627b      	str	r3, [r7, #36]	; 0x24
    }
#endif

    /* Check if HSI is used as system clock or as PLL source when PLL is selected as system clock */
    if((sysclk_source == RCC_SYSCLKSOURCE_STATUS_HSI)
 8001c8c:	69fb      	ldr	r3, [r7, #28]
 8001c8e:	2b04      	cmp	r3, #4
 8001c90:	d005      	beq.n	8001c9e <HAL_RCC_OscConfig+0x172>
       || ((sysclk_source == RCC_SYSCLKSOURCE_STATUS_PLLCLK) && (pll_config == RCC_PLLSOURCE_HSI)))
 8001c92:	69fb      	ldr	r3, [r7, #28]
 8001c94:	2b0c      	cmp	r3, #12
 8001c96:	d13d      	bne.n	8001d14 <HAL_RCC_OscConfig+0x1e8>
 8001c98:	69bb      	ldr	r3, [r7, #24]
 8001c9a:	2b00      	cmp	r3, #0
 8001c9c:	d13a      	bne.n	8001d14 <HAL_RCC_OscConfig+0x1e8>
    {
      /* When HSI is used as system clock it will not disabled */
      if((__HAL_RCC_GET_FLAG(RCC_FLAG_HSIRDY) != 0U) && (hsi_state == RCC_HSI_OFF))
 8001c9e:	4b70      	ldr	r3, [pc, #448]	; (8001e60 <HAL_RCC_OscConfig+0x334>)
 8001ca0:	681b      	ldr	r3, [r3, #0]
 8001ca2:	2204      	movs	r2, #4
 8001ca4:	4013      	ands	r3, r2
 8001ca6:	d004      	beq.n	8001cb2 <HAL_RCC_OscConfig+0x186>
 8001ca8:	6a7b      	ldr	r3, [r7, #36]	; 0x24
 8001caa:	2b00      	cmp	r3, #0
 8001cac:	d101      	bne.n	8001cb2 <HAL_RCC_OscConfig+0x186>
      {
        return HAL_ERROR;
 8001cae:	2301      	movs	r3, #1
 8001cb0:	e2b0      	b.n	8002214 <HAL_RCC_OscConfig+0x6e8>
      }
      /* Otherwise, just the calibration and HSI or HSIdiv4 are allowed */
      else
      {
        /* Adjusts the Internal High Speed oscillator (HSI) calibration value.*/
        __HAL_RCC_HSI_CALIBRATIONVALUE_ADJUST(RCC_OscInitStruct->HSICalibrationValue);
 8001cb2:	4b6b      	ldr	r3, [pc, #428]	; (8001e60 <HAL_RCC_OscConfig+0x334>)
 8001cb4:	685b      	ldr	r3, [r3, #4]
 8001cb6:	4a6d      	ldr	r2, [pc, #436]	; (8001e6c <HAL_RCC_OscConfig+0x340>)
 8001cb8:	4013      	ands	r3, r2
 8001cba:	0019      	movs	r1, r3
 8001cbc:	687b      	ldr	r3, [r7, #4]
 8001cbe:	691b      	ldr	r3, [r3, #16]
 8001cc0:	021a      	lsls	r2, r3, #8
 8001cc2:	4b67      	ldr	r3, [pc, #412]	; (8001e60 <HAL_RCC_OscConfig+0x334>)
 8001cc4:	430a      	orrs	r2, r1
 8001cc6:	605a      	str	r2, [r3, #4]

        /* Enable the Internal High Speed oscillator (HSI or HSIdiv4) */
        __HAL_RCC_HSI_CONFIG(hsi_state);
 8001cc8:	4b65      	ldr	r3, [pc, #404]	; (8001e60 <HAL_RCC_OscConfig+0x334>)
 8001cca:	681b      	ldr	r3, [r3, #0]
 8001ccc:	2209      	movs	r2, #9
 8001cce:	4393      	bics	r3, r2
 8001cd0:	0019      	movs	r1, r3
 8001cd2:	4b63      	ldr	r3, [pc, #396]	; (8001e60 <HAL_RCC_OscConfig+0x334>)
 8001cd4:	6a7a      	ldr	r2, [r7, #36]	; 0x24
 8001cd6:	430a      	orrs	r2, r1
 8001cd8:	601a      	str	r2, [r3, #0]
      }

      /* Update the SystemCoreClock global variable */
      SystemCoreClock = HAL_RCC_GetSysClockFreq() >> AHBPrescTable[(RCC->CFGR & RCC_CFGR_HPRE)>> RCC_CFGR_HPRE_Pos];
 8001cda:	f000 fbcb 	bl	8002474 <HAL_RCC_GetSysClockFreq>
 8001cde:	0001      	movs	r1, r0
 8001ce0:	4b5f      	ldr	r3, [pc, #380]	; (8001e60 <HAL_RCC_OscConfig+0x334>)
 8001ce2:	68db      	ldr	r3, [r3, #12]
 8001ce4:	091b      	lsrs	r3, r3, #4
 8001ce6:	220f      	movs	r2, #15
 8001ce8:	4013      	ands	r3, r2
 8001cea:	4a61      	ldr	r2, [pc, #388]	; (8001e70 <HAL_RCC_OscConfig+0x344>)
 8001cec:	5cd3      	ldrb	r3, [r2, r3]
 8001cee:	000a      	movs	r2, r1
 8001cf0:	40da      	lsrs	r2, r3
 8001cf2:	4b60      	ldr	r3, [pc, #384]	; (8001e74 <HAL_RCC_OscConfig+0x348>)
 8001cf4:	601a      	str	r2, [r3, #0]

      /* Configure the source of time base considering new system clocks settings*/
      status = HAL_InitTick (TICK_INT_PRIORITY);
 8001cf6:	2513      	movs	r5, #19
 8001cf8:	197c      	adds	r4, r7, r5
 8001cfa:	2000      	movs	r0, #0
 8001cfc:	f7fe fef0 	bl	8000ae0 <HAL_InitTick>
 8001d00:	0003      	movs	r3, r0
 8001d02:	7023      	strb	r3, [r4, #0]
      if(status != HAL_OK)
 8001d04:	197b      	adds	r3, r7, r5
 8001d06:	781b      	ldrb	r3, [r3, #0]
 8001d08:	2b00      	cmp	r3, #0
 8001d0a:	d047      	beq.n	8001d9c <HAL_RCC_OscConfig+0x270>
      {
        return status;
 8001d0c:	2313      	movs	r3, #19
 8001d0e:	18fb      	adds	r3, r7, r3
 8001d10:	781b      	ldrb	r3, [r3, #0]
 8001d12:	e27f      	b.n	8002214 <HAL_RCC_OscConfig+0x6e8>
      }
    }
    else
    {
      /* Check the HSI State */
      if(hsi_state != RCC_HSI_OFF)
 8001d14:	6a7b      	ldr	r3, [r7, #36]	; 0x24
 8001d16:	2b00      	cmp	r3, #0
 8001d18:	d027      	beq.n	8001d6a <HAL_RCC_OscConfig+0x23e>
      {
        /* Enable the Internal High Speed oscillator (HSI or HSIdiv4) */
        __HAL_RCC_HSI_CONFIG(hsi_state);
 8001d1a:	4b51      	ldr	r3, [pc, #324]	; (8001e60 <HAL_RCC_OscConfig+0x334>)
 8001d1c:	681b      	ldr	r3, [r3, #0]
 8001d1e:	2209      	movs	r2, #9
 8001d20:	4393      	bics	r3, r2
 8001d22:	0019      	movs	r1, r3
 8001d24:	4b4e      	ldr	r3, [pc, #312]	; (8001e60 <HAL_RCC_OscConfig+0x334>)
 8001d26:	6a7a      	ldr	r2, [r7, #36]	; 0x24
 8001d28:	430a      	orrs	r2, r1
 8001d2a:	601a      	str	r2, [r3, #0]

        /* Get Start Tick */
        tickstart = HAL_GetTick();
 8001d2c:	f7fe ff0e 	bl	8000b4c <HAL_GetTick>
 8001d30:	0003      	movs	r3, r0
 8001d32:	617b      	str	r3, [r7, #20]

        /* Wait till HSI is ready */
        while(__HAL_RCC_GET_FLAG(RCC_FLAG_HSIRDY) == 0U)
 8001d34:	e008      	b.n	8001d48 <HAL_RCC_OscConfig+0x21c>
        {
          if((HAL_GetTick() - tickstart ) > HSI_TIMEOUT_VALUE)
 8001d36:	f7fe ff09 	bl	8000b4c <HAL_GetTick>
 8001d3a:	0002      	movs	r2, r0
 8001d3c:	697b      	ldr	r3, [r7, #20]
 8001d3e:	1ad3      	subs	r3, r2, r3
 8001d40:	2b02      	cmp	r3, #2
 8001d42:	d901      	bls.n	8001d48 <HAL_RCC_OscConfig+0x21c>
          {
            return HAL_TIMEOUT;
 8001d44:	2303      	movs	r3, #3
 8001d46:	e265      	b.n	8002214 <HAL_RCC_OscConfig+0x6e8>
        while(__HAL_RCC_GET_FLAG(RCC_FLAG_HSIRDY) == 0U)
 8001d48:	4b45      	ldr	r3, [pc, #276]	; (8001e60 <HAL_RCC_OscConfig+0x334>)
 8001d4a:	681b      	ldr	r3, [r3, #0]
 8001d4c:	2204      	movs	r2, #4
 8001d4e:	4013      	ands	r3, r2
 8001d50:	d0f1      	beq.n	8001d36 <HAL_RCC_OscConfig+0x20a>
          }
        }

        /* Adjusts the Internal High Speed oscillator (HSI) calibration value.*/
        __HAL_RCC_HSI_CALIBRATIONVALUE_ADJUST(RCC_OscInitStruct->HSICalibrationValue);
 8001d52:	4b43      	ldr	r3, [pc, #268]	; (8001e60 <HAL_RCC_OscConfig+0x334>)
 8001d54:	685b      	ldr	r3, [r3, #4]
 8001d56:	4a45      	ldr	r2, [pc, #276]	; (8001e6c <HAL_RCC_OscConfig+0x340>)
 8001d58:	4013      	ands	r3, r2
 8001d5a:	0019      	movs	r1, r3
 8001d5c:	687b      	ldr	r3, [r7, #4]
 8001d5e:	691b      	ldr	r3, [r3, #16]
 8001d60:	021a      	lsls	r2, r3, #8
 8001d62:	4b3f      	ldr	r3, [pc, #252]	; (8001e60 <HAL_RCC_OscConfig+0x334>)
 8001d64:	430a      	orrs	r2, r1
 8001d66:	605a      	str	r2, [r3, #4]
 8001d68:	e018      	b.n	8001d9c <HAL_RCC_OscConfig+0x270>
      }
      else
      {
        /* Disable the Internal High Speed oscillator (HSI). */
        __HAL_RCC_HSI_DISABLE();
 8001d6a:	4b3d      	ldr	r3, [pc, #244]	; (8001e60 <HAL_RCC_OscConfig+0x334>)
 8001d6c:	681a      	ldr	r2, [r3, #0]
 8001d6e:	4b3c      	ldr	r3, [pc, #240]	; (8001e60 <HAL_RCC_OscConfig+0x334>)
 8001d70:	2101      	movs	r1, #1
 8001d72:	438a      	bics	r2, r1
 8001d74:	601a      	str	r2, [r3, #0]

        /* Get Start Tick */
        tickstart = HAL_GetTick();
 8001d76:	f7fe fee9 	bl	8000b4c <HAL_GetTick>
 8001d7a:	0003      	movs	r3, r0
 8001d7c:	617b      	str	r3, [r7, #20]

        /* Wait till HSI is disabled */
        while(__HAL_RCC_GET_FLAG(RCC_FLAG_HSIRDY) != 0U)
 8001d7e:	e008      	b.n	8001d92 <HAL_RCC_OscConfig+0x266>
        {
          if((HAL_GetTick() - tickstart ) > HSI_TIMEOUT_VALUE)
 8001d80:	f7fe fee4 	bl	8000b4c <HAL_GetTick>
 8001d84:	0002      	movs	r2, r0
 8001d86:	697b      	ldr	r3, [r7, #20]
 8001d88:	1ad3      	subs	r3, r2, r3
 8001d8a:	2b02      	cmp	r3, #2
 8001d8c:	d901      	bls.n	8001d92 <HAL_RCC_OscConfig+0x266>
          {
            return HAL_TIMEOUT;
 8001d8e:	2303      	movs	r3, #3
 8001d90:	e240      	b.n	8002214 <HAL_RCC_OscConfig+0x6e8>
        while(__HAL_RCC_GET_FLAG(RCC_FLAG_HSIRDY) != 0U)
 8001d92:	4b33      	ldr	r3, [pc, #204]	; (8001e60 <HAL_RCC_OscConfig+0x334>)
 8001d94:	681b      	ldr	r3, [r3, #0]
 8001d96:	2204      	movs	r2, #4
 8001d98:	4013      	ands	r3, r2
 8001d9a:	d1f1      	bne.n	8001d80 <HAL_RCC_OscConfig+0x254>
        }
      }
    }
  }
  /*----------------------------- MSI Configuration --------------------------*/
  if(((RCC_OscInitStruct->OscillatorType) & RCC_OSCILLATORTYPE_MSI) == RCC_OSCILLATORTYPE_MSI)
 8001d9c:	687b      	ldr	r3, [r7, #4]
 8001d9e:	681b      	ldr	r3, [r3, #0]
 8001da0:	2210      	movs	r2, #16
 8001da2:	4013      	ands	r3, r2
 8001da4:	d100      	bne.n	8001da8 <HAL_RCC_OscConfig+0x27c>
 8001da6:	e09e      	b.n	8001ee6 <HAL_RCC_OscConfig+0x3ba>
  {
    /* When the MSI is used as system clock it will not be disabled */
    if((sysclk_source == RCC_CFGR_SWS_MSI) )
 8001da8:	69fb      	ldr	r3, [r7, #28]
 8001daa:	2b00      	cmp	r3, #0
 8001dac:	d13f      	bne.n	8001e2e <HAL_RCC_OscConfig+0x302>
    {
      if((__HAL_RCC_GET_FLAG(RCC_FLAG_MSIRDY) != 0U) && (RCC_OscInitStruct->MSIState == RCC_MSI_OFF))
 8001dae:	4b2c      	ldr	r3, [pc, #176]	; (8001e60 <HAL_RCC_OscConfig+0x334>)
 8001db0:	681a      	ldr	r2, [r3, #0]
 8001db2:	2380      	movs	r3, #128	; 0x80
 8001db4:	009b      	lsls	r3, r3, #2
 8001db6:	4013      	ands	r3, r2
 8001db8:	d005      	beq.n	8001dc6 <HAL_RCC_OscConfig+0x29a>
 8001dba:	687b      	ldr	r3, [r7, #4]
 8001dbc:	699b      	ldr	r3, [r3, #24]
 8001dbe:	2b00      	cmp	r3, #0
 8001dc0:	d101      	bne.n	8001dc6 <HAL_RCC_OscConfig+0x29a>
      {
        return HAL_ERROR;
 8001dc2:	2301      	movs	r3, #1
 8001dc4:	e226      	b.n	8002214 <HAL_RCC_OscConfig+0x6e8>
        /* Check MSICalibrationValue and MSIClockRange input parameters */
        assert_param(IS_RCC_MSICALIBRATION_VALUE(RCC_OscInitStruct->MSICalibrationValue));
        assert_param(IS_RCC_MSI_CLOCK_RANGE(RCC_OscInitStruct->MSIClockRange));

        /* Selects the Multiple Speed oscillator (MSI) clock range .*/
        __HAL_RCC_MSI_RANGE_CONFIG(RCC_OscInitStruct->MSIClockRange);
 8001dc6:	4b26      	ldr	r3, [pc, #152]	; (8001e60 <HAL_RCC_OscConfig+0x334>)
 8001dc8:	685b      	ldr	r3, [r3, #4]
 8001dca:	4a2b      	ldr	r2, [pc, #172]	; (8001e78 <HAL_RCC_OscConfig+0x34c>)
 8001dcc:	4013      	ands	r3, r2
 8001dce:	0019      	movs	r1, r3
 8001dd0:	687b      	ldr	r3, [r7, #4]
 8001dd2:	6a1a      	ldr	r2, [r3, #32]
 8001dd4:	4b22      	ldr	r3, [pc, #136]	; (8001e60 <HAL_RCC_OscConfig+0x334>)
 8001dd6:	430a      	orrs	r2, r1
 8001dd8:	605a      	str	r2, [r3, #4]
        /* Adjusts the Multiple Speed oscillator (MSI) calibration value.*/
        __HAL_RCC_MSI_CALIBRATIONVALUE_ADJUST(RCC_OscInitStruct->MSICalibrationValue);
 8001dda:	4b21      	ldr	r3, [pc, #132]	; (8001e60 <HAL_RCC_OscConfig+0x334>)
 8001ddc:	685b      	ldr	r3, [r3, #4]
 8001dde:	021b      	lsls	r3, r3, #8
 8001de0:	0a19      	lsrs	r1, r3, #8
 8001de2:	687b      	ldr	r3, [r7, #4]
 8001de4:	69db      	ldr	r3, [r3, #28]
 8001de6:	061a      	lsls	r2, r3, #24
 8001de8:	4b1d      	ldr	r3, [pc, #116]	; (8001e60 <HAL_RCC_OscConfig+0x334>)
 8001dea:	430a      	orrs	r2, r1
 8001dec:	605a      	str	r2, [r3, #4]


        /* Update the SystemCoreClock global variable */
        SystemCoreClock =  (32768U * (1UL << ((RCC_OscInitStruct->MSIClockRange >> RCC_ICSCR_MSIRANGE_Pos) + 1U)))
 8001dee:	687b      	ldr	r3, [r7, #4]
 8001df0:	6a1b      	ldr	r3, [r3, #32]
 8001df2:	0b5b      	lsrs	r3, r3, #13
 8001df4:	3301      	adds	r3, #1
 8001df6:	2280      	movs	r2, #128	; 0x80
 8001df8:	0212      	lsls	r2, r2, #8
 8001dfa:	409a      	lsls	r2, r3
                           >> AHBPrescTable[((RCC->CFGR & RCC_CFGR_HPRE) >> RCC_CFGR_HPRE_Pos)];
 8001dfc:	4b18      	ldr	r3, [pc, #96]	; (8001e60 <HAL_RCC_OscConfig+0x334>)
 8001dfe:	68db      	ldr	r3, [r3, #12]
 8001e00:	091b      	lsrs	r3, r3, #4
 8001e02:	210f      	movs	r1, #15
 8001e04:	400b      	ands	r3, r1
 8001e06:	491a      	ldr	r1, [pc, #104]	; (8001e70 <HAL_RCC_OscConfig+0x344>)
 8001e08:	5ccb      	ldrb	r3, [r1, r3]
 8001e0a:	40da      	lsrs	r2, r3
        SystemCoreClock =  (32768U * (1UL << ((RCC_OscInitStruct->MSIClockRange >> RCC_ICSCR_MSIRANGE_Pos) + 1U)))
 8001e0c:	4b19      	ldr	r3, [pc, #100]	; (8001e74 <HAL_RCC_OscConfig+0x348>)
 8001e0e:	601a      	str	r2, [r3, #0]

        /* Configure the source of time base considering new system clocks settings*/
        status = HAL_InitTick (TICK_INT_PRIORITY);
 8001e10:	2513      	movs	r5, #19
 8001e12:	197c      	adds	r4, r7, r5
 8001e14:	2000      	movs	r0, #0
 8001e16:	f7fe fe63 	bl	8000ae0 <HAL_InitTick>
 8001e1a:	0003      	movs	r3, r0
 8001e1c:	7023      	strb	r3, [r4, #0]
        if(status != HAL_OK)
 8001e1e:	197b      	adds	r3, r7, r5
 8001e20:	781b      	ldrb	r3, [r3, #0]
 8001e22:	2b00      	cmp	r3, #0
 8001e24:	d05f      	beq.n	8001ee6 <HAL_RCC_OscConfig+0x3ba>
        {
          return status;
 8001e26:	2313      	movs	r3, #19
 8001e28:	18fb      	adds	r3, r7, r3
 8001e2a:	781b      	ldrb	r3, [r3, #0]
 8001e2c:	e1f2      	b.n	8002214 <HAL_RCC_OscConfig+0x6e8>
    {
      /* Check MSI State */
      assert_param(IS_RCC_MSI(RCC_OscInitStruct->MSIState));

      /* Check the MSI State */
      if(RCC_OscInitStruct->MSIState != RCC_MSI_OFF)
 8001e2e:	687b      	ldr	r3, [r7, #4]
 8001e30:	699b      	ldr	r3, [r3, #24]
 8001e32:	2b00      	cmp	r3, #0
 8001e34:	d03d      	beq.n	8001eb2 <HAL_RCC_OscConfig+0x386>
      {
        /* Enable the Multi Speed oscillator (MSI). */
        __HAL_RCC_MSI_ENABLE();
 8001e36:	4b0a      	ldr	r3, [pc, #40]	; (8001e60 <HAL_RCC_OscConfig+0x334>)
 8001e38:	681a      	ldr	r2, [r3, #0]
 8001e3a:	4b09      	ldr	r3, [pc, #36]	; (8001e60 <HAL_RCC_OscConfig+0x334>)
 8001e3c:	2180      	movs	r1, #128	; 0x80
 8001e3e:	0049      	lsls	r1, r1, #1
 8001e40:	430a      	orrs	r2, r1
 8001e42:	601a      	str	r2, [r3, #0]

        /* Get Start Tick */
        tickstart = HAL_GetTick();
 8001e44:	f7fe fe82 	bl	8000b4c <HAL_GetTick>
 8001e48:	0003      	movs	r3, r0
 8001e4a:	617b      	str	r3, [r7, #20]

        /* Wait till MSI is ready */
        while(__HAL_RCC_GET_FLAG(RCC_FLAG_MSIRDY) == 0U)
 8001e4c:	e016      	b.n	8001e7c <HAL_RCC_OscConfig+0x350>
        {
          if((HAL_GetTick() - tickstart) > MSI_TIMEOUT_VALUE)
 8001e4e:	f7fe fe7d 	bl	8000b4c <HAL_GetTick>
 8001e52:	0002      	movs	r2, r0
 8001e54:	697b      	ldr	r3, [r7, #20]
 8001e56:	1ad3      	subs	r3, r2, r3
 8001e58:	2b02      	cmp	r3, #2
 8001e5a:	d90f      	bls.n	8001e7c <HAL_RCC_OscConfig+0x350>
          {
            return HAL_TIMEOUT;
 8001e5c:	2303      	movs	r3, #3
 8001e5e:	e1d9      	b.n	8002214 <HAL_RCC_OscConfig+0x6e8>
 8001e60:	40021000 	.word	0x40021000
 8001e64:	fffeffff 	.word	0xfffeffff
 8001e68:	fffbffff 	.word	0xfffbffff
 8001e6c:	ffffe0ff 	.word	0xffffe0ff
 8001e70:	080030cc 	.word	0x080030cc
 8001e74:	20000000 	.word	0x20000000
 8001e78:	ffff1fff 	.word	0xffff1fff
        while(__HAL_RCC_GET_FLAG(RCC_FLAG_MSIRDY) == 0U)
 8001e7c:	4bca      	ldr	r3, [pc, #808]	; (80021a8 <HAL_RCC_OscConfig+0x67c>)
 8001e7e:	681a      	ldr	r2, [r3, #0]
 8001e80:	2380      	movs	r3, #128	; 0x80
 8001e82:	009b      	lsls	r3, r3, #2
 8001e84:	4013      	ands	r3, r2
 8001e86:	d0e2      	beq.n	8001e4e <HAL_RCC_OscConfig+0x322>
        /* Check MSICalibrationValue and MSIClockRange input parameters */
        assert_param(IS_RCC_MSICALIBRATION_VALUE(RCC_OscInitStruct->MSICalibrationValue));
        assert_param(IS_RCC_MSI_CLOCK_RANGE(RCC_OscInitStruct->MSIClockRange));

        /* Selects the Multiple Speed oscillator (MSI) clock range .*/
        __HAL_RCC_MSI_RANGE_CONFIG(RCC_OscInitStruct->MSIClockRange);
 8001e88:	4bc7      	ldr	r3, [pc, #796]	; (80021a8 <HAL_RCC_OscConfig+0x67c>)
 8001e8a:	685b      	ldr	r3, [r3, #4]
 8001e8c:	4ac7      	ldr	r2, [pc, #796]	; (80021ac <HAL_RCC_OscConfig+0x680>)
 8001e8e:	4013      	ands	r3, r2
 8001e90:	0019      	movs	r1, r3
 8001e92:	687b      	ldr	r3, [r7, #4]
 8001e94:	6a1a      	ldr	r2, [r3, #32]
 8001e96:	4bc4      	ldr	r3, [pc, #784]	; (80021a8 <HAL_RCC_OscConfig+0x67c>)
 8001e98:	430a      	orrs	r2, r1
 8001e9a:	605a      	str	r2, [r3, #4]
         /* Adjusts the Multiple Speed oscillator (MSI) calibration value.*/
        __HAL_RCC_MSI_CALIBRATIONVALUE_ADJUST(RCC_OscInitStruct->MSICalibrationValue);
 8001e9c:	4bc2      	ldr	r3, [pc, #776]	; (80021a8 <HAL_RCC_OscConfig+0x67c>)
 8001e9e:	685b      	ldr	r3, [r3, #4]
 8001ea0:	021b      	lsls	r3, r3, #8
 8001ea2:	0a19      	lsrs	r1, r3, #8
 8001ea4:	687b      	ldr	r3, [r7, #4]
 8001ea6:	69db      	ldr	r3, [r3, #28]
 8001ea8:	061a      	lsls	r2, r3, #24
 8001eaa:	4bbf      	ldr	r3, [pc, #764]	; (80021a8 <HAL_RCC_OscConfig+0x67c>)
 8001eac:	430a      	orrs	r2, r1
 8001eae:	605a      	str	r2, [r3, #4]
 8001eb0:	e019      	b.n	8001ee6 <HAL_RCC_OscConfig+0x3ba>
      }
      else
      {
        /* Disable the Multi Speed oscillator (MSI). */
        __HAL_RCC_MSI_DISABLE();
 8001eb2:	4bbd      	ldr	r3, [pc, #756]	; (80021a8 <HAL_RCC_OscConfig+0x67c>)
 8001eb4:	681a      	ldr	r2, [r3, #0]
 8001eb6:	4bbc      	ldr	r3, [pc, #752]	; (80021a8 <HAL_RCC_OscConfig+0x67c>)
 8001eb8:	49bd      	ldr	r1, [pc, #756]	; (80021b0 <HAL_RCC_OscConfig+0x684>)
 8001eba:	400a      	ands	r2, r1
 8001ebc:	601a      	str	r2, [r3, #0]

        /* Get Start Tick */
        tickstart = HAL_GetTick();
 8001ebe:	f7fe fe45 	bl	8000b4c <HAL_GetTick>
 8001ec2:	0003      	movs	r3, r0
 8001ec4:	617b      	str	r3, [r7, #20]

        /* Wait till MSI is ready */
        while(__HAL_RCC_GET_FLAG(RCC_FLAG_MSIRDY) != 0U)
 8001ec6:	e008      	b.n	8001eda <HAL_RCC_OscConfig+0x3ae>
        {
          if((HAL_GetTick() - tickstart) > MSI_TIMEOUT_VALUE)
 8001ec8:	f7fe fe40 	bl	8000b4c <HAL_GetTick>
 8001ecc:	0002      	movs	r2, r0
 8001ece:	697b      	ldr	r3, [r7, #20]
 8001ed0:	1ad3      	subs	r3, r2, r3
 8001ed2:	2b02      	cmp	r3, #2
 8001ed4:	d901      	bls.n	8001eda <HAL_RCC_OscConfig+0x3ae>
          {
            return HAL_TIMEOUT;
 8001ed6:	2303      	movs	r3, #3
 8001ed8:	e19c      	b.n	8002214 <HAL_RCC_OscConfig+0x6e8>
        while(__HAL_RCC_GET_FLAG(RCC_FLAG_MSIRDY) != 0U)
 8001eda:	4bb3      	ldr	r3, [pc, #716]	; (80021a8 <HAL_RCC_OscConfig+0x67c>)
 8001edc:	681a      	ldr	r2, [r3, #0]
 8001ede:	2380      	movs	r3, #128	; 0x80
 8001ee0:	009b      	lsls	r3, r3, #2
 8001ee2:	4013      	ands	r3, r2
 8001ee4:	d1f0      	bne.n	8001ec8 <HAL_RCC_OscConfig+0x39c>
        }
      }
    }
  }
  /*------------------------------ LSI Configuration -------------------------*/
  if(((RCC_OscInitStruct->OscillatorType) & RCC_OSCILLATORTYPE_LSI) == RCC_OSCILLATORTYPE_LSI)
 8001ee6:	687b      	ldr	r3, [r7, #4]
 8001ee8:	681b      	ldr	r3, [r3, #0]
 8001eea:	2208      	movs	r2, #8
 8001eec:	4013      	ands	r3, r2
 8001eee:	d036      	beq.n	8001f5e <HAL_RCC_OscConfig+0x432>
  {
    /* Check the parameters */
    assert_param(IS_RCC_LSI(RCC_OscInitStruct->LSIState));

    /* Check the LSI State */
    if(RCC_OscInitStruct->LSIState != RCC_LSI_OFF)
 8001ef0:	687b      	ldr	r3, [r7, #4]
 8001ef2:	695b      	ldr	r3, [r3, #20]
 8001ef4:	2b00      	cmp	r3, #0
 8001ef6:	d019      	beq.n	8001f2c <HAL_RCC_OscConfig+0x400>
    {
      /* Enable the Internal Low Speed oscillator (LSI). */
      __HAL_RCC_LSI_ENABLE();
 8001ef8:	4bab      	ldr	r3, [pc, #684]	; (80021a8 <HAL_RCC_OscConfig+0x67c>)
 8001efa:	6d1a      	ldr	r2, [r3, #80]	; 0x50
 8001efc:	4baa      	ldr	r3, [pc, #680]	; (80021a8 <HAL_RCC_OscConfig+0x67c>)
 8001efe:	2101      	movs	r1, #1
 8001f00:	430a      	orrs	r2, r1
 8001f02:	651a      	str	r2, [r3, #80]	; 0x50

      /* Get Start Tick */
      tickstart = HAL_GetTick();
 8001f04:	f7fe fe22 	bl	8000b4c <HAL_GetTick>
 8001f08:	0003      	movs	r3, r0
 8001f0a:	617b      	str	r3, [r7, #20]

      /* Wait till LSI is ready */
      while(__HAL_RCC_GET_FLAG(RCC_FLAG_LSIRDY) == 0U)
 8001f0c:	e008      	b.n	8001f20 <HAL_RCC_OscConfig+0x3f4>
      {
        if((HAL_GetTick() - tickstart ) > LSI_TIMEOUT_VALUE)
 8001f0e:	f7fe fe1d 	bl	8000b4c <HAL_GetTick>
 8001f12:	0002      	movs	r2, r0
 8001f14:	697b      	ldr	r3, [r7, #20]
 8001f16:	1ad3      	subs	r3, r2, r3
 8001f18:	2b02      	cmp	r3, #2
 8001f1a:	d901      	bls.n	8001f20 <HAL_RCC_OscConfig+0x3f4>
        {
          return HAL_TIMEOUT;
 8001f1c:	2303      	movs	r3, #3
 8001f1e:	e179      	b.n	8002214 <HAL_RCC_OscConfig+0x6e8>
      while(__HAL_RCC_GET_FLAG(RCC_FLAG_LSIRDY) == 0U)
 8001f20:	4ba1      	ldr	r3, [pc, #644]	; (80021a8 <HAL_RCC_OscConfig+0x67c>)
 8001f22:	6d1b      	ldr	r3, [r3, #80]	; 0x50
 8001f24:	2202      	movs	r2, #2
 8001f26:	4013      	ands	r3, r2
 8001f28:	d0f1      	beq.n	8001f0e <HAL_RCC_OscConfig+0x3e2>
 8001f2a:	e018      	b.n	8001f5e <HAL_RCC_OscConfig+0x432>
      }
    }
    else
    {
      /* Disable the Internal Low Speed oscillator (LSI). */
      __HAL_RCC_LSI_DISABLE();
 8001f2c:	4b9e      	ldr	r3, [pc, #632]	; (80021a8 <HAL_RCC_OscConfig+0x67c>)
 8001f2e:	6d1a      	ldr	r2, [r3, #80]	; 0x50
 8001f30:	4b9d      	ldr	r3, [pc, #628]	; (80021a8 <HAL_RCC_OscConfig+0x67c>)
 8001f32:	2101      	movs	r1, #1
 8001f34:	438a      	bics	r2, r1
 8001f36:	651a      	str	r2, [r3, #80]	; 0x50

      /* Get Start Tick */
      tickstart = HAL_GetTick();
 8001f38:	f7fe fe08 	bl	8000b4c <HAL_GetTick>
 8001f3c:	0003      	movs	r3, r0
 8001f3e:	617b      	str	r3, [r7, #20]

      /* Wait till LSI is disabled */
      while(__HAL_RCC_GET_FLAG(RCC_FLAG_LSIRDY) != 0U)
 8001f40:	e008      	b.n	8001f54 <HAL_RCC_OscConfig+0x428>
      {
        if((HAL_GetTick() - tickstart ) > LSI_TIMEOUT_VALUE)
 8001f42:	f7fe fe03 	bl	8000b4c <HAL_GetTick>
 8001f46:	0002      	movs	r2, r0
 8001f48:	697b      	ldr	r3, [r7, #20]
 8001f4a:	1ad3      	subs	r3, r2, r3
 8001f4c:	2b02      	cmp	r3, #2
 8001f4e:	d901      	bls.n	8001f54 <HAL_RCC_OscConfig+0x428>
        {
          return HAL_TIMEOUT;
 8001f50:	2303      	movs	r3, #3
 8001f52:	e15f      	b.n	8002214 <HAL_RCC_OscConfig+0x6e8>
      while(__HAL_RCC_GET_FLAG(RCC_FLAG_LSIRDY) != 0U)
 8001f54:	4b94      	ldr	r3, [pc, #592]	; (80021a8 <HAL_RCC_OscConfig+0x67c>)
 8001f56:	6d1b      	ldr	r3, [r3, #80]	; 0x50
 8001f58:	2202      	movs	r2, #2
 8001f5a:	4013      	ands	r3, r2
 8001f5c:	d1f1      	bne.n	8001f42 <HAL_RCC_OscConfig+0x416>
        }
      }
    }
  }
  /*------------------------------ LSE Configuration -------------------------*/
  if(((RCC_OscInitStruct->OscillatorType) & RCC_OSCILLATORTYPE_LSE) == RCC_OSCILLATORTYPE_LSE)
 8001f5e:	687b      	ldr	r3, [r7, #4]
 8001f60:	681b      	ldr	r3, [r3, #0]
 8001f62:	2204      	movs	r2, #4
 8001f64:	4013      	ands	r3, r2
 8001f66:	d100      	bne.n	8001f6a <HAL_RCC_OscConfig+0x43e>
 8001f68:	e0af      	b.n	80020ca <HAL_RCC_OscConfig+0x59e>
  {
    FlagStatus       pwrclkchanged = RESET;
 8001f6a:	2323      	movs	r3, #35	; 0x23
 8001f6c:	18fb      	adds	r3, r7, r3
 8001f6e:	2200      	movs	r2, #0
 8001f70:	701a      	strb	r2, [r3, #0]
    /* Check the parameters */
    assert_param(IS_RCC_LSE(RCC_OscInitStruct->LSEState));

    /* Update LSE configuration in Backup Domain control register    */
    /* Requires to enable write access to Backup Domain of necessary */
    if(__HAL_RCC_PWR_IS_CLK_DISABLED())
 8001f72:	4b8d      	ldr	r3, [pc, #564]	; (80021a8 <HAL_RCC_OscConfig+0x67c>)
 8001f74:	6b9a      	ldr	r2, [r3, #56]	; 0x38
 8001f76:	2380      	movs	r3, #128	; 0x80
 8001f78:	055b      	lsls	r3, r3, #21
 8001f7a:	4013      	ands	r3, r2
 8001f7c:	d10a      	bne.n	8001f94 <HAL_RCC_OscConfig+0x468>
    {
      __HAL_RCC_PWR_CLK_ENABLE();
 8001f7e:	4b8a      	ldr	r3, [pc, #552]	; (80021a8 <HAL_RCC_OscConfig+0x67c>)
 8001f80:	6b9a      	ldr	r2, [r3, #56]	; 0x38
 8001f82:	4b89      	ldr	r3, [pc, #548]	; (80021a8 <HAL_RCC_OscConfig+0x67c>)
 8001f84:	2180      	movs	r1, #128	; 0x80
 8001f86:	0549      	lsls	r1, r1, #21
 8001f88:	430a      	orrs	r2, r1
 8001f8a:	639a      	str	r2, [r3, #56]	; 0x38
      pwrclkchanged = SET;
 8001f8c:	2323      	movs	r3, #35	; 0x23
 8001f8e:	18fb      	adds	r3, r7, r3
 8001f90:	2201      	movs	r2, #1
 8001f92:	701a      	strb	r2, [r3, #0]
    }

    if(HAL_IS_BIT_CLR(PWR->CR, PWR_CR_DBP))
 8001f94:	4b87      	ldr	r3, [pc, #540]	; (80021b4 <HAL_RCC_OscConfig+0x688>)
 8001f96:	681a      	ldr	r2, [r3, #0]
 8001f98:	2380      	movs	r3, #128	; 0x80
 8001f9a:	005b      	lsls	r3, r3, #1
 8001f9c:	4013      	ands	r3, r2
 8001f9e:	d11a      	bne.n	8001fd6 <HAL_RCC_OscConfig+0x4aa>
    {
      /* Enable write access to Backup domain */
      SET_BIT(PWR->CR, PWR_CR_DBP);
 8001fa0:	4b84      	ldr	r3, [pc, #528]	; (80021b4 <HAL_RCC_OscConfig+0x688>)
 8001fa2:	681a      	ldr	r2, [r3, #0]
 8001fa4:	4b83      	ldr	r3, [pc, #524]	; (80021b4 <HAL_RCC_OscConfig+0x688>)
 8001fa6:	2180      	movs	r1, #128	; 0x80
 8001fa8:	0049      	lsls	r1, r1, #1
 8001faa:	430a      	orrs	r2, r1
 8001fac:	601a      	str	r2, [r3, #0]

      /* Wait for Backup domain Write protection disable */
      tickstart = HAL_GetTick();
 8001fae:	f7fe fdcd 	bl	8000b4c <HAL_GetTick>
 8001fb2:	0003      	movs	r3, r0
 8001fb4:	617b      	str	r3, [r7, #20]

      while(HAL_IS_BIT_CLR(PWR->CR, PWR_CR_DBP))
 8001fb6:	e008      	b.n	8001fca <HAL_RCC_OscConfig+0x49e>
      {
        if((HAL_GetTick() - tickstart) > RCC_DBP_TIMEOUT_VALUE)
 8001fb8:	f7fe fdc8 	bl	8000b4c <HAL_GetTick>
 8001fbc:	0002      	movs	r2, r0
 8001fbe:	697b      	ldr	r3, [r7, #20]
 8001fc0:	1ad3      	subs	r3, r2, r3
 8001fc2:	2b64      	cmp	r3, #100	; 0x64
 8001fc4:	d901      	bls.n	8001fca <HAL_RCC_OscConfig+0x49e>
        {
          return HAL_TIMEOUT;
 8001fc6:	2303      	movs	r3, #3
 8001fc8:	e124      	b.n	8002214 <HAL_RCC_OscConfig+0x6e8>
      while(HAL_IS_BIT_CLR(PWR->CR, PWR_CR_DBP))
 8001fca:	4b7a      	ldr	r3, [pc, #488]	; (80021b4 <HAL_RCC_OscConfig+0x688>)
 8001fcc:	681a      	ldr	r2, [r3, #0]
 8001fce:	2380      	movs	r3, #128	; 0x80
 8001fd0:	005b      	lsls	r3, r3, #1
 8001fd2:	4013      	ands	r3, r2
 8001fd4:	d0f0      	beq.n	8001fb8 <HAL_RCC_OscConfig+0x48c>
        }
      }
    }

    /* Set the new LSE configuration -----------------------------------------*/
    __HAL_RCC_LSE_CONFIG(RCC_OscInitStruct->LSEState);
 8001fd6:	687b      	ldr	r3, [r7, #4]
 8001fd8:	689a      	ldr	r2, [r3, #8]
 8001fda:	2380      	movs	r3, #128	; 0x80
 8001fdc:	005b      	lsls	r3, r3, #1
 8001fde:	429a      	cmp	r2, r3
 8001fe0:	d107      	bne.n	8001ff2 <HAL_RCC_OscConfig+0x4c6>
 8001fe2:	4b71      	ldr	r3, [pc, #452]	; (80021a8 <HAL_RCC_OscConfig+0x67c>)
 8001fe4:	6d1a      	ldr	r2, [r3, #80]	; 0x50
 8001fe6:	4b70      	ldr	r3, [pc, #448]	; (80021a8 <HAL_RCC_OscConfig+0x67c>)
 8001fe8:	2180      	movs	r1, #128	; 0x80
 8001fea:	0049      	lsls	r1, r1, #1
 8001fec:	430a      	orrs	r2, r1
 8001fee:	651a      	str	r2, [r3, #80]	; 0x50
 8001ff0:	e031      	b.n	8002056 <HAL_RCC_OscConfig+0x52a>
 8001ff2:	687b      	ldr	r3, [r7, #4]
 8001ff4:	689b      	ldr	r3, [r3, #8]
 8001ff6:	2b00      	cmp	r3, #0
 8001ff8:	d10c      	bne.n	8002014 <HAL_RCC_OscConfig+0x4e8>
 8001ffa:	4b6b      	ldr	r3, [pc, #428]	; (80021a8 <HAL_RCC_OscConfig+0x67c>)
 8001ffc:	6d1a      	ldr	r2, [r3, #80]	; 0x50
 8001ffe:	4b6a      	ldr	r3, [pc, #424]	; (80021a8 <HAL_RCC_OscConfig+0x67c>)
 8002000:	496b      	ldr	r1, [pc, #428]	; (80021b0 <HAL_RCC_OscConfig+0x684>)
 8002002:	400a      	ands	r2, r1
 8002004:	651a      	str	r2, [r3, #80]	; 0x50
 8002006:	4b68      	ldr	r3, [pc, #416]	; (80021a8 <HAL_RCC_OscConfig+0x67c>)
 8002008:	6d1a      	ldr	r2, [r3, #80]	; 0x50
 800200a:	4b67      	ldr	r3, [pc, #412]	; (80021a8 <HAL_RCC_OscConfig+0x67c>)
 800200c:	496a      	ldr	r1, [pc, #424]	; (80021b8 <HAL_RCC_OscConfig+0x68c>)
 800200e:	400a      	ands	r2, r1
 8002010:	651a      	str	r2, [r3, #80]	; 0x50
 8002012:	e020      	b.n	8002056 <HAL_RCC_OscConfig+0x52a>
 8002014:	687b      	ldr	r3, [r7, #4]
 8002016:	689a      	ldr	r2, [r3, #8]
 8002018:	23a0      	movs	r3, #160	; 0xa0
 800201a:	00db      	lsls	r3, r3, #3
 800201c:	429a      	cmp	r2, r3
 800201e:	d10e      	bne.n	800203e <HAL_RCC_OscConfig+0x512>
 8002020:	4b61      	ldr	r3, [pc, #388]	; (80021a8 <HAL_RCC_OscConfig+0x67c>)
 8002022:	6d1a      	ldr	r2, [r3, #80]	; 0x50
 8002024:	4b60      	ldr	r3, [pc, #384]	; (80021a8 <HAL_RCC_OscConfig+0x67c>)
 8002026:	2180      	movs	r1, #128	; 0x80
 8002028:	00c9      	lsls	r1, r1, #3
 800202a:	430a      	orrs	r2, r1
 800202c:	651a      	str	r2, [r3, #80]	; 0x50
 800202e:	4b5e      	ldr	r3, [pc, #376]	; (80021a8 <HAL_RCC_OscConfig+0x67c>)
 8002030:	6d1a      	ldr	r2, [r3, #80]	; 0x50
 8002032:	4b5d      	ldr	r3, [pc, #372]	; (80021a8 <HAL_RCC_OscConfig+0x67c>)
 8002034:	2180      	movs	r1, #128	; 0x80
 8002036:	0049      	lsls	r1, r1, #1
 8002038:	430a      	orrs	r2, r1
 800203a:	651a      	str	r2, [r3, #80]	; 0x50
 800203c:	e00b      	b.n	8002056 <HAL_RCC_OscConfig+0x52a>
 800203e:	4b5a      	ldr	r3, [pc, #360]	; (80021a8 <HAL_RCC_OscConfig+0x67c>)
 8002040:	6d1a      	ldr	r2, [r3, #80]	; 0x50
 8002042:	4b59      	ldr	r3, [pc, #356]	; (80021a8 <HAL_RCC_OscConfig+0x67c>)
 8002044:	495a      	ldr	r1, [pc, #360]	; (80021b0 <HAL_RCC_OscConfig+0x684>)
 8002046:	400a      	ands	r2, r1
 8002048:	651a      	str	r2, [r3, #80]	; 0x50
 800204a:	4b57      	ldr	r3, [pc, #348]	; (80021a8 <HAL_RCC_OscConfig+0x67c>)
 800204c:	6d1a      	ldr	r2, [r3, #80]	; 0x50
 800204e:	4b56      	ldr	r3, [pc, #344]	; (80021a8 <HAL_RCC_OscConfig+0x67c>)
 8002050:	4959      	ldr	r1, [pc, #356]	; (80021b8 <HAL_RCC_OscConfig+0x68c>)
 8002052:	400a      	ands	r2, r1
 8002054:	651a      	str	r2, [r3, #80]	; 0x50
    /* Check the LSE State */
    if(RCC_OscInitStruct->LSEState != RCC_LSE_OFF)
 8002056:	687b      	ldr	r3, [r7, #4]
 8002058:	689b      	ldr	r3, [r3, #8]
 800205a:	2b00      	cmp	r3, #0
 800205c:	d015      	beq.n	800208a <HAL_RCC_OscConfig+0x55e>
    {
      /* Get Start Tick */
      tickstart = HAL_GetTick();
 800205e:	f7fe fd75 	bl	8000b4c <HAL_GetTick>
 8002062:	0003      	movs	r3, r0
 8002064:	617b      	str	r3, [r7, #20]

      /* Wait till LSE is ready */
      while(__HAL_RCC_GET_FLAG(RCC_FLAG_LSERDY) == 0U)
 8002066:	e009      	b.n	800207c <HAL_RCC_OscConfig+0x550>
      {
        if((HAL_GetTick() - tickstart ) > RCC_LSE_TIMEOUT_VALUE)
 8002068:	f7fe fd70 	bl	8000b4c <HAL_GetTick>
 800206c:	0002      	movs	r2, r0
 800206e:	697b      	ldr	r3, [r7, #20]
 8002070:	1ad3      	subs	r3, r2, r3
 8002072:	4a52      	ldr	r2, [pc, #328]	; (80021bc <HAL_RCC_OscConfig+0x690>)
 8002074:	4293      	cmp	r3, r2
 8002076:	d901      	bls.n	800207c <HAL_RCC_OscConfig+0x550>
        {
          return HAL_TIMEOUT;
 8002078:	2303      	movs	r3, #3
 800207a:	e0cb      	b.n	8002214 <HAL_RCC_OscConfig+0x6e8>
      while(__HAL_RCC_GET_FLAG(RCC_FLAG_LSERDY) == 0U)
 800207c:	4b4a      	ldr	r3, [pc, #296]	; (80021a8 <HAL_RCC_OscConfig+0x67c>)
 800207e:	6d1a      	ldr	r2, [r3, #80]	; 0x50
 8002080:	2380      	movs	r3, #128	; 0x80
 8002082:	009b      	lsls	r3, r3, #2
 8002084:	4013      	ands	r3, r2
 8002086:	d0ef      	beq.n	8002068 <HAL_RCC_OscConfig+0x53c>
 8002088:	e014      	b.n	80020b4 <HAL_RCC_OscConfig+0x588>
      }
    }
    else
    {
      /* Get Start Tick */
      tickstart = HAL_GetTick();
 800208a:	f7fe fd5f 	bl	8000b4c <HAL_GetTick>
 800208e:	0003      	movs	r3, r0
 8002090:	617b      	str	r3, [r7, #20]

      /* Wait till LSE is disabled */
      while(__HAL_RCC_GET_FLAG(RCC_FLAG_LSERDY) != 0U)
 8002092:	e009      	b.n	80020a8 <HAL_RCC_OscConfig+0x57c>
      {
        if((HAL_GetTick() - tickstart ) > RCC_LSE_TIMEOUT_VALUE)
 8002094:	f7fe fd5a 	bl	8000b4c <HAL_GetTick>
 8002098:	0002      	movs	r2, r0
 800209a:	697b      	ldr	r3, [r7, #20]
 800209c:	1ad3      	subs	r3, r2, r3
 800209e:	4a47      	ldr	r2, [pc, #284]	; (80021bc <HAL_RCC_OscConfig+0x690>)
 80020a0:	4293      	cmp	r3, r2
 80020a2:	d901      	bls.n	80020a8 <HAL_RCC_OscConfig+0x57c>
        {
          return HAL_TIMEOUT;
 80020a4:	2303      	movs	r3, #3
 80020a6:	e0b5      	b.n	8002214 <HAL_RCC_OscConfig+0x6e8>
      while(__HAL_RCC_GET_FLAG(RCC_FLAG_LSERDY) != 0U)
 80020a8:	4b3f      	ldr	r3, [pc, #252]	; (80021a8 <HAL_RCC_OscConfig+0x67c>)
 80020aa:	6d1a      	ldr	r2, [r3, #80]	; 0x50
 80020ac:	2380      	movs	r3, #128	; 0x80
 80020ae:	009b      	lsls	r3, r3, #2
 80020b0:	4013      	ands	r3, r2
 80020b2:	d1ef      	bne.n	8002094 <HAL_RCC_OscConfig+0x568>
        }
      }
    }

    /* Require to disable power clock if necessary */
    if(pwrclkchanged == SET)
 80020b4:	2323      	movs	r3, #35	; 0x23
 80020b6:	18fb      	adds	r3, r7, r3
 80020b8:	781b      	ldrb	r3, [r3, #0]
 80020ba:	2b01      	cmp	r3, #1
 80020bc:	d105      	bne.n	80020ca <HAL_RCC_OscConfig+0x59e>
    {
      __HAL_RCC_PWR_CLK_DISABLE();
 80020be:	4b3a      	ldr	r3, [pc, #232]	; (80021a8 <HAL_RCC_OscConfig+0x67c>)
 80020c0:	6b9a      	ldr	r2, [r3, #56]	; 0x38
 80020c2:	4b39      	ldr	r3, [pc, #228]	; (80021a8 <HAL_RCC_OscConfig+0x67c>)
 80020c4:	493e      	ldr	r1, [pc, #248]	; (80021c0 <HAL_RCC_OscConfig+0x694>)
 80020c6:	400a      	ands	r2, r1
 80020c8:	639a      	str	r2, [r3, #56]	; 0x38
#endif /* RCC_HSI48_SUPPORT */

  /*-------------------------------- PLL Configuration -----------------------*/
  /* Check the parameters */
  assert_param(IS_RCC_PLL(RCC_OscInitStruct->PLL.PLLState));
  if ((RCC_OscInitStruct->PLL.PLLState) != RCC_PLL_NONE)
 80020ca:	687b      	ldr	r3, [r7, #4]
 80020cc:	6a5b      	ldr	r3, [r3, #36]	; 0x24
 80020ce:	2b00      	cmp	r3, #0
 80020d0:	d100      	bne.n	80020d4 <HAL_RCC_OscConfig+0x5a8>
 80020d2:	e09e      	b.n	8002212 <HAL_RCC_OscConfig+0x6e6>
  {
    /* Check if the PLL is used as system clock or not */
    if(sysclk_source != RCC_SYSCLKSOURCE_STATUS_PLLCLK)
 80020d4:	69fb      	ldr	r3, [r7, #28]
 80020d6:	2b0c      	cmp	r3, #12
 80020d8:	d100      	bne.n	80020dc <HAL_RCC_OscConfig+0x5b0>
 80020da:	e077      	b.n	80021cc <HAL_RCC_OscConfig+0x6a0>
    {
      if((RCC_OscInitStruct->PLL.PLLState) == RCC_PLL_ON)
 80020dc:	687b      	ldr	r3, [r7, #4]
 80020de:	6a5b      	ldr	r3, [r3, #36]	; 0x24
 80020e0:	2b02      	cmp	r3, #2
 80020e2:	d145      	bne.n	8002170 <HAL_RCC_OscConfig+0x644>
        assert_param(IS_RCC_PLLSOURCE(RCC_OscInitStruct->PLL.PLLSource));
        assert_param(IS_RCC_PLL_MUL(RCC_OscInitStruct->PLL.PLLMUL));
        assert_param(IS_RCC_PLL_DIV(RCC_OscInitStruct->PLL.PLLDIV));

        /* Disable the main PLL. */
        __HAL_RCC_PLL_DISABLE();
 80020e4:	4b30      	ldr	r3, [pc, #192]	; (80021a8 <HAL_RCC_OscConfig+0x67c>)
 80020e6:	681a      	ldr	r2, [r3, #0]
 80020e8:	4b2f      	ldr	r3, [pc, #188]	; (80021a8 <HAL_RCC_OscConfig+0x67c>)
 80020ea:	4936      	ldr	r1, [pc, #216]	; (80021c4 <HAL_RCC_OscConfig+0x698>)
 80020ec:	400a      	ands	r2, r1
 80020ee:	601a      	str	r2, [r3, #0]

        /* Get Start Tick */
        tickstart = HAL_GetTick();
 80020f0:	f7fe fd2c 	bl	8000b4c <HAL_GetTick>
 80020f4:	0003      	movs	r3, r0
 80020f6:	617b      	str	r3, [r7, #20]

        /* Wait till PLL is disabled */
        while(__HAL_RCC_GET_FLAG(RCC_FLAG_PLLRDY)  != 0U)
 80020f8:	e008      	b.n	800210c <HAL_RCC_OscConfig+0x5e0>
        {
          if((HAL_GetTick() - tickstart ) > PLL_TIMEOUT_VALUE)
 80020fa:	f7fe fd27 	bl	8000b4c <HAL_GetTick>
 80020fe:	0002      	movs	r2, r0
 8002100:	697b      	ldr	r3, [r7, #20]
 8002102:	1ad3      	subs	r3, r2, r3
 8002104:	2b02      	cmp	r3, #2
 8002106:	d901      	bls.n	800210c <HAL_RCC_OscConfig+0x5e0>
          {
            return HAL_TIMEOUT;
 8002108:	2303      	movs	r3, #3
 800210a:	e083      	b.n	8002214 <HAL_RCC_OscConfig+0x6e8>
        while(__HAL_RCC_GET_FLAG(RCC_FLAG_PLLRDY)  != 0U)
 800210c:	4b26      	ldr	r3, [pc, #152]	; (80021a8 <HAL_RCC_OscConfig+0x67c>)
 800210e:	681a      	ldr	r2, [r3, #0]
 8002110:	2380      	movs	r3, #128	; 0x80
 8002112:	049b      	lsls	r3, r3, #18
 8002114:	4013      	ands	r3, r2
 8002116:	d1f0      	bne.n	80020fa <HAL_RCC_OscConfig+0x5ce>
          }
        }

        /* Configure the main PLL clock source, multiplication and division factors. */
        __HAL_RCC_PLL_CONFIG(RCC_OscInitStruct->PLL.PLLSource,
 8002118:	4b23      	ldr	r3, [pc, #140]	; (80021a8 <HAL_RCC_OscConfig+0x67c>)
 800211a:	68db      	ldr	r3, [r3, #12]
 800211c:	4a2a      	ldr	r2, [pc, #168]	; (80021c8 <HAL_RCC_OscConfig+0x69c>)
 800211e:	4013      	ands	r3, r2
 8002120:	0019      	movs	r1, r3
 8002122:	687b      	ldr	r3, [r7, #4]
 8002124:	6a9a      	ldr	r2, [r3, #40]	; 0x28
 8002126:	687b      	ldr	r3, [r7, #4]
 8002128:	6adb      	ldr	r3, [r3, #44]	; 0x2c
 800212a:	431a      	orrs	r2, r3
 800212c:	687b      	ldr	r3, [r7, #4]
 800212e:	6b1b      	ldr	r3, [r3, #48]	; 0x30
 8002130:	431a      	orrs	r2, r3
 8002132:	4b1d      	ldr	r3, [pc, #116]	; (80021a8 <HAL_RCC_OscConfig+0x67c>)
 8002134:	430a      	orrs	r2, r1
 8002136:	60da      	str	r2, [r3, #12]
                             RCC_OscInitStruct->PLL.PLLMUL,
                             RCC_OscInitStruct->PLL.PLLDIV);
        /* Enable the main PLL. */
        __HAL_RCC_PLL_ENABLE();
 8002138:	4b1b      	ldr	r3, [pc, #108]	; (80021a8 <HAL_RCC_OscConfig+0x67c>)
 800213a:	681a      	ldr	r2, [r3, #0]
 800213c:	4b1a      	ldr	r3, [pc, #104]	; (80021a8 <HAL_RCC_OscConfig+0x67c>)
 800213e:	2180      	movs	r1, #128	; 0x80
 8002140:	0449      	lsls	r1, r1, #17
 8002142:	430a      	orrs	r2, r1
 8002144:	601a      	str	r2, [r3, #0]

        /* Get Start Tick */
        tickstart = HAL_GetTick();
 8002146:	f7fe fd01 	bl	8000b4c <HAL_GetTick>
 800214a:	0003      	movs	r3, r0
 800214c:	617b      	str	r3, [r7, #20]

        /* Wait till PLL is ready */
        while(__HAL_RCC_GET_FLAG(RCC_FLAG_PLLRDY)  == 0U)
 800214e:	e008      	b.n	8002162 <HAL_RCC_OscConfig+0x636>
        {
          if((HAL_GetTick() - tickstart ) > PLL_TIMEOUT_VALUE)
 8002150:	f7fe fcfc 	bl	8000b4c <HAL_GetTick>
 8002154:	0002      	movs	r2, r0
 8002156:	697b      	ldr	r3, [r7, #20]
 8002158:	1ad3      	subs	r3, r2, r3
 800215a:	2b02      	cmp	r3, #2
 800215c:	d901      	bls.n	8002162 <HAL_RCC_OscConfig+0x636>
          {
            return HAL_TIMEOUT;
 800215e:	2303      	movs	r3, #3
 8002160:	e058      	b.n	8002214 <HAL_RCC_OscConfig+0x6e8>
        while(__HAL_RCC_GET_FLAG(RCC_FLAG_PLLRDY)  == 0U)
 8002162:	4b11      	ldr	r3, [pc, #68]	; (80021a8 <HAL_RCC_OscConfig+0x67c>)
 8002164:	681a      	ldr	r2, [r3, #0]
 8002166:	2380      	movs	r3, #128	; 0x80
 8002168:	049b      	lsls	r3, r3, #18
 800216a:	4013      	ands	r3, r2
 800216c:	d0f0      	beq.n	8002150 <HAL_RCC_OscConfig+0x624>
 800216e:	e050      	b.n	8002212 <HAL_RCC_OscConfig+0x6e6>
        }
      }
      else
      {
        /* Disable the main PLL. */
        __HAL_RCC_PLL_DISABLE();
 8002170:	4b0d      	ldr	r3, [pc, #52]	; (80021a8 <HAL_RCC_OscConfig+0x67c>)
 8002172:	681a      	ldr	r2, [r3, #0]
 8002174:	4b0c      	ldr	r3, [pc, #48]	; (80021a8 <HAL_RCC_OscConfig+0x67c>)
 8002176:	4913      	ldr	r1, [pc, #76]	; (80021c4 <HAL_RCC_OscConfig+0x698>)
 8002178:	400a      	ands	r2, r1
 800217a:	601a      	str	r2, [r3, #0]

        /* Get Start Tick */
        tickstart = HAL_GetTick();
 800217c:	f7fe fce6 	bl	8000b4c <HAL_GetTick>
 8002180:	0003      	movs	r3, r0
 8002182:	617b      	str	r3, [r7, #20]

        /* Wait till PLL is disabled */
        while(__HAL_RCC_GET_FLAG(RCC_FLAG_PLLRDY)  != 0U)
 8002184:	e008      	b.n	8002198 <HAL_RCC_OscConfig+0x66c>
        {
          if((HAL_GetTick() - tickstart ) > PLL_TIMEOUT_VALUE)
 8002186:	f7fe fce1 	bl	8000b4c <HAL_GetTick>
 800218a:	0002      	movs	r2, r0
 800218c:	697b      	ldr	r3, [r7, #20]
 800218e:	1ad3      	subs	r3, r2, r3
 8002190:	2b02      	cmp	r3, #2
 8002192:	d901      	bls.n	8002198 <HAL_RCC_OscConfig+0x66c>
          {
            return HAL_TIMEOUT;
 8002194:	2303      	movs	r3, #3
 8002196:	e03d      	b.n	8002214 <HAL_RCC_OscConfig+0x6e8>
        while(__HAL_RCC_GET_FLAG(RCC_FLAG_PLLRDY)  != 0U)
 8002198:	4b03      	ldr	r3, [pc, #12]	; (80021a8 <HAL_RCC_OscConfig+0x67c>)
 800219a:	681a      	ldr	r2, [r3, #0]
 800219c:	2380      	movs	r3, #128	; 0x80
 800219e:	049b      	lsls	r3, r3, #18
 80021a0:	4013      	ands	r3, r2
 80021a2:	d1f0      	bne.n	8002186 <HAL_RCC_OscConfig+0x65a>
 80021a4:	e035      	b.n	8002212 <HAL_RCC_OscConfig+0x6e6>
 80021a6:	46c0      	nop			; (mov r8, r8)
 80021a8:	40021000 	.word	0x40021000
 80021ac:	ffff1fff 	.word	0xffff1fff
 80021b0:	fffffeff 	.word	0xfffffeff
 80021b4:	40007000 	.word	0x40007000
 80021b8:	fffffbff 	.word	0xfffffbff
 80021bc:	00001388 	.word	0x00001388
 80021c0:	efffffff 	.word	0xefffffff
 80021c4:	feffffff 	.word	0xfeffffff
 80021c8:	ff02ffff 	.word	0xff02ffff
      }
    }
    else
    {
      /* Check if there is a request to disable the PLL used as System clock source */
      if((RCC_OscInitStruct->PLL.PLLState) == RCC_PLL_OFF)
 80021cc:	687b      	ldr	r3, [r7, #4]
 80021ce:	6a5b      	ldr	r3, [r3, #36]	; 0x24
 80021d0:	2b01      	cmp	r3, #1
 80021d2:	d101      	bne.n	80021d8 <HAL_RCC_OscConfig+0x6ac>
      {
        return HAL_ERROR;
 80021d4:	2301      	movs	r3, #1
 80021d6:	e01d      	b.n	8002214 <HAL_RCC_OscConfig+0x6e8>
      }
      else
      {
        /* Do not return HAL_ERROR if request repeats the current configuration */
        pll_config = RCC->CFGR;
 80021d8:	4b10      	ldr	r3, [pc, #64]	; (800221c <HAL_RCC_OscConfig+0x6f0>)
 80021da:	68db      	ldr	r3, [r3, #12]
 80021dc:	61bb      	str	r3, [r7, #24]
        if((READ_BIT(pll_config, RCC_CFGR_PLLSRC) != RCC_OscInitStruct->PLL.PLLSource) ||
 80021de:	69ba      	ldr	r2, [r7, #24]
 80021e0:	2380      	movs	r3, #128	; 0x80
 80021e2:	025b      	lsls	r3, r3, #9
 80021e4:	401a      	ands	r2, r3
 80021e6:	687b      	ldr	r3, [r7, #4]
 80021e8:	6a9b      	ldr	r3, [r3, #40]	; 0x28
 80021ea:	429a      	cmp	r2, r3
 80021ec:	d10f      	bne.n	800220e <HAL_RCC_OscConfig+0x6e2>
           (READ_BIT(pll_config, RCC_CFGR_PLLMUL) != RCC_OscInitStruct->PLL.PLLMUL) ||
 80021ee:	69ba      	ldr	r2, [r7, #24]
 80021f0:	23f0      	movs	r3, #240	; 0xf0
 80021f2:	039b      	lsls	r3, r3, #14
 80021f4:	401a      	ands	r2, r3
 80021f6:	687b      	ldr	r3, [r7, #4]
 80021f8:	6adb      	ldr	r3, [r3, #44]	; 0x2c
        if((READ_BIT(pll_config, RCC_CFGR_PLLSRC) != RCC_OscInitStruct->PLL.PLLSource) ||
 80021fa:	429a      	cmp	r2, r3
 80021fc:	d107      	bne.n	800220e <HAL_RCC_OscConfig+0x6e2>
           (READ_BIT(pll_config, RCC_CFGR_PLLDIV) != RCC_OscInitStruct->PLL.PLLDIV))
 80021fe:	69ba      	ldr	r2, [r7, #24]
 8002200:	23c0      	movs	r3, #192	; 0xc0
 8002202:	041b      	lsls	r3, r3, #16
 8002204:	401a      	ands	r2, r3
 8002206:	687b      	ldr	r3, [r7, #4]
 8002208:	6b1b      	ldr	r3, [r3, #48]	; 0x30
           (READ_BIT(pll_config, RCC_CFGR_PLLMUL) != RCC_OscInitStruct->PLL.PLLMUL) ||
 800220a:	429a      	cmp	r2, r3
 800220c:	d001      	beq.n	8002212 <HAL_RCC_OscConfig+0x6e6>
        {
          return HAL_ERROR;
 800220e:	2301      	movs	r3, #1
 8002210:	e000      	b.n	8002214 <HAL_RCC_OscConfig+0x6e8>
        }
      }
    }
  }

  return HAL_OK;
 8002212:	2300      	movs	r3, #0
}
 8002214:	0018      	movs	r0, r3
 8002216:	46bd      	mov	sp, r7
 8002218:	b00a      	add	sp, #40	; 0x28
 800221a:	bdb0      	pop	{r4, r5, r7, pc}
 800221c:	40021000 	.word	0x40021000

08002220 <HAL_RCC_ClockConfig>:
  *         HPRE[3:0] bits to ensure that HCLK not exceed the maximum allowed frequency
  *         (for more details refer to section above "Initialization/de-initialization functions")
  * @retval HAL status
  */
HAL_StatusTypeDef HAL_RCC_ClockConfig(RCC_ClkInitTypeDef  *RCC_ClkInitStruct, uint32_t FLatency)
{
 8002220:	b5b0      	push	{r4, r5, r7, lr}
 8002222:	b084      	sub	sp, #16
 8002224:	af00      	add	r7, sp, #0
 8002226:	6078      	str	r0, [r7, #4]
 8002228:	6039      	str	r1, [r7, #0]
  uint32_t tickstart;
  HAL_StatusTypeDef status;

  /* Check the parameters */
  if(RCC_ClkInitStruct == NULL)
 800222a:	687b      	ldr	r3, [r7, #4]
 800222c:	2b00      	cmp	r3, #0
 800222e:	d101      	bne.n	8002234 <HAL_RCC_ClockConfig+0x14>
  {
    return HAL_ERROR;
 8002230:	2301      	movs	r3, #1
 8002232:	e10d      	b.n	8002450 <HAL_RCC_ClockConfig+0x230>
  /* To correctly read data from FLASH memory, the number of wait states (LATENCY)
  must be correctly programmed according to the frequency of the CPU clock
  (HCLK) and the supply voltage of the device. */

  /* Increasing the number of wait states because of higher CPU frequency */
  if(FLatency > __HAL_FLASH_GET_LATENCY())
 8002234:	4b88      	ldr	r3, [pc, #544]	; (8002458 <HAL_RCC_ClockConfig+0x238>)
 8002236:	681b      	ldr	r3, [r3, #0]
 8002238:	2201      	movs	r2, #1
 800223a:	4013      	ands	r3, r2
 800223c:	683a      	ldr	r2, [r7, #0]
 800223e:	429a      	cmp	r2, r3
 8002240:	d911      	bls.n	8002266 <HAL_RCC_ClockConfig+0x46>
  {
    /* Program the new number of wait states to the LATENCY bits in the FLASH_ACR register */
    __HAL_FLASH_SET_LATENCY(FLatency);
 8002242:	4b85      	ldr	r3, [pc, #532]	; (8002458 <HAL_RCC_ClockConfig+0x238>)
 8002244:	681b      	ldr	r3, [r3, #0]
 8002246:	2201      	movs	r2, #1
 8002248:	4393      	bics	r3, r2
 800224a:	0019      	movs	r1, r3
 800224c:	4b82      	ldr	r3, [pc, #520]	; (8002458 <HAL_RCC_ClockConfig+0x238>)
 800224e:	683a      	ldr	r2, [r7, #0]
 8002250:	430a      	orrs	r2, r1
 8002252:	601a      	str	r2, [r3, #0]

    /* Check that the new number of wait states is taken into account to access the Flash
    memory by reading the FLASH_ACR register */
    if(__HAL_FLASH_GET_LATENCY() != FLatency)
 8002254:	4b80      	ldr	r3, [pc, #512]	; (8002458 <HAL_RCC_ClockConfig+0x238>)
 8002256:	681b      	ldr	r3, [r3, #0]
 8002258:	2201      	movs	r2, #1
 800225a:	4013      	ands	r3, r2
 800225c:	683a      	ldr	r2, [r7, #0]
 800225e:	429a      	cmp	r2, r3
 8002260:	d001      	beq.n	8002266 <HAL_RCC_ClockConfig+0x46>
    {
      return HAL_ERROR;
 8002262:	2301      	movs	r3, #1
 8002264:	e0f4      	b.n	8002450 <HAL_RCC_ClockConfig+0x230>
    }
  }

  /*-------------------------- HCLK Configuration --------------------------*/
  if(((RCC_ClkInitStruct->ClockType) & RCC_CLOCKTYPE_HCLK) == RCC_CLOCKTYPE_HCLK)
 8002266:	687b      	ldr	r3, [r7, #4]
 8002268:	681b      	ldr	r3, [r3, #0]
 800226a:	2202      	movs	r2, #2
 800226c:	4013      	ands	r3, r2
 800226e:	d009      	beq.n	8002284 <HAL_RCC_ClockConfig+0x64>
  {
    assert_param(IS_RCC_HCLK(RCC_ClkInitStruct->AHBCLKDivider));
    MODIFY_REG(RCC->CFGR, RCC_CFGR_HPRE, RCC_ClkInitStruct->AHBCLKDivider);
 8002270:	4b7a      	ldr	r3, [pc, #488]	; (800245c <HAL_RCC_ClockConfig+0x23c>)
 8002272:	68db      	ldr	r3, [r3, #12]
 8002274:	22f0      	movs	r2, #240	; 0xf0
 8002276:	4393      	bics	r3, r2
 8002278:	0019      	movs	r1, r3
 800227a:	687b      	ldr	r3, [r7, #4]
 800227c:	689a      	ldr	r2, [r3, #8]
 800227e:	4b77      	ldr	r3, [pc, #476]	; (800245c <HAL_RCC_ClockConfig+0x23c>)
 8002280:	430a      	orrs	r2, r1
 8002282:	60da      	str	r2, [r3, #12]
  }

  /*------------------------- SYSCLK Configuration ---------------------------*/
  if(((RCC_ClkInitStruct->ClockType) & RCC_CLOCKTYPE_SYSCLK) == RCC_CLOCKTYPE_SYSCLK)
 8002284:	687b      	ldr	r3, [r7, #4]
 8002286:	681b      	ldr	r3, [r3, #0]
 8002288:	2201      	movs	r2, #1
 800228a:	4013      	ands	r3, r2
 800228c:	d100      	bne.n	8002290 <HAL_RCC_ClockConfig+0x70>
 800228e:	e089      	b.n	80023a4 <HAL_RCC_ClockConfig+0x184>
  {
    assert_param(IS_RCC_SYSCLKSOURCE(RCC_ClkInitStruct->SYSCLKSource));

    /* HSE is selected as System Clock Source */
    if(RCC_ClkInitStruct->SYSCLKSource == RCC_SYSCLKSOURCE_HSE)
 8002290:	687b      	ldr	r3, [r7, #4]
 8002292:	685b      	ldr	r3, [r3, #4]
 8002294:	2b02      	cmp	r3, #2
 8002296:	d107      	bne.n	80022a8 <HAL_RCC_ClockConfig+0x88>
    {
      /* Check the HSE ready flag */
      if(__HAL_RCC_GET_FLAG(RCC_FLAG_HSERDY) == 0U)
 8002298:	4b70      	ldr	r3, [pc, #448]	; (800245c <HAL_RCC_ClockConfig+0x23c>)
 800229a:	681a      	ldr	r2, [r3, #0]
 800229c:	2380      	movs	r3, #128	; 0x80
 800229e:	029b      	lsls	r3, r3, #10
 80022a0:	4013      	ands	r3, r2
 80022a2:	d120      	bne.n	80022e6 <HAL_RCC_ClockConfig+0xc6>
      {
        return HAL_ERROR;
 80022a4:	2301      	movs	r3, #1
 80022a6:	e0d3      	b.n	8002450 <HAL_RCC_ClockConfig+0x230>
      }
    }
    /* PLL is selected as System Clock Source */
    else if(RCC_ClkInitStruct->SYSCLKSource == RCC_SYSCLKSOURCE_PLLCLK)
 80022a8:	687b      	ldr	r3, [r7, #4]
 80022aa:	685b      	ldr	r3, [r3, #4]
 80022ac:	2b03      	cmp	r3, #3
 80022ae:	d107      	bne.n	80022c0 <HAL_RCC_ClockConfig+0xa0>
    {
      /* Check the PLL ready flag */
      if(__HAL_RCC_GET_FLAG(RCC_FLAG_PLLRDY) == 0U)
 80022b0:	4b6a      	ldr	r3, [pc, #424]	; (800245c <HAL_RCC_ClockConfig+0x23c>)
 80022b2:	681a      	ldr	r2, [r3, #0]
 80022b4:	2380      	movs	r3, #128	; 0x80
 80022b6:	049b      	lsls	r3, r3, #18
 80022b8:	4013      	ands	r3, r2
 80022ba:	d114      	bne.n	80022e6 <HAL_RCC_ClockConfig+0xc6>
      {
        return HAL_ERROR;
 80022bc:	2301      	movs	r3, #1
 80022be:	e0c7      	b.n	8002450 <HAL_RCC_ClockConfig+0x230>
      }
    }
    /* HSI is selected as System Clock Source */
    else if(RCC_ClkInitStruct->SYSCLKSource == RCC_SYSCLKSOURCE_HSI)
 80022c0:	687b      	ldr	r3, [r7, #4]
 80022c2:	685b      	ldr	r3, [r3, #4]
 80022c4:	2b01      	cmp	r3, #1
 80022c6:	d106      	bne.n	80022d6 <HAL_RCC_ClockConfig+0xb6>
    {
      /* Check the HSI ready flag */
      if(__HAL_RCC_GET_FLAG(RCC_FLAG_HSIRDY) == 0U)
 80022c8:	4b64      	ldr	r3, [pc, #400]	; (800245c <HAL_RCC_ClockConfig+0x23c>)
 80022ca:	681b      	ldr	r3, [r3, #0]
 80022cc:	2204      	movs	r2, #4
 80022ce:	4013      	ands	r3, r2
 80022d0:	d109      	bne.n	80022e6 <HAL_RCC_ClockConfig+0xc6>
      {
        return HAL_ERROR;
 80022d2:	2301      	movs	r3, #1
 80022d4:	e0bc      	b.n	8002450 <HAL_RCC_ClockConfig+0x230>
    }
    /* MSI is selected as System Clock Source */
    else
    {
      /* Check the MSI ready flag */
      if(__HAL_RCC_GET_FLAG(RCC_FLAG_MSIRDY) == 0U)
 80022d6:	4b61      	ldr	r3, [pc, #388]	; (800245c <HAL_RCC_ClockConfig+0x23c>)
 80022d8:	681a      	ldr	r2, [r3, #0]
 80022da:	2380      	movs	r3, #128	; 0x80
 80022dc:	009b      	lsls	r3, r3, #2
 80022de:	4013      	ands	r3, r2
 80022e0:	d101      	bne.n	80022e6 <HAL_RCC_ClockConfig+0xc6>
      {
        return HAL_ERROR;
 80022e2:	2301      	movs	r3, #1
 80022e4:	e0b4      	b.n	8002450 <HAL_RCC_ClockConfig+0x230>
      }
    }
    __HAL_RCC_SYSCLK_CONFIG(RCC_ClkInitStruct->SYSCLKSource);
 80022e6:	4b5d      	ldr	r3, [pc, #372]	; (800245c <HAL_RCC_ClockConfig+0x23c>)
 80022e8:	68db      	ldr	r3, [r3, #12]
 80022ea:	2203      	movs	r2, #3
 80022ec:	4393      	bics	r3, r2
 80022ee:	0019      	movs	r1, r3
 80022f0:	687b      	ldr	r3, [r7, #4]
 80022f2:	685a      	ldr	r2, [r3, #4]
 80022f4:	4b59      	ldr	r3, [pc, #356]	; (800245c <HAL_RCC_ClockConfig+0x23c>)
 80022f6:	430a      	orrs	r2, r1
 80022f8:	60da      	str	r2, [r3, #12]

    /* Get Start Tick */
    tickstart = HAL_GetTick();
 80022fa:	f7fe fc27 	bl	8000b4c <HAL_GetTick>
 80022fe:	0003      	movs	r3, r0
 8002300:	60fb      	str	r3, [r7, #12]

    if(RCC_ClkInitStruct->SYSCLKSource == RCC_SYSCLKSOURCE_HSE)
 8002302:	687b      	ldr	r3, [r7, #4]
 8002304:	685b      	ldr	r3, [r3, #4]
 8002306:	2b02      	cmp	r3, #2
 8002308:	d111      	bne.n	800232e <HAL_RCC_ClockConfig+0x10e>
    {
      while (__HAL_RCC_GET_SYSCLK_SOURCE() != RCC_SYSCLKSOURCE_STATUS_HSE)
 800230a:	e009      	b.n	8002320 <HAL_RCC_ClockConfig+0x100>
      {
        if((HAL_GetTick() - tickstart ) > CLOCKSWITCH_TIMEOUT_VALUE)
 800230c:	f7fe fc1e 	bl	8000b4c <HAL_GetTick>
 8002310:	0002      	movs	r2, r0
 8002312:	68fb      	ldr	r3, [r7, #12]
 8002314:	1ad3      	subs	r3, r2, r3
 8002316:	4a52      	ldr	r2, [pc, #328]	; (8002460 <HAL_RCC_ClockConfig+0x240>)
 8002318:	4293      	cmp	r3, r2
 800231a:	d901      	bls.n	8002320 <HAL_RCC_ClockConfig+0x100>
        {
          return HAL_TIMEOUT;
 800231c:	2303      	movs	r3, #3
 800231e:	e097      	b.n	8002450 <HAL_RCC_ClockConfig+0x230>
      while (__HAL_RCC_GET_SYSCLK_SOURCE() != RCC_SYSCLKSOURCE_STATUS_HSE)
 8002320:	4b4e      	ldr	r3, [pc, #312]	; (800245c <HAL_RCC_ClockConfig+0x23c>)
 8002322:	68db      	ldr	r3, [r3, #12]
 8002324:	220c      	movs	r2, #12
 8002326:	4013      	ands	r3, r2
 8002328:	2b08      	cmp	r3, #8
 800232a:	d1ef      	bne.n	800230c <HAL_RCC_ClockConfig+0xec>
 800232c:	e03a      	b.n	80023a4 <HAL_RCC_ClockConfig+0x184>
        }
      }
    }
    else if(RCC_ClkInitStruct->SYSCLKSource == RCC_SYSCLKSOURCE_PLLCLK)
 800232e:	687b      	ldr	r3, [r7, #4]
 8002330:	685b      	ldr	r3, [r3, #4]
 8002332:	2b03      	cmp	r3, #3
 8002334:	d111      	bne.n	800235a <HAL_RCC_ClockConfig+0x13a>
    {
      while (__HAL_RCC_GET_SYSCLK_SOURCE() != RCC_SYSCLKSOURCE_STATUS_PLLCLK)
 8002336:	e009      	b.n	800234c <HAL_RCC_ClockConfig+0x12c>
      {
        if((HAL_GetTick() - tickstart ) > CLOCKSWITCH_TIMEOUT_VALUE)
 8002338:	f7fe fc08 	bl	8000b4c <HAL_GetTick>
 800233c:	0002      	movs	r2, r0
 800233e:	68fb      	ldr	r3, [r7, #12]
 8002340:	1ad3      	subs	r3, r2, r3
 8002342:	4a47      	ldr	r2, [pc, #284]	; (8002460 <HAL_RCC_ClockConfig+0x240>)
 8002344:	4293      	cmp	r3, r2
 8002346:	d901      	bls.n	800234c <HAL_RCC_ClockConfig+0x12c>
        {
          return HAL_TIMEOUT;
 8002348:	2303      	movs	r3, #3
 800234a:	e081      	b.n	8002450 <HAL_RCC_ClockConfig+0x230>
      while (__HAL_RCC_GET_SYSCLK_SOURCE() != RCC_SYSCLKSOURCE_STATUS_PLLCLK)
 800234c:	4b43      	ldr	r3, [pc, #268]	; (800245c <HAL_RCC_ClockConfig+0x23c>)
 800234e:	68db      	ldr	r3, [r3, #12]
 8002350:	220c      	movs	r2, #12
 8002352:	4013      	ands	r3, r2
 8002354:	2b0c      	cmp	r3, #12
 8002356:	d1ef      	bne.n	8002338 <HAL_RCC_ClockConfig+0x118>
 8002358:	e024      	b.n	80023a4 <HAL_RCC_ClockConfig+0x184>
        }
      }
    }
    else if(RCC_ClkInitStruct->SYSCLKSource == RCC_SYSCLKSOURCE_HSI)
 800235a:	687b      	ldr	r3, [r7, #4]
 800235c:	685b      	ldr	r3, [r3, #4]
 800235e:	2b01      	cmp	r3, #1
 8002360:	d11b      	bne.n	800239a <HAL_RCC_ClockConfig+0x17a>
    {
      while (__HAL_RCC_GET_SYSCLK_SOURCE() != RCC_SYSCLKSOURCE_STATUS_HSI)
 8002362:	e009      	b.n	8002378 <HAL_RCC_ClockConfig+0x158>
      {
        if((HAL_GetTick() - tickstart ) > CLOCKSWITCH_TIMEOUT_VALUE)
 8002364:	f7fe fbf2 	bl	8000b4c <HAL_GetTick>
 8002368:	0002      	movs	r2, r0
 800236a:	68fb      	ldr	r3, [r7, #12]
 800236c:	1ad3      	subs	r3, r2, r3
 800236e:	4a3c      	ldr	r2, [pc, #240]	; (8002460 <HAL_RCC_ClockConfig+0x240>)
 8002370:	4293      	cmp	r3, r2
 8002372:	d901      	bls.n	8002378 <HAL_RCC_ClockConfig+0x158>
        {
          return HAL_TIMEOUT;
 8002374:	2303      	movs	r3, #3
 8002376:	e06b      	b.n	8002450 <HAL_RCC_ClockConfig+0x230>
      while (__HAL_RCC_GET_SYSCLK_SOURCE() != RCC_SYSCLKSOURCE_STATUS_HSI)
 8002378:	4b38      	ldr	r3, [pc, #224]	; (800245c <HAL_RCC_ClockConfig+0x23c>)
 800237a:	68db      	ldr	r3, [r3, #12]
 800237c:	220c      	movs	r2, #12
 800237e:	4013      	ands	r3, r2
 8002380:	2b04      	cmp	r3, #4
 8002382:	d1ef      	bne.n	8002364 <HAL_RCC_ClockConfig+0x144>
 8002384:	e00e      	b.n	80023a4 <HAL_RCC_ClockConfig+0x184>
    }
    else
    {
      while(__HAL_RCC_GET_SYSCLK_SOURCE() != RCC_SYSCLKSOURCE_STATUS_MSI)
      {
        if((HAL_GetTick() - tickstart ) > CLOCKSWITCH_TIMEOUT_VALUE)
 8002386:	f7fe fbe1 	bl	8000b4c <HAL_GetTick>
 800238a:	0002      	movs	r2, r0
 800238c:	68fb      	ldr	r3, [r7, #12]
 800238e:	1ad3      	subs	r3, r2, r3
 8002390:	4a33      	ldr	r2, [pc, #204]	; (8002460 <HAL_RCC_ClockConfig+0x240>)
 8002392:	4293      	cmp	r3, r2
 8002394:	d901      	bls.n	800239a <HAL_RCC_ClockConfig+0x17a>
        {
          return HAL_TIMEOUT;
 8002396:	2303      	movs	r3, #3
 8002398:	e05a      	b.n	8002450 <HAL_RCC_ClockConfig+0x230>
      while(__HAL_RCC_GET_SYSCLK_SOURCE() != RCC_SYSCLKSOURCE_STATUS_MSI)
 800239a:	4b30      	ldr	r3, [pc, #192]	; (800245c <HAL_RCC_ClockConfig+0x23c>)
 800239c:	68db      	ldr	r3, [r3, #12]
 800239e:	220c      	movs	r2, #12
 80023a0:	4013      	ands	r3, r2
 80023a2:	d1f0      	bne.n	8002386 <HAL_RCC_ClockConfig+0x166>
        }
      }
    }
  }
  /* Decreasing the number of wait states because of lower CPU frequency */
  if(FLatency < __HAL_FLASH_GET_LATENCY())
 80023a4:	4b2c      	ldr	r3, [pc, #176]	; (8002458 <HAL_RCC_ClockConfig+0x238>)
 80023a6:	681b      	ldr	r3, [r3, #0]
 80023a8:	2201      	movs	r2, #1
 80023aa:	4013      	ands	r3, r2
 80023ac:	683a      	ldr	r2, [r7, #0]
 80023ae:	429a      	cmp	r2, r3
 80023b0:	d211      	bcs.n	80023d6 <HAL_RCC_ClockConfig+0x1b6>
  {
    /* Program the new number of wait states to the LATENCY bits in the FLASH_ACR register */
    __HAL_FLASH_SET_LATENCY(FLatency);
 80023b2:	4b29      	ldr	r3, [pc, #164]	; (8002458 <HAL_RCC_ClockConfig+0x238>)
 80023b4:	681b      	ldr	r3, [r3, #0]
 80023b6:	2201      	movs	r2, #1
 80023b8:	4393      	bics	r3, r2
 80023ba:	0019      	movs	r1, r3
 80023bc:	4b26      	ldr	r3, [pc, #152]	; (8002458 <HAL_RCC_ClockConfig+0x238>)
 80023be:	683a      	ldr	r2, [r7, #0]
 80023c0:	430a      	orrs	r2, r1
 80023c2:	601a      	str	r2, [r3, #0]

    /* Check that the new number of wait states is taken into account to access the Flash
    memory by reading the FLASH_ACR register */
    if(__HAL_FLASH_GET_LATENCY() != FLatency)
 80023c4:	4b24      	ldr	r3, [pc, #144]	; (8002458 <HAL_RCC_ClockConfig+0x238>)
 80023c6:	681b      	ldr	r3, [r3, #0]
 80023c8:	2201      	movs	r2, #1
 80023ca:	4013      	ands	r3, r2
 80023cc:	683a      	ldr	r2, [r7, #0]
 80023ce:	429a      	cmp	r2, r3
 80023d0:	d001      	beq.n	80023d6 <HAL_RCC_ClockConfig+0x1b6>
    {
      return HAL_ERROR;
 80023d2:	2301      	movs	r3, #1
 80023d4:	e03c      	b.n	8002450 <HAL_RCC_ClockConfig+0x230>
    }
  }

  /*-------------------------- PCLK1 Configuration ---------------------------*/
  if(((RCC_ClkInitStruct->ClockType) & RCC_CLOCKTYPE_PCLK1) == RCC_CLOCKTYPE_PCLK1)
 80023d6:	687b      	ldr	r3, [r7, #4]
 80023d8:	681b      	ldr	r3, [r3, #0]
 80023da:	2204      	movs	r2, #4
 80023dc:	4013      	ands	r3, r2
 80023de:	d009      	beq.n	80023f4 <HAL_RCC_ClockConfig+0x1d4>
  {
    assert_param(IS_RCC_PCLK(RCC_ClkInitStruct->APB1CLKDivider));
    MODIFY_REG(RCC->CFGR, RCC_CFGR_PPRE1, RCC_ClkInitStruct->APB1CLKDivider);
 80023e0:	4b1e      	ldr	r3, [pc, #120]	; (800245c <HAL_RCC_ClockConfig+0x23c>)
 80023e2:	68db      	ldr	r3, [r3, #12]
 80023e4:	4a1f      	ldr	r2, [pc, #124]	; (8002464 <HAL_RCC_ClockConfig+0x244>)
 80023e6:	4013      	ands	r3, r2
 80023e8:	0019      	movs	r1, r3
 80023ea:	687b      	ldr	r3, [r7, #4]
 80023ec:	68da      	ldr	r2, [r3, #12]
 80023ee:	4b1b      	ldr	r3, [pc, #108]	; (800245c <HAL_RCC_ClockConfig+0x23c>)
 80023f0:	430a      	orrs	r2, r1
 80023f2:	60da      	str	r2, [r3, #12]
  }

  /*-------------------------- PCLK2 Configuration ---------------------------*/
  if(((RCC_ClkInitStruct->ClockType) & RCC_CLOCKTYPE_PCLK2) == RCC_CLOCKTYPE_PCLK2)
 80023f4:	687b      	ldr	r3, [r7, #4]
 80023f6:	681b      	ldr	r3, [r3, #0]
 80023f8:	2208      	movs	r2, #8
 80023fa:	4013      	ands	r3, r2
 80023fc:	d00a      	beq.n	8002414 <HAL_RCC_ClockConfig+0x1f4>
  {
    assert_param(IS_RCC_PCLK(RCC_ClkInitStruct->APB2CLKDivider));
    MODIFY_REG(RCC->CFGR, RCC_CFGR_PPRE2, ((RCC_ClkInitStruct->APB2CLKDivider) << 3));
 80023fe:	4b17      	ldr	r3, [pc, #92]	; (800245c <HAL_RCC_ClockConfig+0x23c>)
 8002400:	68db      	ldr	r3, [r3, #12]
 8002402:	4a19      	ldr	r2, [pc, #100]	; (8002468 <HAL_RCC_ClockConfig+0x248>)
 8002404:	4013      	ands	r3, r2
 8002406:	0019      	movs	r1, r3
 8002408:	687b      	ldr	r3, [r7, #4]
 800240a:	691b      	ldr	r3, [r3, #16]
 800240c:	00da      	lsls	r2, r3, #3
 800240e:	4b13      	ldr	r3, [pc, #76]	; (800245c <HAL_RCC_ClockConfig+0x23c>)
 8002410:	430a      	orrs	r2, r1
 8002412:	60da      	str	r2, [r3, #12]
  }

  /* Update the SystemCoreClock global variable */
  SystemCoreClock = HAL_RCC_GetSysClockFreq() >> AHBPrescTable[(RCC->CFGR & RCC_CFGR_HPRE)>> RCC_CFGR_HPRE_Pos];
 8002414:	f000 f82e 	bl	8002474 <HAL_RCC_GetSysClockFreq>
 8002418:	0001      	movs	r1, r0
 800241a:	4b10      	ldr	r3, [pc, #64]	; (800245c <HAL_RCC_ClockConfig+0x23c>)
 800241c:	68db      	ldr	r3, [r3, #12]
 800241e:	091b      	lsrs	r3, r3, #4
 8002420:	220f      	movs	r2, #15
 8002422:	4013      	ands	r3, r2
 8002424:	4a11      	ldr	r2, [pc, #68]	; (800246c <HAL_RCC_ClockConfig+0x24c>)
 8002426:	5cd3      	ldrb	r3, [r2, r3]
 8002428:	000a      	movs	r2, r1
 800242a:	40da      	lsrs	r2, r3
 800242c:	4b10      	ldr	r3, [pc, #64]	; (8002470 <HAL_RCC_ClockConfig+0x250>)
 800242e:	601a      	str	r2, [r3, #0]

  /* Configure the source of time base considering new system clocks settings*/
  status = HAL_InitTick(TICK_INT_PRIORITY);
 8002430:	250b      	movs	r5, #11
 8002432:	197c      	adds	r4, r7, r5
 8002434:	2000      	movs	r0, #0
 8002436:	f7fe fb53 	bl	8000ae0 <HAL_InitTick>
 800243a:	0003      	movs	r3, r0
 800243c:	7023      	strb	r3, [r4, #0]
  if(status != HAL_OK)
 800243e:	197b      	adds	r3, r7, r5
 8002440:	781b      	ldrb	r3, [r3, #0]
 8002442:	2b00      	cmp	r3, #0
 8002444:	d003      	beq.n	800244e <HAL_RCC_ClockConfig+0x22e>
  {
    return status;
 8002446:	230b      	movs	r3, #11
 8002448:	18fb      	adds	r3, r7, r3
 800244a:	781b      	ldrb	r3, [r3, #0]
 800244c:	e000      	b.n	8002450 <HAL_RCC_ClockConfig+0x230>
  }

  return HAL_OK;
 800244e:	2300      	movs	r3, #0
}
 8002450:	0018      	movs	r0, r3
 8002452:	46bd      	mov	sp, r7
 8002454:	b004      	add	sp, #16
 8002456:	bdb0      	pop	{r4, r5, r7, pc}
 8002458:	40022000 	.word	0x40022000
 800245c:	40021000 	.word	0x40021000
 8002460:	00001388 	.word	0x00001388
 8002464:	fffff8ff 	.word	0xfffff8ff
 8002468:	ffffc7ff 	.word	0xffffc7ff
 800246c:	080030cc 	.word	0x080030cc
 8002470:	20000000 	.word	0x20000000

08002474 <HAL_RCC_GetSysClockFreq>:
  *         right SYSCLK value. Otherwise, any configuration based on this function will be incorrect.
  *
  * @retval SYSCLK frequency
  */
uint32_t HAL_RCC_GetSysClockFreq(void)
{
 8002474:	b580      	push	{r7, lr}
 8002476:	b086      	sub	sp, #24
 8002478:	af00      	add	r7, sp, #0
  uint32_t tmpreg, pllm, plld, pllvco, msiclkrange;    /* no init needed */
  uint32_t sysclockfreq;

  tmpreg = RCC->CFGR;
 800247a:	4b3b      	ldr	r3, [pc, #236]	; (8002568 <HAL_RCC_GetSysClockFreq+0xf4>)
 800247c:	68db      	ldr	r3, [r3, #12]
 800247e:	60fb      	str	r3, [r7, #12]

  /* Get SYSCLK source -------------------------------------------------------*/
  switch (tmpreg & RCC_CFGR_SWS)
 8002480:	68fb      	ldr	r3, [r7, #12]
 8002482:	220c      	movs	r2, #12
 8002484:	4013      	ands	r3, r2
 8002486:	2b08      	cmp	r3, #8
 8002488:	d00e      	beq.n	80024a8 <HAL_RCC_GetSysClockFreq+0x34>
 800248a:	2b0c      	cmp	r3, #12
 800248c:	d00f      	beq.n	80024ae <HAL_RCC_GetSysClockFreq+0x3a>
 800248e:	2b04      	cmp	r3, #4
 8002490:	d157      	bne.n	8002542 <HAL_RCC_GetSysClockFreq+0xce>
  {
    case RCC_SYSCLKSOURCE_STATUS_HSI:  /* HSI used as system clock source */
    {
      if ((RCC->CR & RCC_CR_HSIDIVF) != 0U)
 8002492:	4b35      	ldr	r3, [pc, #212]	; (8002568 <HAL_RCC_GetSysClockFreq+0xf4>)
 8002494:	681b      	ldr	r3, [r3, #0]
 8002496:	2210      	movs	r2, #16
 8002498:	4013      	ands	r3, r2
 800249a:	d002      	beq.n	80024a2 <HAL_RCC_GetSysClockFreq+0x2e>
      {
        sysclockfreq =  (HSI_VALUE >> 2);
 800249c:	4b33      	ldr	r3, [pc, #204]	; (800256c <HAL_RCC_GetSysClockFreq+0xf8>)
 800249e:	613b      	str	r3, [r7, #16]
      }
      else
      {
        sysclockfreq =  HSI_VALUE;
      }
      break;
 80024a0:	e05d      	b.n	800255e <HAL_RCC_GetSysClockFreq+0xea>
        sysclockfreq =  HSI_VALUE;
 80024a2:	4b33      	ldr	r3, [pc, #204]	; (8002570 <HAL_RCC_GetSysClockFreq+0xfc>)
 80024a4:	613b      	str	r3, [r7, #16]
      break;
 80024a6:	e05a      	b.n	800255e <HAL_RCC_GetSysClockFreq+0xea>
    }
    case RCC_SYSCLKSOURCE_STATUS_HSE:  /* HSE used as system clock */
    {
      sysclockfreq = HSE_VALUE;
 80024a8:	4b32      	ldr	r3, [pc, #200]	; (8002574 <HAL_RCC_GetSysClockFreq+0x100>)
 80024aa:	613b      	str	r3, [r7, #16]
      break;
 80024ac:	e057      	b.n	800255e <HAL_RCC_GetSysClockFreq+0xea>
    }
    case RCC_SYSCLKSOURCE_STATUS_PLLCLK:  /* PLL used as system clock */
    {
      pllm = PLLMulTable[(uint32_t)(tmpreg & RCC_CFGR_PLLMUL) >> RCC_CFGR_PLLMUL_Pos];
 80024ae:	68fb      	ldr	r3, [r7, #12]
 80024b0:	0c9b      	lsrs	r3, r3, #18
 80024b2:	220f      	movs	r2, #15
 80024b4:	4013      	ands	r3, r2
 80024b6:	4a30      	ldr	r2, [pc, #192]	; (8002578 <HAL_RCC_GetSysClockFreq+0x104>)
 80024b8:	5cd3      	ldrb	r3, [r2, r3]
 80024ba:	60bb      	str	r3, [r7, #8]
      plld = ((uint32_t)(tmpreg & RCC_CFGR_PLLDIV) >> RCC_CFGR_PLLDIV_Pos) + 1U;
 80024bc:	68fb      	ldr	r3, [r7, #12]
 80024be:	0d9b      	lsrs	r3, r3, #22
 80024c0:	2203      	movs	r2, #3
 80024c2:	4013      	ands	r3, r2
 80024c4:	3301      	adds	r3, #1
 80024c6:	607b      	str	r3, [r7, #4]
      if (__HAL_RCC_GET_PLL_OSCSOURCE() != RCC_PLLSOURCE_HSI)
 80024c8:	4b27      	ldr	r3, [pc, #156]	; (8002568 <HAL_RCC_GetSysClockFreq+0xf4>)
 80024ca:	68da      	ldr	r2, [r3, #12]
 80024cc:	2380      	movs	r3, #128	; 0x80
 80024ce:	025b      	lsls	r3, r3, #9
 80024d0:	4013      	ands	r3, r2
 80024d2:	d00f      	beq.n	80024f4 <HAL_RCC_GetSysClockFreq+0x80>
      {
        /* HSE used as PLL clock source */
        pllvco = (HSE_VALUE * pllm) / plld;
 80024d4:	68b9      	ldr	r1, [r7, #8]
 80024d6:	000a      	movs	r2, r1
 80024d8:	0152      	lsls	r2, r2, #5
 80024da:	1a52      	subs	r2, r2, r1
 80024dc:	0193      	lsls	r3, r2, #6
 80024de:	1a9b      	subs	r3, r3, r2
 80024e0:	00db      	lsls	r3, r3, #3
 80024e2:	185b      	adds	r3, r3, r1
 80024e4:	025b      	lsls	r3, r3, #9
 80024e6:	6879      	ldr	r1, [r7, #4]
 80024e8:	0018      	movs	r0, r3
 80024ea:	f7fd fe0d 	bl	8000108 <__udivsi3>
 80024ee:	0003      	movs	r3, r0
 80024f0:	617b      	str	r3, [r7, #20]
 80024f2:	e023      	b.n	800253c <HAL_RCC_GetSysClockFreq+0xc8>
      }
      else
      {
        if ((RCC->CR & RCC_CR_HSIDIVF) != 0U)
 80024f4:	4b1c      	ldr	r3, [pc, #112]	; (8002568 <HAL_RCC_GetSysClockFreq+0xf4>)
 80024f6:	681b      	ldr	r3, [r3, #0]
 80024f8:	2210      	movs	r2, #16
 80024fa:	4013      	ands	r3, r2
 80024fc:	d00f      	beq.n	800251e <HAL_RCC_GetSysClockFreq+0xaa>
        {
          pllvco = ((HSI_VALUE >> 2) * pllm) / plld;
 80024fe:	68b9      	ldr	r1, [r7, #8]
 8002500:	000a      	movs	r2, r1
 8002502:	0152      	lsls	r2, r2, #5
 8002504:	1a52      	subs	r2, r2, r1
 8002506:	0193      	lsls	r3, r2, #6
 8002508:	1a9b      	subs	r3, r3, r2
 800250a:	00db      	lsls	r3, r3, #3
 800250c:	185b      	adds	r3, r3, r1
 800250e:	021b      	lsls	r3, r3, #8
 8002510:	6879      	ldr	r1, [r7, #4]
 8002512:	0018      	movs	r0, r3
 8002514:	f7fd fdf8 	bl	8000108 <__udivsi3>
 8002518:	0003      	movs	r3, r0
 800251a:	617b      	str	r3, [r7, #20]
 800251c:	e00e      	b.n	800253c <HAL_RCC_GetSysClockFreq+0xc8>
        }
        else
        {
         pllvco = (HSI_VALUE * pllm) / plld;
 800251e:	68b9      	ldr	r1, [r7, #8]
 8002520:	000a      	movs	r2, r1
 8002522:	0152      	lsls	r2, r2, #5
 8002524:	1a52      	subs	r2, r2, r1
 8002526:	0193      	lsls	r3, r2, #6
 8002528:	1a9b      	subs	r3, r3, r2
 800252a:	00db      	lsls	r3, r3, #3
 800252c:	185b      	adds	r3, r3, r1
 800252e:	029b      	lsls	r3, r3, #10
 8002530:	6879      	ldr	r1, [r7, #4]
 8002532:	0018      	movs	r0, r3
 8002534:	f7fd fde8 	bl	8000108 <__udivsi3>
 8002538:	0003      	movs	r3, r0
 800253a:	617b      	str	r3, [r7, #20]
        }
      }
      sysclockfreq = pllvco;
 800253c:	697b      	ldr	r3, [r7, #20]
 800253e:	613b      	str	r3, [r7, #16]
      break;
 8002540:	e00d      	b.n	800255e <HAL_RCC_GetSysClockFreq+0xea>
    }
    case RCC_SYSCLKSOURCE_STATUS_MSI:  /* MSI used as system clock source */
    default: /* MSI used as system clock */
    {
      msiclkrange = (RCC->ICSCR & RCC_ICSCR_MSIRANGE ) >> RCC_ICSCR_MSIRANGE_Pos;
 8002542:	4b09      	ldr	r3, [pc, #36]	; (8002568 <HAL_RCC_GetSysClockFreq+0xf4>)
 8002544:	685b      	ldr	r3, [r3, #4]
 8002546:	0b5b      	lsrs	r3, r3, #13
 8002548:	2207      	movs	r2, #7
 800254a:	4013      	ands	r3, r2
 800254c:	603b      	str	r3, [r7, #0]
      sysclockfreq = (32768U * (1UL << (msiclkrange + 1U)));
 800254e:	683b      	ldr	r3, [r7, #0]
 8002550:	3301      	adds	r3, #1
 8002552:	2280      	movs	r2, #128	; 0x80
 8002554:	0212      	lsls	r2, r2, #8
 8002556:	409a      	lsls	r2, r3
 8002558:	0013      	movs	r3, r2
 800255a:	613b      	str	r3, [r7, #16]
      break;
 800255c:	46c0      	nop			; (mov r8, r8)
    }
  }
  return sysclockfreq;
 800255e:	693b      	ldr	r3, [r7, #16]
}
 8002560:	0018      	movs	r0, r3
 8002562:	46bd      	mov	sp, r7
 8002564:	b006      	add	sp, #24
 8002566:	bd80      	pop	{r7, pc}
 8002568:	40021000 	.word	0x40021000
 800256c:	003d0900 	.word	0x003d0900
 8002570:	00f42400 	.word	0x00f42400
 8002574:	007a1200 	.word	0x007a1200
 8002578:	080030dc 	.word	0x080030dc

0800257c <HAL_TIM_Base_Init>:
  *         Ex: call @ref HAL_TIM_Base_DeInit() before HAL_TIM_Base_Init()
  * @param  htim TIM Base handle
  * @retval HAL status
  */
HAL_StatusTypeDef HAL_TIM_Base_Init(TIM_HandleTypeDef *htim)
{
 800257c:	b580      	push	{r7, lr}
 800257e:	b082      	sub	sp, #8
 8002580:	af00      	add	r7, sp, #0
 8002582:	6078      	str	r0, [r7, #4]
  /* Check the TIM handle allocation */
  if (htim == NULL)
 8002584:	687b      	ldr	r3, [r7, #4]
 8002586:	2b00      	cmp	r3, #0
 8002588:	d101      	bne.n	800258e <HAL_TIM_Base_Init+0x12>
  {
    return HAL_ERROR;
 800258a:	2301      	movs	r3, #1
 800258c:	e01e      	b.n	80025cc <HAL_TIM_Base_Init+0x50>
  assert_param(IS_TIM_CLOCKDIVISION_DIV(htim->Init.ClockDivision));
  assert_param(IS_TIM_PERIOD(htim->Init.Period));
  assert_param(IS_TIM_PRESCALER(htim->Init.Prescaler));
  assert_param(IS_TIM_AUTORELOAD_PRELOAD(htim->Init.AutoReloadPreload));

  if (htim->State == HAL_TIM_STATE_RESET)
 800258e:	687b      	ldr	r3, [r7, #4]
 8002590:	2239      	movs	r2, #57	; 0x39
 8002592:	5c9b      	ldrb	r3, [r3, r2]
 8002594:	b2db      	uxtb	r3, r3
 8002596:	2b00      	cmp	r3, #0
 8002598:	d107      	bne.n	80025aa <HAL_TIM_Base_Init+0x2e>
  {
    /* Allocate lock resource and initialize it */
    htim->Lock = HAL_UNLOCKED;
 800259a:	687b      	ldr	r3, [r7, #4]
 800259c:	2238      	movs	r2, #56	; 0x38
 800259e:	2100      	movs	r1, #0
 80025a0:	5499      	strb	r1, [r3, r2]
    }
    /* Init the low level hardware : GPIO, CLOCK, NVIC */
    htim->Base_MspInitCallback(htim);
#else
    /* Init the low level hardware : GPIO, CLOCK, NVIC */
    HAL_TIM_Base_MspInit(htim);
 80025a2:	687b      	ldr	r3, [r7, #4]
 80025a4:	0018      	movs	r0, r3
 80025a6:	f7fe f9c5 	bl	8000934 <HAL_TIM_Base_MspInit>
#endif /* USE_HAL_TIM_REGISTER_CALLBACKS */
  }

  /* Set the TIM state */
  htim->State = HAL_TIM_STATE_BUSY;
 80025aa:	687b      	ldr	r3, [r7, #4]
 80025ac:	2239      	movs	r2, #57	; 0x39
 80025ae:	2102      	movs	r1, #2
 80025b0:	5499      	strb	r1, [r3, r2]

  /* Set the Time Base configuration */
  TIM_Base_SetConfig(htim->Instance, &htim->Init);
 80025b2:	687b      	ldr	r3, [r7, #4]
 80025b4:	681a      	ldr	r2, [r3, #0]
 80025b6:	687b      	ldr	r3, [r7, #4]
 80025b8:	3304      	adds	r3, #4
 80025ba:	0019      	movs	r1, r3
 80025bc:	0010      	movs	r0, r2
 80025be:	f000 faff 	bl	8002bc0 <TIM_Base_SetConfig>

  /* Initialize the TIM state*/
  htim->State = HAL_TIM_STATE_READY;
 80025c2:	687b      	ldr	r3, [r7, #4]
 80025c4:	2239      	movs	r2, #57	; 0x39
 80025c6:	2101      	movs	r1, #1
 80025c8:	5499      	strb	r1, [r3, r2]

  return HAL_OK;
 80025ca:	2300      	movs	r3, #0
}
 80025cc:	0018      	movs	r0, r3
 80025ce:	46bd      	mov	sp, r7
 80025d0:	b002      	add	sp, #8
 80025d2:	bd80      	pop	{r7, pc}

080025d4 <HAL_TIM_Base_Start_IT>:
  * @brief  Starts the TIM Base generation in interrupt mode.
  * @param  htim TIM Base handle
  * @retval HAL status
  */
HAL_StatusTypeDef HAL_TIM_Base_Start_IT(TIM_HandleTypeDef *htim)
{
 80025d4:	b580      	push	{r7, lr}
 80025d6:	b084      	sub	sp, #16
 80025d8:	af00      	add	r7, sp, #0
 80025da:	6078      	str	r0, [r7, #4]

  /* Check the parameters */
  assert_param(IS_TIM_INSTANCE(htim->Instance));

  /* Enable the TIM Update interrupt */
  __HAL_TIM_ENABLE_IT(htim, TIM_IT_UPDATE);
 80025dc:	687b      	ldr	r3, [r7, #4]
 80025de:	681b      	ldr	r3, [r3, #0]
 80025e0:	68da      	ldr	r2, [r3, #12]
 80025e2:	687b      	ldr	r3, [r7, #4]
 80025e4:	681b      	ldr	r3, [r3, #0]
 80025e6:	2101      	movs	r1, #1
 80025e8:	430a      	orrs	r2, r1
 80025ea:	60da      	str	r2, [r3, #12]

  /* Enable the Peripheral, except in trigger mode where enable is automatically done with trigger */
  tmpsmcr = htim->Instance->SMCR & TIM_SMCR_SMS;
 80025ec:	687b      	ldr	r3, [r7, #4]
 80025ee:	681b      	ldr	r3, [r3, #0]
 80025f0:	689b      	ldr	r3, [r3, #8]
 80025f2:	2207      	movs	r2, #7
 80025f4:	4013      	ands	r3, r2
 80025f6:	60fb      	str	r3, [r7, #12]
  if (!IS_TIM_SLAVEMODE_TRIGGER_ENABLED(tmpsmcr))
 80025f8:	68fb      	ldr	r3, [r7, #12]
 80025fa:	2b06      	cmp	r3, #6
 80025fc:	d007      	beq.n	800260e <HAL_TIM_Base_Start_IT+0x3a>
  {
    __HAL_TIM_ENABLE(htim);
 80025fe:	687b      	ldr	r3, [r7, #4]
 8002600:	681b      	ldr	r3, [r3, #0]
 8002602:	681a      	ldr	r2, [r3, #0]
 8002604:	687b      	ldr	r3, [r7, #4]
 8002606:	681b      	ldr	r3, [r3, #0]
 8002608:	2101      	movs	r1, #1
 800260a:	430a      	orrs	r2, r1
 800260c:	601a      	str	r2, [r3, #0]
  }

  /* Return function status */
  return HAL_OK;
 800260e:	2300      	movs	r3, #0
}
 8002610:	0018      	movs	r0, r3
 8002612:	46bd      	mov	sp, r7
 8002614:	b004      	add	sp, #16
 8002616:	bd80      	pop	{r7, pc}

08002618 <HAL_TIM_PWM_Init>:
  *         Ex: call @ref HAL_TIM_PWM_DeInit() before HAL_TIM_PWM_Init()
  * @param  htim TIM PWM handle
  * @retval HAL status
  */
HAL_StatusTypeDef HAL_TIM_PWM_Init(TIM_HandleTypeDef *htim)
{
 8002618:	b580      	push	{r7, lr}
 800261a:	b082      	sub	sp, #8
 800261c:	af00      	add	r7, sp, #0
 800261e:	6078      	str	r0, [r7, #4]
  /* Check the TIM handle allocation */
  if (htim == NULL)
 8002620:	687b      	ldr	r3, [r7, #4]
 8002622:	2b00      	cmp	r3, #0
 8002624:	d101      	bne.n	800262a <HAL_TIM_PWM_Init+0x12>
  {
    return HAL_ERROR;
 8002626:	2301      	movs	r3, #1
 8002628:	e01e      	b.n	8002668 <HAL_TIM_PWM_Init+0x50>
  assert_param(IS_TIM_CLOCKDIVISION_DIV(htim->Init.ClockDivision));
  assert_param(IS_TIM_PERIOD(htim->Init.Period));
  assert_param(IS_TIM_PRESCALER(htim->Init.Prescaler));
  assert_param(IS_TIM_AUTORELOAD_PRELOAD(htim->Init.AutoReloadPreload));

  if (htim->State == HAL_TIM_STATE_RESET)
 800262a:	687b      	ldr	r3, [r7, #4]
 800262c:	2239      	movs	r2, #57	; 0x39
 800262e:	5c9b      	ldrb	r3, [r3, r2]
 8002630:	b2db      	uxtb	r3, r3
 8002632:	2b00      	cmp	r3, #0
 8002634:	d107      	bne.n	8002646 <HAL_TIM_PWM_Init+0x2e>
  {
    /* Allocate lock resource and initialize it */
    htim->Lock = HAL_UNLOCKED;
 8002636:	687b      	ldr	r3, [r7, #4]
 8002638:	2238      	movs	r2, #56	; 0x38
 800263a:	2100      	movs	r1, #0
 800263c:	5499      	strb	r1, [r3, r2]
    }
    /* Init the low level hardware : GPIO, CLOCK, NVIC */
    htim->PWM_MspInitCallback(htim);
#else
    /* Init the low level hardware : GPIO, CLOCK, NVIC and DMA */
    HAL_TIM_PWM_MspInit(htim);
 800263e:	687b      	ldr	r3, [r7, #4]
 8002640:	0018      	movs	r0, r3
 8002642:	f7fe f961 	bl	8000908 <HAL_TIM_PWM_MspInit>
#endif /* USE_HAL_TIM_REGISTER_CALLBACKS */
  }

  /* Set the TIM state */
  htim->State = HAL_TIM_STATE_BUSY;
 8002646:	687b      	ldr	r3, [r7, #4]
 8002648:	2239      	movs	r2, #57	; 0x39
 800264a:	2102      	movs	r1, #2
 800264c:	5499      	strb	r1, [r3, r2]

  /* Init the base time for the PWM */
  TIM_Base_SetConfig(htim->Instance, &htim->Init);
 800264e:	687b      	ldr	r3, [r7, #4]
 8002650:	681a      	ldr	r2, [r3, #0]
 8002652:	687b      	ldr	r3, [r7, #4]
 8002654:	3304      	adds	r3, #4
 8002656:	0019      	movs	r1, r3
 8002658:	0010      	movs	r0, r2
 800265a:	f000 fab1 	bl	8002bc0 <TIM_Base_SetConfig>

  /* Initialize the TIM state*/
  htim->State = HAL_TIM_STATE_READY;
 800265e:	687b      	ldr	r3, [r7, #4]
 8002660:	2239      	movs	r2, #57	; 0x39
 8002662:	2101      	movs	r1, #1
 8002664:	5499      	strb	r1, [r3, r2]

  return HAL_OK;
 8002666:	2300      	movs	r3, #0
}
 8002668:	0018      	movs	r0, r3
 800266a:	46bd      	mov	sp, r7
 800266c:	b002      	add	sp, #8
 800266e:	bd80      	pop	{r7, pc}

08002670 <HAL_TIM_PWM_Start>:
  *            @arg TIM_CHANNEL_3: TIM Channel 3 selected
  *            @arg TIM_CHANNEL_4: TIM Channel 4 selected
  * @retval HAL status
  */
HAL_StatusTypeDef HAL_TIM_PWM_Start(TIM_HandleTypeDef *htim, uint32_t Channel)
{
 8002670:	b580      	push	{r7, lr}
 8002672:	b084      	sub	sp, #16
 8002674:	af00      	add	r7, sp, #0
 8002676:	6078      	str	r0, [r7, #4]
 8002678:	6039      	str	r1, [r7, #0]

  /* Check the parameters */
  assert_param(IS_TIM_CCX_INSTANCE(htim->Instance, Channel));

  /* Enable the Capture compare channel */
  TIM_CCxChannelCmd(htim->Instance, Channel, TIM_CCx_ENABLE);
 800267a:	687b      	ldr	r3, [r7, #4]
 800267c:	681b      	ldr	r3, [r3, #0]
 800267e:	6839      	ldr	r1, [r7, #0]
 8002680:	2201      	movs	r2, #1
 8002682:	0018      	movs	r0, r3
 8002684:	f000 fc84 	bl	8002f90 <TIM_CCxChannelCmd>

  /* Enable the Peripheral, except in trigger mode where enable is automatically done with trigger */
  tmpsmcr = htim->Instance->SMCR & TIM_SMCR_SMS;
 8002688:	687b      	ldr	r3, [r7, #4]
 800268a:	681b      	ldr	r3, [r3, #0]
 800268c:	689b      	ldr	r3, [r3, #8]
 800268e:	2207      	movs	r2, #7
 8002690:	4013      	ands	r3, r2
 8002692:	60fb      	str	r3, [r7, #12]
  if (!IS_TIM_SLAVEMODE_TRIGGER_ENABLED(tmpsmcr))
 8002694:	68fb      	ldr	r3, [r7, #12]
 8002696:	2b06      	cmp	r3, #6
 8002698:	d007      	beq.n	80026aa <HAL_TIM_PWM_Start+0x3a>
  {
    __HAL_TIM_ENABLE(htim);
 800269a:	687b      	ldr	r3, [r7, #4]
 800269c:	681b      	ldr	r3, [r3, #0]
 800269e:	681a      	ldr	r2, [r3, #0]
 80026a0:	687b      	ldr	r3, [r7, #4]
 80026a2:	681b      	ldr	r3, [r3, #0]
 80026a4:	2101      	movs	r1, #1
 80026a6:	430a      	orrs	r2, r1
 80026a8:	601a      	str	r2, [r3, #0]
  }

  /* Return function status */
  return HAL_OK;
 80026aa:	2300      	movs	r3, #0
}
 80026ac:	0018      	movs	r0, r3
 80026ae:	46bd      	mov	sp, r7
 80026b0:	b004      	add	sp, #16
 80026b2:	bd80      	pop	{r7, pc}

080026b4 <HAL_TIM_IRQHandler>:
  * @brief  This function handles TIM interrupts requests.
  * @param  htim TIM  handle
  * @retval None
  */
void HAL_TIM_IRQHandler(TIM_HandleTypeDef *htim)
{
 80026b4:	b580      	push	{r7, lr}
 80026b6:	b082      	sub	sp, #8
 80026b8:	af00      	add	r7, sp, #0
 80026ba:	6078      	str	r0, [r7, #4]
  /* Capture compare 1 event */
  if (__HAL_TIM_GET_FLAG(htim, TIM_FLAG_CC1) != RESET)
 80026bc:	687b      	ldr	r3, [r7, #4]
 80026be:	681b      	ldr	r3, [r3, #0]
 80026c0:	691b      	ldr	r3, [r3, #16]
 80026c2:	2202      	movs	r2, #2
 80026c4:	4013      	ands	r3, r2
 80026c6:	2b02      	cmp	r3, #2
 80026c8:	d124      	bne.n	8002714 <HAL_TIM_IRQHandler+0x60>
  {
    if (__HAL_TIM_GET_IT_SOURCE(htim, TIM_IT_CC1) != RESET)
 80026ca:	687b      	ldr	r3, [r7, #4]
 80026cc:	681b      	ldr	r3, [r3, #0]
 80026ce:	68db      	ldr	r3, [r3, #12]
 80026d0:	2202      	movs	r2, #2
 80026d2:	4013      	ands	r3, r2
 80026d4:	2b02      	cmp	r3, #2
 80026d6:	d11d      	bne.n	8002714 <HAL_TIM_IRQHandler+0x60>
    {
      {
        __HAL_TIM_CLEAR_IT(htim, TIM_IT_CC1);
 80026d8:	687b      	ldr	r3, [r7, #4]
 80026da:	681b      	ldr	r3, [r3, #0]
 80026dc:	2203      	movs	r2, #3
 80026de:	4252      	negs	r2, r2
 80026e0:	611a      	str	r2, [r3, #16]
        htim->Channel = HAL_TIM_ACTIVE_CHANNEL_1;
 80026e2:	687b      	ldr	r3, [r7, #4]
 80026e4:	2201      	movs	r2, #1
 80026e6:	761a      	strb	r2, [r3, #24]

        /* Input capture event */
        if ((htim->Instance->CCMR1 & TIM_CCMR1_CC1S) != 0x00U)
 80026e8:	687b      	ldr	r3, [r7, #4]
 80026ea:	681b      	ldr	r3, [r3, #0]
 80026ec:	699b      	ldr	r3, [r3, #24]
 80026ee:	2203      	movs	r2, #3
 80026f0:	4013      	ands	r3, r2
 80026f2:	d004      	beq.n	80026fe <HAL_TIM_IRQHandler+0x4a>
        {
#if (USE_HAL_TIM_REGISTER_CALLBACKS == 1)
          htim->IC_CaptureCallback(htim);
#else
          HAL_TIM_IC_CaptureCallback(htim);
 80026f4:	687b      	ldr	r3, [r7, #4]
 80026f6:	0018      	movs	r0, r3
 80026f8:	f000 fa4a 	bl	8002b90 <HAL_TIM_IC_CaptureCallback>
 80026fc:	e007      	b.n	800270e <HAL_TIM_IRQHandler+0x5a>
        {
#if (USE_HAL_TIM_REGISTER_CALLBACKS == 1)
          htim->OC_DelayElapsedCallback(htim);
          htim->PWM_PulseFinishedCallback(htim);
#else
          HAL_TIM_OC_DelayElapsedCallback(htim);
 80026fe:	687b      	ldr	r3, [r7, #4]
 8002700:	0018      	movs	r0, r3
 8002702:	f000 fa3d 	bl	8002b80 <HAL_TIM_OC_DelayElapsedCallback>
          HAL_TIM_PWM_PulseFinishedCallback(htim);
 8002706:	687b      	ldr	r3, [r7, #4]
 8002708:	0018      	movs	r0, r3
 800270a:	f000 fa49 	bl	8002ba0 <HAL_TIM_PWM_PulseFinishedCallback>
#endif /* USE_HAL_TIM_REGISTER_CALLBACKS */
        }
        htim->Channel = HAL_TIM_ACTIVE_CHANNEL_CLEARED;
 800270e:	687b      	ldr	r3, [r7, #4]
 8002710:	2200      	movs	r2, #0
 8002712:	761a      	strb	r2, [r3, #24]
      }
    }
  }
  /* Capture compare 2 event */
  if (__HAL_TIM_GET_FLAG(htim, TIM_FLAG_CC2) != RESET)
 8002714:	687b      	ldr	r3, [r7, #4]
 8002716:	681b      	ldr	r3, [r3, #0]
 8002718:	691b      	ldr	r3, [r3, #16]
 800271a:	2204      	movs	r2, #4
 800271c:	4013      	ands	r3, r2
 800271e:	2b04      	cmp	r3, #4
 8002720:	d125      	bne.n	800276e <HAL_TIM_IRQHandler+0xba>
  {
    if (__HAL_TIM_GET_IT_SOURCE(htim, TIM_IT_CC2) != RESET)
 8002722:	687b      	ldr	r3, [r7, #4]
 8002724:	681b      	ldr	r3, [r3, #0]
 8002726:	68db      	ldr	r3, [r3, #12]
 8002728:	2204      	movs	r2, #4
 800272a:	4013      	ands	r3, r2
 800272c:	2b04      	cmp	r3, #4
 800272e:	d11e      	bne.n	800276e <HAL_TIM_IRQHandler+0xba>
    {
      __HAL_TIM_CLEAR_IT(htim, TIM_IT_CC2);
 8002730:	687b      	ldr	r3, [r7, #4]
 8002732:	681b      	ldr	r3, [r3, #0]
 8002734:	2205      	movs	r2, #5
 8002736:	4252      	negs	r2, r2
 8002738:	611a      	str	r2, [r3, #16]
      htim->Channel = HAL_TIM_ACTIVE_CHANNEL_2;
 800273a:	687b      	ldr	r3, [r7, #4]
 800273c:	2202      	movs	r2, #2
 800273e:	761a      	strb	r2, [r3, #24]
      /* Input capture event */
      if ((htim->Instance->CCMR1 & TIM_CCMR1_CC2S) != 0x00U)
 8002740:	687b      	ldr	r3, [r7, #4]
 8002742:	681b      	ldr	r3, [r3, #0]
 8002744:	699a      	ldr	r2, [r3, #24]
 8002746:	23c0      	movs	r3, #192	; 0xc0
 8002748:	009b      	lsls	r3, r3, #2
 800274a:	4013      	ands	r3, r2
 800274c:	d004      	beq.n	8002758 <HAL_TIM_IRQHandler+0xa4>
      {
#if (USE_HAL_TIM_REGISTER_CALLBACKS == 1)
        htim->IC_CaptureCallback(htim);
#else
        HAL_TIM_IC_CaptureCallback(htim);
 800274e:	687b      	ldr	r3, [r7, #4]
 8002750:	0018      	movs	r0, r3
 8002752:	f000 fa1d 	bl	8002b90 <HAL_TIM_IC_CaptureCallback>
 8002756:	e007      	b.n	8002768 <HAL_TIM_IRQHandler+0xb4>
      {
#if (USE_HAL_TIM_REGISTER_CALLBACKS == 1)
        htim->OC_DelayElapsedCallback(htim);
        htim->PWM_PulseFinishedCallback(htim);
#else
        HAL_TIM_OC_DelayElapsedCallback(htim);
 8002758:	687b      	ldr	r3, [r7, #4]
 800275a:	0018      	movs	r0, r3
 800275c:	f000 fa10 	bl	8002b80 <HAL_TIM_OC_DelayElapsedCallback>
        HAL_TIM_PWM_PulseFinishedCallback(htim);
 8002760:	687b      	ldr	r3, [r7, #4]
 8002762:	0018      	movs	r0, r3
 8002764:	f000 fa1c 	bl	8002ba0 <HAL_TIM_PWM_PulseFinishedCallback>
#endif /* USE_HAL_TIM_REGISTER_CALLBACKS */
      }
      htim->Channel = HAL_TIM_ACTIVE_CHANNEL_CLEARED;
 8002768:	687b      	ldr	r3, [r7, #4]
 800276a:	2200      	movs	r2, #0
 800276c:	761a      	strb	r2, [r3, #24]
    }
  }
  /* Capture compare 3 event */
  if (__HAL_TIM_GET_FLAG(htim, TIM_FLAG_CC3) != RESET)
 800276e:	687b      	ldr	r3, [r7, #4]
 8002770:	681b      	ldr	r3, [r3, #0]
 8002772:	691b      	ldr	r3, [r3, #16]
 8002774:	2208      	movs	r2, #8
 8002776:	4013      	ands	r3, r2
 8002778:	2b08      	cmp	r3, #8
 800277a:	d124      	bne.n	80027c6 <HAL_TIM_IRQHandler+0x112>
  {
    if (__HAL_TIM_GET_IT_SOURCE(htim, TIM_IT_CC3) != RESET)
 800277c:	687b      	ldr	r3, [r7, #4]
 800277e:	681b      	ldr	r3, [r3, #0]
 8002780:	68db      	ldr	r3, [r3, #12]
 8002782:	2208      	movs	r2, #8
 8002784:	4013      	ands	r3, r2
 8002786:	2b08      	cmp	r3, #8
 8002788:	d11d      	bne.n	80027c6 <HAL_TIM_IRQHandler+0x112>
    {
      __HAL_TIM_CLEAR_IT(htim, TIM_IT_CC3);
 800278a:	687b      	ldr	r3, [r7, #4]
 800278c:	681b      	ldr	r3, [r3, #0]
 800278e:	2209      	movs	r2, #9
 8002790:	4252      	negs	r2, r2
 8002792:	611a      	str	r2, [r3, #16]
      htim->Channel = HAL_TIM_ACTIVE_CHANNEL_3;
 8002794:	687b      	ldr	r3, [r7, #4]
 8002796:	2204      	movs	r2, #4
 8002798:	761a      	strb	r2, [r3, #24]
      /* Input capture event */
      if ((htim->Instance->CCMR2 & TIM_CCMR2_CC3S) != 0x00U)
 800279a:	687b      	ldr	r3, [r7, #4]
 800279c:	681b      	ldr	r3, [r3, #0]
 800279e:	69db      	ldr	r3, [r3, #28]
 80027a0:	2203      	movs	r2, #3
 80027a2:	4013      	ands	r3, r2
 80027a4:	d004      	beq.n	80027b0 <HAL_TIM_IRQHandler+0xfc>
      {
#if (USE_HAL_TIM_REGISTER_CALLBACKS == 1)
        htim->IC_CaptureCallback(htim);
#else
        HAL_TIM_IC_CaptureCallback(htim);
 80027a6:	687b      	ldr	r3, [r7, #4]
 80027a8:	0018      	movs	r0, r3
 80027aa:	f000 f9f1 	bl	8002b90 <HAL_TIM_IC_CaptureCallback>
 80027ae:	e007      	b.n	80027c0 <HAL_TIM_IRQHandler+0x10c>
      {
#if (USE_HAL_TIM_REGISTER_CALLBACKS == 1)
        htim->OC_DelayElapsedCallback(htim);
        htim->PWM_PulseFinishedCallback(htim);
#else
        HAL_TIM_OC_DelayElapsedCallback(htim);
 80027b0:	687b      	ldr	r3, [r7, #4]
 80027b2:	0018      	movs	r0, r3
 80027b4:	f000 f9e4 	bl	8002b80 <HAL_TIM_OC_DelayElapsedCallback>
        HAL_TIM_PWM_PulseFinishedCallback(htim);
 80027b8:	687b      	ldr	r3, [r7, #4]
 80027ba:	0018      	movs	r0, r3
 80027bc:	f000 f9f0 	bl	8002ba0 <HAL_TIM_PWM_PulseFinishedCallback>
#endif /* USE_HAL_TIM_REGISTER_CALLBACKS */
      }
      htim->Channel = HAL_TIM_ACTIVE_CHANNEL_CLEARED;
 80027c0:	687b      	ldr	r3, [r7, #4]
 80027c2:	2200      	movs	r2, #0
 80027c4:	761a      	strb	r2, [r3, #24]
    }
  }
  /* Capture compare 4 event */
  if (__HAL_TIM_GET_FLAG(htim, TIM_FLAG_CC4) != RESET)
 80027c6:	687b      	ldr	r3, [r7, #4]
 80027c8:	681b      	ldr	r3, [r3, #0]
 80027ca:	691b      	ldr	r3, [r3, #16]
 80027cc:	2210      	movs	r2, #16
 80027ce:	4013      	ands	r3, r2
 80027d0:	2b10      	cmp	r3, #16
 80027d2:	d125      	bne.n	8002820 <HAL_TIM_IRQHandler+0x16c>
  {
    if (__HAL_TIM_GET_IT_SOURCE(htim, TIM_IT_CC4) != RESET)
 80027d4:	687b      	ldr	r3, [r7, #4]
 80027d6:	681b      	ldr	r3, [r3, #0]
 80027d8:	68db      	ldr	r3, [r3, #12]
 80027da:	2210      	movs	r2, #16
 80027dc:	4013      	ands	r3, r2
 80027de:	2b10      	cmp	r3, #16
 80027e0:	d11e      	bne.n	8002820 <HAL_TIM_IRQHandler+0x16c>
    {
      __HAL_TIM_CLEAR_IT(htim, TIM_IT_CC4);
 80027e2:	687b      	ldr	r3, [r7, #4]
 80027e4:	681b      	ldr	r3, [r3, #0]
 80027e6:	2211      	movs	r2, #17
 80027e8:	4252      	negs	r2, r2
 80027ea:	611a      	str	r2, [r3, #16]
      htim->Channel = HAL_TIM_ACTIVE_CHANNEL_4;
 80027ec:	687b      	ldr	r3, [r7, #4]
 80027ee:	2208      	movs	r2, #8
 80027f0:	761a      	strb	r2, [r3, #24]
      /* Input capture event */
      if ((htim->Instance->CCMR2 & TIM_CCMR2_CC4S) != 0x00U)
 80027f2:	687b      	ldr	r3, [r7, #4]
 80027f4:	681b      	ldr	r3, [r3, #0]
 80027f6:	69da      	ldr	r2, [r3, #28]
 80027f8:	23c0      	movs	r3, #192	; 0xc0
 80027fa:	009b      	lsls	r3, r3, #2
 80027fc:	4013      	ands	r3, r2
 80027fe:	d004      	beq.n	800280a <HAL_TIM_IRQHandler+0x156>
      {
#if (USE_HAL_TIM_REGISTER_CALLBACKS == 1)
        htim->IC_CaptureCallback(htim);
#else
        HAL_TIM_IC_CaptureCallback(htim);
 8002800:	687b      	ldr	r3, [r7, #4]
 8002802:	0018      	movs	r0, r3
 8002804:	f000 f9c4 	bl	8002b90 <HAL_TIM_IC_CaptureCallback>
 8002808:	e007      	b.n	800281a <HAL_TIM_IRQHandler+0x166>
      {
#if (USE_HAL_TIM_REGISTER_CALLBACKS == 1)
        htim->OC_DelayElapsedCallback(htim);
        htim->PWM_PulseFinishedCallback(htim);
#else
        HAL_TIM_OC_DelayElapsedCallback(htim);
 800280a:	687b      	ldr	r3, [r7, #4]
 800280c:	0018      	movs	r0, r3
 800280e:	f000 f9b7 	bl	8002b80 <HAL_TIM_OC_DelayElapsedCallback>
        HAL_TIM_PWM_PulseFinishedCallback(htim);
 8002812:	687b      	ldr	r3, [r7, #4]
 8002814:	0018      	movs	r0, r3
 8002816:	f000 f9c3 	bl	8002ba0 <HAL_TIM_PWM_PulseFinishedCallback>
#endif /* USE_HAL_TIM_REGISTER_CALLBACKS */
      }
      htim->Channel = HAL_TIM_ACTIVE_CHANNEL_CLEARED;
 800281a:	687b      	ldr	r3, [r7, #4]
 800281c:	2200      	movs	r2, #0
 800281e:	761a      	strb	r2, [r3, #24]
    }
  }
  /* TIM Update event */
  if (__HAL_TIM_GET_FLAG(htim, TIM_FLAG_UPDATE) != RESET)
 8002820:	687b      	ldr	r3, [r7, #4]
 8002822:	681b      	ldr	r3, [r3, #0]
 8002824:	691b      	ldr	r3, [r3, #16]
 8002826:	2201      	movs	r2, #1
 8002828:	4013      	ands	r3, r2
 800282a:	2b01      	cmp	r3, #1
 800282c:	d10f      	bne.n	800284e <HAL_TIM_IRQHandler+0x19a>
  {
    if (__HAL_TIM_GET_IT_SOURCE(htim, TIM_IT_UPDATE) != RESET)
 800282e:	687b      	ldr	r3, [r7, #4]
 8002830:	681b      	ldr	r3, [r3, #0]
 8002832:	68db      	ldr	r3, [r3, #12]
 8002834:	2201      	movs	r2, #1
 8002836:	4013      	ands	r3, r2
 8002838:	2b01      	cmp	r3, #1
 800283a:	d108      	bne.n	800284e <HAL_TIM_IRQHandler+0x19a>
    {
      __HAL_TIM_CLEAR_IT(htim, TIM_IT_UPDATE);
 800283c:	687b      	ldr	r3, [r7, #4]
 800283e:	681b      	ldr	r3, [r3, #0]
 8002840:	2202      	movs	r2, #2
 8002842:	4252      	negs	r2, r2
 8002844:	611a      	str	r2, [r3, #16]
#if (USE_HAL_TIM_REGISTER_CALLBACKS == 1)
      htim->PeriodElapsedCallback(htim);
#else
      HAL_TIM_PeriodElapsedCallback(htim);
 8002846:	687b      	ldr	r3, [r7, #4]
 8002848:	0018      	movs	r0, r3
 800284a:	f000 f991 	bl	8002b70 <HAL_TIM_PeriodElapsedCallback>
#endif /* USE_HAL_TIM_REGISTER_CALLBACKS */
    }
  }
  /* TIM Trigger detection event */
  if (__HAL_TIM_GET_FLAG(htim, TIM_FLAG_TRIGGER) != RESET)
 800284e:	687b      	ldr	r3, [r7, #4]
 8002850:	681b      	ldr	r3, [r3, #0]
 8002852:	691b      	ldr	r3, [r3, #16]
 8002854:	2240      	movs	r2, #64	; 0x40
 8002856:	4013      	ands	r3, r2
 8002858:	2b40      	cmp	r3, #64	; 0x40
 800285a:	d10f      	bne.n	800287c <HAL_TIM_IRQHandler+0x1c8>
  {
    if (__HAL_TIM_GET_IT_SOURCE(htim, TIM_IT_TRIGGER) != RESET)
 800285c:	687b      	ldr	r3, [r7, #4]
 800285e:	681b      	ldr	r3, [r3, #0]
 8002860:	68db      	ldr	r3, [r3, #12]
 8002862:	2240      	movs	r2, #64	; 0x40
 8002864:	4013      	ands	r3, r2
 8002866:	2b40      	cmp	r3, #64	; 0x40
 8002868:	d108      	bne.n	800287c <HAL_TIM_IRQHandler+0x1c8>
    {
      __HAL_TIM_CLEAR_IT(htim, TIM_IT_TRIGGER);
 800286a:	687b      	ldr	r3, [r7, #4]
 800286c:	681b      	ldr	r3, [r3, #0]
 800286e:	2241      	movs	r2, #65	; 0x41
 8002870:	4252      	negs	r2, r2
 8002872:	611a      	str	r2, [r3, #16]
#if (USE_HAL_TIM_REGISTER_CALLBACKS == 1)
      htim->TriggerCallback(htim);
#else
      HAL_TIM_TriggerCallback(htim);
 8002874:	687b      	ldr	r3, [r7, #4]
 8002876:	0018      	movs	r0, r3
 8002878:	f000 f99a 	bl	8002bb0 <HAL_TIM_TriggerCallback>
#endif /* USE_HAL_TIM_REGISTER_CALLBACKS */
    }
  }
}
 800287c:	46c0      	nop			; (mov r8, r8)
 800287e:	46bd      	mov	sp, r7
 8002880:	b002      	add	sp, #8
 8002882:	bd80      	pop	{r7, pc}

08002884 <HAL_TIM_PWM_ConfigChannel>:
  * @retval HAL status
  */
HAL_StatusTypeDef HAL_TIM_PWM_ConfigChannel(TIM_HandleTypeDef *htim,
                                            TIM_OC_InitTypeDef *sConfig,
                                            uint32_t Channel)
{
 8002884:	b580      	push	{r7, lr}
 8002886:	b084      	sub	sp, #16
 8002888:	af00      	add	r7, sp, #0
 800288a:	60f8      	str	r0, [r7, #12]
 800288c:	60b9      	str	r1, [r7, #8]
 800288e:	607a      	str	r2, [r7, #4]
  assert_param(IS_TIM_PWM_MODE(sConfig->OCMode));
  assert_param(IS_TIM_OC_POLARITY(sConfig->OCPolarity));
  assert_param(IS_TIM_FAST_STATE(sConfig->OCFastMode));

  /* Process Locked */
  __HAL_LOCK(htim);
 8002890:	68fb      	ldr	r3, [r7, #12]
 8002892:	2238      	movs	r2, #56	; 0x38
 8002894:	5c9b      	ldrb	r3, [r3, r2]
 8002896:	2b01      	cmp	r3, #1
 8002898:	d101      	bne.n	800289e <HAL_TIM_PWM_ConfigChannel+0x1a>
 800289a:	2302      	movs	r3, #2
 800289c:	e0a4      	b.n	80029e8 <HAL_TIM_PWM_ConfigChannel+0x164>
 800289e:	68fb      	ldr	r3, [r7, #12]
 80028a0:	2238      	movs	r2, #56	; 0x38
 80028a2:	2101      	movs	r1, #1
 80028a4:	5499      	strb	r1, [r3, r2]

  htim->State = HAL_TIM_STATE_BUSY;
 80028a6:	68fb      	ldr	r3, [r7, #12]
 80028a8:	2239      	movs	r2, #57	; 0x39
 80028aa:	2102      	movs	r1, #2
 80028ac:	5499      	strb	r1, [r3, r2]

  switch (Channel)
 80028ae:	687b      	ldr	r3, [r7, #4]
 80028b0:	2b04      	cmp	r3, #4
 80028b2:	d029      	beq.n	8002908 <HAL_TIM_PWM_ConfigChannel+0x84>
 80028b4:	d802      	bhi.n	80028bc <HAL_TIM_PWM_ConfigChannel+0x38>
 80028b6:	2b00      	cmp	r3, #0
 80028b8:	d005      	beq.n	80028c6 <HAL_TIM_PWM_ConfigChannel+0x42>
      htim->Instance->CCMR2 |= sConfig->OCFastMode << 8U;
      break;
    }

    default:
      break;
 80028ba:	e08c      	b.n	80029d6 <HAL_TIM_PWM_ConfigChannel+0x152>
  switch (Channel)
 80028bc:	2b08      	cmp	r3, #8
 80028be:	d046      	beq.n	800294e <HAL_TIM_PWM_ConfigChannel+0xca>
 80028c0:	2b0c      	cmp	r3, #12
 80028c2:	d065      	beq.n	8002990 <HAL_TIM_PWM_ConfigChannel+0x10c>
      break;
 80028c4:	e087      	b.n	80029d6 <HAL_TIM_PWM_ConfigChannel+0x152>
      TIM_OC1_SetConfig(htim->Instance, sConfig);
 80028c6:	68fb      	ldr	r3, [r7, #12]
 80028c8:	681b      	ldr	r3, [r3, #0]
 80028ca:	68ba      	ldr	r2, [r7, #8]
 80028cc:	0011      	movs	r1, r2
 80028ce:	0018      	movs	r0, r3
 80028d0:	f000 f9c0 	bl	8002c54 <TIM_OC1_SetConfig>
      htim->Instance->CCMR1 |= TIM_CCMR1_OC1PE;
 80028d4:	68fb      	ldr	r3, [r7, #12]
 80028d6:	681b      	ldr	r3, [r3, #0]
 80028d8:	699a      	ldr	r2, [r3, #24]
 80028da:	68fb      	ldr	r3, [r7, #12]
 80028dc:	681b      	ldr	r3, [r3, #0]
 80028de:	2108      	movs	r1, #8
 80028e0:	430a      	orrs	r2, r1
 80028e2:	619a      	str	r2, [r3, #24]
      htim->Instance->CCMR1 &= ~TIM_CCMR1_OC1FE;
 80028e4:	68fb      	ldr	r3, [r7, #12]
 80028e6:	681b      	ldr	r3, [r3, #0]
 80028e8:	699a      	ldr	r2, [r3, #24]
 80028ea:	68fb      	ldr	r3, [r7, #12]
 80028ec:	681b      	ldr	r3, [r3, #0]
 80028ee:	2104      	movs	r1, #4
 80028f0:	438a      	bics	r2, r1
 80028f2:	619a      	str	r2, [r3, #24]
      htim->Instance->CCMR1 |= sConfig->OCFastMode;
 80028f4:	68fb      	ldr	r3, [r7, #12]
 80028f6:	681b      	ldr	r3, [r3, #0]
 80028f8:	6999      	ldr	r1, [r3, #24]
 80028fa:	68bb      	ldr	r3, [r7, #8]
 80028fc:	68da      	ldr	r2, [r3, #12]
 80028fe:	68fb      	ldr	r3, [r7, #12]
 8002900:	681b      	ldr	r3, [r3, #0]
 8002902:	430a      	orrs	r2, r1
 8002904:	619a      	str	r2, [r3, #24]
      break;
 8002906:	e066      	b.n	80029d6 <HAL_TIM_PWM_ConfigChannel+0x152>
      TIM_OC2_SetConfig(htim->Instance, sConfig);
 8002908:	68fb      	ldr	r3, [r7, #12]
 800290a:	681b      	ldr	r3, [r3, #0]
 800290c:	68ba      	ldr	r2, [r7, #8]
 800290e:	0011      	movs	r1, r2
 8002910:	0018      	movs	r0, r3
 8002912:	f000 f9db 	bl	8002ccc <TIM_OC2_SetConfig>
      htim->Instance->CCMR1 |= TIM_CCMR1_OC2PE;
 8002916:	68fb      	ldr	r3, [r7, #12]
 8002918:	681b      	ldr	r3, [r3, #0]
 800291a:	699a      	ldr	r2, [r3, #24]
 800291c:	68fb      	ldr	r3, [r7, #12]
 800291e:	681b      	ldr	r3, [r3, #0]
 8002920:	2180      	movs	r1, #128	; 0x80
 8002922:	0109      	lsls	r1, r1, #4
 8002924:	430a      	orrs	r2, r1
 8002926:	619a      	str	r2, [r3, #24]
      htim->Instance->CCMR1 &= ~TIM_CCMR1_OC2FE;
 8002928:	68fb      	ldr	r3, [r7, #12]
 800292a:	681b      	ldr	r3, [r3, #0]
 800292c:	699a      	ldr	r2, [r3, #24]
 800292e:	68fb      	ldr	r3, [r7, #12]
 8002930:	681b      	ldr	r3, [r3, #0]
 8002932:	492f      	ldr	r1, [pc, #188]	; (80029f0 <HAL_TIM_PWM_ConfigChannel+0x16c>)
 8002934:	400a      	ands	r2, r1
 8002936:	619a      	str	r2, [r3, #24]
      htim->Instance->CCMR1 |= sConfig->OCFastMode << 8U;
 8002938:	68fb      	ldr	r3, [r7, #12]
 800293a:	681b      	ldr	r3, [r3, #0]
 800293c:	6999      	ldr	r1, [r3, #24]
 800293e:	68bb      	ldr	r3, [r7, #8]
 8002940:	68db      	ldr	r3, [r3, #12]
 8002942:	021a      	lsls	r2, r3, #8
 8002944:	68fb      	ldr	r3, [r7, #12]
 8002946:	681b      	ldr	r3, [r3, #0]
 8002948:	430a      	orrs	r2, r1
 800294a:	619a      	str	r2, [r3, #24]
      break;
 800294c:	e043      	b.n	80029d6 <HAL_TIM_PWM_ConfigChannel+0x152>
      TIM_OC3_SetConfig(htim->Instance, sConfig);
 800294e:	68fb      	ldr	r3, [r7, #12]
 8002950:	681b      	ldr	r3, [r3, #0]
 8002952:	68ba      	ldr	r2, [r7, #8]
 8002954:	0011      	movs	r1, r2
 8002956:	0018      	movs	r0, r3
 8002958:	f000 f9fa 	bl	8002d50 <TIM_OC3_SetConfig>
      htim->Instance->CCMR2 |= TIM_CCMR2_OC3PE;
 800295c:	68fb      	ldr	r3, [r7, #12]
 800295e:	681b      	ldr	r3, [r3, #0]
 8002960:	69da      	ldr	r2, [r3, #28]
 8002962:	68fb      	ldr	r3, [r7, #12]
 8002964:	681b      	ldr	r3, [r3, #0]
 8002966:	2108      	movs	r1, #8
 8002968:	430a      	orrs	r2, r1
 800296a:	61da      	str	r2, [r3, #28]
      htim->Instance->CCMR2 &= ~TIM_CCMR2_OC3FE;
 800296c:	68fb      	ldr	r3, [r7, #12]
 800296e:	681b      	ldr	r3, [r3, #0]
 8002970:	69da      	ldr	r2, [r3, #28]
 8002972:	68fb      	ldr	r3, [r7, #12]
 8002974:	681b      	ldr	r3, [r3, #0]
 8002976:	2104      	movs	r1, #4
 8002978:	438a      	bics	r2, r1
 800297a:	61da      	str	r2, [r3, #28]
      htim->Instance->CCMR2 |= sConfig->OCFastMode;
 800297c:	68fb      	ldr	r3, [r7, #12]
 800297e:	681b      	ldr	r3, [r3, #0]
 8002980:	69d9      	ldr	r1, [r3, #28]
 8002982:	68bb      	ldr	r3, [r7, #8]
 8002984:	68da      	ldr	r2, [r3, #12]
 8002986:	68fb      	ldr	r3, [r7, #12]
 8002988:	681b      	ldr	r3, [r3, #0]
 800298a:	430a      	orrs	r2, r1
 800298c:	61da      	str	r2, [r3, #28]
      break;
 800298e:	e022      	b.n	80029d6 <HAL_TIM_PWM_ConfigChannel+0x152>
      TIM_OC4_SetConfig(htim->Instance, sConfig);
 8002990:	68fb      	ldr	r3, [r7, #12]
 8002992:	681b      	ldr	r3, [r3, #0]
 8002994:	68ba      	ldr	r2, [r7, #8]
 8002996:	0011      	movs	r1, r2
 8002998:	0018      	movs	r0, r3
 800299a:	f000 fa19 	bl	8002dd0 <TIM_OC4_SetConfig>
      htim->Instance->CCMR2 |= TIM_CCMR2_OC4PE;
 800299e:	68fb      	ldr	r3, [r7, #12]
 80029a0:	681b      	ldr	r3, [r3, #0]
 80029a2:	69da      	ldr	r2, [r3, #28]
 80029a4:	68fb      	ldr	r3, [r7, #12]
 80029a6:	681b      	ldr	r3, [r3, #0]
 80029a8:	2180      	movs	r1, #128	; 0x80
 80029aa:	0109      	lsls	r1, r1, #4
 80029ac:	430a      	orrs	r2, r1
 80029ae:	61da      	str	r2, [r3, #28]
      htim->Instance->CCMR2 &= ~TIM_CCMR2_OC4FE;
 80029b0:	68fb      	ldr	r3, [r7, #12]
 80029b2:	681b      	ldr	r3, [r3, #0]
 80029b4:	69da      	ldr	r2, [r3, #28]
 80029b6:	68fb      	ldr	r3, [r7, #12]
 80029b8:	681b      	ldr	r3, [r3, #0]
 80029ba:	490d      	ldr	r1, [pc, #52]	; (80029f0 <HAL_TIM_PWM_ConfigChannel+0x16c>)
 80029bc:	400a      	ands	r2, r1
 80029be:	61da      	str	r2, [r3, #28]
      htim->Instance->CCMR2 |= sConfig->OCFastMode << 8U;
 80029c0:	68fb      	ldr	r3, [r7, #12]
 80029c2:	681b      	ldr	r3, [r3, #0]
 80029c4:	69d9      	ldr	r1, [r3, #28]
 80029c6:	68bb      	ldr	r3, [r7, #8]
 80029c8:	68db      	ldr	r3, [r3, #12]
 80029ca:	021a      	lsls	r2, r3, #8
 80029cc:	68fb      	ldr	r3, [r7, #12]
 80029ce:	681b      	ldr	r3, [r3, #0]
 80029d0:	430a      	orrs	r2, r1
 80029d2:	61da      	str	r2, [r3, #28]
      break;
 80029d4:	46c0      	nop			; (mov r8, r8)
  }

  htim->State = HAL_TIM_STATE_READY;
 80029d6:	68fb      	ldr	r3, [r7, #12]
 80029d8:	2239      	movs	r2, #57	; 0x39
 80029da:	2101      	movs	r1, #1
 80029dc:	5499      	strb	r1, [r3, r2]

  __HAL_UNLOCK(htim);
 80029de:	68fb      	ldr	r3, [r7, #12]
 80029e0:	2238      	movs	r2, #56	; 0x38
 80029e2:	2100      	movs	r1, #0
 80029e4:	5499      	strb	r1, [r3, r2]

  return HAL_OK;
 80029e6:	2300      	movs	r3, #0
}
 80029e8:	0018      	movs	r0, r3
 80029ea:	46bd      	mov	sp, r7
 80029ec:	b004      	add	sp, #16
 80029ee:	bd80      	pop	{r7, pc}
 80029f0:	fffffbff 	.word	0xfffffbff

080029f4 <HAL_TIM_ConfigClockSource>:
  * @param  sClockSourceConfig pointer to a TIM_ClockConfigTypeDef structure that
  *         contains the clock source information for the TIM peripheral.
  * @retval HAL status
  */
HAL_StatusTypeDef HAL_TIM_ConfigClockSource(TIM_HandleTypeDef *htim, TIM_ClockConfigTypeDef *sClockSourceConfig)
{
 80029f4:	b580      	push	{r7, lr}
 80029f6:	b084      	sub	sp, #16
 80029f8:	af00      	add	r7, sp, #0
 80029fa:	6078      	str	r0, [r7, #4]
 80029fc:	6039      	str	r1, [r7, #0]
  uint32_t tmpsmcr;

  /* Process Locked */
  __HAL_LOCK(htim);
 80029fe:	687b      	ldr	r3, [r7, #4]
 8002a00:	2238      	movs	r2, #56	; 0x38
 8002a02:	5c9b      	ldrb	r3, [r3, r2]
 8002a04:	2b01      	cmp	r3, #1
 8002a06:	d101      	bne.n	8002a0c <HAL_TIM_ConfigClockSource+0x18>
 8002a08:	2302      	movs	r3, #2
 8002a0a:	e0ab      	b.n	8002b64 <HAL_TIM_ConfigClockSource+0x170>
 8002a0c:	687b      	ldr	r3, [r7, #4]
 8002a0e:	2238      	movs	r2, #56	; 0x38
 8002a10:	2101      	movs	r1, #1
 8002a12:	5499      	strb	r1, [r3, r2]

  htim->State = HAL_TIM_STATE_BUSY;
 8002a14:	687b      	ldr	r3, [r7, #4]
 8002a16:	2239      	movs	r2, #57	; 0x39
 8002a18:	2102      	movs	r1, #2
 8002a1a:	5499      	strb	r1, [r3, r2]

  /* Check the parameters */
  assert_param(IS_TIM_CLOCKSOURCE(sClockSourceConfig->ClockSource));

  /* Reset the SMS, TS, ECE, ETPS and ETRF bits */
  tmpsmcr = htim->Instance->SMCR;
 8002a1c:	687b      	ldr	r3, [r7, #4]
 8002a1e:	681b      	ldr	r3, [r3, #0]
 8002a20:	689b      	ldr	r3, [r3, #8]
 8002a22:	60fb      	str	r3, [r7, #12]
  tmpsmcr &= ~(TIM_SMCR_SMS | TIM_SMCR_TS);
 8002a24:	68fb      	ldr	r3, [r7, #12]
 8002a26:	2277      	movs	r2, #119	; 0x77
 8002a28:	4393      	bics	r3, r2
 8002a2a:	60fb      	str	r3, [r7, #12]
  tmpsmcr &= ~(TIM_SMCR_ETF | TIM_SMCR_ETPS | TIM_SMCR_ECE | TIM_SMCR_ETP);
 8002a2c:	68fb      	ldr	r3, [r7, #12]
 8002a2e:	4a4f      	ldr	r2, [pc, #316]	; (8002b6c <HAL_TIM_ConfigClockSource+0x178>)
 8002a30:	4013      	ands	r3, r2
 8002a32:	60fb      	str	r3, [r7, #12]
  htim->Instance->SMCR = tmpsmcr;
 8002a34:	687b      	ldr	r3, [r7, #4]
 8002a36:	681b      	ldr	r3, [r3, #0]
 8002a38:	68fa      	ldr	r2, [r7, #12]
 8002a3a:	609a      	str	r2, [r3, #8]

  switch (sClockSourceConfig->ClockSource)
 8002a3c:	683b      	ldr	r3, [r7, #0]
 8002a3e:	681b      	ldr	r3, [r3, #0]
 8002a40:	2b40      	cmp	r3, #64	; 0x40
 8002a42:	d100      	bne.n	8002a46 <HAL_TIM_ConfigClockSource+0x52>
 8002a44:	e06b      	b.n	8002b1e <HAL_TIM_ConfigClockSource+0x12a>
 8002a46:	d80e      	bhi.n	8002a66 <HAL_TIM_ConfigClockSource+0x72>
 8002a48:	2b10      	cmp	r3, #16
 8002a4a:	d100      	bne.n	8002a4e <HAL_TIM_ConfigClockSource+0x5a>
 8002a4c:	e077      	b.n	8002b3e <HAL_TIM_ConfigClockSource+0x14a>
 8002a4e:	d803      	bhi.n	8002a58 <HAL_TIM_ConfigClockSource+0x64>
 8002a50:	2b00      	cmp	r3, #0
 8002a52:	d100      	bne.n	8002a56 <HAL_TIM_ConfigClockSource+0x62>
 8002a54:	e073      	b.n	8002b3e <HAL_TIM_ConfigClockSource+0x14a>
      TIM_ITRx_SetConfig(htim->Instance, sClockSourceConfig->ClockSource);
      break;
    }

    default:
      break;
 8002a56:	e07c      	b.n	8002b52 <HAL_TIM_ConfigClockSource+0x15e>
  switch (sClockSourceConfig->ClockSource)
 8002a58:	2b20      	cmp	r3, #32
 8002a5a:	d100      	bne.n	8002a5e <HAL_TIM_ConfigClockSource+0x6a>
 8002a5c:	e06f      	b.n	8002b3e <HAL_TIM_ConfigClockSource+0x14a>
 8002a5e:	2b30      	cmp	r3, #48	; 0x30
 8002a60:	d100      	bne.n	8002a64 <HAL_TIM_ConfigClockSource+0x70>
 8002a62:	e06c      	b.n	8002b3e <HAL_TIM_ConfigClockSource+0x14a>
      break;
 8002a64:	e075      	b.n	8002b52 <HAL_TIM_ConfigClockSource+0x15e>
  switch (sClockSourceConfig->ClockSource)
 8002a66:	2b70      	cmp	r3, #112	; 0x70
 8002a68:	d00e      	beq.n	8002a88 <HAL_TIM_ConfigClockSource+0x94>
 8002a6a:	d804      	bhi.n	8002a76 <HAL_TIM_ConfigClockSource+0x82>
 8002a6c:	2b50      	cmp	r3, #80	; 0x50
 8002a6e:	d036      	beq.n	8002ade <HAL_TIM_ConfigClockSource+0xea>
 8002a70:	2b60      	cmp	r3, #96	; 0x60
 8002a72:	d044      	beq.n	8002afe <HAL_TIM_ConfigClockSource+0x10a>
      break;
 8002a74:	e06d      	b.n	8002b52 <HAL_TIM_ConfigClockSource+0x15e>
  switch (sClockSourceConfig->ClockSource)
 8002a76:	2280      	movs	r2, #128	; 0x80
 8002a78:	0152      	lsls	r2, r2, #5
 8002a7a:	4293      	cmp	r3, r2
 8002a7c:	d068      	beq.n	8002b50 <HAL_TIM_ConfigClockSource+0x15c>
 8002a7e:	2280      	movs	r2, #128	; 0x80
 8002a80:	0192      	lsls	r2, r2, #6
 8002a82:	4293      	cmp	r3, r2
 8002a84:	d017      	beq.n	8002ab6 <HAL_TIM_ConfigClockSource+0xc2>
      break;
 8002a86:	e064      	b.n	8002b52 <HAL_TIM_ConfigClockSource+0x15e>
      TIM_ETR_SetConfig(htim->Instance,
 8002a88:	687b      	ldr	r3, [r7, #4]
 8002a8a:	6818      	ldr	r0, [r3, #0]
 8002a8c:	683b      	ldr	r3, [r7, #0]
 8002a8e:	6899      	ldr	r1, [r3, #8]
 8002a90:	683b      	ldr	r3, [r7, #0]
 8002a92:	685a      	ldr	r2, [r3, #4]
 8002a94:	683b      	ldr	r3, [r7, #0]
 8002a96:	68db      	ldr	r3, [r3, #12]
 8002a98:	f000 fa5a 	bl	8002f50 <TIM_ETR_SetConfig>
      tmpsmcr = htim->Instance->SMCR;
 8002a9c:	687b      	ldr	r3, [r7, #4]
 8002a9e:	681b      	ldr	r3, [r3, #0]
 8002aa0:	689b      	ldr	r3, [r3, #8]
 8002aa2:	60fb      	str	r3, [r7, #12]
      tmpsmcr |= (TIM_SLAVEMODE_EXTERNAL1 | TIM_CLOCKSOURCE_ETRMODE1);
 8002aa4:	68fb      	ldr	r3, [r7, #12]
 8002aa6:	2277      	movs	r2, #119	; 0x77
 8002aa8:	4313      	orrs	r3, r2
 8002aaa:	60fb      	str	r3, [r7, #12]
      htim->Instance->SMCR = tmpsmcr;
 8002aac:	687b      	ldr	r3, [r7, #4]
 8002aae:	681b      	ldr	r3, [r3, #0]
 8002ab0:	68fa      	ldr	r2, [r7, #12]
 8002ab2:	609a      	str	r2, [r3, #8]
      break;
 8002ab4:	e04d      	b.n	8002b52 <HAL_TIM_ConfigClockSource+0x15e>
      TIM_ETR_SetConfig(htim->Instance,
 8002ab6:	687b      	ldr	r3, [r7, #4]
 8002ab8:	6818      	ldr	r0, [r3, #0]
 8002aba:	683b      	ldr	r3, [r7, #0]
 8002abc:	6899      	ldr	r1, [r3, #8]
 8002abe:	683b      	ldr	r3, [r7, #0]
 8002ac0:	685a      	ldr	r2, [r3, #4]
 8002ac2:	683b      	ldr	r3, [r7, #0]
 8002ac4:	68db      	ldr	r3, [r3, #12]
 8002ac6:	f000 fa43 	bl	8002f50 <TIM_ETR_SetConfig>
      htim->Instance->SMCR |= TIM_SMCR_ECE;
 8002aca:	687b      	ldr	r3, [r7, #4]
 8002acc:	681b      	ldr	r3, [r3, #0]
 8002ace:	689a      	ldr	r2, [r3, #8]
 8002ad0:	687b      	ldr	r3, [r7, #4]
 8002ad2:	681b      	ldr	r3, [r3, #0]
 8002ad4:	2180      	movs	r1, #128	; 0x80
 8002ad6:	01c9      	lsls	r1, r1, #7
 8002ad8:	430a      	orrs	r2, r1
 8002ada:	609a      	str	r2, [r3, #8]
      break;
 8002adc:	e039      	b.n	8002b52 <HAL_TIM_ConfigClockSource+0x15e>
      TIM_TI1_ConfigInputStage(htim->Instance,
 8002ade:	687b      	ldr	r3, [r7, #4]
 8002ae0:	6818      	ldr	r0, [r3, #0]
 8002ae2:	683b      	ldr	r3, [r7, #0]
 8002ae4:	6859      	ldr	r1, [r3, #4]
 8002ae6:	683b      	ldr	r3, [r7, #0]
 8002ae8:	68db      	ldr	r3, [r3, #12]
 8002aea:	001a      	movs	r2, r3
 8002aec:	f000 f9b6 	bl	8002e5c <TIM_TI1_ConfigInputStage>
      TIM_ITRx_SetConfig(htim->Instance, TIM_CLOCKSOURCE_TI1);
 8002af0:	687b      	ldr	r3, [r7, #4]
 8002af2:	681b      	ldr	r3, [r3, #0]
 8002af4:	2150      	movs	r1, #80	; 0x50
 8002af6:	0018      	movs	r0, r3
 8002af8:	f000 fa10 	bl	8002f1c <TIM_ITRx_SetConfig>
      break;
 8002afc:	e029      	b.n	8002b52 <HAL_TIM_ConfigClockSource+0x15e>
      TIM_TI2_ConfigInputStage(htim->Instance,
 8002afe:	687b      	ldr	r3, [r7, #4]
 8002b00:	6818      	ldr	r0, [r3, #0]
 8002b02:	683b      	ldr	r3, [r7, #0]
 8002b04:	6859      	ldr	r1, [r3, #4]
 8002b06:	683b      	ldr	r3, [r7, #0]
 8002b08:	68db      	ldr	r3, [r3, #12]
 8002b0a:	001a      	movs	r2, r3
 8002b0c:	f000 f9d4 	bl	8002eb8 <TIM_TI2_ConfigInputStage>
      TIM_ITRx_SetConfig(htim->Instance, TIM_CLOCKSOURCE_TI2);
 8002b10:	687b      	ldr	r3, [r7, #4]
 8002b12:	681b      	ldr	r3, [r3, #0]
 8002b14:	2160      	movs	r1, #96	; 0x60
 8002b16:	0018      	movs	r0, r3
 8002b18:	f000 fa00 	bl	8002f1c <TIM_ITRx_SetConfig>
      break;
 8002b1c:	e019      	b.n	8002b52 <HAL_TIM_ConfigClockSource+0x15e>
      TIM_TI1_ConfigInputStage(htim->Instance,
 8002b1e:	687b      	ldr	r3, [r7, #4]
 8002b20:	6818      	ldr	r0, [r3, #0]
 8002b22:	683b      	ldr	r3, [r7, #0]
 8002b24:	6859      	ldr	r1, [r3, #4]
 8002b26:	683b      	ldr	r3, [r7, #0]
 8002b28:	68db      	ldr	r3, [r3, #12]
 8002b2a:	001a      	movs	r2, r3
 8002b2c:	f000 f996 	bl	8002e5c <TIM_TI1_ConfigInputStage>
      TIM_ITRx_SetConfig(htim->Instance, TIM_CLOCKSOURCE_TI1ED);
 8002b30:	687b      	ldr	r3, [r7, #4]
 8002b32:	681b      	ldr	r3, [r3, #0]
 8002b34:	2140      	movs	r1, #64	; 0x40
 8002b36:	0018      	movs	r0, r3
 8002b38:	f000 f9f0 	bl	8002f1c <TIM_ITRx_SetConfig>
      break;
 8002b3c:	e009      	b.n	8002b52 <HAL_TIM_ConfigClockSource+0x15e>
      TIM_ITRx_SetConfig(htim->Instance, sClockSourceConfig->ClockSource);
 8002b3e:	687b      	ldr	r3, [r7, #4]
 8002b40:	681a      	ldr	r2, [r3, #0]
 8002b42:	683b      	ldr	r3, [r7, #0]
 8002b44:	681b      	ldr	r3, [r3, #0]
 8002b46:	0019      	movs	r1, r3
 8002b48:	0010      	movs	r0, r2
 8002b4a:	f000 f9e7 	bl	8002f1c <TIM_ITRx_SetConfig>
      break;
 8002b4e:	e000      	b.n	8002b52 <HAL_TIM_ConfigClockSource+0x15e>
      break;
 8002b50:	46c0      	nop			; (mov r8, r8)
  }
  htim->State = HAL_TIM_STATE_READY;
 8002b52:	687b      	ldr	r3, [r7, #4]
 8002b54:	2239      	movs	r2, #57	; 0x39
 8002b56:	2101      	movs	r1, #1
 8002b58:	5499      	strb	r1, [r3, r2]

  __HAL_UNLOCK(htim);
 8002b5a:	687b      	ldr	r3, [r7, #4]
 8002b5c:	2238      	movs	r2, #56	; 0x38
 8002b5e:	2100      	movs	r1, #0
 8002b60:	5499      	strb	r1, [r3, r2]

  return HAL_OK;
 8002b62:	2300      	movs	r3, #0
}
 8002b64:	0018      	movs	r0, r3
 8002b66:	46bd      	mov	sp, r7
 8002b68:	b004      	add	sp, #16
 8002b6a:	bd80      	pop	{r7, pc}
 8002b6c:	ffff00ff 	.word	0xffff00ff

08002b70 <HAL_TIM_PeriodElapsedCallback>:
  * @brief  Period elapsed callback in non-blocking mode
  * @param  htim TIM handle
  * @retval None
  */
__weak void HAL_TIM_PeriodElapsedCallback(TIM_HandleTypeDef *htim)
{
 8002b70:	b580      	push	{r7, lr}
 8002b72:	b082      	sub	sp, #8
 8002b74:	af00      	add	r7, sp, #0
 8002b76:	6078      	str	r0, [r7, #4]
  UNUSED(htim);

  /* NOTE : This function should not be modified, when the callback is needed,
            the HAL_TIM_PeriodElapsedCallback could be implemented in the user file
   */
}
 8002b78:	46c0      	nop			; (mov r8, r8)
 8002b7a:	46bd      	mov	sp, r7
 8002b7c:	b002      	add	sp, #8
 8002b7e:	bd80      	pop	{r7, pc}

08002b80 <HAL_TIM_OC_DelayElapsedCallback>:
  * @brief  Output Compare callback in non-blocking mode
  * @param  htim TIM OC handle
  * @retval None
  */
__weak void HAL_TIM_OC_DelayElapsedCallback(TIM_HandleTypeDef *htim)
{
 8002b80:	b580      	push	{r7, lr}
 8002b82:	b082      	sub	sp, #8
 8002b84:	af00      	add	r7, sp, #0
 8002b86:	6078      	str	r0, [r7, #4]
  UNUSED(htim);

  /* NOTE : This function should not be modified, when the callback is needed,
            the HAL_TIM_OC_DelayElapsedCallback could be implemented in the user file
   */
}
 8002b88:	46c0      	nop			; (mov r8, r8)
 8002b8a:	46bd      	mov	sp, r7
 8002b8c:	b002      	add	sp, #8
 8002b8e:	bd80      	pop	{r7, pc}

08002b90 <HAL_TIM_IC_CaptureCallback>:
  * @brief  Input Capture callback in non-blocking mode
  * @param  htim TIM IC handle
  * @retval None
  */
__weak void HAL_TIM_IC_CaptureCallback(TIM_HandleTypeDef *htim)
{
 8002b90:	b580      	push	{r7, lr}
 8002b92:	b082      	sub	sp, #8
 8002b94:	af00      	add	r7, sp, #0
 8002b96:	6078      	str	r0, [r7, #4]
  UNUSED(htim);

  /* NOTE : This function should not be modified, when the callback is needed,
            the HAL_TIM_IC_CaptureCallback could be implemented in the user file
   */
}
 8002b98:	46c0      	nop			; (mov r8, r8)
 8002b9a:	46bd      	mov	sp, r7
 8002b9c:	b002      	add	sp, #8
 8002b9e:	bd80      	pop	{r7, pc}

08002ba0 <HAL_TIM_PWM_PulseFinishedCallback>:
  * @brief  PWM Pulse finished callback in non-blocking mode
  * @param  htim TIM handle
  * @retval None
  */
__weak void HAL_TIM_PWM_PulseFinishedCallback(TIM_HandleTypeDef *htim)
{
 8002ba0:	b580      	push	{r7, lr}
 8002ba2:	b082      	sub	sp, #8
 8002ba4:	af00      	add	r7, sp, #0
 8002ba6:	6078      	str	r0, [r7, #4]
  UNUSED(htim);

  /* NOTE : This function should not be modified, when the callback is needed,
            the HAL_TIM_PWM_PulseFinishedCallback could be implemented in the user file
   */
}
 8002ba8:	46c0      	nop			; (mov r8, r8)
 8002baa:	46bd      	mov	sp, r7
 8002bac:	b002      	add	sp, #8
 8002bae:	bd80      	pop	{r7, pc}

08002bb0 <HAL_TIM_TriggerCallback>:
  * @brief  Hall Trigger detection callback in non-blocking mode
  * @param  htim TIM handle
  * @retval None
  */
__weak void HAL_TIM_TriggerCallback(TIM_HandleTypeDef *htim)
{
 8002bb0:	b580      	push	{r7, lr}
 8002bb2:	b082      	sub	sp, #8
 8002bb4:	af00      	add	r7, sp, #0
 8002bb6:	6078      	str	r0, [r7, #4]
  UNUSED(htim);

  /* NOTE : This function should not be modified, when the callback is needed,
            the HAL_TIM_TriggerCallback could be implemented in the user file
   */
}
 8002bb8:	46c0      	nop			; (mov r8, r8)
 8002bba:	46bd      	mov	sp, r7
 8002bbc:	b002      	add	sp, #8
 8002bbe:	bd80      	pop	{r7, pc}

08002bc0 <TIM_Base_SetConfig>:
  * @param  TIMx TIM peripheral
  * @param  Structure TIM Base configuration structure
  * @retval None
  */
void TIM_Base_SetConfig(TIM_TypeDef *TIMx, TIM_Base_InitTypeDef *Structure)
{
 8002bc0:	b580      	push	{r7, lr}
 8002bc2:	b084      	sub	sp, #16
 8002bc4:	af00      	add	r7, sp, #0
 8002bc6:	6078      	str	r0, [r7, #4]
 8002bc8:	6039      	str	r1, [r7, #0]
  uint32_t tmpcr1;
  tmpcr1 = TIMx->CR1;
 8002bca:	687b      	ldr	r3, [r7, #4]
 8002bcc:	681b      	ldr	r3, [r3, #0]
 8002bce:	60fb      	str	r3, [r7, #12]

  /* Set TIM Time Base Unit parameters ---------------------------------------*/
  if (IS_TIM_COUNTER_MODE_SELECT_INSTANCE(TIMx))
 8002bd0:	687a      	ldr	r2, [r7, #4]
 8002bd2:	2380      	movs	r3, #128	; 0x80
 8002bd4:	05db      	lsls	r3, r3, #23
 8002bd6:	429a      	cmp	r2, r3
 8002bd8:	d003      	beq.n	8002be2 <TIM_Base_SetConfig+0x22>
 8002bda:	687b      	ldr	r3, [r7, #4]
 8002bdc:	4a1b      	ldr	r2, [pc, #108]	; (8002c4c <TIM_Base_SetConfig+0x8c>)
 8002bde:	4293      	cmp	r3, r2
 8002be0:	d108      	bne.n	8002bf4 <TIM_Base_SetConfig+0x34>
  {
    /* Select the Counter Mode */
    tmpcr1 &= ~(TIM_CR1_DIR | TIM_CR1_CMS);
 8002be2:	68fb      	ldr	r3, [r7, #12]
 8002be4:	2270      	movs	r2, #112	; 0x70
 8002be6:	4393      	bics	r3, r2
 8002be8:	60fb      	str	r3, [r7, #12]
    tmpcr1 |= Structure->CounterMode;
 8002bea:	683b      	ldr	r3, [r7, #0]
 8002bec:	685b      	ldr	r3, [r3, #4]
 8002bee:	68fa      	ldr	r2, [r7, #12]
 8002bf0:	4313      	orrs	r3, r2
 8002bf2:	60fb      	str	r3, [r7, #12]
  }

  if (IS_TIM_CLOCK_DIVISION_INSTANCE(TIMx))
 8002bf4:	687a      	ldr	r2, [r7, #4]
 8002bf6:	2380      	movs	r3, #128	; 0x80
 8002bf8:	05db      	lsls	r3, r3, #23
 8002bfa:	429a      	cmp	r2, r3
 8002bfc:	d003      	beq.n	8002c06 <TIM_Base_SetConfig+0x46>
 8002bfe:	687b      	ldr	r3, [r7, #4]
 8002c00:	4a12      	ldr	r2, [pc, #72]	; (8002c4c <TIM_Base_SetConfig+0x8c>)
 8002c02:	4293      	cmp	r3, r2
 8002c04:	d108      	bne.n	8002c18 <TIM_Base_SetConfig+0x58>
  {
    /* Set the clock division */
    tmpcr1 &= ~TIM_CR1_CKD;
 8002c06:	68fb      	ldr	r3, [r7, #12]
 8002c08:	4a11      	ldr	r2, [pc, #68]	; (8002c50 <TIM_Base_SetConfig+0x90>)
 8002c0a:	4013      	ands	r3, r2
 8002c0c:	60fb      	str	r3, [r7, #12]
    tmpcr1 |= (uint32_t)Structure->ClockDivision;
 8002c0e:	683b      	ldr	r3, [r7, #0]
 8002c10:	68db      	ldr	r3, [r3, #12]
 8002c12:	68fa      	ldr	r2, [r7, #12]
 8002c14:	4313      	orrs	r3, r2
 8002c16:	60fb      	str	r3, [r7, #12]
  }

  /* Set the auto-reload preload */
  MODIFY_REG(tmpcr1, TIM_CR1_ARPE, Structure->AutoReloadPreload);
 8002c18:	68fb      	ldr	r3, [r7, #12]
 8002c1a:	2280      	movs	r2, #128	; 0x80
 8002c1c:	4393      	bics	r3, r2
 8002c1e:	001a      	movs	r2, r3
 8002c20:	683b      	ldr	r3, [r7, #0]
 8002c22:	691b      	ldr	r3, [r3, #16]
 8002c24:	4313      	orrs	r3, r2
 8002c26:	60fb      	str	r3, [r7, #12]

  TIMx->CR1 = tmpcr1;
 8002c28:	687b      	ldr	r3, [r7, #4]
 8002c2a:	68fa      	ldr	r2, [r7, #12]
 8002c2c:	601a      	str	r2, [r3, #0]

  /* Set the Autoreload value */
  TIMx->ARR = (uint32_t)Structure->Period ;
 8002c2e:	683b      	ldr	r3, [r7, #0]
 8002c30:	689a      	ldr	r2, [r3, #8]
 8002c32:	687b      	ldr	r3, [r7, #4]
 8002c34:	62da      	str	r2, [r3, #44]	; 0x2c

  /* Set the Prescaler value */
  TIMx->PSC = Structure->Prescaler;
 8002c36:	683b      	ldr	r3, [r7, #0]
 8002c38:	681a      	ldr	r2, [r3, #0]
 8002c3a:	687b      	ldr	r3, [r7, #4]
 8002c3c:	629a      	str	r2, [r3, #40]	; 0x28

  /* Generate an update event to reload the Prescaler
     and the repetition counter (only for advanced timer) value immediately */
  TIMx->EGR = TIM_EGR_UG;
 8002c3e:	687b      	ldr	r3, [r7, #4]
 8002c40:	2201      	movs	r2, #1
 8002c42:	615a      	str	r2, [r3, #20]
}
 8002c44:	46c0      	nop			; (mov r8, r8)
 8002c46:	46bd      	mov	sp, r7
 8002c48:	b004      	add	sp, #16
 8002c4a:	bd80      	pop	{r7, pc}
 8002c4c:	40010800 	.word	0x40010800
 8002c50:	fffffcff 	.word	0xfffffcff

08002c54 <TIM_OC1_SetConfig>:
  * @param  TIMx to select the TIM peripheral
  * @param  OC_Config The ouput configuration structure
  * @retval None
  */
static void TIM_OC1_SetConfig(TIM_TypeDef *TIMx, TIM_OC_InitTypeDef *OC_Config)
{
 8002c54:	b580      	push	{r7, lr}
 8002c56:	b086      	sub	sp, #24
 8002c58:	af00      	add	r7, sp, #0
 8002c5a:	6078      	str	r0, [r7, #4]
 8002c5c:	6039      	str	r1, [r7, #0]
  uint32_t tmpccmrx;
  uint32_t tmpccer;
  uint32_t tmpcr2;

  /* Disable the Channel 1: Reset the CC1E Bit */
  TIMx->CCER &= ~TIM_CCER_CC1E;
 8002c5e:	687b      	ldr	r3, [r7, #4]
 8002c60:	6a1b      	ldr	r3, [r3, #32]
 8002c62:	2201      	movs	r2, #1
 8002c64:	4393      	bics	r3, r2
 8002c66:	001a      	movs	r2, r3
 8002c68:	687b      	ldr	r3, [r7, #4]
 8002c6a:	621a      	str	r2, [r3, #32]

  /* Get the TIMx CCER register value */
  tmpccer = TIMx->CCER;
 8002c6c:	687b      	ldr	r3, [r7, #4]
 8002c6e:	6a1b      	ldr	r3, [r3, #32]
 8002c70:	617b      	str	r3, [r7, #20]
  /* Get the TIMx CR2 register value */
  tmpcr2 =  TIMx->CR2;
 8002c72:	687b      	ldr	r3, [r7, #4]
 8002c74:	685b      	ldr	r3, [r3, #4]
 8002c76:	613b      	str	r3, [r7, #16]

  /* Get the TIMx CCMR1 register value */
  tmpccmrx = TIMx->CCMR1;
 8002c78:	687b      	ldr	r3, [r7, #4]
 8002c7a:	699b      	ldr	r3, [r3, #24]
 8002c7c:	60fb      	str	r3, [r7, #12]

  /* Reset the Output Compare Mode Bits */
  tmpccmrx &= ~TIM_CCMR1_OC1M;
 8002c7e:	68fb      	ldr	r3, [r7, #12]
 8002c80:	2270      	movs	r2, #112	; 0x70
 8002c82:	4393      	bics	r3, r2
 8002c84:	60fb      	str	r3, [r7, #12]
  tmpccmrx &= ~TIM_CCMR1_CC1S;
 8002c86:	68fb      	ldr	r3, [r7, #12]
 8002c88:	2203      	movs	r2, #3
 8002c8a:	4393      	bics	r3, r2
 8002c8c:	60fb      	str	r3, [r7, #12]
  /* Select the Output Compare Mode */
  tmpccmrx |= OC_Config->OCMode;
 8002c8e:	683b      	ldr	r3, [r7, #0]
 8002c90:	681b      	ldr	r3, [r3, #0]
 8002c92:	68fa      	ldr	r2, [r7, #12]
 8002c94:	4313      	orrs	r3, r2
 8002c96:	60fb      	str	r3, [r7, #12]

  /* Reset the Output Polarity level */
  tmpccer &= ~TIM_CCER_CC1P;
 8002c98:	697b      	ldr	r3, [r7, #20]
 8002c9a:	2202      	movs	r2, #2
 8002c9c:	4393      	bics	r3, r2
 8002c9e:	617b      	str	r3, [r7, #20]
  /* Set the Output Compare Polarity */
  tmpccer |= OC_Config->OCPolarity;
 8002ca0:	683b      	ldr	r3, [r7, #0]
 8002ca2:	689b      	ldr	r3, [r3, #8]
 8002ca4:	697a      	ldr	r2, [r7, #20]
 8002ca6:	4313      	orrs	r3, r2
 8002ca8:	617b      	str	r3, [r7, #20]

  /* Write to TIMx CR2 */
  TIMx->CR2 = tmpcr2;
 8002caa:	687b      	ldr	r3, [r7, #4]
 8002cac:	693a      	ldr	r2, [r7, #16]
 8002cae:	605a      	str	r2, [r3, #4]

  /* Write to TIMx CCMR1 */
  TIMx->CCMR1 = tmpccmrx;
 8002cb0:	687b      	ldr	r3, [r7, #4]
 8002cb2:	68fa      	ldr	r2, [r7, #12]
 8002cb4:	619a      	str	r2, [r3, #24]

  /* Set the Capture Compare Register value */
  TIMx->CCR1 = OC_Config->Pulse;
 8002cb6:	683b      	ldr	r3, [r7, #0]
 8002cb8:	685a      	ldr	r2, [r3, #4]
 8002cba:	687b      	ldr	r3, [r7, #4]
 8002cbc:	635a      	str	r2, [r3, #52]	; 0x34

  /* Write to TIMx CCER */
  TIMx->CCER = tmpccer;
 8002cbe:	687b      	ldr	r3, [r7, #4]
 8002cc0:	697a      	ldr	r2, [r7, #20]
 8002cc2:	621a      	str	r2, [r3, #32]
}
 8002cc4:	46c0      	nop			; (mov r8, r8)
 8002cc6:	46bd      	mov	sp, r7
 8002cc8:	b006      	add	sp, #24
 8002cca:	bd80      	pop	{r7, pc}

08002ccc <TIM_OC2_SetConfig>:
  * @param  TIMx to select the TIM peripheral
  * @param  OC_Config The ouput configuration structure
  * @retval None
  */
static void TIM_OC2_SetConfig(TIM_TypeDef *TIMx, TIM_OC_InitTypeDef *OC_Config)
{
 8002ccc:	b580      	push	{r7, lr}
 8002cce:	b086      	sub	sp, #24
 8002cd0:	af00      	add	r7, sp, #0
 8002cd2:	6078      	str	r0, [r7, #4]
 8002cd4:	6039      	str	r1, [r7, #0]
  uint32_t tmpccmrx;
  uint32_t tmpccer;
  uint32_t tmpcr2;

  /* Disable the Channel 2: Reset the CC2E Bit */
  TIMx->CCER &= ~TIM_CCER_CC2E;
 8002cd6:	687b      	ldr	r3, [r7, #4]
 8002cd8:	6a1b      	ldr	r3, [r3, #32]
 8002cda:	2210      	movs	r2, #16
 8002cdc:	4393      	bics	r3, r2
 8002cde:	001a      	movs	r2, r3
 8002ce0:	687b      	ldr	r3, [r7, #4]
 8002ce2:	621a      	str	r2, [r3, #32]

  /* Get the TIMx CCER register value */
  tmpccer = TIMx->CCER;
 8002ce4:	687b      	ldr	r3, [r7, #4]
 8002ce6:	6a1b      	ldr	r3, [r3, #32]
 8002ce8:	617b      	str	r3, [r7, #20]
  /* Get the TIMx CR2 register value */
  tmpcr2 =  TIMx->CR2;
 8002cea:	687b      	ldr	r3, [r7, #4]
 8002cec:	685b      	ldr	r3, [r3, #4]
 8002cee:	613b      	str	r3, [r7, #16]

  /* Get the TIMx CCMR1 register value */
  tmpccmrx = TIMx->CCMR1;
 8002cf0:	687b      	ldr	r3, [r7, #4]
 8002cf2:	699b      	ldr	r3, [r3, #24]
 8002cf4:	60fb      	str	r3, [r7, #12]

  /* Reset the Output Compare mode and Capture/Compare selection Bits */
  tmpccmrx &= ~TIM_CCMR1_OC2M;
 8002cf6:	68fb      	ldr	r3, [r7, #12]
 8002cf8:	4a13      	ldr	r2, [pc, #76]	; (8002d48 <TIM_OC2_SetConfig+0x7c>)
 8002cfa:	4013      	ands	r3, r2
 8002cfc:	60fb      	str	r3, [r7, #12]
  tmpccmrx &= ~TIM_CCMR1_CC2S;
 8002cfe:	68fb      	ldr	r3, [r7, #12]
 8002d00:	4a12      	ldr	r2, [pc, #72]	; (8002d4c <TIM_OC2_SetConfig+0x80>)
 8002d02:	4013      	ands	r3, r2
 8002d04:	60fb      	str	r3, [r7, #12]

  /* Select the Output Compare Mode */
  tmpccmrx |= (OC_Config->OCMode << 8U);
 8002d06:	683b      	ldr	r3, [r7, #0]
 8002d08:	681b      	ldr	r3, [r3, #0]
 8002d0a:	021b      	lsls	r3, r3, #8
 8002d0c:	68fa      	ldr	r2, [r7, #12]
 8002d0e:	4313      	orrs	r3, r2
 8002d10:	60fb      	str	r3, [r7, #12]

  /* Reset the Output Polarity level */
  tmpccer &= ~TIM_CCER_CC2P;
 8002d12:	697b      	ldr	r3, [r7, #20]
 8002d14:	2220      	movs	r2, #32
 8002d16:	4393      	bics	r3, r2
 8002d18:	617b      	str	r3, [r7, #20]
  /* Set the Output Compare Polarity */
  tmpccer |= (OC_Config->OCPolarity << 4U);
 8002d1a:	683b      	ldr	r3, [r7, #0]
 8002d1c:	689b      	ldr	r3, [r3, #8]
 8002d1e:	011b      	lsls	r3, r3, #4
 8002d20:	697a      	ldr	r2, [r7, #20]
 8002d22:	4313      	orrs	r3, r2
 8002d24:	617b      	str	r3, [r7, #20]

  /* Write to TIMx CR2 */
  TIMx->CR2 = tmpcr2;
 8002d26:	687b      	ldr	r3, [r7, #4]
 8002d28:	693a      	ldr	r2, [r7, #16]
 8002d2a:	605a      	str	r2, [r3, #4]

  /* Write to TIMx CCMR1 */
  TIMx->CCMR1 = tmpccmrx;
 8002d2c:	687b      	ldr	r3, [r7, #4]
 8002d2e:	68fa      	ldr	r2, [r7, #12]
 8002d30:	619a      	str	r2, [r3, #24]

  /* Set the Capture Compare Register value */
  TIMx->CCR2 = OC_Config->Pulse;
 8002d32:	683b      	ldr	r3, [r7, #0]
 8002d34:	685a      	ldr	r2, [r3, #4]
 8002d36:	687b      	ldr	r3, [r7, #4]
 8002d38:	639a      	str	r2, [r3, #56]	; 0x38

  /* Write to TIMx CCER */
  TIMx->CCER = tmpccer;
 8002d3a:	687b      	ldr	r3, [r7, #4]
 8002d3c:	697a      	ldr	r2, [r7, #20]
 8002d3e:	621a      	str	r2, [r3, #32]
}
 8002d40:	46c0      	nop			; (mov r8, r8)
 8002d42:	46bd      	mov	sp, r7
 8002d44:	b006      	add	sp, #24
 8002d46:	bd80      	pop	{r7, pc}
 8002d48:	ffff8fff 	.word	0xffff8fff
 8002d4c:	fffffcff 	.word	0xfffffcff

08002d50 <TIM_OC3_SetConfig>:
  * @param  TIMx to select the TIM peripheral
  * @param  OC_Config The ouput configuration structure
  * @retval None
  */
static void TIM_OC3_SetConfig(TIM_TypeDef *TIMx, TIM_OC_InitTypeDef *OC_Config)
{
 8002d50:	b580      	push	{r7, lr}
 8002d52:	b086      	sub	sp, #24
 8002d54:	af00      	add	r7, sp, #0
 8002d56:	6078      	str	r0, [r7, #4]
 8002d58:	6039      	str	r1, [r7, #0]
  uint32_t tmpccmrx;
  uint32_t tmpccer;
  uint32_t tmpcr2;

  /* Disable the Channel 3: Reset the CC2E Bit */
  TIMx->CCER &= ~TIM_CCER_CC3E;
 8002d5a:	687b      	ldr	r3, [r7, #4]
 8002d5c:	6a1b      	ldr	r3, [r3, #32]
 8002d5e:	4a1a      	ldr	r2, [pc, #104]	; (8002dc8 <TIM_OC3_SetConfig+0x78>)
 8002d60:	401a      	ands	r2, r3
 8002d62:	687b      	ldr	r3, [r7, #4]
 8002d64:	621a      	str	r2, [r3, #32]

  /* Get the TIMx CCER register value */
  tmpccer = TIMx->CCER;
 8002d66:	687b      	ldr	r3, [r7, #4]
 8002d68:	6a1b      	ldr	r3, [r3, #32]
 8002d6a:	617b      	str	r3, [r7, #20]
  /* Get the TIMx CR2 register value */
  tmpcr2 =  TIMx->CR2;
 8002d6c:	687b      	ldr	r3, [r7, #4]
 8002d6e:	685b      	ldr	r3, [r3, #4]
 8002d70:	613b      	str	r3, [r7, #16]

  /* Get the TIMx CCMR2 register value */
  tmpccmrx = TIMx->CCMR2;
 8002d72:	687b      	ldr	r3, [r7, #4]
 8002d74:	69db      	ldr	r3, [r3, #28]
 8002d76:	60fb      	str	r3, [r7, #12]

  /* Reset the Output Compare mode and Capture/Compare selection Bits */
  tmpccmrx &= ~TIM_CCMR2_OC3M;
 8002d78:	68fb      	ldr	r3, [r7, #12]
 8002d7a:	2270      	movs	r2, #112	; 0x70
 8002d7c:	4393      	bics	r3, r2
 8002d7e:	60fb      	str	r3, [r7, #12]
  tmpccmrx &= ~TIM_CCMR2_CC3S;
 8002d80:	68fb      	ldr	r3, [r7, #12]
 8002d82:	2203      	movs	r2, #3
 8002d84:	4393      	bics	r3, r2
 8002d86:	60fb      	str	r3, [r7, #12]
  /* Select the Output Compare Mode */
  tmpccmrx |= OC_Config->OCMode;
 8002d88:	683b      	ldr	r3, [r7, #0]
 8002d8a:	681b      	ldr	r3, [r3, #0]
 8002d8c:	68fa      	ldr	r2, [r7, #12]
 8002d8e:	4313      	orrs	r3, r2
 8002d90:	60fb      	str	r3, [r7, #12]

  /* Reset the Output Polarity level */
  tmpccer &= ~TIM_CCER_CC3P;
 8002d92:	697b      	ldr	r3, [r7, #20]
 8002d94:	4a0d      	ldr	r2, [pc, #52]	; (8002dcc <TIM_OC3_SetConfig+0x7c>)
 8002d96:	4013      	ands	r3, r2
 8002d98:	617b      	str	r3, [r7, #20]
  /* Set the Output Compare Polarity */
  tmpccer |= (OC_Config->OCPolarity << 8U);
 8002d9a:	683b      	ldr	r3, [r7, #0]
 8002d9c:	689b      	ldr	r3, [r3, #8]
 8002d9e:	021b      	lsls	r3, r3, #8
 8002da0:	697a      	ldr	r2, [r7, #20]
 8002da2:	4313      	orrs	r3, r2
 8002da4:	617b      	str	r3, [r7, #20]

  /* Write to TIMx CR2 */
  TIMx->CR2 = tmpcr2;
 8002da6:	687b      	ldr	r3, [r7, #4]
 8002da8:	693a      	ldr	r2, [r7, #16]
 8002daa:	605a      	str	r2, [r3, #4]

  /* Write to TIMx CCMR2 */
  TIMx->CCMR2 = tmpccmrx;
 8002dac:	687b      	ldr	r3, [r7, #4]
 8002dae:	68fa      	ldr	r2, [r7, #12]
 8002db0:	61da      	str	r2, [r3, #28]

  /* Set the Capture Compare Register value */
  TIMx->CCR3 = OC_Config->Pulse;
 8002db2:	683b      	ldr	r3, [r7, #0]
 8002db4:	685a      	ldr	r2, [r3, #4]
 8002db6:	687b      	ldr	r3, [r7, #4]
 8002db8:	63da      	str	r2, [r3, #60]	; 0x3c

  /* Write to TIMx CCER */
  TIMx->CCER = tmpccer;
 8002dba:	687b      	ldr	r3, [r7, #4]
 8002dbc:	697a      	ldr	r2, [r7, #20]
 8002dbe:	621a      	str	r2, [r3, #32]
}
 8002dc0:	46c0      	nop			; (mov r8, r8)
 8002dc2:	46bd      	mov	sp, r7
 8002dc4:	b006      	add	sp, #24
 8002dc6:	bd80      	pop	{r7, pc}
 8002dc8:	fffffeff 	.word	0xfffffeff
 8002dcc:	fffffdff 	.word	0xfffffdff

08002dd0 <TIM_OC4_SetConfig>:
  * @param  TIMx to select the TIM peripheral
  * @param  OC_Config The ouput configuration structure
  * @retval None
  */
static void TIM_OC4_SetConfig(TIM_TypeDef *TIMx, TIM_OC_InitTypeDef *OC_Config)
{
 8002dd0:	b580      	push	{r7, lr}
 8002dd2:	b086      	sub	sp, #24
 8002dd4:	af00      	add	r7, sp, #0
 8002dd6:	6078      	str	r0, [r7, #4]
 8002dd8:	6039      	str	r1, [r7, #0]
  uint32_t tmpccmrx;
  uint32_t tmpccer;
  uint32_t tmpcr2;

  /* Disable the Channel 4: Reset the CC4E Bit */
  TIMx->CCER &= ~TIM_CCER_CC4E;
 8002dda:	687b      	ldr	r3, [r7, #4]
 8002ddc:	6a1b      	ldr	r3, [r3, #32]
 8002dde:	4a1b      	ldr	r2, [pc, #108]	; (8002e4c <TIM_OC4_SetConfig+0x7c>)
 8002de0:	401a      	ands	r2, r3
 8002de2:	687b      	ldr	r3, [r7, #4]
 8002de4:	621a      	str	r2, [r3, #32]

  /* Get the TIMx CCER register value */
  tmpccer = TIMx->CCER;
 8002de6:	687b      	ldr	r3, [r7, #4]
 8002de8:	6a1b      	ldr	r3, [r3, #32]
 8002dea:	617b      	str	r3, [r7, #20]
  /* Get the TIMx CR2 register value */
  tmpcr2 =  TIMx->CR2;
 8002dec:	687b      	ldr	r3, [r7, #4]
 8002dee:	685b      	ldr	r3, [r3, #4]
 8002df0:	613b      	str	r3, [r7, #16]

  /* Get the TIMx CCMR2 register value */
  tmpccmrx = TIMx->CCMR2;
 8002df2:	687b      	ldr	r3, [r7, #4]
 8002df4:	69db      	ldr	r3, [r3, #28]
 8002df6:	60fb      	str	r3, [r7, #12]

  /* Reset the Output Compare mode and Capture/Compare selection Bits */
  tmpccmrx &= ~TIM_CCMR2_OC4M;
 8002df8:	68fb      	ldr	r3, [r7, #12]
 8002dfa:	4a15      	ldr	r2, [pc, #84]	; (8002e50 <TIM_OC4_SetConfig+0x80>)
 8002dfc:	4013      	ands	r3, r2
 8002dfe:	60fb      	str	r3, [r7, #12]
  tmpccmrx &= ~TIM_CCMR2_CC4S;
 8002e00:	68fb      	ldr	r3, [r7, #12]
 8002e02:	4a14      	ldr	r2, [pc, #80]	; (8002e54 <TIM_OC4_SetConfig+0x84>)
 8002e04:	4013      	ands	r3, r2
 8002e06:	60fb      	str	r3, [r7, #12]

  /* Select the Output Compare Mode */
  tmpccmrx |= (OC_Config->OCMode << 8U);
 8002e08:	683b      	ldr	r3, [r7, #0]
 8002e0a:	681b      	ldr	r3, [r3, #0]
 8002e0c:	021b      	lsls	r3, r3, #8
 8002e0e:	68fa      	ldr	r2, [r7, #12]
 8002e10:	4313      	orrs	r3, r2
 8002e12:	60fb      	str	r3, [r7, #12]

  /* Reset the Output Polarity level */
  tmpccer &= ~TIM_CCER_CC4P;
 8002e14:	697b      	ldr	r3, [r7, #20]
 8002e16:	4a10      	ldr	r2, [pc, #64]	; (8002e58 <TIM_OC4_SetConfig+0x88>)
 8002e18:	4013      	ands	r3, r2
 8002e1a:	617b      	str	r3, [r7, #20]
  /* Set the Output Compare Polarity */
  tmpccer |= (OC_Config->OCPolarity << 12U);
 8002e1c:	683b      	ldr	r3, [r7, #0]
 8002e1e:	689b      	ldr	r3, [r3, #8]
 8002e20:	031b      	lsls	r3, r3, #12
 8002e22:	697a      	ldr	r2, [r7, #20]
 8002e24:	4313      	orrs	r3, r2
 8002e26:	617b      	str	r3, [r7, #20]

  /* Write to TIMx CR2 */
  TIMx->CR2 = tmpcr2;
 8002e28:	687b      	ldr	r3, [r7, #4]
 8002e2a:	693a      	ldr	r2, [r7, #16]
 8002e2c:	605a      	str	r2, [r3, #4]

  /* Write to TIMx CCMR2 */
  TIMx->CCMR2 = tmpccmrx;
 8002e2e:	687b      	ldr	r3, [r7, #4]
 8002e30:	68fa      	ldr	r2, [r7, #12]
 8002e32:	61da      	str	r2, [r3, #28]

  /* Set the Capture Compare Register value */
  TIMx->CCR4 = OC_Config->Pulse;
 8002e34:	683b      	ldr	r3, [r7, #0]
 8002e36:	685a      	ldr	r2, [r3, #4]
 8002e38:	687b      	ldr	r3, [r7, #4]
 8002e3a:	641a      	str	r2, [r3, #64]	; 0x40

  /* Write to TIMx CCER */
  TIMx->CCER = tmpccer;
 8002e3c:	687b      	ldr	r3, [r7, #4]
 8002e3e:	697a      	ldr	r2, [r7, #20]
 8002e40:	621a      	str	r2, [r3, #32]
}
 8002e42:	46c0      	nop			; (mov r8, r8)
 8002e44:	46bd      	mov	sp, r7
 8002e46:	b006      	add	sp, #24
 8002e48:	bd80      	pop	{r7, pc}
 8002e4a:	46c0      	nop			; (mov r8, r8)
 8002e4c:	ffffefff 	.word	0xffffefff
 8002e50:	ffff8fff 	.word	0xffff8fff
 8002e54:	fffffcff 	.word	0xfffffcff
 8002e58:	ffffdfff 	.word	0xffffdfff

08002e5c <TIM_TI1_ConfigInputStage>:
  * @param  TIM_ICFilter Specifies the Input Capture Filter.
  *          This parameter must be a value between 0x00 and 0x0F.
  * @retval None
  */
static void TIM_TI1_ConfigInputStage(TIM_TypeDef *TIMx, uint32_t TIM_ICPolarity, uint32_t TIM_ICFilter)
{
 8002e5c:	b580      	push	{r7, lr}
 8002e5e:	b086      	sub	sp, #24
 8002e60:	af00      	add	r7, sp, #0
 8002e62:	60f8      	str	r0, [r7, #12]
 8002e64:	60b9      	str	r1, [r7, #8]
 8002e66:	607a      	str	r2, [r7, #4]
  uint32_t tmpccmr1;
  uint32_t tmpccer;

  /* Disable the Channel 1: Reset the CC1E Bit */
  tmpccer = TIMx->CCER;
 8002e68:	68fb      	ldr	r3, [r7, #12]
 8002e6a:	6a1b      	ldr	r3, [r3, #32]
 8002e6c:	617b      	str	r3, [r7, #20]
  TIMx->CCER &= ~TIM_CCER_CC1E;
 8002e6e:	68fb      	ldr	r3, [r7, #12]
 8002e70:	6a1b      	ldr	r3, [r3, #32]
 8002e72:	2201      	movs	r2, #1
 8002e74:	4393      	bics	r3, r2
 8002e76:	001a      	movs	r2, r3
 8002e78:	68fb      	ldr	r3, [r7, #12]
 8002e7a:	621a      	str	r2, [r3, #32]
  tmpccmr1 = TIMx->CCMR1;
 8002e7c:	68fb      	ldr	r3, [r7, #12]
 8002e7e:	699b      	ldr	r3, [r3, #24]
 8002e80:	613b      	str	r3, [r7, #16]

  /* Set the filter */
  tmpccmr1 &= ~TIM_CCMR1_IC1F;
 8002e82:	693b      	ldr	r3, [r7, #16]
 8002e84:	22f0      	movs	r2, #240	; 0xf0
 8002e86:	4393      	bics	r3, r2
 8002e88:	613b      	str	r3, [r7, #16]
  tmpccmr1 |= (TIM_ICFilter << 4U);
 8002e8a:	687b      	ldr	r3, [r7, #4]
 8002e8c:	011b      	lsls	r3, r3, #4
 8002e8e:	693a      	ldr	r2, [r7, #16]
 8002e90:	4313      	orrs	r3, r2
 8002e92:	613b      	str	r3, [r7, #16]

  /* Select the Polarity and set the CC1E Bit */
  tmpccer &= ~(TIM_CCER_CC1P | TIM_CCER_CC1NP);
 8002e94:	697b      	ldr	r3, [r7, #20]
 8002e96:	220a      	movs	r2, #10
 8002e98:	4393      	bics	r3, r2
 8002e9a:	617b      	str	r3, [r7, #20]
  tmpccer |= TIM_ICPolarity;
 8002e9c:	697a      	ldr	r2, [r7, #20]
 8002e9e:	68bb      	ldr	r3, [r7, #8]
 8002ea0:	4313      	orrs	r3, r2
 8002ea2:	617b      	str	r3, [r7, #20]

  /* Write to TIMx CCMR1 and CCER registers */
  TIMx->CCMR1 = tmpccmr1;
 8002ea4:	68fb      	ldr	r3, [r7, #12]
 8002ea6:	693a      	ldr	r2, [r7, #16]
 8002ea8:	619a      	str	r2, [r3, #24]
  TIMx->CCER = tmpccer;
 8002eaa:	68fb      	ldr	r3, [r7, #12]
 8002eac:	697a      	ldr	r2, [r7, #20]
 8002eae:	621a      	str	r2, [r3, #32]
}
 8002eb0:	46c0      	nop			; (mov r8, r8)
 8002eb2:	46bd      	mov	sp, r7
 8002eb4:	b006      	add	sp, #24
 8002eb6:	bd80      	pop	{r7, pc}

08002eb8 <TIM_TI2_ConfigInputStage>:
  * @param  TIM_ICFilter Specifies the Input Capture Filter.
  *          This parameter must be a value between 0x00 and 0x0F.
  * @retval None
  */
static void TIM_TI2_ConfigInputStage(TIM_TypeDef *TIMx, uint32_t TIM_ICPolarity, uint32_t TIM_ICFilter)
{
 8002eb8:	b580      	push	{r7, lr}
 8002eba:	b086      	sub	sp, #24
 8002ebc:	af00      	add	r7, sp, #0
 8002ebe:	60f8      	str	r0, [r7, #12]
 8002ec0:	60b9      	str	r1, [r7, #8]
 8002ec2:	607a      	str	r2, [r7, #4]
  uint32_t tmpccmr1;
  uint32_t tmpccer;

  /* Disable the Channel 2: Reset the CC2E Bit */
  TIMx->CCER &= ~TIM_CCER_CC2E;
 8002ec4:	68fb      	ldr	r3, [r7, #12]
 8002ec6:	6a1b      	ldr	r3, [r3, #32]
 8002ec8:	2210      	movs	r2, #16
 8002eca:	4393      	bics	r3, r2
 8002ecc:	001a      	movs	r2, r3
 8002ece:	68fb      	ldr	r3, [r7, #12]
 8002ed0:	621a      	str	r2, [r3, #32]
  tmpccmr1 = TIMx->CCMR1;
 8002ed2:	68fb      	ldr	r3, [r7, #12]
 8002ed4:	699b      	ldr	r3, [r3, #24]
 8002ed6:	617b      	str	r3, [r7, #20]
  tmpccer = TIMx->CCER;
 8002ed8:	68fb      	ldr	r3, [r7, #12]
 8002eda:	6a1b      	ldr	r3, [r3, #32]
 8002edc:	613b      	str	r3, [r7, #16]

  /* Set the filter */
  tmpccmr1 &= ~TIM_CCMR1_IC2F;
 8002ede:	697b      	ldr	r3, [r7, #20]
 8002ee0:	4a0d      	ldr	r2, [pc, #52]	; (8002f18 <TIM_TI2_ConfigInputStage+0x60>)
 8002ee2:	4013      	ands	r3, r2
 8002ee4:	617b      	str	r3, [r7, #20]
  tmpccmr1 |= (TIM_ICFilter << 12U);
 8002ee6:	687b      	ldr	r3, [r7, #4]
 8002ee8:	031b      	lsls	r3, r3, #12
 8002eea:	697a      	ldr	r2, [r7, #20]
 8002eec:	4313      	orrs	r3, r2
 8002eee:	617b      	str	r3, [r7, #20]

  /* Select the Polarity and set the CC2E Bit */
  tmpccer &= ~(TIM_CCER_CC2P | TIM_CCER_CC2NP);
 8002ef0:	693b      	ldr	r3, [r7, #16]
 8002ef2:	22a0      	movs	r2, #160	; 0xa0
 8002ef4:	4393      	bics	r3, r2
 8002ef6:	613b      	str	r3, [r7, #16]
  tmpccer |= (TIM_ICPolarity << 4U);
 8002ef8:	68bb      	ldr	r3, [r7, #8]
 8002efa:	011b      	lsls	r3, r3, #4
 8002efc:	693a      	ldr	r2, [r7, #16]
 8002efe:	4313      	orrs	r3, r2
 8002f00:	613b      	str	r3, [r7, #16]

  /* Write to TIMx CCMR1 and CCER registers */
  TIMx->CCMR1 = tmpccmr1 ;
 8002f02:	68fb      	ldr	r3, [r7, #12]
 8002f04:	697a      	ldr	r2, [r7, #20]
 8002f06:	619a      	str	r2, [r3, #24]
  TIMx->CCER = tmpccer;
 8002f08:	68fb      	ldr	r3, [r7, #12]
 8002f0a:	693a      	ldr	r2, [r7, #16]
 8002f0c:	621a      	str	r2, [r3, #32]
}
 8002f0e:	46c0      	nop			; (mov r8, r8)
 8002f10:	46bd      	mov	sp, r7
 8002f12:	b006      	add	sp, #24
 8002f14:	bd80      	pop	{r7, pc}
 8002f16:	46c0      	nop			; (mov r8, r8)
 8002f18:	ffff0fff 	.word	0xffff0fff

08002f1c <TIM_ITRx_SetConfig>:
  *            @arg TIM_TS_TI2FP2: Filtered Timer Input 2
  *            @arg TIM_TS_ETRF: External Trigger input
  * @retval None
  */
static void TIM_ITRx_SetConfig(TIM_TypeDef *TIMx, uint32_t InputTriggerSource)
{
 8002f1c:	b580      	push	{r7, lr}
 8002f1e:	b084      	sub	sp, #16
 8002f20:	af00      	add	r7, sp, #0
 8002f22:	6078      	str	r0, [r7, #4]
 8002f24:	6039      	str	r1, [r7, #0]
  uint32_t tmpsmcr;

  /* Get the TIMx SMCR register value */
  tmpsmcr = TIMx->SMCR;
 8002f26:	687b      	ldr	r3, [r7, #4]
 8002f28:	689b      	ldr	r3, [r3, #8]
 8002f2a:	60fb      	str	r3, [r7, #12]
  /* Reset the TS Bits */
  tmpsmcr &= ~TIM_SMCR_TS;
 8002f2c:	68fb      	ldr	r3, [r7, #12]
 8002f2e:	2270      	movs	r2, #112	; 0x70
 8002f30:	4393      	bics	r3, r2
 8002f32:	60fb      	str	r3, [r7, #12]
  /* Set the Input Trigger source and the slave mode*/
  tmpsmcr |= (InputTriggerSource | TIM_SLAVEMODE_EXTERNAL1);
 8002f34:	683a      	ldr	r2, [r7, #0]
 8002f36:	68fb      	ldr	r3, [r7, #12]
 8002f38:	4313      	orrs	r3, r2
 8002f3a:	2207      	movs	r2, #7
 8002f3c:	4313      	orrs	r3, r2
 8002f3e:	60fb      	str	r3, [r7, #12]
  /* Write to TIMx SMCR */
  TIMx->SMCR = tmpsmcr;
 8002f40:	687b      	ldr	r3, [r7, #4]
 8002f42:	68fa      	ldr	r2, [r7, #12]
 8002f44:	609a      	str	r2, [r3, #8]
}
 8002f46:	46c0      	nop			; (mov r8, r8)
 8002f48:	46bd      	mov	sp, r7
 8002f4a:	b004      	add	sp, #16
 8002f4c:	bd80      	pop	{r7, pc}
	...

08002f50 <TIM_ETR_SetConfig>:
  *          This parameter must be a value between 0x00 and 0x0F
  * @retval None
  */
static void TIM_ETR_SetConfig(TIM_TypeDef *TIMx, uint32_t TIM_ExtTRGPrescaler,
                              uint32_t TIM_ExtTRGPolarity, uint32_t ExtTRGFilter)
{
 8002f50:	b580      	push	{r7, lr}
 8002f52:	b086      	sub	sp, #24
 8002f54:	af00      	add	r7, sp, #0
 8002f56:	60f8      	str	r0, [r7, #12]
 8002f58:	60b9      	str	r1, [r7, #8]
 8002f5a:	607a      	str	r2, [r7, #4]
 8002f5c:	603b      	str	r3, [r7, #0]
  uint32_t tmpsmcr;

  tmpsmcr = TIMx->SMCR;
 8002f5e:	68fb      	ldr	r3, [r7, #12]
 8002f60:	689b      	ldr	r3, [r3, #8]
 8002f62:	617b      	str	r3, [r7, #20]

  /* Reset the ETR Bits */
  tmpsmcr &= ~(TIM_SMCR_ETF | TIM_SMCR_ETPS | TIM_SMCR_ECE | TIM_SMCR_ETP);
 8002f64:	697b      	ldr	r3, [r7, #20]
 8002f66:	4a09      	ldr	r2, [pc, #36]	; (8002f8c <TIM_ETR_SetConfig+0x3c>)
 8002f68:	4013      	ands	r3, r2
 8002f6a:	617b      	str	r3, [r7, #20]

  /* Set the Prescaler, the Filter value and the Polarity */
  tmpsmcr |= (uint32_t)(TIM_ExtTRGPrescaler | (TIM_ExtTRGPolarity | (ExtTRGFilter << 8U)));
 8002f6c:	683b      	ldr	r3, [r7, #0]
 8002f6e:	021a      	lsls	r2, r3, #8
 8002f70:	687b      	ldr	r3, [r7, #4]
 8002f72:	431a      	orrs	r2, r3
 8002f74:	68bb      	ldr	r3, [r7, #8]
 8002f76:	4313      	orrs	r3, r2
 8002f78:	697a      	ldr	r2, [r7, #20]
 8002f7a:	4313      	orrs	r3, r2
 8002f7c:	617b      	str	r3, [r7, #20]

  /* Write to TIMx SMCR */
  TIMx->SMCR = tmpsmcr;
 8002f7e:	68fb      	ldr	r3, [r7, #12]
 8002f80:	697a      	ldr	r2, [r7, #20]
 8002f82:	609a      	str	r2, [r3, #8]
}
 8002f84:	46c0      	nop			; (mov r8, r8)
 8002f86:	46bd      	mov	sp, r7
 8002f88:	b006      	add	sp, #24
 8002f8a:	bd80      	pop	{r7, pc}
 8002f8c:	ffff00ff 	.word	0xffff00ff

08002f90 <TIM_CCxChannelCmd>:
  * @param  ChannelState specifies the TIM Channel CCxE bit new state.
  *          This parameter can be: TIM_CCx_ENABLE or TIM_CCx_DISABLE.
  * @retval None
  */
static void TIM_CCxChannelCmd(TIM_TypeDef *TIMx, uint32_t Channel, uint32_t ChannelState)
{
 8002f90:	b580      	push	{r7, lr}
 8002f92:	b086      	sub	sp, #24
 8002f94:	af00      	add	r7, sp, #0
 8002f96:	60f8      	str	r0, [r7, #12]
 8002f98:	60b9      	str	r1, [r7, #8]
 8002f9a:	607a      	str	r2, [r7, #4]

  /* Check the parameters */
  assert_param(IS_TIM_CC1_INSTANCE(TIMx));
  assert_param(IS_TIM_CHANNELS(Channel));

  tmp = TIM_CCER_CC1E << (Channel & 0x1FU); /* 0x1FU = 31 bits max shift */
 8002f9c:	68bb      	ldr	r3, [r7, #8]
 8002f9e:	221f      	movs	r2, #31
 8002fa0:	4013      	ands	r3, r2
 8002fa2:	2201      	movs	r2, #1
 8002fa4:	409a      	lsls	r2, r3
 8002fa6:	0013      	movs	r3, r2
 8002fa8:	617b      	str	r3, [r7, #20]

  /* Reset the CCxE Bit */
  TIMx->CCER &= ~tmp;
 8002faa:	68fb      	ldr	r3, [r7, #12]
 8002fac:	6a1b      	ldr	r3, [r3, #32]
 8002fae:	697a      	ldr	r2, [r7, #20]
 8002fb0:	43d2      	mvns	r2, r2
 8002fb2:	401a      	ands	r2, r3
 8002fb4:	68fb      	ldr	r3, [r7, #12]
 8002fb6:	621a      	str	r2, [r3, #32]

  /* Set or reset the CCxE Bit */
  TIMx->CCER |= (uint32_t)(ChannelState << (Channel & 0x1FU)); /* 0x1FU = 31 bits max shift */
 8002fb8:	68fb      	ldr	r3, [r7, #12]
 8002fba:	6a1a      	ldr	r2, [r3, #32]
 8002fbc:	68bb      	ldr	r3, [r7, #8]
 8002fbe:	211f      	movs	r1, #31
 8002fc0:	400b      	ands	r3, r1
 8002fc2:	6879      	ldr	r1, [r7, #4]
 8002fc4:	4099      	lsls	r1, r3
 8002fc6:	000b      	movs	r3, r1
 8002fc8:	431a      	orrs	r2, r3
 8002fca:	68fb      	ldr	r3, [r7, #12]
 8002fcc:	621a      	str	r2, [r3, #32]
}
 8002fce:	46c0      	nop			; (mov r8, r8)
 8002fd0:	46bd      	mov	sp, r7
 8002fd2:	b006      	add	sp, #24
 8002fd4:	bd80      	pop	{r7, pc}

08002fd6 <HAL_TIMEx_MasterConfigSynchronization>:
  *         mode.
  * @retval HAL status
  */
HAL_StatusTypeDef HAL_TIMEx_MasterConfigSynchronization(TIM_HandleTypeDef *htim,
                                                        TIM_MasterConfigTypeDef *sMasterConfig)
{
 8002fd6:	b580      	push	{r7, lr}
 8002fd8:	b084      	sub	sp, #16
 8002fda:	af00      	add	r7, sp, #0
 8002fdc:	6078      	str	r0, [r7, #4]
 8002fde:	6039      	str	r1, [r7, #0]
  assert_param(IS_TIM_SYNCHRO_INSTANCE(htim->Instance));
  assert_param(IS_TIM_TRGO_SOURCE(sMasterConfig->MasterOutputTrigger));
  assert_param(IS_TIM_MSM_STATE(sMasterConfig->MasterSlaveMode));

  /* Check input state */
  __HAL_LOCK(htim);
 8002fe0:	687b      	ldr	r3, [r7, #4]
 8002fe2:	2238      	movs	r2, #56	; 0x38
 8002fe4:	5c9b      	ldrb	r3, [r3, r2]
 8002fe6:	2b01      	cmp	r3, #1
 8002fe8:	d101      	bne.n	8002fee <HAL_TIMEx_MasterConfigSynchronization+0x18>
 8002fea:	2302      	movs	r3, #2
 8002fec:	e032      	b.n	8003054 <HAL_TIMEx_MasterConfigSynchronization+0x7e>
 8002fee:	687b      	ldr	r3, [r7, #4]
 8002ff0:	2238      	movs	r2, #56	; 0x38
 8002ff2:	2101      	movs	r1, #1
 8002ff4:	5499      	strb	r1, [r3, r2]

  /* Change the handler state */
  htim->State = HAL_TIM_STATE_BUSY;
 8002ff6:	687b      	ldr	r3, [r7, #4]
 8002ff8:	2239      	movs	r2, #57	; 0x39
 8002ffa:	2102      	movs	r1, #2
 8002ffc:	5499      	strb	r1, [r3, r2]

  /* Get the TIMx CR2 register value */
  tmpcr2 = htim->Instance->CR2;
 8002ffe:	687b      	ldr	r3, [r7, #4]
 8003000:	681b      	ldr	r3, [r3, #0]
 8003002:	685b      	ldr	r3, [r3, #4]
 8003004:	60fb      	str	r3, [r7, #12]

  /* Get the TIMx SMCR register value */
  tmpsmcr = htim->Instance->SMCR;
 8003006:	687b      	ldr	r3, [r7, #4]
 8003008:	681b      	ldr	r3, [r3, #0]
 800300a:	689b      	ldr	r3, [r3, #8]
 800300c:	60bb      	str	r3, [r7, #8]

  /* Reset the MMS Bits */
  tmpcr2 &= ~TIM_CR2_MMS;
 800300e:	68fb      	ldr	r3, [r7, #12]
 8003010:	2270      	movs	r2, #112	; 0x70
 8003012:	4393      	bics	r3, r2
 8003014:	60fb      	str	r3, [r7, #12]
  /* Select the TRGO source */
  tmpcr2 |=  sMasterConfig->MasterOutputTrigger;
 8003016:	683b      	ldr	r3, [r7, #0]
 8003018:	681b      	ldr	r3, [r3, #0]
 800301a:	68fa      	ldr	r2, [r7, #12]
 800301c:	4313      	orrs	r3, r2
 800301e:	60fb      	str	r3, [r7, #12]

  /* Reset the MSM Bit */
  tmpsmcr &= ~TIM_SMCR_MSM;
 8003020:	68bb      	ldr	r3, [r7, #8]
 8003022:	2280      	movs	r2, #128	; 0x80
 8003024:	4393      	bics	r3, r2
 8003026:	60bb      	str	r3, [r7, #8]
  /* Set master mode */
  tmpsmcr |= sMasterConfig->MasterSlaveMode;
 8003028:	683b      	ldr	r3, [r7, #0]
 800302a:	685b      	ldr	r3, [r3, #4]
 800302c:	68ba      	ldr	r2, [r7, #8]
 800302e:	4313      	orrs	r3, r2
 8003030:	60bb      	str	r3, [r7, #8]

  /* Update TIMx CR2 */
  htim->Instance->CR2 = tmpcr2;
 8003032:	687b      	ldr	r3, [r7, #4]
 8003034:	681b      	ldr	r3, [r3, #0]
 8003036:	68fa      	ldr	r2, [r7, #12]
 8003038:	605a      	str	r2, [r3, #4]

  /* Update TIMx SMCR */
  htim->Instance->SMCR = tmpsmcr;
 800303a:	687b      	ldr	r3, [r7, #4]
 800303c:	681b      	ldr	r3, [r3, #0]
 800303e:	68ba      	ldr	r2, [r7, #8]
 8003040:	609a      	str	r2, [r3, #8]

  /* Change the htim state */
  htim->State = HAL_TIM_STATE_READY;
 8003042:	687b      	ldr	r3, [r7, #4]
 8003044:	2239      	movs	r2, #57	; 0x39
 8003046:	2101      	movs	r1, #1
 8003048:	5499      	strb	r1, [r3, r2]

  __HAL_UNLOCK(htim);
 800304a:	687b      	ldr	r3, [r7, #4]
 800304c:	2238      	movs	r2, #56	; 0x38
 800304e:	2100      	movs	r1, #0
 8003050:	5499      	strb	r1, [r3, r2]

  return HAL_OK;
 8003052:	2300      	movs	r3, #0
}
 8003054:	0018      	movs	r0, r3
 8003056:	46bd      	mov	sp, r7
 8003058:	b004      	add	sp, #16
 800305a:	bd80      	pop	{r7, pc}

0800305c <__libc_init_array>:
 800305c:	b570      	push	{r4, r5, r6, lr}
 800305e:	2600      	movs	r6, #0
 8003060:	4d0c      	ldr	r5, [pc, #48]	; (8003094 <__libc_init_array+0x38>)
 8003062:	4c0d      	ldr	r4, [pc, #52]	; (8003098 <__libc_init_array+0x3c>)
 8003064:	1b64      	subs	r4, r4, r5
 8003066:	10a4      	asrs	r4, r4, #2
 8003068:	42a6      	cmp	r6, r4
 800306a:	d109      	bne.n	8003080 <__libc_init_array+0x24>
 800306c:	2600      	movs	r6, #0
 800306e:	f000 f821 	bl	80030b4 <_init>
 8003072:	4d0a      	ldr	r5, [pc, #40]	; (800309c <__libc_init_array+0x40>)
 8003074:	4c0a      	ldr	r4, [pc, #40]	; (80030a0 <__libc_init_array+0x44>)
 8003076:	1b64      	subs	r4, r4, r5
 8003078:	10a4      	asrs	r4, r4, #2
 800307a:	42a6      	cmp	r6, r4
 800307c:	d105      	bne.n	800308a <__libc_init_array+0x2e>
 800307e:	bd70      	pop	{r4, r5, r6, pc}
 8003080:	00b3      	lsls	r3, r6, #2
 8003082:	58eb      	ldr	r3, [r5, r3]
 8003084:	4798      	blx	r3
 8003086:	3601      	adds	r6, #1
 8003088:	e7ee      	b.n	8003068 <__libc_init_array+0xc>
 800308a:	00b3      	lsls	r3, r6, #2
 800308c:	58eb      	ldr	r3, [r5, r3]
 800308e:	4798      	blx	r3
 8003090:	3601      	adds	r6, #1
 8003092:	e7f2      	b.n	800307a <__libc_init_array+0x1e>
 8003094:	080030e8 	.word	0x080030e8
 8003098:	080030e8 	.word	0x080030e8
 800309c:	080030e8 	.word	0x080030e8
 80030a0:	080030ec 	.word	0x080030ec

080030a4 <memset>:
 80030a4:	0003      	movs	r3, r0
 80030a6:	1812      	adds	r2, r2, r0
 80030a8:	4293      	cmp	r3, r2
 80030aa:	d100      	bne.n	80030ae <memset+0xa>
 80030ac:	4770      	bx	lr
 80030ae:	7019      	strb	r1, [r3, #0]
 80030b0:	3301      	adds	r3, #1
 80030b2:	e7f9      	b.n	80030a8 <memset+0x4>

080030b4 <_init>:
 80030b4:	b5f8      	push	{r3, r4, r5, r6, r7, lr}
 80030b6:	46c0      	nop			; (mov r8, r8)
 80030b8:	bcf8      	pop	{r3, r4, r5, r6, r7}
 80030ba:	bc08      	pop	{r3}
 80030bc:	469e      	mov	lr, r3
 80030be:	4770      	bx	lr

080030c0 <_fini>:
 80030c0:	b5f8      	push	{r3, r4, r5, r6, r7, lr}
 80030c2:	46c0      	nop			; (mov r8, r8)
 80030c4:	bcf8      	pop	{r3, r4, r5, r6, r7}
 80030c6:	bc08      	pop	{r3}
 80030c8:	469e      	mov	lr, r3
 80030ca:	4770      	bx	lr
